   1              	 .syntax unified
   2              	 .cpu cortex-m4
   3              	 .eabi_attribute 27,3
   4              	 .fpu fpv4-sp-d16
   5              	 .eabi_attribute 20,1
   6              	 .eabi_attribute 21,1
   7              	 .eabi_attribute 23,3
   8              	 .eabi_attribute 24,1
   9              	 .eabi_attribute 25,1
  10              	 .eabi_attribute 26,1
  11              	 .eabi_attribute 30,6
  12              	 .eabi_attribute 34,1
  13              	 .eabi_attribute 18,4
  14              	 .thumb
  15              	 .file "arm_cfft_radix2_q15.c"
  16              	 .text
  17              	.Ltext0:
  18              	 .cfi_sections .debug_frame
  19              	 .section .text.arm_cfft_radix2_q15,"ax",%progbits
  20              	 .align 2
  21              	 .global arm_cfft_radix2_q15
  22              	 .thumb
  23              	 .thumb_func
  25              	arm_cfft_radix2_q15:
  26              	.LFB139:
  27              	 .file 1 "../Dave/Generated/CMSIS_DSP/TransformFunctions/arm_cfft_radix2_q15.c"
   1:../Dave/Generated/CMSIS_DSP/TransformFunctions/arm_cfft_radix2_q15.c **** /* ----------------------------------------------------------------------   
   2:../Dave/Generated/CMSIS_DSP/TransformFunctions/arm_cfft_radix2_q15.c **** * Copyright (C) 2010-2014 ARM Limited. All rights reserved.   
   3:../Dave/Generated/CMSIS_DSP/TransformFunctions/arm_cfft_radix2_q15.c **** *   
   4:../Dave/Generated/CMSIS_DSP/TransformFunctions/arm_cfft_radix2_q15.c **** * $Date:        31. July 2014 
   5:../Dave/Generated/CMSIS_DSP/TransformFunctions/arm_cfft_radix2_q15.c **** * $Revision: 	V1.4.4  
   6:../Dave/Generated/CMSIS_DSP/TransformFunctions/arm_cfft_radix2_q15.c **** *   
   7:../Dave/Generated/CMSIS_DSP/TransformFunctions/arm_cfft_radix2_q15.c **** * Project: 	    CMSIS DSP Library   
   8:../Dave/Generated/CMSIS_DSP/TransformFunctions/arm_cfft_radix2_q15.c **** * Title:	    arm_cfft_radix2_q15.c   
   9:../Dave/Generated/CMSIS_DSP/TransformFunctions/arm_cfft_radix2_q15.c **** *   
  10:../Dave/Generated/CMSIS_DSP/TransformFunctions/arm_cfft_radix2_q15.c **** * Description:	Radix-2 Decimation in Frequency CFFT & CIFFT Fixed point processing function   
  11:../Dave/Generated/CMSIS_DSP/TransformFunctions/arm_cfft_radix2_q15.c **** *   
  12:../Dave/Generated/CMSIS_DSP/TransformFunctions/arm_cfft_radix2_q15.c **** *   
  13:../Dave/Generated/CMSIS_DSP/TransformFunctions/arm_cfft_radix2_q15.c **** * Target Processor: Cortex-M4/Cortex-M3/Cortex-M0
  14:../Dave/Generated/CMSIS_DSP/TransformFunctions/arm_cfft_radix2_q15.c **** *  
  15:../Dave/Generated/CMSIS_DSP/TransformFunctions/arm_cfft_radix2_q15.c **** * Redistribution and use in source and binary forms, with or without 
  16:../Dave/Generated/CMSIS_DSP/TransformFunctions/arm_cfft_radix2_q15.c **** * modification, are permitted provided that the following conditions
  17:../Dave/Generated/CMSIS_DSP/TransformFunctions/arm_cfft_radix2_q15.c **** * are met:
  18:../Dave/Generated/CMSIS_DSP/TransformFunctions/arm_cfft_radix2_q15.c **** *   - Redistributions of source code must retain the above copyright
  19:../Dave/Generated/CMSIS_DSP/TransformFunctions/arm_cfft_radix2_q15.c **** *     notice, this list of conditions and the following disclaimer.
  20:../Dave/Generated/CMSIS_DSP/TransformFunctions/arm_cfft_radix2_q15.c **** *   - Redistributions in binary form must reproduce the above copyright
  21:../Dave/Generated/CMSIS_DSP/TransformFunctions/arm_cfft_radix2_q15.c **** *     notice, this list of conditions and the following disclaimer in
  22:../Dave/Generated/CMSIS_DSP/TransformFunctions/arm_cfft_radix2_q15.c **** *     the documentation and/or other materials provided with the 
  23:../Dave/Generated/CMSIS_DSP/TransformFunctions/arm_cfft_radix2_q15.c **** *     distribution.
  24:../Dave/Generated/CMSIS_DSP/TransformFunctions/arm_cfft_radix2_q15.c **** *   - Neither the name of ARM LIMITED nor the names of its contributors
  25:../Dave/Generated/CMSIS_DSP/TransformFunctions/arm_cfft_radix2_q15.c **** *     may be used to endorse or promote products derived from this
  26:../Dave/Generated/CMSIS_DSP/TransformFunctions/arm_cfft_radix2_q15.c **** *     software without specific prior written permission.
  27:../Dave/Generated/CMSIS_DSP/TransformFunctions/arm_cfft_radix2_q15.c **** *
  28:../Dave/Generated/CMSIS_DSP/TransformFunctions/arm_cfft_radix2_q15.c **** * THIS SOFTWARE IS PROVIDED BY THE COPYRIGHT HOLDERS AND CONTRIBUTORS
  29:../Dave/Generated/CMSIS_DSP/TransformFunctions/arm_cfft_radix2_q15.c **** * "AS IS" AND ANY EXPRESS OR IMPLIED WARRANTIES, INCLUDING, BUT NOT
  30:../Dave/Generated/CMSIS_DSP/TransformFunctions/arm_cfft_radix2_q15.c **** * LIMITED TO, THE IMPLIED WARRANTIES OF MERCHANTABILITY AND FITNESS
  31:../Dave/Generated/CMSIS_DSP/TransformFunctions/arm_cfft_radix2_q15.c **** * FOR A PARTICULAR PURPOSE ARE DISCLAIMED. IN NO EVENT SHALL THE 
  32:../Dave/Generated/CMSIS_DSP/TransformFunctions/arm_cfft_radix2_q15.c **** * COPYRIGHT OWNER OR CONTRIBUTORS BE LIABLE FOR ANY DIRECT, INDIRECT,
  33:../Dave/Generated/CMSIS_DSP/TransformFunctions/arm_cfft_radix2_q15.c **** * INCIDENTAL, SPECIAL, EXEMPLARY, OR CONSEQUENTIAL DAMAGES (INCLUDING,
  34:../Dave/Generated/CMSIS_DSP/TransformFunctions/arm_cfft_radix2_q15.c **** * BUT NOT LIMITED TO, PROCUREMENT OF SUBSTITUTE GOODS OR SERVICES;
  35:../Dave/Generated/CMSIS_DSP/TransformFunctions/arm_cfft_radix2_q15.c **** * LOSS OF USE, DATA, OR PROFITS; OR BUSINESS INTERRUPTION) HOWEVER
  36:../Dave/Generated/CMSIS_DSP/TransformFunctions/arm_cfft_radix2_q15.c **** * CAUSED AND ON ANY THEORY OF LIABILITY, WHETHER IN CONTRACT, STRICT
  37:../Dave/Generated/CMSIS_DSP/TransformFunctions/arm_cfft_radix2_q15.c **** * LIABILITY, OR TORT (INCLUDING NEGLIGENCE OR OTHERWISE) ARISING IN
  38:../Dave/Generated/CMSIS_DSP/TransformFunctions/arm_cfft_radix2_q15.c **** * ANY WAY OUT OF THE USE OF THIS SOFTWARE, EVEN IF ADVISED OF THE
  39:../Dave/Generated/CMSIS_DSP/TransformFunctions/arm_cfft_radix2_q15.c **** * POSSIBILITY OF SUCH DAMAGE.   
  40:../Dave/Generated/CMSIS_DSP/TransformFunctions/arm_cfft_radix2_q15.c **** * -------------------------------------------------------------------- */
  41:../Dave/Generated/CMSIS_DSP/TransformFunctions/arm_cfft_radix2_q15.c **** 
  42:../Dave/Generated/CMSIS_DSP/TransformFunctions/arm_cfft_radix2_q15.c **** #include "CMSIS_DSP/cmsis_dsp.h"
  43:../Dave/Generated/CMSIS_DSP/TransformFunctions/arm_cfft_radix2_q15.c **** 
  44:../Dave/Generated/CMSIS_DSP/TransformFunctions/arm_cfft_radix2_q15.c **** void arm_radix2_butterfly_q15(
  45:../Dave/Generated/CMSIS_DSP/TransformFunctions/arm_cfft_radix2_q15.c ****   q15_t * pSrc,
  46:../Dave/Generated/CMSIS_DSP/TransformFunctions/arm_cfft_radix2_q15.c ****   uint32_t fftLen,
  47:../Dave/Generated/CMSIS_DSP/TransformFunctions/arm_cfft_radix2_q15.c ****   q15_t * pCoef,
  48:../Dave/Generated/CMSIS_DSP/TransformFunctions/arm_cfft_radix2_q15.c ****   uint16_t twidCoefModifier);
  49:../Dave/Generated/CMSIS_DSP/TransformFunctions/arm_cfft_radix2_q15.c **** 
  50:../Dave/Generated/CMSIS_DSP/TransformFunctions/arm_cfft_radix2_q15.c **** void arm_radix2_butterfly_inverse_q15(
  51:../Dave/Generated/CMSIS_DSP/TransformFunctions/arm_cfft_radix2_q15.c ****   q15_t * pSrc,
  52:../Dave/Generated/CMSIS_DSP/TransformFunctions/arm_cfft_radix2_q15.c ****   uint32_t fftLen,
  53:../Dave/Generated/CMSIS_DSP/TransformFunctions/arm_cfft_radix2_q15.c ****   q15_t * pCoef,
  54:../Dave/Generated/CMSIS_DSP/TransformFunctions/arm_cfft_radix2_q15.c ****   uint16_t twidCoefModifier);
  55:../Dave/Generated/CMSIS_DSP/TransformFunctions/arm_cfft_radix2_q15.c **** 	
  56:../Dave/Generated/CMSIS_DSP/TransformFunctions/arm_cfft_radix2_q15.c **** void arm_bitreversal_q15(
  57:../Dave/Generated/CMSIS_DSP/TransformFunctions/arm_cfft_radix2_q15.c ****   q15_t * pSrc,
  58:../Dave/Generated/CMSIS_DSP/TransformFunctions/arm_cfft_radix2_q15.c ****   uint32_t fftLen,
  59:../Dave/Generated/CMSIS_DSP/TransformFunctions/arm_cfft_radix2_q15.c ****   uint16_t bitRevFactor,
  60:../Dave/Generated/CMSIS_DSP/TransformFunctions/arm_cfft_radix2_q15.c ****   uint16_t * pBitRevTab);
  61:../Dave/Generated/CMSIS_DSP/TransformFunctions/arm_cfft_radix2_q15.c **** 
  62:../Dave/Generated/CMSIS_DSP/TransformFunctions/arm_cfft_radix2_q15.c **** /**   
  63:../Dave/Generated/CMSIS_DSP/TransformFunctions/arm_cfft_radix2_q15.c ****  * @ingroup groupTransforms   
  64:../Dave/Generated/CMSIS_DSP/TransformFunctions/arm_cfft_radix2_q15.c ****  */
  65:../Dave/Generated/CMSIS_DSP/TransformFunctions/arm_cfft_radix2_q15.c **** 
  66:../Dave/Generated/CMSIS_DSP/TransformFunctions/arm_cfft_radix2_q15.c **** /**   
  67:../Dave/Generated/CMSIS_DSP/TransformFunctions/arm_cfft_radix2_q15.c ****  * @addtogroup ComplexFFT   
  68:../Dave/Generated/CMSIS_DSP/TransformFunctions/arm_cfft_radix2_q15.c ****  * @{   
  69:../Dave/Generated/CMSIS_DSP/TransformFunctions/arm_cfft_radix2_q15.c ****  */
  70:../Dave/Generated/CMSIS_DSP/TransformFunctions/arm_cfft_radix2_q15.c **** 
  71:../Dave/Generated/CMSIS_DSP/TransformFunctions/arm_cfft_radix2_q15.c **** /**   
  72:../Dave/Generated/CMSIS_DSP/TransformFunctions/arm_cfft_radix2_q15.c ****  * @details   
  73:../Dave/Generated/CMSIS_DSP/TransformFunctions/arm_cfft_radix2_q15.c ****  * @brief Processing function for the fixed-point CFFT/CIFFT.  
  74:../Dave/Generated/CMSIS_DSP/TransformFunctions/arm_cfft_radix2_q15.c ****  * @deprecated Do not use this function.  It has been superseded by \ref arm_cfft_q15 and will be r
  75:../Dave/Generated/CMSIS_DSP/TransformFunctions/arm_cfft_radix2_q15.c ****  * @param[in]      *S    points to an instance of the fixed-point CFFT/CIFFT structure.  
  76:../Dave/Generated/CMSIS_DSP/TransformFunctions/arm_cfft_radix2_q15.c ****  * @param[in, out] *pSrc points to the complex data buffer of size <code>2*fftLen</code>. Processin
  77:../Dave/Generated/CMSIS_DSP/TransformFunctions/arm_cfft_radix2_q15.c ****  * @return none.  
  78:../Dave/Generated/CMSIS_DSP/TransformFunctions/arm_cfft_radix2_q15.c ****  */
  79:../Dave/Generated/CMSIS_DSP/TransformFunctions/arm_cfft_radix2_q15.c **** 
  80:../Dave/Generated/CMSIS_DSP/TransformFunctions/arm_cfft_radix2_q15.c **** void arm_cfft_radix2_q15(
  81:../Dave/Generated/CMSIS_DSP/TransformFunctions/arm_cfft_radix2_q15.c ****   const arm_cfft_radix2_instance_q15 * S,
  82:../Dave/Generated/CMSIS_DSP/TransformFunctions/arm_cfft_radix2_q15.c ****   q15_t * pSrc)
  83:../Dave/Generated/CMSIS_DSP/TransformFunctions/arm_cfft_radix2_q15.c **** {
  28              	 .loc 1 83 0
  29              	 .cfi_startproc
  30              	 
  31              	 
  32 0000 80B5     	 push {r7,lr}
  33              	.LCFI0:
  34              	 .cfi_def_cfa_offset 8
  35              	 .cfi_offset 7,-8
  36              	 .cfi_offset 14,-4
  37 0002 82B0     	 sub sp,sp,#8
  38              	.LCFI1:
  39              	 .cfi_def_cfa_offset 16
  40 0004 00AF     	 add r7,sp,#0
  41              	.LCFI2:
  42              	 .cfi_def_cfa_register 7
  43 0006 7860     	 str r0,[r7,#4]
  44 0008 3960     	 str r1,[r7]
  84:../Dave/Generated/CMSIS_DSP/TransformFunctions/arm_cfft_radix2_q15.c **** 
  85:../Dave/Generated/CMSIS_DSP/TransformFunctions/arm_cfft_radix2_q15.c ****   if(S->ifftFlag == 1u)
  45              	 .loc 1 85 0
  46 000a 7B68     	 ldr r3,[r7,#4]
  47 000c 9B78     	 ldrb r3,[r3,#2]
  48 000e 012B     	 cmp r3,#1
  49 0010 0AD1     	 bne .L2
  86:../Dave/Generated/CMSIS_DSP/TransformFunctions/arm_cfft_radix2_q15.c ****   {
  87:../Dave/Generated/CMSIS_DSP/TransformFunctions/arm_cfft_radix2_q15.c ****     arm_radix2_butterfly_inverse_q15(pSrc, S->fftLen,
  50              	 .loc 1 87 0
  51 0012 7B68     	 ldr r3,[r7,#4]
  52 0014 1B88     	 ldrh r3,[r3]
  53 0016 1946     	 mov r1,r3
  54 0018 7B68     	 ldr r3,[r7,#4]
  55 001a 5A68     	 ldr r2,[r3,#4]
  56 001c 7B68     	 ldr r3,[r7,#4]
  57 001e 9B89     	 ldrh r3,[r3,#12]
  58 0020 3868     	 ldr r0,[r7]
  59 0022 FFF7FEFF 	 bl arm_radix2_butterfly_inverse_q15
  60 0026 09E0     	 b .L3
  61              	.L2:
  88:../Dave/Generated/CMSIS_DSP/TransformFunctions/arm_cfft_radix2_q15.c ****                                      S->pTwiddle, S->twidCoefModifier);
  89:../Dave/Generated/CMSIS_DSP/TransformFunctions/arm_cfft_radix2_q15.c ****   }
  90:../Dave/Generated/CMSIS_DSP/TransformFunctions/arm_cfft_radix2_q15.c ****   else
  91:../Dave/Generated/CMSIS_DSP/TransformFunctions/arm_cfft_radix2_q15.c ****   {
  92:../Dave/Generated/CMSIS_DSP/TransformFunctions/arm_cfft_radix2_q15.c ****     arm_radix2_butterfly_q15(pSrc, S->fftLen,
  62              	 .loc 1 92 0
  63 0028 7B68     	 ldr r3,[r7,#4]
  64 002a 1B88     	 ldrh r3,[r3]
  65 002c 1946     	 mov r1,r3
  66 002e 7B68     	 ldr r3,[r7,#4]
  67 0030 5A68     	 ldr r2,[r3,#4]
  68 0032 7B68     	 ldr r3,[r7,#4]
  69 0034 9B89     	 ldrh r3,[r3,#12]
  70 0036 3868     	 ldr r0,[r7]
  71 0038 FFF7FEFF 	 bl arm_radix2_butterfly_q15
  72              	.L3:
  93:../Dave/Generated/CMSIS_DSP/TransformFunctions/arm_cfft_radix2_q15.c ****                              S->pTwiddle, S->twidCoefModifier);
  94:../Dave/Generated/CMSIS_DSP/TransformFunctions/arm_cfft_radix2_q15.c ****   }
  95:../Dave/Generated/CMSIS_DSP/TransformFunctions/arm_cfft_radix2_q15.c **** 
  96:../Dave/Generated/CMSIS_DSP/TransformFunctions/arm_cfft_radix2_q15.c ****   arm_bitreversal_q15(pSrc, S->fftLen, S->bitRevFactor, S->pBitRevTable);
  73              	 .loc 1 96 0
  74 003c 7B68     	 ldr r3,[r7,#4]
  75 003e 1B88     	 ldrh r3,[r3]
  76 0040 1946     	 mov r1,r3
  77 0042 7B68     	 ldr r3,[r7,#4]
  78 0044 DA89     	 ldrh r2,[r3,#14]
  79 0046 7B68     	 ldr r3,[r7,#4]
  80 0048 9B68     	 ldr r3,[r3,#8]
  81 004a 3868     	 ldr r0,[r7]
  82 004c FFF7FEFF 	 bl arm_bitreversal_q15
  97:../Dave/Generated/CMSIS_DSP/TransformFunctions/arm_cfft_radix2_q15.c **** }
  83              	 .loc 1 97 0
  84 0050 0837     	 adds r7,r7,#8
  85              	.LCFI3:
  86              	 .cfi_def_cfa_offset 8
  87 0052 BD46     	 mov sp,r7
  88              	.LCFI4:
  89              	 .cfi_def_cfa_register 13
  90              	 
  91 0054 80BD     	 pop {r7,pc}
  92              	 .cfi_endproc
  93              	.LFE139:
  95 0056 00BF     	 .section .text.arm_radix2_butterfly_q15,"ax",%progbits
  96              	 .align 2
  97              	 .global arm_radix2_butterfly_q15
  98              	 .thumb
  99              	 .thumb_func
 101              	arm_radix2_butterfly_q15:
 102              	.LFB140:
  98:../Dave/Generated/CMSIS_DSP/TransformFunctions/arm_cfft_radix2_q15.c **** 
  99:../Dave/Generated/CMSIS_DSP/TransformFunctions/arm_cfft_radix2_q15.c **** /**   
 100:../Dave/Generated/CMSIS_DSP/TransformFunctions/arm_cfft_radix2_q15.c ****  * @} end of ComplexFFT group   
 101:../Dave/Generated/CMSIS_DSP/TransformFunctions/arm_cfft_radix2_q15.c ****  */
 102:../Dave/Generated/CMSIS_DSP/TransformFunctions/arm_cfft_radix2_q15.c **** 
 103:../Dave/Generated/CMSIS_DSP/TransformFunctions/arm_cfft_radix2_q15.c **** void arm_radix2_butterfly_q15(
 104:../Dave/Generated/CMSIS_DSP/TransformFunctions/arm_cfft_radix2_q15.c ****   q15_t * pSrc,
 105:../Dave/Generated/CMSIS_DSP/TransformFunctions/arm_cfft_radix2_q15.c ****   uint32_t fftLen,
 106:../Dave/Generated/CMSIS_DSP/TransformFunctions/arm_cfft_radix2_q15.c ****   q15_t * pCoef,
 107:../Dave/Generated/CMSIS_DSP/TransformFunctions/arm_cfft_radix2_q15.c ****   uint16_t twidCoefModifier)
 108:../Dave/Generated/CMSIS_DSP/TransformFunctions/arm_cfft_radix2_q15.c **** {
 103              	 .loc 1 108 0
 104              	 .cfi_startproc
 105              	 
 106              	 
 107              	 
 108 0000 90B4     	 push {r4,r7}
 109              	.LCFI5:
 110              	 .cfi_def_cfa_offset 8
 111              	 .cfi_offset 4,-8
 112              	 .cfi_offset 7,-4
 113 0002 CEB0     	 sub sp,sp,#312
 114              	.LCFI6:
 115              	 .cfi_def_cfa_offset 320
 116 0004 00AF     	 add r7,sp,#0
 117              	.LCFI7:
 118              	 .cfi_def_cfa_register 7
 119 0006 07F10C04 	 add r4,r7,#12
 120 000a 2060     	 str r0,[r4]
 121 000c 07F10800 	 add r0,r7,#8
 122 0010 0160     	 str r1,[r0]
 123 0012 391D     	 adds r1,r7,#4
 124 0014 0A60     	 str r2,[r1]
 125 0016 1A46     	 mov r2,r3
 126 0018 BB1C     	 adds r3,r7,#2
 127 001a 1A80     	 strh r2,[r3]
 109:../Dave/Generated/CMSIS_DSP/TransformFunctions/arm_cfft_radix2_q15.c **** #ifndef ARM_MATH_CM0_FAMILY
 110:../Dave/Generated/CMSIS_DSP/TransformFunctions/arm_cfft_radix2_q15.c **** 
 111:../Dave/Generated/CMSIS_DSP/TransformFunctions/arm_cfft_radix2_q15.c ****   unsigned i, j, k, l;
 112:../Dave/Generated/CMSIS_DSP/TransformFunctions/arm_cfft_radix2_q15.c ****   unsigned n1, n2, ia;
 113:../Dave/Generated/CMSIS_DSP/TransformFunctions/arm_cfft_radix2_q15.c ****   q15_t in;
 114:../Dave/Generated/CMSIS_DSP/TransformFunctions/arm_cfft_radix2_q15.c ****   q31_t T, S, R;
 115:../Dave/Generated/CMSIS_DSP/TransformFunctions/arm_cfft_radix2_q15.c ****   q31_t coeff, out1, out2;
 116:../Dave/Generated/CMSIS_DSP/TransformFunctions/arm_cfft_radix2_q15.c **** 
 117:../Dave/Generated/CMSIS_DSP/TransformFunctions/arm_cfft_radix2_q15.c ****   //N = fftLen; 
 118:../Dave/Generated/CMSIS_DSP/TransformFunctions/arm_cfft_radix2_q15.c ****   n2 = fftLen;
 128              	 .loc 1 118 0
 129 001c 07F10803 	 add r3,r7,#8
 130 0020 1B68     	 ldr r3,[r3]
 131 0022 C7F82831 	 str r3,[r7,#296]
 119:../Dave/Generated/CMSIS_DSP/TransformFunctions/arm_cfft_radix2_q15.c **** 
 120:../Dave/Generated/CMSIS_DSP/TransformFunctions/arm_cfft_radix2_q15.c ****   n1 = n2;
 132              	 .loc 1 120 0
 133 0026 D7F82831 	 ldr r3,[r7,#296]
 134 002a C7F82031 	 str r3,[r7,#288]
 121:../Dave/Generated/CMSIS_DSP/TransformFunctions/arm_cfft_radix2_q15.c ****   n2 = n2 >> 1;
 135              	 .loc 1 121 0
 136 002e D7F82831 	 ldr r3,[r7,#296]
 137 0032 5B08     	 lsrs r3,r3,#1
 138 0034 C7F82831 	 str r3,[r7,#296]
 122:../Dave/Generated/CMSIS_DSP/TransformFunctions/arm_cfft_radix2_q15.c ****   ia = 0;
 139              	 .loc 1 122 0
 140 0038 0023     	 movs r3,#0
 141 003a C7F82431 	 str r3,[r7,#292]
 123:../Dave/Generated/CMSIS_DSP/TransformFunctions/arm_cfft_radix2_q15.c **** 
 124:../Dave/Generated/CMSIS_DSP/TransformFunctions/arm_cfft_radix2_q15.c ****   // loop for groups 
 125:../Dave/Generated/CMSIS_DSP/TransformFunctions/arm_cfft_radix2_q15.c ****   for (i = 0; i < n2; i++)
 142              	 .loc 1 125 0
 143 003e 0023     	 movs r3,#0
 144 0040 C7F83431 	 str r3,[r7,#308]
 145 0044 73E1     	 b .L5
 146              	.L14:
 126:../Dave/Generated/CMSIS_DSP/TransformFunctions/arm_cfft_radix2_q15.c ****   {
 127:../Dave/Generated/CMSIS_DSP/TransformFunctions/arm_cfft_radix2_q15.c ****     coeff = _SIMD32_OFFSET(pCoef + (ia * 2u));
 147              	 .loc 1 127 0 discriminator 3
 148 0046 D7F82431 	 ldr r3,[r7,#292]
 149 004a 9B00     	 lsls r3,r3,#2
 150 004c 3A1D     	 adds r2,r7,#4
 151 004e 1268     	 ldr r2,[r2]
 152 0050 1344     	 add r3,r3,r2
 153 0052 1B68     	 ldr r3,[r3]
 154 0054 C7F81C31 	 str r3,[r7,#284]
 128:../Dave/Generated/CMSIS_DSP/TransformFunctions/arm_cfft_radix2_q15.c **** 
 129:../Dave/Generated/CMSIS_DSP/TransformFunctions/arm_cfft_radix2_q15.c ****     ia = ia + twidCoefModifier;
 155              	 .loc 1 129 0 discriminator 3
 156 0058 BB1C     	 adds r3,r7,#2
 157 005a 1B88     	 ldrh r3,[r3]
 158 005c D7F82421 	 ldr r2,[r7,#292]
 159 0060 1344     	 add r3,r3,r2
 160 0062 C7F82431 	 str r3,[r7,#292]
 130:../Dave/Generated/CMSIS_DSP/TransformFunctions/arm_cfft_radix2_q15.c **** 
 131:../Dave/Generated/CMSIS_DSP/TransformFunctions/arm_cfft_radix2_q15.c ****     l = i + n2;
 161              	 .loc 1 131 0 discriminator 3
 162 0066 D7F83421 	 ldr r2,[r7,#308]
 163 006a D7F82831 	 ldr r3,[r7,#296]
 164 006e 1344     	 add r3,r3,r2
 165 0070 C7F81831 	 str r3,[r7,#280]
 132:../Dave/Generated/CMSIS_DSP/TransformFunctions/arm_cfft_radix2_q15.c **** 
 133:../Dave/Generated/CMSIS_DSP/TransformFunctions/arm_cfft_radix2_q15.c ****     T = _SIMD32_OFFSET(pSrc + (2 * i));
 166              	 .loc 1 133 0 discriminator 3
 167 0074 D7F83431 	 ldr r3,[r7,#308]
 168 0078 9B00     	 lsls r3,r3,#2
 169 007a 07F10C02 	 add r2,r7,#12
 170 007e 1268     	 ldr r2,[r2]
 171 0080 1344     	 add r3,r3,r2
 172 0082 1B68     	 ldr r3,[r3]
 173 0084 C7F81431 	 str r3,[r7,#276]
 134:../Dave/Generated/CMSIS_DSP/TransformFunctions/arm_cfft_radix2_q15.c ****     in = ((int16_t) (T & 0xFFFF)) >> 1;
 174              	 .loc 1 134 0 discriminator 3
 175 0088 D7F81431 	 ldr r3,[r7,#276]
 176 008c 9BB2     	 uxth r3,r3
 177 008e 1BB2     	 sxth r3,r3
 178 0090 5B10     	 asrs r3,r3,#1
 179 0092 A7F81231 	 strh r3,[r7,#274]
 135:../Dave/Generated/CMSIS_DSP/TransformFunctions/arm_cfft_radix2_q15.c ****     T = ((T >> 1) & 0xFFFF0000) | (in & 0xFFFF);
 180              	 .loc 1 135 0 discriminator 3
 181 0096 D7F81431 	 ldr r3,[r7,#276]
 182 009a 5B10     	 asrs r3,r3,#1
 183 009c 1B0C     	 lsrs r3,r3,#16
 184 009e 1B04     	 lsls r3,r3,#16
 185 00a0 B7F91221 	 ldrsh r2,[r7,#274]
 186 00a4 92B2     	 uxth r2,r2
 187 00a6 1343     	 orrs r3,r3,r2
 188 00a8 C7F81431 	 str r3,[r7,#276]
 136:../Dave/Generated/CMSIS_DSP/TransformFunctions/arm_cfft_radix2_q15.c **** 
 137:../Dave/Generated/CMSIS_DSP/TransformFunctions/arm_cfft_radix2_q15.c ****     S = _SIMD32_OFFSET(pSrc + (2 * l));
 189              	 .loc 1 137 0 discriminator 3
 190 00ac D7F81831 	 ldr r3,[r7,#280]
 191 00b0 9B00     	 lsls r3,r3,#2
 192 00b2 07F10C02 	 add r2,r7,#12
 193 00b6 1268     	 ldr r2,[r2]
 194 00b8 1344     	 add r3,r3,r2
 195 00ba 1B68     	 ldr r3,[r3]
 196 00bc C7F80C31 	 str r3,[r7,#268]
 138:../Dave/Generated/CMSIS_DSP/TransformFunctions/arm_cfft_radix2_q15.c ****     in = ((int16_t) (S & 0xFFFF)) >> 1;
 197              	 .loc 1 138 0 discriminator 3
 198 00c0 D7F80C31 	 ldr r3,[r7,#268]
 199 00c4 9BB2     	 uxth r3,r3
 200 00c6 1BB2     	 sxth r3,r3
 201 00c8 5B10     	 asrs r3,r3,#1
 202 00ca A7F81231 	 strh r3,[r7,#274]
 139:../Dave/Generated/CMSIS_DSP/TransformFunctions/arm_cfft_radix2_q15.c ****     S = ((S >> 1) & 0xFFFF0000) | (in & 0xFFFF);
 203              	 .loc 1 139 0 discriminator 3
 204 00ce D7F80C31 	 ldr r3,[r7,#268]
 205 00d2 5B10     	 asrs r3,r3,#1
 206 00d4 1B0C     	 lsrs r3,r3,#16
 207 00d6 1B04     	 lsls r3,r3,#16
 208 00d8 B7F91221 	 ldrsh r2,[r7,#274]
 209 00dc 92B2     	 uxth r2,r2
 210 00de 1343     	 orrs r3,r3,r2
 211 00e0 C7F80C31 	 str r3,[r7,#268]
 140:../Dave/Generated/CMSIS_DSP/TransformFunctions/arm_cfft_radix2_q15.c **** 
 141:../Dave/Generated/CMSIS_DSP/TransformFunctions/arm_cfft_radix2_q15.c ****     R = __QSUB16(T, S);
 212              	 .loc 1 141 0 discriminator 3
 213 00e4 D7F81421 	 ldr r2,[r7,#276]
 214 00e8 D7F80C31 	 ldr r3,[r7,#268]
 215 00ec C7F8FC20 	 str r2,[r7,#252]
 216 00f0 C7F8F830 	 str r3,[r7,#248]
 217              	.LBB78:
 218              	.LBB79:
 219              	 .file 2 "C:\\Workspaces\\DAVE-4.1\\Flightcontroller_PWM_CopterRocks_Working/Libraries/CMSIS/Include/cmsis_gcc.h"
   1:C:\Workspaces\DAVE-4.1\Flightcontroller_PWM_CopterRocks_Working/Libraries/CMSIS/Include\cmsis_gcc.h **** /**************************************************************************//**
   2:C:\Workspaces\DAVE-4.1\Flightcontroller_PWM_CopterRocks_Working/Libraries/CMSIS/Include\cmsis_gcc.h ****  * @file     cmsis_gcc.h
   3:C:\Workspaces\DAVE-4.1\Flightcontroller_PWM_CopterRocks_Working/Libraries/CMSIS/Include\cmsis_gcc.h ****  * @brief    CMSIS Cortex-M Core Function/Instruction Header File
   4:C:\Workspaces\DAVE-4.1\Flightcontroller_PWM_CopterRocks_Working/Libraries/CMSIS/Include\cmsis_gcc.h ****  * @version  V4.30
   5:C:\Workspaces\DAVE-4.1\Flightcontroller_PWM_CopterRocks_Working/Libraries/CMSIS/Include\cmsis_gcc.h ****  * @date     20. October 2015
   6:C:\Workspaces\DAVE-4.1\Flightcontroller_PWM_CopterRocks_Working/Libraries/CMSIS/Include\cmsis_gcc.h ****  ******************************************************************************/
   7:C:\Workspaces\DAVE-4.1\Flightcontroller_PWM_CopterRocks_Working/Libraries/CMSIS/Include\cmsis_gcc.h **** /* Copyright (c) 2009 - 2015 ARM LIMITED
   8:C:\Workspaces\DAVE-4.1\Flightcontroller_PWM_CopterRocks_Working/Libraries/CMSIS/Include\cmsis_gcc.h **** 
   9:C:\Workspaces\DAVE-4.1\Flightcontroller_PWM_CopterRocks_Working/Libraries/CMSIS/Include\cmsis_gcc.h ****    All rights reserved.
  10:C:\Workspaces\DAVE-4.1\Flightcontroller_PWM_CopterRocks_Working/Libraries/CMSIS/Include\cmsis_gcc.h ****    Redistribution and use in source and binary forms, with or without
  11:C:\Workspaces\DAVE-4.1\Flightcontroller_PWM_CopterRocks_Working/Libraries/CMSIS/Include\cmsis_gcc.h ****    modification, are permitted provided that the following conditions are met:
  12:C:\Workspaces\DAVE-4.1\Flightcontroller_PWM_CopterRocks_Working/Libraries/CMSIS/Include\cmsis_gcc.h ****    - Redistributions of source code must retain the above copyright
  13:C:\Workspaces\DAVE-4.1\Flightcontroller_PWM_CopterRocks_Working/Libraries/CMSIS/Include\cmsis_gcc.h ****      notice, this list of conditions and the following disclaimer.
  14:C:\Workspaces\DAVE-4.1\Flightcontroller_PWM_CopterRocks_Working/Libraries/CMSIS/Include\cmsis_gcc.h ****    - Redistributions in binary form must reproduce the above copyright
  15:C:\Workspaces\DAVE-4.1\Flightcontroller_PWM_CopterRocks_Working/Libraries/CMSIS/Include\cmsis_gcc.h ****      notice, this list of conditions and the following disclaimer in the
  16:C:\Workspaces\DAVE-4.1\Flightcontroller_PWM_CopterRocks_Working/Libraries/CMSIS/Include\cmsis_gcc.h ****      documentation and/or other materials provided with the distribution.
  17:C:\Workspaces\DAVE-4.1\Flightcontroller_PWM_CopterRocks_Working/Libraries/CMSIS/Include\cmsis_gcc.h ****    - Neither the name of ARM nor the names of its contributors may be used
  18:C:\Workspaces\DAVE-4.1\Flightcontroller_PWM_CopterRocks_Working/Libraries/CMSIS/Include\cmsis_gcc.h ****      to endorse or promote products derived from this software without
  19:C:\Workspaces\DAVE-4.1\Flightcontroller_PWM_CopterRocks_Working/Libraries/CMSIS/Include\cmsis_gcc.h ****      specific prior written permission.
  20:C:\Workspaces\DAVE-4.1\Flightcontroller_PWM_CopterRocks_Working/Libraries/CMSIS/Include\cmsis_gcc.h ****    *
  21:C:\Workspaces\DAVE-4.1\Flightcontroller_PWM_CopterRocks_Working/Libraries/CMSIS/Include\cmsis_gcc.h ****    THIS SOFTWARE IS PROVIDED BY THE COPYRIGHT HOLDERS AND CONTRIBUTORS "AS IS"
  22:C:\Workspaces\DAVE-4.1\Flightcontroller_PWM_CopterRocks_Working/Libraries/CMSIS/Include\cmsis_gcc.h ****    AND ANY EXPRESS OR IMPLIED WARRANTIES, INCLUDING, BUT NOT LIMITED TO, THE
  23:C:\Workspaces\DAVE-4.1\Flightcontroller_PWM_CopterRocks_Working/Libraries/CMSIS/Include\cmsis_gcc.h ****    IMPLIED WARRANTIES OF MERCHANTABILITY AND FITNESS FOR A PARTICULAR PURPOSE
  24:C:\Workspaces\DAVE-4.1\Flightcontroller_PWM_CopterRocks_Working/Libraries/CMSIS/Include\cmsis_gcc.h ****    ARE DISCLAIMED. IN NO EVENT SHALL COPYRIGHT HOLDERS AND CONTRIBUTORS BE
  25:C:\Workspaces\DAVE-4.1\Flightcontroller_PWM_CopterRocks_Working/Libraries/CMSIS/Include\cmsis_gcc.h ****    LIABLE FOR ANY DIRECT, INDIRECT, INCIDENTAL, SPECIAL, EXEMPLARY, OR
  26:C:\Workspaces\DAVE-4.1\Flightcontroller_PWM_CopterRocks_Working/Libraries/CMSIS/Include\cmsis_gcc.h ****    CONSEQUENTIAL DAMAGES (INCLUDING, BUT NOT LIMITED TO, PROCUREMENT OF
  27:C:\Workspaces\DAVE-4.1\Flightcontroller_PWM_CopterRocks_Working/Libraries/CMSIS/Include\cmsis_gcc.h ****    SUBSTITUTE GOODS OR SERVICES; LOSS OF USE, DATA, OR PROFITS; OR BUSINESS
  28:C:\Workspaces\DAVE-4.1\Flightcontroller_PWM_CopterRocks_Working/Libraries/CMSIS/Include\cmsis_gcc.h ****    INTERRUPTION) HOWEVER CAUSED AND ON ANY THEORY OF LIABILITY, WHETHER IN
  29:C:\Workspaces\DAVE-4.1\Flightcontroller_PWM_CopterRocks_Working/Libraries/CMSIS/Include\cmsis_gcc.h ****    CONTRACT, STRICT LIABILITY, OR TORT (INCLUDING NEGLIGENCE OR OTHERWISE)
  30:C:\Workspaces\DAVE-4.1\Flightcontroller_PWM_CopterRocks_Working/Libraries/CMSIS/Include\cmsis_gcc.h ****    ARISING IN ANY WAY OUT OF THE USE OF THIS SOFTWARE, EVEN IF ADVISED OF THE
  31:C:\Workspaces\DAVE-4.1\Flightcontroller_PWM_CopterRocks_Working/Libraries/CMSIS/Include\cmsis_gcc.h ****    POSSIBILITY OF SUCH DAMAGE.
  32:C:\Workspaces\DAVE-4.1\Flightcontroller_PWM_CopterRocks_Working/Libraries/CMSIS/Include\cmsis_gcc.h ****    ---------------------------------------------------------------------------*/
  33:C:\Workspaces\DAVE-4.1\Flightcontroller_PWM_CopterRocks_Working/Libraries/CMSIS/Include\cmsis_gcc.h **** 
  34:C:\Workspaces\DAVE-4.1\Flightcontroller_PWM_CopterRocks_Working/Libraries/CMSIS/Include\cmsis_gcc.h **** 
  35:C:\Workspaces\DAVE-4.1\Flightcontroller_PWM_CopterRocks_Working/Libraries/CMSIS/Include\cmsis_gcc.h **** #ifndef __CMSIS_GCC_H
  36:C:\Workspaces\DAVE-4.1\Flightcontroller_PWM_CopterRocks_Working/Libraries/CMSIS/Include\cmsis_gcc.h **** #define __CMSIS_GCC_H
  37:C:\Workspaces\DAVE-4.1\Flightcontroller_PWM_CopterRocks_Working/Libraries/CMSIS/Include\cmsis_gcc.h **** 
  38:C:\Workspaces\DAVE-4.1\Flightcontroller_PWM_CopterRocks_Working/Libraries/CMSIS/Include\cmsis_gcc.h **** /* ignore some GCC warnings */
  39:C:\Workspaces\DAVE-4.1\Flightcontroller_PWM_CopterRocks_Working/Libraries/CMSIS/Include\cmsis_gcc.h **** #if defined ( __GNUC__ )
  40:C:\Workspaces\DAVE-4.1\Flightcontroller_PWM_CopterRocks_Working/Libraries/CMSIS/Include\cmsis_gcc.h **** #pragma GCC diagnostic push
  41:C:\Workspaces\DAVE-4.1\Flightcontroller_PWM_CopterRocks_Working/Libraries/CMSIS/Include\cmsis_gcc.h **** #pragma GCC diagnostic ignored "-Wsign-conversion"
  42:C:\Workspaces\DAVE-4.1\Flightcontroller_PWM_CopterRocks_Working/Libraries/CMSIS/Include\cmsis_gcc.h **** #pragma GCC diagnostic ignored "-Wconversion"
  43:C:\Workspaces\DAVE-4.1\Flightcontroller_PWM_CopterRocks_Working/Libraries/CMSIS/Include\cmsis_gcc.h **** #pragma GCC diagnostic ignored "-Wunused-parameter"
  44:C:\Workspaces\DAVE-4.1\Flightcontroller_PWM_CopterRocks_Working/Libraries/CMSIS/Include\cmsis_gcc.h **** #endif
  45:C:\Workspaces\DAVE-4.1\Flightcontroller_PWM_CopterRocks_Working/Libraries/CMSIS/Include\cmsis_gcc.h **** 
  46:C:\Workspaces\DAVE-4.1\Flightcontroller_PWM_CopterRocks_Working/Libraries/CMSIS/Include\cmsis_gcc.h **** 
  47:C:\Workspaces\DAVE-4.1\Flightcontroller_PWM_CopterRocks_Working/Libraries/CMSIS/Include\cmsis_gcc.h **** /* ###########################  Core Function Access  ########################### */
  48:C:\Workspaces\DAVE-4.1\Flightcontroller_PWM_CopterRocks_Working/Libraries/CMSIS/Include\cmsis_gcc.h **** /** \ingroup  CMSIS_Core_FunctionInterface
  49:C:\Workspaces\DAVE-4.1\Flightcontroller_PWM_CopterRocks_Working/Libraries/CMSIS/Include\cmsis_gcc.h ****     \defgroup CMSIS_Core_RegAccFunctions CMSIS Core Register Access Functions
  50:C:\Workspaces\DAVE-4.1\Flightcontroller_PWM_CopterRocks_Working/Libraries/CMSIS/Include\cmsis_gcc.h ****   @{
  51:C:\Workspaces\DAVE-4.1\Flightcontroller_PWM_CopterRocks_Working/Libraries/CMSIS/Include\cmsis_gcc.h ****  */
  52:C:\Workspaces\DAVE-4.1\Flightcontroller_PWM_CopterRocks_Working/Libraries/CMSIS/Include\cmsis_gcc.h **** 
  53:C:\Workspaces\DAVE-4.1\Flightcontroller_PWM_CopterRocks_Working/Libraries/CMSIS/Include\cmsis_gcc.h **** /**
  54:C:\Workspaces\DAVE-4.1\Flightcontroller_PWM_CopterRocks_Working/Libraries/CMSIS/Include\cmsis_gcc.h ****   \brief   Enable IRQ Interrupts
  55:C:\Workspaces\DAVE-4.1\Flightcontroller_PWM_CopterRocks_Working/Libraries/CMSIS/Include\cmsis_gcc.h ****   \details Enables IRQ interrupts by clearing the I-bit in the CPSR.
  56:C:\Workspaces\DAVE-4.1\Flightcontroller_PWM_CopterRocks_Working/Libraries/CMSIS/Include\cmsis_gcc.h ****            Can only be executed in Privileged modes.
  57:C:\Workspaces\DAVE-4.1\Flightcontroller_PWM_CopterRocks_Working/Libraries/CMSIS/Include\cmsis_gcc.h ****  */
  58:C:\Workspaces\DAVE-4.1\Flightcontroller_PWM_CopterRocks_Working/Libraries/CMSIS/Include\cmsis_gcc.h **** __attribute__( ( always_inline ) ) __STATIC_INLINE void __enable_irq(void)
  59:C:\Workspaces\DAVE-4.1\Flightcontroller_PWM_CopterRocks_Working/Libraries/CMSIS/Include\cmsis_gcc.h **** {
  60:C:\Workspaces\DAVE-4.1\Flightcontroller_PWM_CopterRocks_Working/Libraries/CMSIS/Include\cmsis_gcc.h ****   __ASM volatile ("cpsie i" : : : "memory");
  61:C:\Workspaces\DAVE-4.1\Flightcontroller_PWM_CopterRocks_Working/Libraries/CMSIS/Include\cmsis_gcc.h **** }
  62:C:\Workspaces\DAVE-4.1\Flightcontroller_PWM_CopterRocks_Working/Libraries/CMSIS/Include\cmsis_gcc.h **** 
  63:C:\Workspaces\DAVE-4.1\Flightcontroller_PWM_CopterRocks_Working/Libraries/CMSIS/Include\cmsis_gcc.h **** 
  64:C:\Workspaces\DAVE-4.1\Flightcontroller_PWM_CopterRocks_Working/Libraries/CMSIS/Include\cmsis_gcc.h **** /**
  65:C:\Workspaces\DAVE-4.1\Flightcontroller_PWM_CopterRocks_Working/Libraries/CMSIS/Include\cmsis_gcc.h ****   \brief   Disable IRQ Interrupts
  66:C:\Workspaces\DAVE-4.1\Flightcontroller_PWM_CopterRocks_Working/Libraries/CMSIS/Include\cmsis_gcc.h ****   \details Disables IRQ interrupts by setting the I-bit in the CPSR.
  67:C:\Workspaces\DAVE-4.1\Flightcontroller_PWM_CopterRocks_Working/Libraries/CMSIS/Include\cmsis_gcc.h ****   Can only be executed in Privileged modes.
  68:C:\Workspaces\DAVE-4.1\Flightcontroller_PWM_CopterRocks_Working/Libraries/CMSIS/Include\cmsis_gcc.h ****  */
  69:C:\Workspaces\DAVE-4.1\Flightcontroller_PWM_CopterRocks_Working/Libraries/CMSIS/Include\cmsis_gcc.h **** __attribute__( ( always_inline ) ) __STATIC_INLINE void __disable_irq(void)
  70:C:\Workspaces\DAVE-4.1\Flightcontroller_PWM_CopterRocks_Working/Libraries/CMSIS/Include\cmsis_gcc.h **** {
  71:C:\Workspaces\DAVE-4.1\Flightcontroller_PWM_CopterRocks_Working/Libraries/CMSIS/Include\cmsis_gcc.h ****   __ASM volatile ("cpsid i" : : : "memory");
  72:C:\Workspaces\DAVE-4.1\Flightcontroller_PWM_CopterRocks_Working/Libraries/CMSIS/Include\cmsis_gcc.h **** }
  73:C:\Workspaces\DAVE-4.1\Flightcontroller_PWM_CopterRocks_Working/Libraries/CMSIS/Include\cmsis_gcc.h **** 
  74:C:\Workspaces\DAVE-4.1\Flightcontroller_PWM_CopterRocks_Working/Libraries/CMSIS/Include\cmsis_gcc.h **** 
  75:C:\Workspaces\DAVE-4.1\Flightcontroller_PWM_CopterRocks_Working/Libraries/CMSIS/Include\cmsis_gcc.h **** /**
  76:C:\Workspaces\DAVE-4.1\Flightcontroller_PWM_CopterRocks_Working/Libraries/CMSIS/Include\cmsis_gcc.h ****   \brief   Get Control Register
  77:C:\Workspaces\DAVE-4.1\Flightcontroller_PWM_CopterRocks_Working/Libraries/CMSIS/Include\cmsis_gcc.h ****   \details Returns the content of the Control Register.
  78:C:\Workspaces\DAVE-4.1\Flightcontroller_PWM_CopterRocks_Working/Libraries/CMSIS/Include\cmsis_gcc.h ****   \return               Control Register value
  79:C:\Workspaces\DAVE-4.1\Flightcontroller_PWM_CopterRocks_Working/Libraries/CMSIS/Include\cmsis_gcc.h ****  */
  80:C:\Workspaces\DAVE-4.1\Flightcontroller_PWM_CopterRocks_Working/Libraries/CMSIS/Include\cmsis_gcc.h **** __attribute__( ( always_inline ) ) __STATIC_INLINE uint32_t __get_CONTROL(void)
  81:C:\Workspaces\DAVE-4.1\Flightcontroller_PWM_CopterRocks_Working/Libraries/CMSIS/Include\cmsis_gcc.h **** {
  82:C:\Workspaces\DAVE-4.1\Flightcontroller_PWM_CopterRocks_Working/Libraries/CMSIS/Include\cmsis_gcc.h ****   uint32_t result;
  83:C:\Workspaces\DAVE-4.1\Flightcontroller_PWM_CopterRocks_Working/Libraries/CMSIS/Include\cmsis_gcc.h **** 
  84:C:\Workspaces\DAVE-4.1\Flightcontroller_PWM_CopterRocks_Working/Libraries/CMSIS/Include\cmsis_gcc.h ****   __ASM volatile ("MRS %0, control" : "=r" (result) );
  85:C:\Workspaces\DAVE-4.1\Flightcontroller_PWM_CopterRocks_Working/Libraries/CMSIS/Include\cmsis_gcc.h ****   return(result);
  86:C:\Workspaces\DAVE-4.1\Flightcontroller_PWM_CopterRocks_Working/Libraries/CMSIS/Include\cmsis_gcc.h **** }
  87:C:\Workspaces\DAVE-4.1\Flightcontroller_PWM_CopterRocks_Working/Libraries/CMSIS/Include\cmsis_gcc.h **** 
  88:C:\Workspaces\DAVE-4.1\Flightcontroller_PWM_CopterRocks_Working/Libraries/CMSIS/Include\cmsis_gcc.h **** 
  89:C:\Workspaces\DAVE-4.1\Flightcontroller_PWM_CopterRocks_Working/Libraries/CMSIS/Include\cmsis_gcc.h **** /**
  90:C:\Workspaces\DAVE-4.1\Flightcontroller_PWM_CopterRocks_Working/Libraries/CMSIS/Include\cmsis_gcc.h ****   \brief   Set Control Register
  91:C:\Workspaces\DAVE-4.1\Flightcontroller_PWM_CopterRocks_Working/Libraries/CMSIS/Include\cmsis_gcc.h ****   \details Writes the given value to the Control Register.
  92:C:\Workspaces\DAVE-4.1\Flightcontroller_PWM_CopterRocks_Working/Libraries/CMSIS/Include\cmsis_gcc.h ****   \param [in]    control  Control Register value to set
  93:C:\Workspaces\DAVE-4.1\Flightcontroller_PWM_CopterRocks_Working/Libraries/CMSIS/Include\cmsis_gcc.h ****  */
  94:C:\Workspaces\DAVE-4.1\Flightcontroller_PWM_CopterRocks_Working/Libraries/CMSIS/Include\cmsis_gcc.h **** __attribute__( ( always_inline ) ) __STATIC_INLINE void __set_CONTROL(uint32_t control)
  95:C:\Workspaces\DAVE-4.1\Flightcontroller_PWM_CopterRocks_Working/Libraries/CMSIS/Include\cmsis_gcc.h **** {
  96:C:\Workspaces\DAVE-4.1\Flightcontroller_PWM_CopterRocks_Working/Libraries/CMSIS/Include\cmsis_gcc.h ****   __ASM volatile ("MSR control, %0" : : "r" (control) : "memory");
  97:C:\Workspaces\DAVE-4.1\Flightcontroller_PWM_CopterRocks_Working/Libraries/CMSIS/Include\cmsis_gcc.h **** }
  98:C:\Workspaces\DAVE-4.1\Flightcontroller_PWM_CopterRocks_Working/Libraries/CMSIS/Include\cmsis_gcc.h **** 
  99:C:\Workspaces\DAVE-4.1\Flightcontroller_PWM_CopterRocks_Working/Libraries/CMSIS/Include\cmsis_gcc.h **** 
 100:C:\Workspaces\DAVE-4.1\Flightcontroller_PWM_CopterRocks_Working/Libraries/CMSIS/Include\cmsis_gcc.h **** /**
 101:C:\Workspaces\DAVE-4.1\Flightcontroller_PWM_CopterRocks_Working/Libraries/CMSIS/Include\cmsis_gcc.h ****   \brief   Get IPSR Register
 102:C:\Workspaces\DAVE-4.1\Flightcontroller_PWM_CopterRocks_Working/Libraries/CMSIS/Include\cmsis_gcc.h ****   \details Returns the content of the IPSR Register.
 103:C:\Workspaces\DAVE-4.1\Flightcontroller_PWM_CopterRocks_Working/Libraries/CMSIS/Include\cmsis_gcc.h ****   \return               IPSR Register value
 104:C:\Workspaces\DAVE-4.1\Flightcontroller_PWM_CopterRocks_Working/Libraries/CMSIS/Include\cmsis_gcc.h ****  */
 105:C:\Workspaces\DAVE-4.1\Flightcontroller_PWM_CopterRocks_Working/Libraries/CMSIS/Include\cmsis_gcc.h **** __attribute__( ( always_inline ) ) __STATIC_INLINE uint32_t __get_IPSR(void)
 106:C:\Workspaces\DAVE-4.1\Flightcontroller_PWM_CopterRocks_Working/Libraries/CMSIS/Include\cmsis_gcc.h **** {
 107:C:\Workspaces\DAVE-4.1\Flightcontroller_PWM_CopterRocks_Working/Libraries/CMSIS/Include\cmsis_gcc.h ****   uint32_t result;
 108:C:\Workspaces\DAVE-4.1\Flightcontroller_PWM_CopterRocks_Working/Libraries/CMSIS/Include\cmsis_gcc.h **** 
 109:C:\Workspaces\DAVE-4.1\Flightcontroller_PWM_CopterRocks_Working/Libraries/CMSIS/Include\cmsis_gcc.h ****   __ASM volatile ("MRS %0, ipsr" : "=r" (result) );
 110:C:\Workspaces\DAVE-4.1\Flightcontroller_PWM_CopterRocks_Working/Libraries/CMSIS/Include\cmsis_gcc.h ****   return(result);
 111:C:\Workspaces\DAVE-4.1\Flightcontroller_PWM_CopterRocks_Working/Libraries/CMSIS/Include\cmsis_gcc.h **** }
 112:C:\Workspaces\DAVE-4.1\Flightcontroller_PWM_CopterRocks_Working/Libraries/CMSIS/Include\cmsis_gcc.h **** 
 113:C:\Workspaces\DAVE-4.1\Flightcontroller_PWM_CopterRocks_Working/Libraries/CMSIS/Include\cmsis_gcc.h **** 
 114:C:\Workspaces\DAVE-4.1\Flightcontroller_PWM_CopterRocks_Working/Libraries/CMSIS/Include\cmsis_gcc.h **** /**
 115:C:\Workspaces\DAVE-4.1\Flightcontroller_PWM_CopterRocks_Working/Libraries/CMSIS/Include\cmsis_gcc.h ****   \brief   Get APSR Register
 116:C:\Workspaces\DAVE-4.1\Flightcontroller_PWM_CopterRocks_Working/Libraries/CMSIS/Include\cmsis_gcc.h ****   \details Returns the content of the APSR Register.
 117:C:\Workspaces\DAVE-4.1\Flightcontroller_PWM_CopterRocks_Working/Libraries/CMSIS/Include\cmsis_gcc.h ****   \return               APSR Register value
 118:C:\Workspaces\DAVE-4.1\Flightcontroller_PWM_CopterRocks_Working/Libraries/CMSIS/Include\cmsis_gcc.h ****  */
 119:C:\Workspaces\DAVE-4.1\Flightcontroller_PWM_CopterRocks_Working/Libraries/CMSIS/Include\cmsis_gcc.h **** __attribute__( ( always_inline ) ) __STATIC_INLINE uint32_t __get_APSR(void)
 120:C:\Workspaces\DAVE-4.1\Flightcontroller_PWM_CopterRocks_Working/Libraries/CMSIS/Include\cmsis_gcc.h **** {
 121:C:\Workspaces\DAVE-4.1\Flightcontroller_PWM_CopterRocks_Working/Libraries/CMSIS/Include\cmsis_gcc.h ****   uint32_t result;
 122:C:\Workspaces\DAVE-4.1\Flightcontroller_PWM_CopterRocks_Working/Libraries/CMSIS/Include\cmsis_gcc.h **** 
 123:C:\Workspaces\DAVE-4.1\Flightcontroller_PWM_CopterRocks_Working/Libraries/CMSIS/Include\cmsis_gcc.h ****   __ASM volatile ("MRS %0, apsr" : "=r" (result) );
 124:C:\Workspaces\DAVE-4.1\Flightcontroller_PWM_CopterRocks_Working/Libraries/CMSIS/Include\cmsis_gcc.h ****   return(result);
 125:C:\Workspaces\DAVE-4.1\Flightcontroller_PWM_CopterRocks_Working/Libraries/CMSIS/Include\cmsis_gcc.h **** }
 126:C:\Workspaces\DAVE-4.1\Flightcontroller_PWM_CopterRocks_Working/Libraries/CMSIS/Include\cmsis_gcc.h **** 
 127:C:\Workspaces\DAVE-4.1\Flightcontroller_PWM_CopterRocks_Working/Libraries/CMSIS/Include\cmsis_gcc.h **** 
 128:C:\Workspaces\DAVE-4.1\Flightcontroller_PWM_CopterRocks_Working/Libraries/CMSIS/Include\cmsis_gcc.h **** /**
 129:C:\Workspaces\DAVE-4.1\Flightcontroller_PWM_CopterRocks_Working/Libraries/CMSIS/Include\cmsis_gcc.h ****   \brief   Get xPSR Register
 130:C:\Workspaces\DAVE-4.1\Flightcontroller_PWM_CopterRocks_Working/Libraries/CMSIS/Include\cmsis_gcc.h ****   \details Returns the content of the xPSR Register.
 131:C:\Workspaces\DAVE-4.1\Flightcontroller_PWM_CopterRocks_Working/Libraries/CMSIS/Include\cmsis_gcc.h **** 
 132:C:\Workspaces\DAVE-4.1\Flightcontroller_PWM_CopterRocks_Working/Libraries/CMSIS/Include\cmsis_gcc.h ****     \return               xPSR Register value
 133:C:\Workspaces\DAVE-4.1\Flightcontroller_PWM_CopterRocks_Working/Libraries/CMSIS/Include\cmsis_gcc.h ****  */
 134:C:\Workspaces\DAVE-4.1\Flightcontroller_PWM_CopterRocks_Working/Libraries/CMSIS/Include\cmsis_gcc.h **** __attribute__( ( always_inline ) ) __STATIC_INLINE uint32_t __get_xPSR(void)
 135:C:\Workspaces\DAVE-4.1\Flightcontroller_PWM_CopterRocks_Working/Libraries/CMSIS/Include\cmsis_gcc.h **** {
 136:C:\Workspaces\DAVE-4.1\Flightcontroller_PWM_CopterRocks_Working/Libraries/CMSIS/Include\cmsis_gcc.h ****   uint32_t result;
 137:C:\Workspaces\DAVE-4.1\Flightcontroller_PWM_CopterRocks_Working/Libraries/CMSIS/Include\cmsis_gcc.h **** 
 138:C:\Workspaces\DAVE-4.1\Flightcontroller_PWM_CopterRocks_Working/Libraries/CMSIS/Include\cmsis_gcc.h ****   __ASM volatile ("MRS %0, xpsr" : "=r" (result) );
 139:C:\Workspaces\DAVE-4.1\Flightcontroller_PWM_CopterRocks_Working/Libraries/CMSIS/Include\cmsis_gcc.h ****   return(result);
 140:C:\Workspaces\DAVE-4.1\Flightcontroller_PWM_CopterRocks_Working/Libraries/CMSIS/Include\cmsis_gcc.h **** }
 141:C:\Workspaces\DAVE-4.1\Flightcontroller_PWM_CopterRocks_Working/Libraries/CMSIS/Include\cmsis_gcc.h **** 
 142:C:\Workspaces\DAVE-4.1\Flightcontroller_PWM_CopterRocks_Working/Libraries/CMSIS/Include\cmsis_gcc.h **** 
 143:C:\Workspaces\DAVE-4.1\Flightcontroller_PWM_CopterRocks_Working/Libraries/CMSIS/Include\cmsis_gcc.h **** /**
 144:C:\Workspaces\DAVE-4.1\Flightcontroller_PWM_CopterRocks_Working/Libraries/CMSIS/Include\cmsis_gcc.h ****   \brief   Get Process Stack Pointer
 145:C:\Workspaces\DAVE-4.1\Flightcontroller_PWM_CopterRocks_Working/Libraries/CMSIS/Include\cmsis_gcc.h ****   \details Returns the current value of the Process Stack Pointer (PSP).
 146:C:\Workspaces\DAVE-4.1\Flightcontroller_PWM_CopterRocks_Working/Libraries/CMSIS/Include\cmsis_gcc.h ****   \return               PSP Register value
 147:C:\Workspaces\DAVE-4.1\Flightcontroller_PWM_CopterRocks_Working/Libraries/CMSIS/Include\cmsis_gcc.h ****  */
 148:C:\Workspaces\DAVE-4.1\Flightcontroller_PWM_CopterRocks_Working/Libraries/CMSIS/Include\cmsis_gcc.h **** __attribute__( ( always_inline ) ) __STATIC_INLINE uint32_t __get_PSP(void)
 149:C:\Workspaces\DAVE-4.1\Flightcontroller_PWM_CopterRocks_Working/Libraries/CMSIS/Include\cmsis_gcc.h **** {
 150:C:\Workspaces\DAVE-4.1\Flightcontroller_PWM_CopterRocks_Working/Libraries/CMSIS/Include\cmsis_gcc.h ****   register uint32_t result;
 151:C:\Workspaces\DAVE-4.1\Flightcontroller_PWM_CopterRocks_Working/Libraries/CMSIS/Include\cmsis_gcc.h **** 
 152:C:\Workspaces\DAVE-4.1\Flightcontroller_PWM_CopterRocks_Working/Libraries/CMSIS/Include\cmsis_gcc.h ****   __ASM volatile ("MRS %0, psp\n"  : "=r" (result) );
 153:C:\Workspaces\DAVE-4.1\Flightcontroller_PWM_CopterRocks_Working/Libraries/CMSIS/Include\cmsis_gcc.h ****   return(result);
 154:C:\Workspaces\DAVE-4.1\Flightcontroller_PWM_CopterRocks_Working/Libraries/CMSIS/Include\cmsis_gcc.h **** }
 155:C:\Workspaces\DAVE-4.1\Flightcontroller_PWM_CopterRocks_Working/Libraries/CMSIS/Include\cmsis_gcc.h **** 
 156:C:\Workspaces\DAVE-4.1\Flightcontroller_PWM_CopterRocks_Working/Libraries/CMSIS/Include\cmsis_gcc.h **** 
 157:C:\Workspaces\DAVE-4.1\Flightcontroller_PWM_CopterRocks_Working/Libraries/CMSIS/Include\cmsis_gcc.h **** /**
 158:C:\Workspaces\DAVE-4.1\Flightcontroller_PWM_CopterRocks_Working/Libraries/CMSIS/Include\cmsis_gcc.h ****   \brief   Set Process Stack Pointer
 159:C:\Workspaces\DAVE-4.1\Flightcontroller_PWM_CopterRocks_Working/Libraries/CMSIS/Include\cmsis_gcc.h ****   \details Assigns the given value to the Process Stack Pointer (PSP).
 160:C:\Workspaces\DAVE-4.1\Flightcontroller_PWM_CopterRocks_Working/Libraries/CMSIS/Include\cmsis_gcc.h ****   \param [in]    topOfProcStack  Process Stack Pointer value to set
 161:C:\Workspaces\DAVE-4.1\Flightcontroller_PWM_CopterRocks_Working/Libraries/CMSIS/Include\cmsis_gcc.h ****  */
 162:C:\Workspaces\DAVE-4.1\Flightcontroller_PWM_CopterRocks_Working/Libraries/CMSIS/Include\cmsis_gcc.h **** __attribute__( ( always_inline ) ) __STATIC_INLINE void __set_PSP(uint32_t topOfProcStack)
 163:C:\Workspaces\DAVE-4.1\Flightcontroller_PWM_CopterRocks_Working/Libraries/CMSIS/Include\cmsis_gcc.h **** {
 164:C:\Workspaces\DAVE-4.1\Flightcontroller_PWM_CopterRocks_Working/Libraries/CMSIS/Include\cmsis_gcc.h ****   __ASM volatile ("MSR psp, %0\n" : : "r" (topOfProcStack) : "sp");
 165:C:\Workspaces\DAVE-4.1\Flightcontroller_PWM_CopterRocks_Working/Libraries/CMSIS/Include\cmsis_gcc.h **** }
 166:C:\Workspaces\DAVE-4.1\Flightcontroller_PWM_CopterRocks_Working/Libraries/CMSIS/Include\cmsis_gcc.h **** 
 167:C:\Workspaces\DAVE-4.1\Flightcontroller_PWM_CopterRocks_Working/Libraries/CMSIS/Include\cmsis_gcc.h **** 
 168:C:\Workspaces\DAVE-4.1\Flightcontroller_PWM_CopterRocks_Working/Libraries/CMSIS/Include\cmsis_gcc.h **** /**
 169:C:\Workspaces\DAVE-4.1\Flightcontroller_PWM_CopterRocks_Working/Libraries/CMSIS/Include\cmsis_gcc.h ****   \brief   Get Main Stack Pointer
 170:C:\Workspaces\DAVE-4.1\Flightcontroller_PWM_CopterRocks_Working/Libraries/CMSIS/Include\cmsis_gcc.h ****   \details Returns the current value of the Main Stack Pointer (MSP).
 171:C:\Workspaces\DAVE-4.1\Flightcontroller_PWM_CopterRocks_Working/Libraries/CMSIS/Include\cmsis_gcc.h ****   \return               MSP Register value
 172:C:\Workspaces\DAVE-4.1\Flightcontroller_PWM_CopterRocks_Working/Libraries/CMSIS/Include\cmsis_gcc.h ****  */
 173:C:\Workspaces\DAVE-4.1\Flightcontroller_PWM_CopterRocks_Working/Libraries/CMSIS/Include\cmsis_gcc.h **** __attribute__( ( always_inline ) ) __STATIC_INLINE uint32_t __get_MSP(void)
 174:C:\Workspaces\DAVE-4.1\Flightcontroller_PWM_CopterRocks_Working/Libraries/CMSIS/Include\cmsis_gcc.h **** {
 175:C:\Workspaces\DAVE-4.1\Flightcontroller_PWM_CopterRocks_Working/Libraries/CMSIS/Include\cmsis_gcc.h ****   register uint32_t result;
 176:C:\Workspaces\DAVE-4.1\Flightcontroller_PWM_CopterRocks_Working/Libraries/CMSIS/Include\cmsis_gcc.h **** 
 177:C:\Workspaces\DAVE-4.1\Flightcontroller_PWM_CopterRocks_Working/Libraries/CMSIS/Include\cmsis_gcc.h ****   __ASM volatile ("MRS %0, msp\n" : "=r" (result) );
 178:C:\Workspaces\DAVE-4.1\Flightcontroller_PWM_CopterRocks_Working/Libraries/CMSIS/Include\cmsis_gcc.h ****   return(result);
 179:C:\Workspaces\DAVE-4.1\Flightcontroller_PWM_CopterRocks_Working/Libraries/CMSIS/Include\cmsis_gcc.h **** }
 180:C:\Workspaces\DAVE-4.1\Flightcontroller_PWM_CopterRocks_Working/Libraries/CMSIS/Include\cmsis_gcc.h **** 
 181:C:\Workspaces\DAVE-4.1\Flightcontroller_PWM_CopterRocks_Working/Libraries/CMSIS/Include\cmsis_gcc.h **** 
 182:C:\Workspaces\DAVE-4.1\Flightcontroller_PWM_CopterRocks_Working/Libraries/CMSIS/Include\cmsis_gcc.h **** /**
 183:C:\Workspaces\DAVE-4.1\Flightcontroller_PWM_CopterRocks_Working/Libraries/CMSIS/Include\cmsis_gcc.h ****   \brief   Set Main Stack Pointer
 184:C:\Workspaces\DAVE-4.1\Flightcontroller_PWM_CopterRocks_Working/Libraries/CMSIS/Include\cmsis_gcc.h ****   \details Assigns the given value to the Main Stack Pointer (MSP).
 185:C:\Workspaces\DAVE-4.1\Flightcontroller_PWM_CopterRocks_Working/Libraries/CMSIS/Include\cmsis_gcc.h **** 
 186:C:\Workspaces\DAVE-4.1\Flightcontroller_PWM_CopterRocks_Working/Libraries/CMSIS/Include\cmsis_gcc.h ****     \param [in]    topOfMainStack  Main Stack Pointer value to set
 187:C:\Workspaces\DAVE-4.1\Flightcontroller_PWM_CopterRocks_Working/Libraries/CMSIS/Include\cmsis_gcc.h ****  */
 188:C:\Workspaces\DAVE-4.1\Flightcontroller_PWM_CopterRocks_Working/Libraries/CMSIS/Include\cmsis_gcc.h **** __attribute__( ( always_inline ) ) __STATIC_INLINE void __set_MSP(uint32_t topOfMainStack)
 189:C:\Workspaces\DAVE-4.1\Flightcontroller_PWM_CopterRocks_Working/Libraries/CMSIS/Include\cmsis_gcc.h **** {
 190:C:\Workspaces\DAVE-4.1\Flightcontroller_PWM_CopterRocks_Working/Libraries/CMSIS/Include\cmsis_gcc.h ****   __ASM volatile ("MSR msp, %0\n" : : "r" (topOfMainStack) : "sp");
 191:C:\Workspaces\DAVE-4.1\Flightcontroller_PWM_CopterRocks_Working/Libraries/CMSIS/Include\cmsis_gcc.h **** }
 192:C:\Workspaces\DAVE-4.1\Flightcontroller_PWM_CopterRocks_Working/Libraries/CMSIS/Include\cmsis_gcc.h **** 
 193:C:\Workspaces\DAVE-4.1\Flightcontroller_PWM_CopterRocks_Working/Libraries/CMSIS/Include\cmsis_gcc.h **** 
 194:C:\Workspaces\DAVE-4.1\Flightcontroller_PWM_CopterRocks_Working/Libraries/CMSIS/Include\cmsis_gcc.h **** /**
 195:C:\Workspaces\DAVE-4.1\Flightcontroller_PWM_CopterRocks_Working/Libraries/CMSIS/Include\cmsis_gcc.h ****   \brief   Get Priority Mask
 196:C:\Workspaces\DAVE-4.1\Flightcontroller_PWM_CopterRocks_Working/Libraries/CMSIS/Include\cmsis_gcc.h ****   \details Returns the current state of the priority mask bit from the Priority Mask Register.
 197:C:\Workspaces\DAVE-4.1\Flightcontroller_PWM_CopterRocks_Working/Libraries/CMSIS/Include\cmsis_gcc.h ****   \return               Priority Mask value
 198:C:\Workspaces\DAVE-4.1\Flightcontroller_PWM_CopterRocks_Working/Libraries/CMSIS/Include\cmsis_gcc.h ****  */
 199:C:\Workspaces\DAVE-4.1\Flightcontroller_PWM_CopterRocks_Working/Libraries/CMSIS/Include\cmsis_gcc.h **** __attribute__( ( always_inline ) ) __STATIC_INLINE uint32_t __get_PRIMASK(void)
 200:C:\Workspaces\DAVE-4.1\Flightcontroller_PWM_CopterRocks_Working/Libraries/CMSIS/Include\cmsis_gcc.h **** {
 201:C:\Workspaces\DAVE-4.1\Flightcontroller_PWM_CopterRocks_Working/Libraries/CMSIS/Include\cmsis_gcc.h ****   uint32_t result;
 202:C:\Workspaces\DAVE-4.1\Flightcontroller_PWM_CopterRocks_Working/Libraries/CMSIS/Include\cmsis_gcc.h **** 
 203:C:\Workspaces\DAVE-4.1\Flightcontroller_PWM_CopterRocks_Working/Libraries/CMSIS/Include\cmsis_gcc.h ****   __ASM volatile ("MRS %0, primask" : "=r" (result) );
 204:C:\Workspaces\DAVE-4.1\Flightcontroller_PWM_CopterRocks_Working/Libraries/CMSIS/Include\cmsis_gcc.h ****   return(result);
 205:C:\Workspaces\DAVE-4.1\Flightcontroller_PWM_CopterRocks_Working/Libraries/CMSIS/Include\cmsis_gcc.h **** }
 206:C:\Workspaces\DAVE-4.1\Flightcontroller_PWM_CopterRocks_Working/Libraries/CMSIS/Include\cmsis_gcc.h **** 
 207:C:\Workspaces\DAVE-4.1\Flightcontroller_PWM_CopterRocks_Working/Libraries/CMSIS/Include\cmsis_gcc.h **** 
 208:C:\Workspaces\DAVE-4.1\Flightcontroller_PWM_CopterRocks_Working/Libraries/CMSIS/Include\cmsis_gcc.h **** /**
 209:C:\Workspaces\DAVE-4.1\Flightcontroller_PWM_CopterRocks_Working/Libraries/CMSIS/Include\cmsis_gcc.h ****   \brief   Set Priority Mask
 210:C:\Workspaces\DAVE-4.1\Flightcontroller_PWM_CopterRocks_Working/Libraries/CMSIS/Include\cmsis_gcc.h ****   \details Assigns the given value to the Priority Mask Register.
 211:C:\Workspaces\DAVE-4.1\Flightcontroller_PWM_CopterRocks_Working/Libraries/CMSIS/Include\cmsis_gcc.h ****   \param [in]    priMask  Priority Mask
 212:C:\Workspaces\DAVE-4.1\Flightcontroller_PWM_CopterRocks_Working/Libraries/CMSIS/Include\cmsis_gcc.h ****  */
 213:C:\Workspaces\DAVE-4.1\Flightcontroller_PWM_CopterRocks_Working/Libraries/CMSIS/Include\cmsis_gcc.h **** __attribute__( ( always_inline ) ) __STATIC_INLINE void __set_PRIMASK(uint32_t priMask)
 214:C:\Workspaces\DAVE-4.1\Flightcontroller_PWM_CopterRocks_Working/Libraries/CMSIS/Include\cmsis_gcc.h **** {
 215:C:\Workspaces\DAVE-4.1\Flightcontroller_PWM_CopterRocks_Working/Libraries/CMSIS/Include\cmsis_gcc.h ****   __ASM volatile ("MSR primask, %0" : : "r" (priMask) : "memory");
 216:C:\Workspaces\DAVE-4.1\Flightcontroller_PWM_CopterRocks_Working/Libraries/CMSIS/Include\cmsis_gcc.h **** }
 217:C:\Workspaces\DAVE-4.1\Flightcontroller_PWM_CopterRocks_Working/Libraries/CMSIS/Include\cmsis_gcc.h **** 
 218:C:\Workspaces\DAVE-4.1\Flightcontroller_PWM_CopterRocks_Working/Libraries/CMSIS/Include\cmsis_gcc.h **** 
 219:C:\Workspaces\DAVE-4.1\Flightcontroller_PWM_CopterRocks_Working/Libraries/CMSIS/Include\cmsis_gcc.h **** #if       (__CORTEX_M >= 0x03U)
 220:C:\Workspaces\DAVE-4.1\Flightcontroller_PWM_CopterRocks_Working/Libraries/CMSIS/Include\cmsis_gcc.h **** 
 221:C:\Workspaces\DAVE-4.1\Flightcontroller_PWM_CopterRocks_Working/Libraries/CMSIS/Include\cmsis_gcc.h **** /**
 222:C:\Workspaces\DAVE-4.1\Flightcontroller_PWM_CopterRocks_Working/Libraries/CMSIS/Include\cmsis_gcc.h ****   \brief   Enable FIQ
 223:C:\Workspaces\DAVE-4.1\Flightcontroller_PWM_CopterRocks_Working/Libraries/CMSIS/Include\cmsis_gcc.h ****   \details Enables FIQ interrupts by clearing the F-bit in the CPSR.
 224:C:\Workspaces\DAVE-4.1\Flightcontroller_PWM_CopterRocks_Working/Libraries/CMSIS/Include\cmsis_gcc.h ****            Can only be executed in Privileged modes.
 225:C:\Workspaces\DAVE-4.1\Flightcontroller_PWM_CopterRocks_Working/Libraries/CMSIS/Include\cmsis_gcc.h ****  */
 226:C:\Workspaces\DAVE-4.1\Flightcontroller_PWM_CopterRocks_Working/Libraries/CMSIS/Include\cmsis_gcc.h **** __attribute__( ( always_inline ) ) __STATIC_INLINE void __enable_fault_irq(void)
 227:C:\Workspaces\DAVE-4.1\Flightcontroller_PWM_CopterRocks_Working/Libraries/CMSIS/Include\cmsis_gcc.h **** {
 228:C:\Workspaces\DAVE-4.1\Flightcontroller_PWM_CopterRocks_Working/Libraries/CMSIS/Include\cmsis_gcc.h ****   __ASM volatile ("cpsie f" : : : "memory");
 229:C:\Workspaces\DAVE-4.1\Flightcontroller_PWM_CopterRocks_Working/Libraries/CMSIS/Include\cmsis_gcc.h **** }
 230:C:\Workspaces\DAVE-4.1\Flightcontroller_PWM_CopterRocks_Working/Libraries/CMSIS/Include\cmsis_gcc.h **** 
 231:C:\Workspaces\DAVE-4.1\Flightcontroller_PWM_CopterRocks_Working/Libraries/CMSIS/Include\cmsis_gcc.h **** 
 232:C:\Workspaces\DAVE-4.1\Flightcontroller_PWM_CopterRocks_Working/Libraries/CMSIS/Include\cmsis_gcc.h **** /**
 233:C:\Workspaces\DAVE-4.1\Flightcontroller_PWM_CopterRocks_Working/Libraries/CMSIS/Include\cmsis_gcc.h ****   \brief   Disable FIQ
 234:C:\Workspaces\DAVE-4.1\Flightcontroller_PWM_CopterRocks_Working/Libraries/CMSIS/Include\cmsis_gcc.h ****   \details Disables FIQ interrupts by setting the F-bit in the CPSR.
 235:C:\Workspaces\DAVE-4.1\Flightcontroller_PWM_CopterRocks_Working/Libraries/CMSIS/Include\cmsis_gcc.h ****            Can only be executed in Privileged modes.
 236:C:\Workspaces\DAVE-4.1\Flightcontroller_PWM_CopterRocks_Working/Libraries/CMSIS/Include\cmsis_gcc.h ****  */
 237:C:\Workspaces\DAVE-4.1\Flightcontroller_PWM_CopterRocks_Working/Libraries/CMSIS/Include\cmsis_gcc.h **** __attribute__( ( always_inline ) ) __STATIC_INLINE void __disable_fault_irq(void)
 238:C:\Workspaces\DAVE-4.1\Flightcontroller_PWM_CopterRocks_Working/Libraries/CMSIS/Include\cmsis_gcc.h **** {
 239:C:\Workspaces\DAVE-4.1\Flightcontroller_PWM_CopterRocks_Working/Libraries/CMSIS/Include\cmsis_gcc.h ****   __ASM volatile ("cpsid f" : : : "memory");
 240:C:\Workspaces\DAVE-4.1\Flightcontroller_PWM_CopterRocks_Working/Libraries/CMSIS/Include\cmsis_gcc.h **** }
 241:C:\Workspaces\DAVE-4.1\Flightcontroller_PWM_CopterRocks_Working/Libraries/CMSIS/Include\cmsis_gcc.h **** 
 242:C:\Workspaces\DAVE-4.1\Flightcontroller_PWM_CopterRocks_Working/Libraries/CMSIS/Include\cmsis_gcc.h **** 
 243:C:\Workspaces\DAVE-4.1\Flightcontroller_PWM_CopterRocks_Working/Libraries/CMSIS/Include\cmsis_gcc.h **** /**
 244:C:\Workspaces\DAVE-4.1\Flightcontroller_PWM_CopterRocks_Working/Libraries/CMSIS/Include\cmsis_gcc.h ****   \brief   Get Base Priority
 245:C:\Workspaces\DAVE-4.1\Flightcontroller_PWM_CopterRocks_Working/Libraries/CMSIS/Include\cmsis_gcc.h ****   \details Returns the current value of the Base Priority register.
 246:C:\Workspaces\DAVE-4.1\Flightcontroller_PWM_CopterRocks_Working/Libraries/CMSIS/Include\cmsis_gcc.h ****   \return               Base Priority register value
 247:C:\Workspaces\DAVE-4.1\Flightcontroller_PWM_CopterRocks_Working/Libraries/CMSIS/Include\cmsis_gcc.h ****  */
 248:C:\Workspaces\DAVE-4.1\Flightcontroller_PWM_CopterRocks_Working/Libraries/CMSIS/Include\cmsis_gcc.h **** __attribute__( ( always_inline ) ) __STATIC_INLINE uint32_t __get_BASEPRI(void)
 249:C:\Workspaces\DAVE-4.1\Flightcontroller_PWM_CopterRocks_Working/Libraries/CMSIS/Include\cmsis_gcc.h **** {
 250:C:\Workspaces\DAVE-4.1\Flightcontroller_PWM_CopterRocks_Working/Libraries/CMSIS/Include\cmsis_gcc.h ****   uint32_t result;
 251:C:\Workspaces\DAVE-4.1\Flightcontroller_PWM_CopterRocks_Working/Libraries/CMSIS/Include\cmsis_gcc.h **** 
 252:C:\Workspaces\DAVE-4.1\Flightcontroller_PWM_CopterRocks_Working/Libraries/CMSIS/Include\cmsis_gcc.h ****   __ASM volatile ("MRS %0, basepri" : "=r" (result) );
 253:C:\Workspaces\DAVE-4.1\Flightcontroller_PWM_CopterRocks_Working/Libraries/CMSIS/Include\cmsis_gcc.h ****   return(result);
 254:C:\Workspaces\DAVE-4.1\Flightcontroller_PWM_CopterRocks_Working/Libraries/CMSIS/Include\cmsis_gcc.h **** }
 255:C:\Workspaces\DAVE-4.1\Flightcontroller_PWM_CopterRocks_Working/Libraries/CMSIS/Include\cmsis_gcc.h **** 
 256:C:\Workspaces\DAVE-4.1\Flightcontroller_PWM_CopterRocks_Working/Libraries/CMSIS/Include\cmsis_gcc.h **** 
 257:C:\Workspaces\DAVE-4.1\Flightcontroller_PWM_CopterRocks_Working/Libraries/CMSIS/Include\cmsis_gcc.h **** /**
 258:C:\Workspaces\DAVE-4.1\Flightcontroller_PWM_CopterRocks_Working/Libraries/CMSIS/Include\cmsis_gcc.h ****   \brief   Set Base Priority
 259:C:\Workspaces\DAVE-4.1\Flightcontroller_PWM_CopterRocks_Working/Libraries/CMSIS/Include\cmsis_gcc.h ****   \details Assigns the given value to the Base Priority register.
 260:C:\Workspaces\DAVE-4.1\Flightcontroller_PWM_CopterRocks_Working/Libraries/CMSIS/Include\cmsis_gcc.h ****   \param [in]    basePri  Base Priority value to set
 261:C:\Workspaces\DAVE-4.1\Flightcontroller_PWM_CopterRocks_Working/Libraries/CMSIS/Include\cmsis_gcc.h ****  */
 262:C:\Workspaces\DAVE-4.1\Flightcontroller_PWM_CopterRocks_Working/Libraries/CMSIS/Include\cmsis_gcc.h **** __attribute__( ( always_inline ) ) __STATIC_INLINE void __set_BASEPRI(uint32_t value)
 263:C:\Workspaces\DAVE-4.1\Flightcontroller_PWM_CopterRocks_Working/Libraries/CMSIS/Include\cmsis_gcc.h **** {
 264:C:\Workspaces\DAVE-4.1\Flightcontroller_PWM_CopterRocks_Working/Libraries/CMSIS/Include\cmsis_gcc.h ****   __ASM volatile ("MSR basepri, %0" : : "r" (value) : "memory");
 265:C:\Workspaces\DAVE-4.1\Flightcontroller_PWM_CopterRocks_Working/Libraries/CMSIS/Include\cmsis_gcc.h **** }
 266:C:\Workspaces\DAVE-4.1\Flightcontroller_PWM_CopterRocks_Working/Libraries/CMSIS/Include\cmsis_gcc.h **** 
 267:C:\Workspaces\DAVE-4.1\Flightcontroller_PWM_CopterRocks_Working/Libraries/CMSIS/Include\cmsis_gcc.h **** 
 268:C:\Workspaces\DAVE-4.1\Flightcontroller_PWM_CopterRocks_Working/Libraries/CMSIS/Include\cmsis_gcc.h **** /**
 269:C:\Workspaces\DAVE-4.1\Flightcontroller_PWM_CopterRocks_Working/Libraries/CMSIS/Include\cmsis_gcc.h ****   \brief   Set Base Priority with condition
 270:C:\Workspaces\DAVE-4.1\Flightcontroller_PWM_CopterRocks_Working/Libraries/CMSIS/Include\cmsis_gcc.h ****   \details Assigns the given value to the Base Priority register only if BASEPRI masking is disable
 271:C:\Workspaces\DAVE-4.1\Flightcontroller_PWM_CopterRocks_Working/Libraries/CMSIS/Include\cmsis_gcc.h ****            or the new value increases the BASEPRI priority level.
 272:C:\Workspaces\DAVE-4.1\Flightcontroller_PWM_CopterRocks_Working/Libraries/CMSIS/Include\cmsis_gcc.h ****   \param [in]    basePri  Base Priority value to set
 273:C:\Workspaces\DAVE-4.1\Flightcontroller_PWM_CopterRocks_Working/Libraries/CMSIS/Include\cmsis_gcc.h ****  */
 274:C:\Workspaces\DAVE-4.1\Flightcontroller_PWM_CopterRocks_Working/Libraries/CMSIS/Include\cmsis_gcc.h **** __attribute__( ( always_inline ) ) __STATIC_INLINE void __set_BASEPRI_MAX(uint32_t value)
 275:C:\Workspaces\DAVE-4.1\Flightcontroller_PWM_CopterRocks_Working/Libraries/CMSIS/Include\cmsis_gcc.h **** {
 276:C:\Workspaces\DAVE-4.1\Flightcontroller_PWM_CopterRocks_Working/Libraries/CMSIS/Include\cmsis_gcc.h ****   __ASM volatile ("MSR basepri_max, %0" : : "r" (value) : "memory");
 277:C:\Workspaces\DAVE-4.1\Flightcontroller_PWM_CopterRocks_Working/Libraries/CMSIS/Include\cmsis_gcc.h **** }
 278:C:\Workspaces\DAVE-4.1\Flightcontroller_PWM_CopterRocks_Working/Libraries/CMSIS/Include\cmsis_gcc.h **** 
 279:C:\Workspaces\DAVE-4.1\Flightcontroller_PWM_CopterRocks_Working/Libraries/CMSIS/Include\cmsis_gcc.h **** 
 280:C:\Workspaces\DAVE-4.1\Flightcontroller_PWM_CopterRocks_Working/Libraries/CMSIS/Include\cmsis_gcc.h **** /**
 281:C:\Workspaces\DAVE-4.1\Flightcontroller_PWM_CopterRocks_Working/Libraries/CMSIS/Include\cmsis_gcc.h ****   \brief   Get Fault Mask
 282:C:\Workspaces\DAVE-4.1\Flightcontroller_PWM_CopterRocks_Working/Libraries/CMSIS/Include\cmsis_gcc.h ****   \details Returns the current value of the Fault Mask register.
 283:C:\Workspaces\DAVE-4.1\Flightcontroller_PWM_CopterRocks_Working/Libraries/CMSIS/Include\cmsis_gcc.h ****   \return               Fault Mask register value
 284:C:\Workspaces\DAVE-4.1\Flightcontroller_PWM_CopterRocks_Working/Libraries/CMSIS/Include\cmsis_gcc.h ****  */
 285:C:\Workspaces\DAVE-4.1\Flightcontroller_PWM_CopterRocks_Working/Libraries/CMSIS/Include\cmsis_gcc.h **** __attribute__( ( always_inline ) ) __STATIC_INLINE uint32_t __get_FAULTMASK(void)
 286:C:\Workspaces\DAVE-4.1\Flightcontroller_PWM_CopterRocks_Working/Libraries/CMSIS/Include\cmsis_gcc.h **** {
 287:C:\Workspaces\DAVE-4.1\Flightcontroller_PWM_CopterRocks_Working/Libraries/CMSIS/Include\cmsis_gcc.h ****   uint32_t result;
 288:C:\Workspaces\DAVE-4.1\Flightcontroller_PWM_CopterRocks_Working/Libraries/CMSIS/Include\cmsis_gcc.h **** 
 289:C:\Workspaces\DAVE-4.1\Flightcontroller_PWM_CopterRocks_Working/Libraries/CMSIS/Include\cmsis_gcc.h ****   __ASM volatile ("MRS %0, faultmask" : "=r" (result) );
 290:C:\Workspaces\DAVE-4.1\Flightcontroller_PWM_CopterRocks_Working/Libraries/CMSIS/Include\cmsis_gcc.h ****   return(result);
 291:C:\Workspaces\DAVE-4.1\Flightcontroller_PWM_CopterRocks_Working/Libraries/CMSIS/Include\cmsis_gcc.h **** }
 292:C:\Workspaces\DAVE-4.1\Flightcontroller_PWM_CopterRocks_Working/Libraries/CMSIS/Include\cmsis_gcc.h **** 
 293:C:\Workspaces\DAVE-4.1\Flightcontroller_PWM_CopterRocks_Working/Libraries/CMSIS/Include\cmsis_gcc.h **** 
 294:C:\Workspaces\DAVE-4.1\Flightcontroller_PWM_CopterRocks_Working/Libraries/CMSIS/Include\cmsis_gcc.h **** /**
 295:C:\Workspaces\DAVE-4.1\Flightcontroller_PWM_CopterRocks_Working/Libraries/CMSIS/Include\cmsis_gcc.h ****   \brief   Set Fault Mask
 296:C:\Workspaces\DAVE-4.1\Flightcontroller_PWM_CopterRocks_Working/Libraries/CMSIS/Include\cmsis_gcc.h ****   \details Assigns the given value to the Fault Mask register.
 297:C:\Workspaces\DAVE-4.1\Flightcontroller_PWM_CopterRocks_Working/Libraries/CMSIS/Include\cmsis_gcc.h ****   \param [in]    faultMask  Fault Mask value to set
 298:C:\Workspaces\DAVE-4.1\Flightcontroller_PWM_CopterRocks_Working/Libraries/CMSIS/Include\cmsis_gcc.h ****  */
 299:C:\Workspaces\DAVE-4.1\Flightcontroller_PWM_CopterRocks_Working/Libraries/CMSIS/Include\cmsis_gcc.h **** __attribute__( ( always_inline ) ) __STATIC_INLINE void __set_FAULTMASK(uint32_t faultMask)
 300:C:\Workspaces\DAVE-4.1\Flightcontroller_PWM_CopterRocks_Working/Libraries/CMSIS/Include\cmsis_gcc.h **** {
 301:C:\Workspaces\DAVE-4.1\Flightcontroller_PWM_CopterRocks_Working/Libraries/CMSIS/Include\cmsis_gcc.h ****   __ASM volatile ("MSR faultmask, %0" : : "r" (faultMask) : "memory");
 302:C:\Workspaces\DAVE-4.1\Flightcontroller_PWM_CopterRocks_Working/Libraries/CMSIS/Include\cmsis_gcc.h **** }
 303:C:\Workspaces\DAVE-4.1\Flightcontroller_PWM_CopterRocks_Working/Libraries/CMSIS/Include\cmsis_gcc.h **** 
 304:C:\Workspaces\DAVE-4.1\Flightcontroller_PWM_CopterRocks_Working/Libraries/CMSIS/Include\cmsis_gcc.h **** #endif /* (__CORTEX_M >= 0x03U) */
 305:C:\Workspaces\DAVE-4.1\Flightcontroller_PWM_CopterRocks_Working/Libraries/CMSIS/Include\cmsis_gcc.h **** 
 306:C:\Workspaces\DAVE-4.1\Flightcontroller_PWM_CopterRocks_Working/Libraries/CMSIS/Include\cmsis_gcc.h **** 
 307:C:\Workspaces\DAVE-4.1\Flightcontroller_PWM_CopterRocks_Working/Libraries/CMSIS/Include\cmsis_gcc.h **** #if       (__CORTEX_M == 0x04U) || (__CORTEX_M == 0x07U)
 308:C:\Workspaces\DAVE-4.1\Flightcontroller_PWM_CopterRocks_Working/Libraries/CMSIS/Include\cmsis_gcc.h **** 
 309:C:\Workspaces\DAVE-4.1\Flightcontroller_PWM_CopterRocks_Working/Libraries/CMSIS/Include\cmsis_gcc.h **** /**
 310:C:\Workspaces\DAVE-4.1\Flightcontroller_PWM_CopterRocks_Working/Libraries/CMSIS/Include\cmsis_gcc.h ****   \brief   Get FPSCR
 311:C:\Workspaces\DAVE-4.1\Flightcontroller_PWM_CopterRocks_Working/Libraries/CMSIS/Include\cmsis_gcc.h ****   \details Returns the current value of the Floating Point Status/Control register.
 312:C:\Workspaces\DAVE-4.1\Flightcontroller_PWM_CopterRocks_Working/Libraries/CMSIS/Include\cmsis_gcc.h ****   \return               Floating Point Status/Control register value
 313:C:\Workspaces\DAVE-4.1\Flightcontroller_PWM_CopterRocks_Working/Libraries/CMSIS/Include\cmsis_gcc.h ****  */
 314:C:\Workspaces\DAVE-4.1\Flightcontroller_PWM_CopterRocks_Working/Libraries/CMSIS/Include\cmsis_gcc.h **** __attribute__( ( always_inline ) ) __STATIC_INLINE uint32_t __get_FPSCR(void)
 315:C:\Workspaces\DAVE-4.1\Flightcontroller_PWM_CopterRocks_Working/Libraries/CMSIS/Include\cmsis_gcc.h **** {
 316:C:\Workspaces\DAVE-4.1\Flightcontroller_PWM_CopterRocks_Working/Libraries/CMSIS/Include\cmsis_gcc.h **** #if (__FPU_PRESENT == 1U) && (__FPU_USED == 1U)
 317:C:\Workspaces\DAVE-4.1\Flightcontroller_PWM_CopterRocks_Working/Libraries/CMSIS/Include\cmsis_gcc.h ****   uint32_t result;
 318:C:\Workspaces\DAVE-4.1\Flightcontroller_PWM_CopterRocks_Working/Libraries/CMSIS/Include\cmsis_gcc.h **** 
 319:C:\Workspaces\DAVE-4.1\Flightcontroller_PWM_CopterRocks_Working/Libraries/CMSIS/Include\cmsis_gcc.h ****   /* Empty asm statement works as a scheduling barrier */
 320:C:\Workspaces\DAVE-4.1\Flightcontroller_PWM_CopterRocks_Working/Libraries/CMSIS/Include\cmsis_gcc.h ****   __ASM volatile ("");
 321:C:\Workspaces\DAVE-4.1\Flightcontroller_PWM_CopterRocks_Working/Libraries/CMSIS/Include\cmsis_gcc.h ****   __ASM volatile ("VMRS %0, fpscr" : "=r" (result) );
 322:C:\Workspaces\DAVE-4.1\Flightcontroller_PWM_CopterRocks_Working/Libraries/CMSIS/Include\cmsis_gcc.h ****   __ASM volatile ("");
 323:C:\Workspaces\DAVE-4.1\Flightcontroller_PWM_CopterRocks_Working/Libraries/CMSIS/Include\cmsis_gcc.h ****   return(result);
 324:C:\Workspaces\DAVE-4.1\Flightcontroller_PWM_CopterRocks_Working/Libraries/CMSIS/Include\cmsis_gcc.h **** #else
 325:C:\Workspaces\DAVE-4.1\Flightcontroller_PWM_CopterRocks_Working/Libraries/CMSIS/Include\cmsis_gcc.h ****    return(0);
 326:C:\Workspaces\DAVE-4.1\Flightcontroller_PWM_CopterRocks_Working/Libraries/CMSIS/Include\cmsis_gcc.h **** #endif
 327:C:\Workspaces\DAVE-4.1\Flightcontroller_PWM_CopterRocks_Working/Libraries/CMSIS/Include\cmsis_gcc.h **** }
 328:C:\Workspaces\DAVE-4.1\Flightcontroller_PWM_CopterRocks_Working/Libraries/CMSIS/Include\cmsis_gcc.h **** 
 329:C:\Workspaces\DAVE-4.1\Flightcontroller_PWM_CopterRocks_Working/Libraries/CMSIS/Include\cmsis_gcc.h **** 
 330:C:\Workspaces\DAVE-4.1\Flightcontroller_PWM_CopterRocks_Working/Libraries/CMSIS/Include\cmsis_gcc.h **** /**
 331:C:\Workspaces\DAVE-4.1\Flightcontroller_PWM_CopterRocks_Working/Libraries/CMSIS/Include\cmsis_gcc.h ****   \brief   Set FPSCR
 332:C:\Workspaces\DAVE-4.1\Flightcontroller_PWM_CopterRocks_Working/Libraries/CMSIS/Include\cmsis_gcc.h ****   \details Assigns the given value to the Floating Point Status/Control register.
 333:C:\Workspaces\DAVE-4.1\Flightcontroller_PWM_CopterRocks_Working/Libraries/CMSIS/Include\cmsis_gcc.h ****   \param [in]    fpscr  Floating Point Status/Control value to set
 334:C:\Workspaces\DAVE-4.1\Flightcontroller_PWM_CopterRocks_Working/Libraries/CMSIS/Include\cmsis_gcc.h ****  */
 335:C:\Workspaces\DAVE-4.1\Flightcontroller_PWM_CopterRocks_Working/Libraries/CMSIS/Include\cmsis_gcc.h **** __attribute__( ( always_inline ) ) __STATIC_INLINE void __set_FPSCR(uint32_t fpscr)
 336:C:\Workspaces\DAVE-4.1\Flightcontroller_PWM_CopterRocks_Working/Libraries/CMSIS/Include\cmsis_gcc.h **** {
 337:C:\Workspaces\DAVE-4.1\Flightcontroller_PWM_CopterRocks_Working/Libraries/CMSIS/Include\cmsis_gcc.h **** #if (__FPU_PRESENT == 1U) && (__FPU_USED == 1U)
 338:C:\Workspaces\DAVE-4.1\Flightcontroller_PWM_CopterRocks_Working/Libraries/CMSIS/Include\cmsis_gcc.h ****   /* Empty asm statement works as a scheduling barrier */
 339:C:\Workspaces\DAVE-4.1\Flightcontroller_PWM_CopterRocks_Working/Libraries/CMSIS/Include\cmsis_gcc.h ****   __ASM volatile ("");
 340:C:\Workspaces\DAVE-4.1\Flightcontroller_PWM_CopterRocks_Working/Libraries/CMSIS/Include\cmsis_gcc.h ****   __ASM volatile ("VMSR fpscr, %0" : : "r" (fpscr) : "vfpcc");
 341:C:\Workspaces\DAVE-4.1\Flightcontroller_PWM_CopterRocks_Working/Libraries/CMSIS/Include\cmsis_gcc.h ****   __ASM volatile ("");
 342:C:\Workspaces\DAVE-4.1\Flightcontroller_PWM_CopterRocks_Working/Libraries/CMSIS/Include\cmsis_gcc.h **** #endif
 343:C:\Workspaces\DAVE-4.1\Flightcontroller_PWM_CopterRocks_Working/Libraries/CMSIS/Include\cmsis_gcc.h **** }
 344:C:\Workspaces\DAVE-4.1\Flightcontroller_PWM_CopterRocks_Working/Libraries/CMSIS/Include\cmsis_gcc.h **** 
 345:C:\Workspaces\DAVE-4.1\Flightcontroller_PWM_CopterRocks_Working/Libraries/CMSIS/Include\cmsis_gcc.h **** #endif /* (__CORTEX_M == 0x04U) || (__CORTEX_M == 0x07U) */
 346:C:\Workspaces\DAVE-4.1\Flightcontroller_PWM_CopterRocks_Working/Libraries/CMSIS/Include\cmsis_gcc.h **** 
 347:C:\Workspaces\DAVE-4.1\Flightcontroller_PWM_CopterRocks_Working/Libraries/CMSIS/Include\cmsis_gcc.h **** 
 348:C:\Workspaces\DAVE-4.1\Flightcontroller_PWM_CopterRocks_Working/Libraries/CMSIS/Include\cmsis_gcc.h **** 
 349:C:\Workspaces\DAVE-4.1\Flightcontroller_PWM_CopterRocks_Working/Libraries/CMSIS/Include\cmsis_gcc.h **** /*@} end of CMSIS_Core_RegAccFunctions */
 350:C:\Workspaces\DAVE-4.1\Flightcontroller_PWM_CopterRocks_Working/Libraries/CMSIS/Include\cmsis_gcc.h **** 
 351:C:\Workspaces\DAVE-4.1\Flightcontroller_PWM_CopterRocks_Working/Libraries/CMSIS/Include\cmsis_gcc.h **** 
 352:C:\Workspaces\DAVE-4.1\Flightcontroller_PWM_CopterRocks_Working/Libraries/CMSIS/Include\cmsis_gcc.h **** /* ##########################  Core Instruction Access  ######################### */
 353:C:\Workspaces\DAVE-4.1\Flightcontroller_PWM_CopterRocks_Working/Libraries/CMSIS/Include\cmsis_gcc.h **** /** \defgroup CMSIS_Core_InstructionInterface CMSIS Core Instruction Interface
 354:C:\Workspaces\DAVE-4.1\Flightcontroller_PWM_CopterRocks_Working/Libraries/CMSIS/Include\cmsis_gcc.h ****   Access to dedicated instructions
 355:C:\Workspaces\DAVE-4.1\Flightcontroller_PWM_CopterRocks_Working/Libraries/CMSIS/Include\cmsis_gcc.h ****   @{
 356:C:\Workspaces\DAVE-4.1\Flightcontroller_PWM_CopterRocks_Working/Libraries/CMSIS/Include\cmsis_gcc.h **** */
 357:C:\Workspaces\DAVE-4.1\Flightcontroller_PWM_CopterRocks_Working/Libraries/CMSIS/Include\cmsis_gcc.h **** 
 358:C:\Workspaces\DAVE-4.1\Flightcontroller_PWM_CopterRocks_Working/Libraries/CMSIS/Include\cmsis_gcc.h **** /* Define macros for porting to both thumb1 and thumb2.
 359:C:\Workspaces\DAVE-4.1\Flightcontroller_PWM_CopterRocks_Working/Libraries/CMSIS/Include\cmsis_gcc.h ****  * For thumb1, use low register (r0-r7), specified by constraint "l"
 360:C:\Workspaces\DAVE-4.1\Flightcontroller_PWM_CopterRocks_Working/Libraries/CMSIS/Include\cmsis_gcc.h ****  * Otherwise, use general registers, specified by constraint "r" */
 361:C:\Workspaces\DAVE-4.1\Flightcontroller_PWM_CopterRocks_Working/Libraries/CMSIS/Include\cmsis_gcc.h **** #if defined (__thumb__) && !defined (__thumb2__)
 362:C:\Workspaces\DAVE-4.1\Flightcontroller_PWM_CopterRocks_Working/Libraries/CMSIS/Include\cmsis_gcc.h **** #define __CMSIS_GCC_OUT_REG(r) "=l" (r)
 363:C:\Workspaces\DAVE-4.1\Flightcontroller_PWM_CopterRocks_Working/Libraries/CMSIS/Include\cmsis_gcc.h **** #define __CMSIS_GCC_USE_REG(r) "l" (r)
 364:C:\Workspaces\DAVE-4.1\Flightcontroller_PWM_CopterRocks_Working/Libraries/CMSIS/Include\cmsis_gcc.h **** #else
 365:C:\Workspaces\DAVE-4.1\Flightcontroller_PWM_CopterRocks_Working/Libraries/CMSIS/Include\cmsis_gcc.h **** #define __CMSIS_GCC_OUT_REG(r) "=r" (r)
 366:C:\Workspaces\DAVE-4.1\Flightcontroller_PWM_CopterRocks_Working/Libraries/CMSIS/Include\cmsis_gcc.h **** #define __CMSIS_GCC_USE_REG(r) "r" (r)
 367:C:\Workspaces\DAVE-4.1\Flightcontroller_PWM_CopterRocks_Working/Libraries/CMSIS/Include\cmsis_gcc.h **** #endif
 368:C:\Workspaces\DAVE-4.1\Flightcontroller_PWM_CopterRocks_Working/Libraries/CMSIS/Include\cmsis_gcc.h **** 
 369:C:\Workspaces\DAVE-4.1\Flightcontroller_PWM_CopterRocks_Working/Libraries/CMSIS/Include\cmsis_gcc.h **** /**
 370:C:\Workspaces\DAVE-4.1\Flightcontroller_PWM_CopterRocks_Working/Libraries/CMSIS/Include\cmsis_gcc.h ****   \brief   No Operation
 371:C:\Workspaces\DAVE-4.1\Flightcontroller_PWM_CopterRocks_Working/Libraries/CMSIS/Include\cmsis_gcc.h ****   \details No Operation does nothing. This instruction can be used for code alignment purposes.
 372:C:\Workspaces\DAVE-4.1\Flightcontroller_PWM_CopterRocks_Working/Libraries/CMSIS/Include\cmsis_gcc.h ****  */
 373:C:\Workspaces\DAVE-4.1\Flightcontroller_PWM_CopterRocks_Working/Libraries/CMSIS/Include\cmsis_gcc.h **** __attribute__((always_inline)) __STATIC_INLINE void __NOP(void)
 374:C:\Workspaces\DAVE-4.1\Flightcontroller_PWM_CopterRocks_Working/Libraries/CMSIS/Include\cmsis_gcc.h **** {
 375:C:\Workspaces\DAVE-4.1\Flightcontroller_PWM_CopterRocks_Working/Libraries/CMSIS/Include\cmsis_gcc.h ****   __ASM volatile ("nop");
 376:C:\Workspaces\DAVE-4.1\Flightcontroller_PWM_CopterRocks_Working/Libraries/CMSIS/Include\cmsis_gcc.h **** }
 377:C:\Workspaces\DAVE-4.1\Flightcontroller_PWM_CopterRocks_Working/Libraries/CMSIS/Include\cmsis_gcc.h **** 
 378:C:\Workspaces\DAVE-4.1\Flightcontroller_PWM_CopterRocks_Working/Libraries/CMSIS/Include\cmsis_gcc.h **** 
 379:C:\Workspaces\DAVE-4.1\Flightcontroller_PWM_CopterRocks_Working/Libraries/CMSIS/Include\cmsis_gcc.h **** /**
 380:C:\Workspaces\DAVE-4.1\Flightcontroller_PWM_CopterRocks_Working/Libraries/CMSIS/Include\cmsis_gcc.h ****   \brief   Wait For Interrupt
 381:C:\Workspaces\DAVE-4.1\Flightcontroller_PWM_CopterRocks_Working/Libraries/CMSIS/Include\cmsis_gcc.h ****   \details Wait For Interrupt is a hint instruction that suspends execution until one of a number o
 382:C:\Workspaces\DAVE-4.1\Flightcontroller_PWM_CopterRocks_Working/Libraries/CMSIS/Include\cmsis_gcc.h ****  */
 383:C:\Workspaces\DAVE-4.1\Flightcontroller_PWM_CopterRocks_Working/Libraries/CMSIS/Include\cmsis_gcc.h **** __attribute__((always_inline)) __STATIC_INLINE void __WFI(void)
 384:C:\Workspaces\DAVE-4.1\Flightcontroller_PWM_CopterRocks_Working/Libraries/CMSIS/Include\cmsis_gcc.h **** {
 385:C:\Workspaces\DAVE-4.1\Flightcontroller_PWM_CopterRocks_Working/Libraries/CMSIS/Include\cmsis_gcc.h ****   __ASM volatile ("wfi");
 386:C:\Workspaces\DAVE-4.1\Flightcontroller_PWM_CopterRocks_Working/Libraries/CMSIS/Include\cmsis_gcc.h **** }
 387:C:\Workspaces\DAVE-4.1\Flightcontroller_PWM_CopterRocks_Working/Libraries/CMSIS/Include\cmsis_gcc.h **** 
 388:C:\Workspaces\DAVE-4.1\Flightcontroller_PWM_CopterRocks_Working/Libraries/CMSIS/Include\cmsis_gcc.h **** 
 389:C:\Workspaces\DAVE-4.1\Flightcontroller_PWM_CopterRocks_Working/Libraries/CMSIS/Include\cmsis_gcc.h **** /**
 390:C:\Workspaces\DAVE-4.1\Flightcontroller_PWM_CopterRocks_Working/Libraries/CMSIS/Include\cmsis_gcc.h ****   \brief   Wait For Event
 391:C:\Workspaces\DAVE-4.1\Flightcontroller_PWM_CopterRocks_Working/Libraries/CMSIS/Include\cmsis_gcc.h ****   \details Wait For Event is a hint instruction that permits the processor to enter
 392:C:\Workspaces\DAVE-4.1\Flightcontroller_PWM_CopterRocks_Working/Libraries/CMSIS/Include\cmsis_gcc.h ****     a low-power state until one of a number of events occurs.
 393:C:\Workspaces\DAVE-4.1\Flightcontroller_PWM_CopterRocks_Working/Libraries/CMSIS/Include\cmsis_gcc.h ****  */
 394:C:\Workspaces\DAVE-4.1\Flightcontroller_PWM_CopterRocks_Working/Libraries/CMSIS/Include\cmsis_gcc.h **** __attribute__((always_inline)) __STATIC_INLINE void __WFE(void)
 395:C:\Workspaces\DAVE-4.1\Flightcontroller_PWM_CopterRocks_Working/Libraries/CMSIS/Include\cmsis_gcc.h **** {
 396:C:\Workspaces\DAVE-4.1\Flightcontroller_PWM_CopterRocks_Working/Libraries/CMSIS/Include\cmsis_gcc.h ****   __ASM volatile ("wfe");
 397:C:\Workspaces\DAVE-4.1\Flightcontroller_PWM_CopterRocks_Working/Libraries/CMSIS/Include\cmsis_gcc.h **** }
 398:C:\Workspaces\DAVE-4.1\Flightcontroller_PWM_CopterRocks_Working/Libraries/CMSIS/Include\cmsis_gcc.h **** 
 399:C:\Workspaces\DAVE-4.1\Flightcontroller_PWM_CopterRocks_Working/Libraries/CMSIS/Include\cmsis_gcc.h **** 
 400:C:\Workspaces\DAVE-4.1\Flightcontroller_PWM_CopterRocks_Working/Libraries/CMSIS/Include\cmsis_gcc.h **** /**
 401:C:\Workspaces\DAVE-4.1\Flightcontroller_PWM_CopterRocks_Working/Libraries/CMSIS/Include\cmsis_gcc.h ****   \brief   Send Event
 402:C:\Workspaces\DAVE-4.1\Flightcontroller_PWM_CopterRocks_Working/Libraries/CMSIS/Include\cmsis_gcc.h ****   \details Send Event is a hint instruction. It causes an event to be signaled to the CPU.
 403:C:\Workspaces\DAVE-4.1\Flightcontroller_PWM_CopterRocks_Working/Libraries/CMSIS/Include\cmsis_gcc.h ****  */
 404:C:\Workspaces\DAVE-4.1\Flightcontroller_PWM_CopterRocks_Working/Libraries/CMSIS/Include\cmsis_gcc.h **** __attribute__((always_inline)) __STATIC_INLINE void __SEV(void)
 405:C:\Workspaces\DAVE-4.1\Flightcontroller_PWM_CopterRocks_Working/Libraries/CMSIS/Include\cmsis_gcc.h **** {
 406:C:\Workspaces\DAVE-4.1\Flightcontroller_PWM_CopterRocks_Working/Libraries/CMSIS/Include\cmsis_gcc.h ****   __ASM volatile ("sev");
 407:C:\Workspaces\DAVE-4.1\Flightcontroller_PWM_CopterRocks_Working/Libraries/CMSIS/Include\cmsis_gcc.h **** }
 408:C:\Workspaces\DAVE-4.1\Flightcontroller_PWM_CopterRocks_Working/Libraries/CMSIS/Include\cmsis_gcc.h **** 
 409:C:\Workspaces\DAVE-4.1\Flightcontroller_PWM_CopterRocks_Working/Libraries/CMSIS/Include\cmsis_gcc.h **** 
 410:C:\Workspaces\DAVE-4.1\Flightcontroller_PWM_CopterRocks_Working/Libraries/CMSIS/Include\cmsis_gcc.h **** /**
 411:C:\Workspaces\DAVE-4.1\Flightcontroller_PWM_CopterRocks_Working/Libraries/CMSIS/Include\cmsis_gcc.h ****   \brief   Instruction Synchronization Barrier
 412:C:\Workspaces\DAVE-4.1\Flightcontroller_PWM_CopterRocks_Working/Libraries/CMSIS/Include\cmsis_gcc.h ****   \details Instruction Synchronization Barrier flushes the pipeline in the processor,
 413:C:\Workspaces\DAVE-4.1\Flightcontroller_PWM_CopterRocks_Working/Libraries/CMSIS/Include\cmsis_gcc.h ****            so that all instructions following the ISB are fetched from cache or memory,
 414:C:\Workspaces\DAVE-4.1\Flightcontroller_PWM_CopterRocks_Working/Libraries/CMSIS/Include\cmsis_gcc.h ****            after the instruction has been completed.
 415:C:\Workspaces\DAVE-4.1\Flightcontroller_PWM_CopterRocks_Working/Libraries/CMSIS/Include\cmsis_gcc.h ****  */
 416:C:\Workspaces\DAVE-4.1\Flightcontroller_PWM_CopterRocks_Working/Libraries/CMSIS/Include\cmsis_gcc.h **** __attribute__((always_inline)) __STATIC_INLINE void __ISB(void)
 417:C:\Workspaces\DAVE-4.1\Flightcontroller_PWM_CopterRocks_Working/Libraries/CMSIS/Include\cmsis_gcc.h **** {
 418:C:\Workspaces\DAVE-4.1\Flightcontroller_PWM_CopterRocks_Working/Libraries/CMSIS/Include\cmsis_gcc.h ****   __ASM volatile ("isb 0xF":::"memory");
 419:C:\Workspaces\DAVE-4.1\Flightcontroller_PWM_CopterRocks_Working/Libraries/CMSIS/Include\cmsis_gcc.h **** }
 420:C:\Workspaces\DAVE-4.1\Flightcontroller_PWM_CopterRocks_Working/Libraries/CMSIS/Include\cmsis_gcc.h **** 
 421:C:\Workspaces\DAVE-4.1\Flightcontroller_PWM_CopterRocks_Working/Libraries/CMSIS/Include\cmsis_gcc.h **** 
 422:C:\Workspaces\DAVE-4.1\Flightcontroller_PWM_CopterRocks_Working/Libraries/CMSIS/Include\cmsis_gcc.h **** /**
 423:C:\Workspaces\DAVE-4.1\Flightcontroller_PWM_CopterRocks_Working/Libraries/CMSIS/Include\cmsis_gcc.h ****   \brief   Data Synchronization Barrier
 424:C:\Workspaces\DAVE-4.1\Flightcontroller_PWM_CopterRocks_Working/Libraries/CMSIS/Include\cmsis_gcc.h ****   \details Acts as a special kind of Data Memory Barrier.
 425:C:\Workspaces\DAVE-4.1\Flightcontroller_PWM_CopterRocks_Working/Libraries/CMSIS/Include\cmsis_gcc.h ****            It completes when all explicit memory accesses before this instruction complete.
 426:C:\Workspaces\DAVE-4.1\Flightcontroller_PWM_CopterRocks_Working/Libraries/CMSIS/Include\cmsis_gcc.h ****  */
 427:C:\Workspaces\DAVE-4.1\Flightcontroller_PWM_CopterRocks_Working/Libraries/CMSIS/Include\cmsis_gcc.h **** __attribute__((always_inline)) __STATIC_INLINE void __DSB(void)
 428:C:\Workspaces\DAVE-4.1\Flightcontroller_PWM_CopterRocks_Working/Libraries/CMSIS/Include\cmsis_gcc.h **** {
 429:C:\Workspaces\DAVE-4.1\Flightcontroller_PWM_CopterRocks_Working/Libraries/CMSIS/Include\cmsis_gcc.h ****   __ASM volatile ("dsb 0xF":::"memory");
 430:C:\Workspaces\DAVE-4.1\Flightcontroller_PWM_CopterRocks_Working/Libraries/CMSIS/Include\cmsis_gcc.h **** }
 431:C:\Workspaces\DAVE-4.1\Flightcontroller_PWM_CopterRocks_Working/Libraries/CMSIS/Include\cmsis_gcc.h **** 
 432:C:\Workspaces\DAVE-4.1\Flightcontroller_PWM_CopterRocks_Working/Libraries/CMSIS/Include\cmsis_gcc.h **** 
 433:C:\Workspaces\DAVE-4.1\Flightcontroller_PWM_CopterRocks_Working/Libraries/CMSIS/Include\cmsis_gcc.h **** /**
 434:C:\Workspaces\DAVE-4.1\Flightcontroller_PWM_CopterRocks_Working/Libraries/CMSIS/Include\cmsis_gcc.h ****   \brief   Data Memory Barrier
 435:C:\Workspaces\DAVE-4.1\Flightcontroller_PWM_CopterRocks_Working/Libraries/CMSIS/Include\cmsis_gcc.h ****   \details Ensures the apparent order of the explicit memory operations before
 436:C:\Workspaces\DAVE-4.1\Flightcontroller_PWM_CopterRocks_Working/Libraries/CMSIS/Include\cmsis_gcc.h ****            and after the instruction, without ensuring their completion.
 437:C:\Workspaces\DAVE-4.1\Flightcontroller_PWM_CopterRocks_Working/Libraries/CMSIS/Include\cmsis_gcc.h ****  */
 438:C:\Workspaces\DAVE-4.1\Flightcontroller_PWM_CopterRocks_Working/Libraries/CMSIS/Include\cmsis_gcc.h **** __attribute__((always_inline)) __STATIC_INLINE void __DMB(void)
 439:C:\Workspaces\DAVE-4.1\Flightcontroller_PWM_CopterRocks_Working/Libraries/CMSIS/Include\cmsis_gcc.h **** {
 440:C:\Workspaces\DAVE-4.1\Flightcontroller_PWM_CopterRocks_Working/Libraries/CMSIS/Include\cmsis_gcc.h ****   __ASM volatile ("dmb 0xF":::"memory");
 441:C:\Workspaces\DAVE-4.1\Flightcontroller_PWM_CopterRocks_Working/Libraries/CMSIS/Include\cmsis_gcc.h **** }
 442:C:\Workspaces\DAVE-4.1\Flightcontroller_PWM_CopterRocks_Working/Libraries/CMSIS/Include\cmsis_gcc.h **** 
 443:C:\Workspaces\DAVE-4.1\Flightcontroller_PWM_CopterRocks_Working/Libraries/CMSIS/Include\cmsis_gcc.h **** 
 444:C:\Workspaces\DAVE-4.1\Flightcontroller_PWM_CopterRocks_Working/Libraries/CMSIS/Include\cmsis_gcc.h **** /**
 445:C:\Workspaces\DAVE-4.1\Flightcontroller_PWM_CopterRocks_Working/Libraries/CMSIS/Include\cmsis_gcc.h ****   \brief   Reverse byte order (32 bit)
 446:C:\Workspaces\DAVE-4.1\Flightcontroller_PWM_CopterRocks_Working/Libraries/CMSIS/Include\cmsis_gcc.h ****   \details Reverses the byte order in integer value.
 447:C:\Workspaces\DAVE-4.1\Flightcontroller_PWM_CopterRocks_Working/Libraries/CMSIS/Include\cmsis_gcc.h ****   \param [in]    value  Value to reverse
 448:C:\Workspaces\DAVE-4.1\Flightcontroller_PWM_CopterRocks_Working/Libraries/CMSIS/Include\cmsis_gcc.h ****   \return               Reversed value
 449:C:\Workspaces\DAVE-4.1\Flightcontroller_PWM_CopterRocks_Working/Libraries/CMSIS/Include\cmsis_gcc.h ****  */
 450:C:\Workspaces\DAVE-4.1\Flightcontroller_PWM_CopterRocks_Working/Libraries/CMSIS/Include\cmsis_gcc.h **** __attribute__((always_inline)) __STATIC_INLINE uint32_t __REV(uint32_t value)
 451:C:\Workspaces\DAVE-4.1\Flightcontroller_PWM_CopterRocks_Working/Libraries/CMSIS/Include\cmsis_gcc.h **** {
 452:C:\Workspaces\DAVE-4.1\Flightcontroller_PWM_CopterRocks_Working/Libraries/CMSIS/Include\cmsis_gcc.h **** #if (__GNUC__ > 4) || (__GNUC__ == 4 && __GNUC_MINOR__ >= 5)
 453:C:\Workspaces\DAVE-4.1\Flightcontroller_PWM_CopterRocks_Working/Libraries/CMSIS/Include\cmsis_gcc.h ****   return __builtin_bswap32(value);
 454:C:\Workspaces\DAVE-4.1\Flightcontroller_PWM_CopterRocks_Working/Libraries/CMSIS/Include\cmsis_gcc.h **** #else
 455:C:\Workspaces\DAVE-4.1\Flightcontroller_PWM_CopterRocks_Working/Libraries/CMSIS/Include\cmsis_gcc.h ****   uint32_t result;
 456:C:\Workspaces\DAVE-4.1\Flightcontroller_PWM_CopterRocks_Working/Libraries/CMSIS/Include\cmsis_gcc.h **** 
 457:C:\Workspaces\DAVE-4.1\Flightcontroller_PWM_CopterRocks_Working/Libraries/CMSIS/Include\cmsis_gcc.h ****   __ASM volatile ("rev %0, %1" : __CMSIS_GCC_OUT_REG (result) : __CMSIS_GCC_USE_REG (value) );
 458:C:\Workspaces\DAVE-4.1\Flightcontroller_PWM_CopterRocks_Working/Libraries/CMSIS/Include\cmsis_gcc.h ****   return(result);
 459:C:\Workspaces\DAVE-4.1\Flightcontroller_PWM_CopterRocks_Working/Libraries/CMSIS/Include\cmsis_gcc.h **** #endif
 460:C:\Workspaces\DAVE-4.1\Flightcontroller_PWM_CopterRocks_Working/Libraries/CMSIS/Include\cmsis_gcc.h **** }
 461:C:\Workspaces\DAVE-4.1\Flightcontroller_PWM_CopterRocks_Working/Libraries/CMSIS/Include\cmsis_gcc.h **** 
 462:C:\Workspaces\DAVE-4.1\Flightcontroller_PWM_CopterRocks_Working/Libraries/CMSIS/Include\cmsis_gcc.h **** 
 463:C:\Workspaces\DAVE-4.1\Flightcontroller_PWM_CopterRocks_Working/Libraries/CMSIS/Include\cmsis_gcc.h **** /**
 464:C:\Workspaces\DAVE-4.1\Flightcontroller_PWM_CopterRocks_Working/Libraries/CMSIS/Include\cmsis_gcc.h ****   \brief   Reverse byte order (16 bit)
 465:C:\Workspaces\DAVE-4.1\Flightcontroller_PWM_CopterRocks_Working/Libraries/CMSIS/Include\cmsis_gcc.h ****   \details Reverses the byte order in two unsigned short values.
 466:C:\Workspaces\DAVE-4.1\Flightcontroller_PWM_CopterRocks_Working/Libraries/CMSIS/Include\cmsis_gcc.h ****   \param [in]    value  Value to reverse
 467:C:\Workspaces\DAVE-4.1\Flightcontroller_PWM_CopterRocks_Working/Libraries/CMSIS/Include\cmsis_gcc.h ****   \return               Reversed value
 468:C:\Workspaces\DAVE-4.1\Flightcontroller_PWM_CopterRocks_Working/Libraries/CMSIS/Include\cmsis_gcc.h ****  */
 469:C:\Workspaces\DAVE-4.1\Flightcontroller_PWM_CopterRocks_Working/Libraries/CMSIS/Include\cmsis_gcc.h **** __attribute__((always_inline)) __STATIC_INLINE uint32_t __REV16(uint32_t value)
 470:C:\Workspaces\DAVE-4.1\Flightcontroller_PWM_CopterRocks_Working/Libraries/CMSIS/Include\cmsis_gcc.h **** {
 471:C:\Workspaces\DAVE-4.1\Flightcontroller_PWM_CopterRocks_Working/Libraries/CMSIS/Include\cmsis_gcc.h ****   uint32_t result;
 472:C:\Workspaces\DAVE-4.1\Flightcontroller_PWM_CopterRocks_Working/Libraries/CMSIS/Include\cmsis_gcc.h **** 
 473:C:\Workspaces\DAVE-4.1\Flightcontroller_PWM_CopterRocks_Working/Libraries/CMSIS/Include\cmsis_gcc.h ****   __ASM volatile ("rev16 %0, %1" : __CMSIS_GCC_OUT_REG (result) : __CMSIS_GCC_USE_REG (value) );
 474:C:\Workspaces\DAVE-4.1\Flightcontroller_PWM_CopterRocks_Working/Libraries/CMSIS/Include\cmsis_gcc.h ****   return(result);
 475:C:\Workspaces\DAVE-4.1\Flightcontroller_PWM_CopterRocks_Working/Libraries/CMSIS/Include\cmsis_gcc.h **** }
 476:C:\Workspaces\DAVE-4.1\Flightcontroller_PWM_CopterRocks_Working/Libraries/CMSIS/Include\cmsis_gcc.h **** 
 477:C:\Workspaces\DAVE-4.1\Flightcontroller_PWM_CopterRocks_Working/Libraries/CMSIS/Include\cmsis_gcc.h **** 
 478:C:\Workspaces\DAVE-4.1\Flightcontroller_PWM_CopterRocks_Working/Libraries/CMSIS/Include\cmsis_gcc.h **** /**
 479:C:\Workspaces\DAVE-4.1\Flightcontroller_PWM_CopterRocks_Working/Libraries/CMSIS/Include\cmsis_gcc.h ****   \brief   Reverse byte order in signed short value
 480:C:\Workspaces\DAVE-4.1\Flightcontroller_PWM_CopterRocks_Working/Libraries/CMSIS/Include\cmsis_gcc.h ****   \details Reverses the byte order in a signed short value with sign extension to integer.
 481:C:\Workspaces\DAVE-4.1\Flightcontroller_PWM_CopterRocks_Working/Libraries/CMSIS/Include\cmsis_gcc.h ****   \param [in]    value  Value to reverse
 482:C:\Workspaces\DAVE-4.1\Flightcontroller_PWM_CopterRocks_Working/Libraries/CMSIS/Include\cmsis_gcc.h ****   \return               Reversed value
 483:C:\Workspaces\DAVE-4.1\Flightcontroller_PWM_CopterRocks_Working/Libraries/CMSIS/Include\cmsis_gcc.h ****  */
 484:C:\Workspaces\DAVE-4.1\Flightcontroller_PWM_CopterRocks_Working/Libraries/CMSIS/Include\cmsis_gcc.h **** __attribute__((always_inline)) __STATIC_INLINE int32_t __REVSH(int32_t value)
 485:C:\Workspaces\DAVE-4.1\Flightcontroller_PWM_CopterRocks_Working/Libraries/CMSIS/Include\cmsis_gcc.h **** {
 486:C:\Workspaces\DAVE-4.1\Flightcontroller_PWM_CopterRocks_Working/Libraries/CMSIS/Include\cmsis_gcc.h **** #if (__GNUC__ > 4) || (__GNUC__ == 4 && __GNUC_MINOR__ >= 8)
 487:C:\Workspaces\DAVE-4.1\Flightcontroller_PWM_CopterRocks_Working/Libraries/CMSIS/Include\cmsis_gcc.h ****   return (short)__builtin_bswap16(value);
 488:C:\Workspaces\DAVE-4.1\Flightcontroller_PWM_CopterRocks_Working/Libraries/CMSIS/Include\cmsis_gcc.h **** #else
 489:C:\Workspaces\DAVE-4.1\Flightcontroller_PWM_CopterRocks_Working/Libraries/CMSIS/Include\cmsis_gcc.h ****   int32_t result;
 490:C:\Workspaces\DAVE-4.1\Flightcontroller_PWM_CopterRocks_Working/Libraries/CMSIS/Include\cmsis_gcc.h **** 
 491:C:\Workspaces\DAVE-4.1\Flightcontroller_PWM_CopterRocks_Working/Libraries/CMSIS/Include\cmsis_gcc.h ****   __ASM volatile ("revsh %0, %1" : __CMSIS_GCC_OUT_REG (result) : __CMSIS_GCC_USE_REG (value) );
 492:C:\Workspaces\DAVE-4.1\Flightcontroller_PWM_CopterRocks_Working/Libraries/CMSIS/Include\cmsis_gcc.h ****   return(result);
 493:C:\Workspaces\DAVE-4.1\Flightcontroller_PWM_CopterRocks_Working/Libraries/CMSIS/Include\cmsis_gcc.h **** #endif
 494:C:\Workspaces\DAVE-4.1\Flightcontroller_PWM_CopterRocks_Working/Libraries/CMSIS/Include\cmsis_gcc.h **** }
 495:C:\Workspaces\DAVE-4.1\Flightcontroller_PWM_CopterRocks_Working/Libraries/CMSIS/Include\cmsis_gcc.h **** 
 496:C:\Workspaces\DAVE-4.1\Flightcontroller_PWM_CopterRocks_Working/Libraries/CMSIS/Include\cmsis_gcc.h **** 
 497:C:\Workspaces\DAVE-4.1\Flightcontroller_PWM_CopterRocks_Working/Libraries/CMSIS/Include\cmsis_gcc.h **** /**
 498:C:\Workspaces\DAVE-4.1\Flightcontroller_PWM_CopterRocks_Working/Libraries/CMSIS/Include\cmsis_gcc.h ****   \brief   Rotate Right in unsigned value (32 bit)
 499:C:\Workspaces\DAVE-4.1\Flightcontroller_PWM_CopterRocks_Working/Libraries/CMSIS/Include\cmsis_gcc.h ****   \details Rotate Right (immediate) provides the value of the contents of a register rotated by a v
 500:C:\Workspaces\DAVE-4.1\Flightcontroller_PWM_CopterRocks_Working/Libraries/CMSIS/Include\cmsis_gcc.h ****   \param [in]    value  Value to rotate
 501:C:\Workspaces\DAVE-4.1\Flightcontroller_PWM_CopterRocks_Working/Libraries/CMSIS/Include\cmsis_gcc.h ****   \param [in]    value  Number of Bits to rotate
 502:C:\Workspaces\DAVE-4.1\Flightcontroller_PWM_CopterRocks_Working/Libraries/CMSIS/Include\cmsis_gcc.h ****   \return               Rotated value
 503:C:\Workspaces\DAVE-4.1\Flightcontroller_PWM_CopterRocks_Working/Libraries/CMSIS/Include\cmsis_gcc.h ****  */
 504:C:\Workspaces\DAVE-4.1\Flightcontroller_PWM_CopterRocks_Working/Libraries/CMSIS/Include\cmsis_gcc.h **** __attribute__((always_inline)) __STATIC_INLINE uint32_t __ROR(uint32_t op1, uint32_t op2)
 505:C:\Workspaces\DAVE-4.1\Flightcontroller_PWM_CopterRocks_Working/Libraries/CMSIS/Include\cmsis_gcc.h **** {
 506:C:\Workspaces\DAVE-4.1\Flightcontroller_PWM_CopterRocks_Working/Libraries/CMSIS/Include\cmsis_gcc.h ****   return (op1 >> op2) | (op1 << (32U - op2));
 507:C:\Workspaces\DAVE-4.1\Flightcontroller_PWM_CopterRocks_Working/Libraries/CMSIS/Include\cmsis_gcc.h **** }
 508:C:\Workspaces\DAVE-4.1\Flightcontroller_PWM_CopterRocks_Working/Libraries/CMSIS/Include\cmsis_gcc.h **** 
 509:C:\Workspaces\DAVE-4.1\Flightcontroller_PWM_CopterRocks_Working/Libraries/CMSIS/Include\cmsis_gcc.h **** 
 510:C:\Workspaces\DAVE-4.1\Flightcontroller_PWM_CopterRocks_Working/Libraries/CMSIS/Include\cmsis_gcc.h **** /**
 511:C:\Workspaces\DAVE-4.1\Flightcontroller_PWM_CopterRocks_Working/Libraries/CMSIS/Include\cmsis_gcc.h ****   \brief   Breakpoint
 512:C:\Workspaces\DAVE-4.1\Flightcontroller_PWM_CopterRocks_Working/Libraries/CMSIS/Include\cmsis_gcc.h ****   \details Causes the processor to enter Debug state.
 513:C:\Workspaces\DAVE-4.1\Flightcontroller_PWM_CopterRocks_Working/Libraries/CMSIS/Include\cmsis_gcc.h ****            Debug tools can use this to investigate system state when the instruction at a particula
 514:C:\Workspaces\DAVE-4.1\Flightcontroller_PWM_CopterRocks_Working/Libraries/CMSIS/Include\cmsis_gcc.h ****   \param [in]    value  is ignored by the processor.
 515:C:\Workspaces\DAVE-4.1\Flightcontroller_PWM_CopterRocks_Working/Libraries/CMSIS/Include\cmsis_gcc.h ****                  If required, a debugger can use it to store additional information about the break
 516:C:\Workspaces\DAVE-4.1\Flightcontroller_PWM_CopterRocks_Working/Libraries/CMSIS/Include\cmsis_gcc.h ****  */
 517:C:\Workspaces\DAVE-4.1\Flightcontroller_PWM_CopterRocks_Working/Libraries/CMSIS/Include\cmsis_gcc.h **** #define __BKPT(value)                       __ASM volatile ("bkpt "#value)
 518:C:\Workspaces\DAVE-4.1\Flightcontroller_PWM_CopterRocks_Working/Libraries/CMSIS/Include\cmsis_gcc.h **** 
 519:C:\Workspaces\DAVE-4.1\Flightcontroller_PWM_CopterRocks_Working/Libraries/CMSIS/Include\cmsis_gcc.h **** 
 520:C:\Workspaces\DAVE-4.1\Flightcontroller_PWM_CopterRocks_Working/Libraries/CMSIS/Include\cmsis_gcc.h **** /**
 521:C:\Workspaces\DAVE-4.1\Flightcontroller_PWM_CopterRocks_Working/Libraries/CMSIS/Include\cmsis_gcc.h ****   \brief   Reverse bit order of value
 522:C:\Workspaces\DAVE-4.1\Flightcontroller_PWM_CopterRocks_Working/Libraries/CMSIS/Include\cmsis_gcc.h ****   \details Reverses the bit order of the given value.
 523:C:\Workspaces\DAVE-4.1\Flightcontroller_PWM_CopterRocks_Working/Libraries/CMSIS/Include\cmsis_gcc.h ****   \param [in]    value  Value to reverse
 524:C:\Workspaces\DAVE-4.1\Flightcontroller_PWM_CopterRocks_Working/Libraries/CMSIS/Include\cmsis_gcc.h ****   \return               Reversed value
 525:C:\Workspaces\DAVE-4.1\Flightcontroller_PWM_CopterRocks_Working/Libraries/CMSIS/Include\cmsis_gcc.h ****  */
 526:C:\Workspaces\DAVE-4.1\Flightcontroller_PWM_CopterRocks_Working/Libraries/CMSIS/Include\cmsis_gcc.h **** __attribute__((always_inline)) __STATIC_INLINE uint32_t __RBIT(uint32_t value)
 527:C:\Workspaces\DAVE-4.1\Flightcontroller_PWM_CopterRocks_Working/Libraries/CMSIS/Include\cmsis_gcc.h **** {
 528:C:\Workspaces\DAVE-4.1\Flightcontroller_PWM_CopterRocks_Working/Libraries/CMSIS/Include\cmsis_gcc.h ****   uint32_t result;
 529:C:\Workspaces\DAVE-4.1\Flightcontroller_PWM_CopterRocks_Working/Libraries/CMSIS/Include\cmsis_gcc.h **** 
 530:C:\Workspaces\DAVE-4.1\Flightcontroller_PWM_CopterRocks_Working/Libraries/CMSIS/Include\cmsis_gcc.h **** #if       (__CORTEX_M >= 0x03U) || (__CORTEX_SC >= 300U)
 531:C:\Workspaces\DAVE-4.1\Flightcontroller_PWM_CopterRocks_Working/Libraries/CMSIS/Include\cmsis_gcc.h ****    __ASM volatile ("rbit %0, %1" : "=r" (result) : "r" (value) );
 532:C:\Workspaces\DAVE-4.1\Flightcontroller_PWM_CopterRocks_Working/Libraries/CMSIS/Include\cmsis_gcc.h **** #else
 533:C:\Workspaces\DAVE-4.1\Flightcontroller_PWM_CopterRocks_Working/Libraries/CMSIS/Include\cmsis_gcc.h ****   int32_t s = 4 /*sizeof(v)*/ * 8 - 1; /* extra shift needed at end */
 534:C:\Workspaces\DAVE-4.1\Flightcontroller_PWM_CopterRocks_Working/Libraries/CMSIS/Include\cmsis_gcc.h **** 
 535:C:\Workspaces\DAVE-4.1\Flightcontroller_PWM_CopterRocks_Working/Libraries/CMSIS/Include\cmsis_gcc.h ****   result = value;                      /* r will be reversed bits of v; first get LSB of v */
 536:C:\Workspaces\DAVE-4.1\Flightcontroller_PWM_CopterRocks_Working/Libraries/CMSIS/Include\cmsis_gcc.h ****   for (value >>= 1U; value; value >>= 1U)
 537:C:\Workspaces\DAVE-4.1\Flightcontroller_PWM_CopterRocks_Working/Libraries/CMSIS/Include\cmsis_gcc.h ****   {
 538:C:\Workspaces\DAVE-4.1\Flightcontroller_PWM_CopterRocks_Working/Libraries/CMSIS/Include\cmsis_gcc.h ****     result <<= 1U;
 539:C:\Workspaces\DAVE-4.1\Flightcontroller_PWM_CopterRocks_Working/Libraries/CMSIS/Include\cmsis_gcc.h ****     result |= value & 1U;
 540:C:\Workspaces\DAVE-4.1\Flightcontroller_PWM_CopterRocks_Working/Libraries/CMSIS/Include\cmsis_gcc.h ****     s--;
 541:C:\Workspaces\DAVE-4.1\Flightcontroller_PWM_CopterRocks_Working/Libraries/CMSIS/Include\cmsis_gcc.h ****   }
 542:C:\Workspaces\DAVE-4.1\Flightcontroller_PWM_CopterRocks_Working/Libraries/CMSIS/Include\cmsis_gcc.h ****   result <<= s;                        /* shift when v's highest bits are zero */
 543:C:\Workspaces\DAVE-4.1\Flightcontroller_PWM_CopterRocks_Working/Libraries/CMSIS/Include\cmsis_gcc.h **** #endif
 544:C:\Workspaces\DAVE-4.1\Flightcontroller_PWM_CopterRocks_Working/Libraries/CMSIS/Include\cmsis_gcc.h ****   return(result);
 545:C:\Workspaces\DAVE-4.1\Flightcontroller_PWM_CopterRocks_Working/Libraries/CMSIS/Include\cmsis_gcc.h **** }
 546:C:\Workspaces\DAVE-4.1\Flightcontroller_PWM_CopterRocks_Working/Libraries/CMSIS/Include\cmsis_gcc.h **** 
 547:C:\Workspaces\DAVE-4.1\Flightcontroller_PWM_CopterRocks_Working/Libraries/CMSIS/Include\cmsis_gcc.h **** 
 548:C:\Workspaces\DAVE-4.1\Flightcontroller_PWM_CopterRocks_Working/Libraries/CMSIS/Include\cmsis_gcc.h **** /**
 549:C:\Workspaces\DAVE-4.1\Flightcontroller_PWM_CopterRocks_Working/Libraries/CMSIS/Include\cmsis_gcc.h ****   \brief   Count leading zeros
 550:C:\Workspaces\DAVE-4.1\Flightcontroller_PWM_CopterRocks_Working/Libraries/CMSIS/Include\cmsis_gcc.h ****   \details Counts the number of leading zeros of a data value.
 551:C:\Workspaces\DAVE-4.1\Flightcontroller_PWM_CopterRocks_Working/Libraries/CMSIS/Include\cmsis_gcc.h ****   \param [in]  value  Value to count the leading zeros
 552:C:\Workspaces\DAVE-4.1\Flightcontroller_PWM_CopterRocks_Working/Libraries/CMSIS/Include\cmsis_gcc.h ****   \return             number of leading zeros in value
 553:C:\Workspaces\DAVE-4.1\Flightcontroller_PWM_CopterRocks_Working/Libraries/CMSIS/Include\cmsis_gcc.h ****  */
 554:C:\Workspaces\DAVE-4.1\Flightcontroller_PWM_CopterRocks_Working/Libraries/CMSIS/Include\cmsis_gcc.h **** #define __CLZ             __builtin_clz
 555:C:\Workspaces\DAVE-4.1\Flightcontroller_PWM_CopterRocks_Working/Libraries/CMSIS/Include\cmsis_gcc.h **** 
 556:C:\Workspaces\DAVE-4.1\Flightcontroller_PWM_CopterRocks_Working/Libraries/CMSIS/Include\cmsis_gcc.h **** 
 557:C:\Workspaces\DAVE-4.1\Flightcontroller_PWM_CopterRocks_Working/Libraries/CMSIS/Include\cmsis_gcc.h **** #if       (__CORTEX_M >= 0x03U) || (__CORTEX_SC >= 300U)
 558:C:\Workspaces\DAVE-4.1\Flightcontroller_PWM_CopterRocks_Working/Libraries/CMSIS/Include\cmsis_gcc.h **** 
 559:C:\Workspaces\DAVE-4.1\Flightcontroller_PWM_CopterRocks_Working/Libraries/CMSIS/Include\cmsis_gcc.h **** /**
 560:C:\Workspaces\DAVE-4.1\Flightcontroller_PWM_CopterRocks_Working/Libraries/CMSIS/Include\cmsis_gcc.h ****   \brief   LDR Exclusive (8 bit)
 561:C:\Workspaces\DAVE-4.1\Flightcontroller_PWM_CopterRocks_Working/Libraries/CMSIS/Include\cmsis_gcc.h ****   \details Executes a exclusive LDR instruction for 8 bit value.
 562:C:\Workspaces\DAVE-4.1\Flightcontroller_PWM_CopterRocks_Working/Libraries/CMSIS/Include\cmsis_gcc.h ****   \param [in]    ptr  Pointer to data
 563:C:\Workspaces\DAVE-4.1\Flightcontroller_PWM_CopterRocks_Working/Libraries/CMSIS/Include\cmsis_gcc.h ****   \return             value of type uint8_t at (*ptr)
 564:C:\Workspaces\DAVE-4.1\Flightcontroller_PWM_CopterRocks_Working/Libraries/CMSIS/Include\cmsis_gcc.h ****  */
 565:C:\Workspaces\DAVE-4.1\Flightcontroller_PWM_CopterRocks_Working/Libraries/CMSIS/Include\cmsis_gcc.h **** __attribute__((always_inline)) __STATIC_INLINE uint8_t __LDREXB(volatile uint8_t *addr)
 566:C:\Workspaces\DAVE-4.1\Flightcontroller_PWM_CopterRocks_Working/Libraries/CMSIS/Include\cmsis_gcc.h **** {
 567:C:\Workspaces\DAVE-4.1\Flightcontroller_PWM_CopterRocks_Working/Libraries/CMSIS/Include\cmsis_gcc.h ****     uint32_t result;
 568:C:\Workspaces\DAVE-4.1\Flightcontroller_PWM_CopterRocks_Working/Libraries/CMSIS/Include\cmsis_gcc.h **** 
 569:C:\Workspaces\DAVE-4.1\Flightcontroller_PWM_CopterRocks_Working/Libraries/CMSIS/Include\cmsis_gcc.h **** #if (__GNUC__ > 4) || (__GNUC__ == 4 && __GNUC_MINOR__ >= 8)
 570:C:\Workspaces\DAVE-4.1\Flightcontroller_PWM_CopterRocks_Working/Libraries/CMSIS/Include\cmsis_gcc.h ****    __ASM volatile ("ldrexb %0, %1" : "=r" (result) : "Q" (*addr) );
 571:C:\Workspaces\DAVE-4.1\Flightcontroller_PWM_CopterRocks_Working/Libraries/CMSIS/Include\cmsis_gcc.h **** #else
 572:C:\Workspaces\DAVE-4.1\Flightcontroller_PWM_CopterRocks_Working/Libraries/CMSIS/Include\cmsis_gcc.h ****     /* Prior to GCC 4.8, "Q" will be expanded to [rx, #0] which is not
 573:C:\Workspaces\DAVE-4.1\Flightcontroller_PWM_CopterRocks_Working/Libraries/CMSIS/Include\cmsis_gcc.h ****        accepted by assembler. So has to use following less efficient pattern.
 574:C:\Workspaces\DAVE-4.1\Flightcontroller_PWM_CopterRocks_Working/Libraries/CMSIS/Include\cmsis_gcc.h ****     */
 575:C:\Workspaces\DAVE-4.1\Flightcontroller_PWM_CopterRocks_Working/Libraries/CMSIS/Include\cmsis_gcc.h ****    __ASM volatile ("ldrexb %0, [%1]" : "=r" (result) : "r" (addr) : "memory" );
 576:C:\Workspaces\DAVE-4.1\Flightcontroller_PWM_CopterRocks_Working/Libraries/CMSIS/Include\cmsis_gcc.h **** #endif
 577:C:\Workspaces\DAVE-4.1\Flightcontroller_PWM_CopterRocks_Working/Libraries/CMSIS/Include\cmsis_gcc.h ****    return ((uint8_t) result);    /* Add explicit type cast here */
 578:C:\Workspaces\DAVE-4.1\Flightcontroller_PWM_CopterRocks_Working/Libraries/CMSIS/Include\cmsis_gcc.h **** }
 579:C:\Workspaces\DAVE-4.1\Flightcontroller_PWM_CopterRocks_Working/Libraries/CMSIS/Include\cmsis_gcc.h **** 
 580:C:\Workspaces\DAVE-4.1\Flightcontroller_PWM_CopterRocks_Working/Libraries/CMSIS/Include\cmsis_gcc.h **** 
 581:C:\Workspaces\DAVE-4.1\Flightcontroller_PWM_CopterRocks_Working/Libraries/CMSIS/Include\cmsis_gcc.h **** /**
 582:C:\Workspaces\DAVE-4.1\Flightcontroller_PWM_CopterRocks_Working/Libraries/CMSIS/Include\cmsis_gcc.h ****   \brief   LDR Exclusive (16 bit)
 583:C:\Workspaces\DAVE-4.1\Flightcontroller_PWM_CopterRocks_Working/Libraries/CMSIS/Include\cmsis_gcc.h ****   \details Executes a exclusive LDR instruction for 16 bit values.
 584:C:\Workspaces\DAVE-4.1\Flightcontroller_PWM_CopterRocks_Working/Libraries/CMSIS/Include\cmsis_gcc.h ****   \param [in]    ptr  Pointer to data
 585:C:\Workspaces\DAVE-4.1\Flightcontroller_PWM_CopterRocks_Working/Libraries/CMSIS/Include\cmsis_gcc.h ****   \return        value of type uint16_t at (*ptr)
 586:C:\Workspaces\DAVE-4.1\Flightcontroller_PWM_CopterRocks_Working/Libraries/CMSIS/Include\cmsis_gcc.h ****  */
 587:C:\Workspaces\DAVE-4.1\Flightcontroller_PWM_CopterRocks_Working/Libraries/CMSIS/Include\cmsis_gcc.h **** __attribute__((always_inline)) __STATIC_INLINE uint16_t __LDREXH(volatile uint16_t *addr)
 588:C:\Workspaces\DAVE-4.1\Flightcontroller_PWM_CopterRocks_Working/Libraries/CMSIS/Include\cmsis_gcc.h **** {
 589:C:\Workspaces\DAVE-4.1\Flightcontroller_PWM_CopterRocks_Working/Libraries/CMSIS/Include\cmsis_gcc.h ****     uint32_t result;
 590:C:\Workspaces\DAVE-4.1\Flightcontroller_PWM_CopterRocks_Working/Libraries/CMSIS/Include\cmsis_gcc.h **** 
 591:C:\Workspaces\DAVE-4.1\Flightcontroller_PWM_CopterRocks_Working/Libraries/CMSIS/Include\cmsis_gcc.h **** #if (__GNUC__ > 4) || (__GNUC__ == 4 && __GNUC_MINOR__ >= 8)
 592:C:\Workspaces\DAVE-4.1\Flightcontroller_PWM_CopterRocks_Working/Libraries/CMSIS/Include\cmsis_gcc.h ****    __ASM volatile ("ldrexh %0, %1" : "=r" (result) : "Q" (*addr) );
 593:C:\Workspaces\DAVE-4.1\Flightcontroller_PWM_CopterRocks_Working/Libraries/CMSIS/Include\cmsis_gcc.h **** #else
 594:C:\Workspaces\DAVE-4.1\Flightcontroller_PWM_CopterRocks_Working/Libraries/CMSIS/Include\cmsis_gcc.h ****     /* Prior to GCC 4.8, "Q" will be expanded to [rx, #0] which is not
 595:C:\Workspaces\DAVE-4.1\Flightcontroller_PWM_CopterRocks_Working/Libraries/CMSIS/Include\cmsis_gcc.h ****        accepted by assembler. So has to use following less efficient pattern.
 596:C:\Workspaces\DAVE-4.1\Flightcontroller_PWM_CopterRocks_Working/Libraries/CMSIS/Include\cmsis_gcc.h ****     */
 597:C:\Workspaces\DAVE-4.1\Flightcontroller_PWM_CopterRocks_Working/Libraries/CMSIS/Include\cmsis_gcc.h ****    __ASM volatile ("ldrexh %0, [%1]" : "=r" (result) : "r" (addr) : "memory" );
 598:C:\Workspaces\DAVE-4.1\Flightcontroller_PWM_CopterRocks_Working/Libraries/CMSIS/Include\cmsis_gcc.h **** #endif
 599:C:\Workspaces\DAVE-4.1\Flightcontroller_PWM_CopterRocks_Working/Libraries/CMSIS/Include\cmsis_gcc.h ****    return ((uint16_t) result);    /* Add explicit type cast here */
 600:C:\Workspaces\DAVE-4.1\Flightcontroller_PWM_CopterRocks_Working/Libraries/CMSIS/Include\cmsis_gcc.h **** }
 601:C:\Workspaces\DAVE-4.1\Flightcontroller_PWM_CopterRocks_Working/Libraries/CMSIS/Include\cmsis_gcc.h **** 
 602:C:\Workspaces\DAVE-4.1\Flightcontroller_PWM_CopterRocks_Working/Libraries/CMSIS/Include\cmsis_gcc.h **** 
 603:C:\Workspaces\DAVE-4.1\Flightcontroller_PWM_CopterRocks_Working/Libraries/CMSIS/Include\cmsis_gcc.h **** /**
 604:C:\Workspaces\DAVE-4.1\Flightcontroller_PWM_CopterRocks_Working/Libraries/CMSIS/Include\cmsis_gcc.h ****   \brief   LDR Exclusive (32 bit)
 605:C:\Workspaces\DAVE-4.1\Flightcontroller_PWM_CopterRocks_Working/Libraries/CMSIS/Include\cmsis_gcc.h ****   \details Executes a exclusive LDR instruction for 32 bit values.
 606:C:\Workspaces\DAVE-4.1\Flightcontroller_PWM_CopterRocks_Working/Libraries/CMSIS/Include\cmsis_gcc.h ****   \param [in]    ptr  Pointer to data
 607:C:\Workspaces\DAVE-4.1\Flightcontroller_PWM_CopterRocks_Working/Libraries/CMSIS/Include\cmsis_gcc.h ****   \return        value of type uint32_t at (*ptr)
 608:C:\Workspaces\DAVE-4.1\Flightcontroller_PWM_CopterRocks_Working/Libraries/CMSIS/Include\cmsis_gcc.h ****  */
 609:C:\Workspaces\DAVE-4.1\Flightcontroller_PWM_CopterRocks_Working/Libraries/CMSIS/Include\cmsis_gcc.h **** __attribute__((always_inline)) __STATIC_INLINE uint32_t __LDREXW(volatile uint32_t *addr)
 610:C:\Workspaces\DAVE-4.1\Flightcontroller_PWM_CopterRocks_Working/Libraries/CMSIS/Include\cmsis_gcc.h **** {
 611:C:\Workspaces\DAVE-4.1\Flightcontroller_PWM_CopterRocks_Working/Libraries/CMSIS/Include\cmsis_gcc.h ****     uint32_t result;
 612:C:\Workspaces\DAVE-4.1\Flightcontroller_PWM_CopterRocks_Working/Libraries/CMSIS/Include\cmsis_gcc.h **** 
 613:C:\Workspaces\DAVE-4.1\Flightcontroller_PWM_CopterRocks_Working/Libraries/CMSIS/Include\cmsis_gcc.h ****    __ASM volatile ("ldrex %0, %1" : "=r" (result) : "Q" (*addr) );
 614:C:\Workspaces\DAVE-4.1\Flightcontroller_PWM_CopterRocks_Working/Libraries/CMSIS/Include\cmsis_gcc.h ****    return(result);
 615:C:\Workspaces\DAVE-4.1\Flightcontroller_PWM_CopterRocks_Working/Libraries/CMSIS/Include\cmsis_gcc.h **** }
 616:C:\Workspaces\DAVE-4.1\Flightcontroller_PWM_CopterRocks_Working/Libraries/CMSIS/Include\cmsis_gcc.h **** 
 617:C:\Workspaces\DAVE-4.1\Flightcontroller_PWM_CopterRocks_Working/Libraries/CMSIS/Include\cmsis_gcc.h **** 
 618:C:\Workspaces\DAVE-4.1\Flightcontroller_PWM_CopterRocks_Working/Libraries/CMSIS/Include\cmsis_gcc.h **** /**
 619:C:\Workspaces\DAVE-4.1\Flightcontroller_PWM_CopterRocks_Working/Libraries/CMSIS/Include\cmsis_gcc.h ****   \brief   STR Exclusive (8 bit)
 620:C:\Workspaces\DAVE-4.1\Flightcontroller_PWM_CopterRocks_Working/Libraries/CMSIS/Include\cmsis_gcc.h ****   \details Executes a exclusive STR instruction for 8 bit values.
 621:C:\Workspaces\DAVE-4.1\Flightcontroller_PWM_CopterRocks_Working/Libraries/CMSIS/Include\cmsis_gcc.h ****   \param [in]  value  Value to store
 622:C:\Workspaces\DAVE-4.1\Flightcontroller_PWM_CopterRocks_Working/Libraries/CMSIS/Include\cmsis_gcc.h ****   \param [in]    ptr  Pointer to location
 623:C:\Workspaces\DAVE-4.1\Flightcontroller_PWM_CopterRocks_Working/Libraries/CMSIS/Include\cmsis_gcc.h ****   \return          0  Function succeeded
 624:C:\Workspaces\DAVE-4.1\Flightcontroller_PWM_CopterRocks_Working/Libraries/CMSIS/Include\cmsis_gcc.h ****   \return          1  Function failed
 625:C:\Workspaces\DAVE-4.1\Flightcontroller_PWM_CopterRocks_Working/Libraries/CMSIS/Include\cmsis_gcc.h ****  */
 626:C:\Workspaces\DAVE-4.1\Flightcontroller_PWM_CopterRocks_Working/Libraries/CMSIS/Include\cmsis_gcc.h **** __attribute__((always_inline)) __STATIC_INLINE uint32_t __STREXB(uint8_t value, volatile uint8_t *a
 627:C:\Workspaces\DAVE-4.1\Flightcontroller_PWM_CopterRocks_Working/Libraries/CMSIS/Include\cmsis_gcc.h **** {
 628:C:\Workspaces\DAVE-4.1\Flightcontroller_PWM_CopterRocks_Working/Libraries/CMSIS/Include\cmsis_gcc.h ****    uint32_t result;
 629:C:\Workspaces\DAVE-4.1\Flightcontroller_PWM_CopterRocks_Working/Libraries/CMSIS/Include\cmsis_gcc.h **** 
 630:C:\Workspaces\DAVE-4.1\Flightcontroller_PWM_CopterRocks_Working/Libraries/CMSIS/Include\cmsis_gcc.h ****    __ASM volatile ("strexb %0, %2, %1" : "=&r" (result), "=Q" (*addr) : "r" ((uint32_t)value) );
 631:C:\Workspaces\DAVE-4.1\Flightcontroller_PWM_CopterRocks_Working/Libraries/CMSIS/Include\cmsis_gcc.h ****    return(result);
 632:C:\Workspaces\DAVE-4.1\Flightcontroller_PWM_CopterRocks_Working/Libraries/CMSIS/Include\cmsis_gcc.h **** }
 633:C:\Workspaces\DAVE-4.1\Flightcontroller_PWM_CopterRocks_Working/Libraries/CMSIS/Include\cmsis_gcc.h **** 
 634:C:\Workspaces\DAVE-4.1\Flightcontroller_PWM_CopterRocks_Working/Libraries/CMSIS/Include\cmsis_gcc.h **** 
 635:C:\Workspaces\DAVE-4.1\Flightcontroller_PWM_CopterRocks_Working/Libraries/CMSIS/Include\cmsis_gcc.h **** /**
 636:C:\Workspaces\DAVE-4.1\Flightcontroller_PWM_CopterRocks_Working/Libraries/CMSIS/Include\cmsis_gcc.h ****   \brief   STR Exclusive (16 bit)
 637:C:\Workspaces\DAVE-4.1\Flightcontroller_PWM_CopterRocks_Working/Libraries/CMSIS/Include\cmsis_gcc.h ****   \details Executes a exclusive STR instruction for 16 bit values.
 638:C:\Workspaces\DAVE-4.1\Flightcontroller_PWM_CopterRocks_Working/Libraries/CMSIS/Include\cmsis_gcc.h ****   \param [in]  value  Value to store
 639:C:\Workspaces\DAVE-4.1\Flightcontroller_PWM_CopterRocks_Working/Libraries/CMSIS/Include\cmsis_gcc.h ****   \param [in]    ptr  Pointer to location
 640:C:\Workspaces\DAVE-4.1\Flightcontroller_PWM_CopterRocks_Working/Libraries/CMSIS/Include\cmsis_gcc.h ****   \return          0  Function succeeded
 641:C:\Workspaces\DAVE-4.1\Flightcontroller_PWM_CopterRocks_Working/Libraries/CMSIS/Include\cmsis_gcc.h ****   \return          1  Function failed
 642:C:\Workspaces\DAVE-4.1\Flightcontroller_PWM_CopterRocks_Working/Libraries/CMSIS/Include\cmsis_gcc.h ****  */
 643:C:\Workspaces\DAVE-4.1\Flightcontroller_PWM_CopterRocks_Working/Libraries/CMSIS/Include\cmsis_gcc.h **** __attribute__((always_inline)) __STATIC_INLINE uint32_t __STREXH(uint16_t value, volatile uint16_t 
 644:C:\Workspaces\DAVE-4.1\Flightcontroller_PWM_CopterRocks_Working/Libraries/CMSIS/Include\cmsis_gcc.h **** {
 645:C:\Workspaces\DAVE-4.1\Flightcontroller_PWM_CopterRocks_Working/Libraries/CMSIS/Include\cmsis_gcc.h ****    uint32_t result;
 646:C:\Workspaces\DAVE-4.1\Flightcontroller_PWM_CopterRocks_Working/Libraries/CMSIS/Include\cmsis_gcc.h **** 
 647:C:\Workspaces\DAVE-4.1\Flightcontroller_PWM_CopterRocks_Working/Libraries/CMSIS/Include\cmsis_gcc.h ****    __ASM volatile ("strexh %0, %2, %1" : "=&r" (result), "=Q" (*addr) : "r" ((uint32_t)value) );
 648:C:\Workspaces\DAVE-4.1\Flightcontroller_PWM_CopterRocks_Working/Libraries/CMSIS/Include\cmsis_gcc.h ****    return(result);
 649:C:\Workspaces\DAVE-4.1\Flightcontroller_PWM_CopterRocks_Working/Libraries/CMSIS/Include\cmsis_gcc.h **** }
 650:C:\Workspaces\DAVE-4.1\Flightcontroller_PWM_CopterRocks_Working/Libraries/CMSIS/Include\cmsis_gcc.h **** 
 651:C:\Workspaces\DAVE-4.1\Flightcontroller_PWM_CopterRocks_Working/Libraries/CMSIS/Include\cmsis_gcc.h **** 
 652:C:\Workspaces\DAVE-4.1\Flightcontroller_PWM_CopterRocks_Working/Libraries/CMSIS/Include\cmsis_gcc.h **** /**
 653:C:\Workspaces\DAVE-4.1\Flightcontroller_PWM_CopterRocks_Working/Libraries/CMSIS/Include\cmsis_gcc.h ****   \brief   STR Exclusive (32 bit)
 654:C:\Workspaces\DAVE-4.1\Flightcontroller_PWM_CopterRocks_Working/Libraries/CMSIS/Include\cmsis_gcc.h ****   \details Executes a exclusive STR instruction for 32 bit values.
 655:C:\Workspaces\DAVE-4.1\Flightcontroller_PWM_CopterRocks_Working/Libraries/CMSIS/Include\cmsis_gcc.h ****   \param [in]  value  Value to store
 656:C:\Workspaces\DAVE-4.1\Flightcontroller_PWM_CopterRocks_Working/Libraries/CMSIS/Include\cmsis_gcc.h ****   \param [in]    ptr  Pointer to location
 657:C:\Workspaces\DAVE-4.1\Flightcontroller_PWM_CopterRocks_Working/Libraries/CMSIS/Include\cmsis_gcc.h ****   \return          0  Function succeeded
 658:C:\Workspaces\DAVE-4.1\Flightcontroller_PWM_CopterRocks_Working/Libraries/CMSIS/Include\cmsis_gcc.h ****   \return          1  Function failed
 659:C:\Workspaces\DAVE-4.1\Flightcontroller_PWM_CopterRocks_Working/Libraries/CMSIS/Include\cmsis_gcc.h ****  */
 660:C:\Workspaces\DAVE-4.1\Flightcontroller_PWM_CopterRocks_Working/Libraries/CMSIS/Include\cmsis_gcc.h **** __attribute__((always_inline)) __STATIC_INLINE uint32_t __STREXW(uint32_t value, volatile uint32_t 
 661:C:\Workspaces\DAVE-4.1\Flightcontroller_PWM_CopterRocks_Working/Libraries/CMSIS/Include\cmsis_gcc.h **** {
 662:C:\Workspaces\DAVE-4.1\Flightcontroller_PWM_CopterRocks_Working/Libraries/CMSIS/Include\cmsis_gcc.h ****    uint32_t result;
 663:C:\Workspaces\DAVE-4.1\Flightcontroller_PWM_CopterRocks_Working/Libraries/CMSIS/Include\cmsis_gcc.h **** 
 664:C:\Workspaces\DAVE-4.1\Flightcontroller_PWM_CopterRocks_Working/Libraries/CMSIS/Include\cmsis_gcc.h ****    __ASM volatile ("strex %0, %2, %1" : "=&r" (result), "=Q" (*addr) : "r" (value) );
 665:C:\Workspaces\DAVE-4.1\Flightcontroller_PWM_CopterRocks_Working/Libraries/CMSIS/Include\cmsis_gcc.h ****    return(result);
 666:C:\Workspaces\DAVE-4.1\Flightcontroller_PWM_CopterRocks_Working/Libraries/CMSIS/Include\cmsis_gcc.h **** }
 667:C:\Workspaces\DAVE-4.1\Flightcontroller_PWM_CopterRocks_Working/Libraries/CMSIS/Include\cmsis_gcc.h **** 
 668:C:\Workspaces\DAVE-4.1\Flightcontroller_PWM_CopterRocks_Working/Libraries/CMSIS/Include\cmsis_gcc.h **** 
 669:C:\Workspaces\DAVE-4.1\Flightcontroller_PWM_CopterRocks_Working/Libraries/CMSIS/Include\cmsis_gcc.h **** /**
 670:C:\Workspaces\DAVE-4.1\Flightcontroller_PWM_CopterRocks_Working/Libraries/CMSIS/Include\cmsis_gcc.h ****   \brief   Remove the exclusive lock
 671:C:\Workspaces\DAVE-4.1\Flightcontroller_PWM_CopterRocks_Working/Libraries/CMSIS/Include\cmsis_gcc.h ****   \details Removes the exclusive lock which is created by LDREX.
 672:C:\Workspaces\DAVE-4.1\Flightcontroller_PWM_CopterRocks_Working/Libraries/CMSIS/Include\cmsis_gcc.h ****  */
 673:C:\Workspaces\DAVE-4.1\Flightcontroller_PWM_CopterRocks_Working/Libraries/CMSIS/Include\cmsis_gcc.h **** __attribute__((always_inline)) __STATIC_INLINE void __CLREX(void)
 674:C:\Workspaces\DAVE-4.1\Flightcontroller_PWM_CopterRocks_Working/Libraries/CMSIS/Include\cmsis_gcc.h **** {
 675:C:\Workspaces\DAVE-4.1\Flightcontroller_PWM_CopterRocks_Working/Libraries/CMSIS/Include\cmsis_gcc.h ****   __ASM volatile ("clrex" ::: "memory");
 676:C:\Workspaces\DAVE-4.1\Flightcontroller_PWM_CopterRocks_Working/Libraries/CMSIS/Include\cmsis_gcc.h **** }
 677:C:\Workspaces\DAVE-4.1\Flightcontroller_PWM_CopterRocks_Working/Libraries/CMSIS/Include\cmsis_gcc.h **** 
 678:C:\Workspaces\DAVE-4.1\Flightcontroller_PWM_CopterRocks_Working/Libraries/CMSIS/Include\cmsis_gcc.h **** 
 679:C:\Workspaces\DAVE-4.1\Flightcontroller_PWM_CopterRocks_Working/Libraries/CMSIS/Include\cmsis_gcc.h **** /**
 680:C:\Workspaces\DAVE-4.1\Flightcontroller_PWM_CopterRocks_Working/Libraries/CMSIS/Include\cmsis_gcc.h ****   \brief   Signed Saturate
 681:C:\Workspaces\DAVE-4.1\Flightcontroller_PWM_CopterRocks_Working/Libraries/CMSIS/Include\cmsis_gcc.h ****   \details Saturates a signed value.
 682:C:\Workspaces\DAVE-4.1\Flightcontroller_PWM_CopterRocks_Working/Libraries/CMSIS/Include\cmsis_gcc.h ****   \param [in]  value  Value to be saturated
 683:C:\Workspaces\DAVE-4.1\Flightcontroller_PWM_CopterRocks_Working/Libraries/CMSIS/Include\cmsis_gcc.h ****   \param [in]    sat  Bit position to saturate to (1..32)
 684:C:\Workspaces\DAVE-4.1\Flightcontroller_PWM_CopterRocks_Working/Libraries/CMSIS/Include\cmsis_gcc.h ****   \return             Saturated value
 685:C:\Workspaces\DAVE-4.1\Flightcontroller_PWM_CopterRocks_Working/Libraries/CMSIS/Include\cmsis_gcc.h ****  */
 686:C:\Workspaces\DAVE-4.1\Flightcontroller_PWM_CopterRocks_Working/Libraries/CMSIS/Include\cmsis_gcc.h **** #define __SSAT(ARG1,ARG2) \
 687:C:\Workspaces\DAVE-4.1\Flightcontroller_PWM_CopterRocks_Working/Libraries/CMSIS/Include\cmsis_gcc.h **** ({                          \
 688:C:\Workspaces\DAVE-4.1\Flightcontroller_PWM_CopterRocks_Working/Libraries/CMSIS/Include\cmsis_gcc.h ****   uint32_t __RES, __ARG1 = (ARG1); \
 689:C:\Workspaces\DAVE-4.1\Flightcontroller_PWM_CopterRocks_Working/Libraries/CMSIS/Include\cmsis_gcc.h ****   __ASM ("ssat %0, %1, %2" : "=r" (__RES) :  "I" (ARG2), "r" (__ARG1) ); \
 690:C:\Workspaces\DAVE-4.1\Flightcontroller_PWM_CopterRocks_Working/Libraries/CMSIS/Include\cmsis_gcc.h ****   __RES; \
 691:C:\Workspaces\DAVE-4.1\Flightcontroller_PWM_CopterRocks_Working/Libraries/CMSIS/Include\cmsis_gcc.h ****  })
 692:C:\Workspaces\DAVE-4.1\Flightcontroller_PWM_CopterRocks_Working/Libraries/CMSIS/Include\cmsis_gcc.h **** 
 693:C:\Workspaces\DAVE-4.1\Flightcontroller_PWM_CopterRocks_Working/Libraries/CMSIS/Include\cmsis_gcc.h **** 
 694:C:\Workspaces\DAVE-4.1\Flightcontroller_PWM_CopterRocks_Working/Libraries/CMSIS/Include\cmsis_gcc.h **** /**
 695:C:\Workspaces\DAVE-4.1\Flightcontroller_PWM_CopterRocks_Working/Libraries/CMSIS/Include\cmsis_gcc.h ****   \brief   Unsigned Saturate
 696:C:\Workspaces\DAVE-4.1\Flightcontroller_PWM_CopterRocks_Working/Libraries/CMSIS/Include\cmsis_gcc.h ****   \details Saturates an unsigned value.
 697:C:\Workspaces\DAVE-4.1\Flightcontroller_PWM_CopterRocks_Working/Libraries/CMSIS/Include\cmsis_gcc.h ****   \param [in]  value  Value to be saturated
 698:C:\Workspaces\DAVE-4.1\Flightcontroller_PWM_CopterRocks_Working/Libraries/CMSIS/Include\cmsis_gcc.h ****   \param [in]    sat  Bit position to saturate to (0..31)
 699:C:\Workspaces\DAVE-4.1\Flightcontroller_PWM_CopterRocks_Working/Libraries/CMSIS/Include\cmsis_gcc.h ****   \return             Saturated value
 700:C:\Workspaces\DAVE-4.1\Flightcontroller_PWM_CopterRocks_Working/Libraries/CMSIS/Include\cmsis_gcc.h ****  */
 701:C:\Workspaces\DAVE-4.1\Flightcontroller_PWM_CopterRocks_Working/Libraries/CMSIS/Include\cmsis_gcc.h **** #define __USAT(ARG1,ARG2) \
 702:C:\Workspaces\DAVE-4.1\Flightcontroller_PWM_CopterRocks_Working/Libraries/CMSIS/Include\cmsis_gcc.h **** ({                          \
 703:C:\Workspaces\DAVE-4.1\Flightcontroller_PWM_CopterRocks_Working/Libraries/CMSIS/Include\cmsis_gcc.h ****   uint32_t __RES, __ARG1 = (ARG1); \
 704:C:\Workspaces\DAVE-4.1\Flightcontroller_PWM_CopterRocks_Working/Libraries/CMSIS/Include\cmsis_gcc.h ****   __ASM ("usat %0, %1, %2" : "=r" (__RES) :  "I" (ARG2), "r" (__ARG1) ); \
 705:C:\Workspaces\DAVE-4.1\Flightcontroller_PWM_CopterRocks_Working/Libraries/CMSIS/Include\cmsis_gcc.h ****   __RES; \
 706:C:\Workspaces\DAVE-4.1\Flightcontroller_PWM_CopterRocks_Working/Libraries/CMSIS/Include\cmsis_gcc.h ****  })
 707:C:\Workspaces\DAVE-4.1\Flightcontroller_PWM_CopterRocks_Working/Libraries/CMSIS/Include\cmsis_gcc.h **** 
 708:C:\Workspaces\DAVE-4.1\Flightcontroller_PWM_CopterRocks_Working/Libraries/CMSIS/Include\cmsis_gcc.h **** 
 709:C:\Workspaces\DAVE-4.1\Flightcontroller_PWM_CopterRocks_Working/Libraries/CMSIS/Include\cmsis_gcc.h **** /**
 710:C:\Workspaces\DAVE-4.1\Flightcontroller_PWM_CopterRocks_Working/Libraries/CMSIS/Include\cmsis_gcc.h ****   \brief   Rotate Right with Extend (32 bit)
 711:C:\Workspaces\DAVE-4.1\Flightcontroller_PWM_CopterRocks_Working/Libraries/CMSIS/Include\cmsis_gcc.h ****   \details Moves each bit of a bitstring right by one bit.
 712:C:\Workspaces\DAVE-4.1\Flightcontroller_PWM_CopterRocks_Working/Libraries/CMSIS/Include\cmsis_gcc.h ****            The carry input is shifted in at the left end of the bitstring.
 713:C:\Workspaces\DAVE-4.1\Flightcontroller_PWM_CopterRocks_Working/Libraries/CMSIS/Include\cmsis_gcc.h ****   \param [in]    value  Value to rotate
 714:C:\Workspaces\DAVE-4.1\Flightcontroller_PWM_CopterRocks_Working/Libraries/CMSIS/Include\cmsis_gcc.h ****   \return               Rotated value
 715:C:\Workspaces\DAVE-4.1\Flightcontroller_PWM_CopterRocks_Working/Libraries/CMSIS/Include\cmsis_gcc.h ****  */
 716:C:\Workspaces\DAVE-4.1\Flightcontroller_PWM_CopterRocks_Working/Libraries/CMSIS/Include\cmsis_gcc.h **** __attribute__((always_inline)) __STATIC_INLINE uint32_t __RRX(uint32_t value)
 717:C:\Workspaces\DAVE-4.1\Flightcontroller_PWM_CopterRocks_Working/Libraries/CMSIS/Include\cmsis_gcc.h **** {
 718:C:\Workspaces\DAVE-4.1\Flightcontroller_PWM_CopterRocks_Working/Libraries/CMSIS/Include\cmsis_gcc.h ****   uint32_t result;
 719:C:\Workspaces\DAVE-4.1\Flightcontroller_PWM_CopterRocks_Working/Libraries/CMSIS/Include\cmsis_gcc.h **** 
 720:C:\Workspaces\DAVE-4.1\Flightcontroller_PWM_CopterRocks_Working/Libraries/CMSIS/Include\cmsis_gcc.h ****   __ASM volatile ("rrx %0, %1" : __CMSIS_GCC_OUT_REG (result) : __CMSIS_GCC_USE_REG (value) );
 721:C:\Workspaces\DAVE-4.1\Flightcontroller_PWM_CopterRocks_Working/Libraries/CMSIS/Include\cmsis_gcc.h ****   return(result);
 722:C:\Workspaces\DAVE-4.1\Flightcontroller_PWM_CopterRocks_Working/Libraries/CMSIS/Include\cmsis_gcc.h **** }
 723:C:\Workspaces\DAVE-4.1\Flightcontroller_PWM_CopterRocks_Working/Libraries/CMSIS/Include\cmsis_gcc.h **** 
 724:C:\Workspaces\DAVE-4.1\Flightcontroller_PWM_CopterRocks_Working/Libraries/CMSIS/Include\cmsis_gcc.h **** 
 725:C:\Workspaces\DAVE-4.1\Flightcontroller_PWM_CopterRocks_Working/Libraries/CMSIS/Include\cmsis_gcc.h **** /**
 726:C:\Workspaces\DAVE-4.1\Flightcontroller_PWM_CopterRocks_Working/Libraries/CMSIS/Include\cmsis_gcc.h ****   \brief   LDRT Unprivileged (8 bit)
 727:C:\Workspaces\DAVE-4.1\Flightcontroller_PWM_CopterRocks_Working/Libraries/CMSIS/Include\cmsis_gcc.h ****   \details Executes a Unprivileged LDRT instruction for 8 bit value.
 728:C:\Workspaces\DAVE-4.1\Flightcontroller_PWM_CopterRocks_Working/Libraries/CMSIS/Include\cmsis_gcc.h ****   \param [in]    ptr  Pointer to data
 729:C:\Workspaces\DAVE-4.1\Flightcontroller_PWM_CopterRocks_Working/Libraries/CMSIS/Include\cmsis_gcc.h ****   \return             value of type uint8_t at (*ptr)
 730:C:\Workspaces\DAVE-4.1\Flightcontroller_PWM_CopterRocks_Working/Libraries/CMSIS/Include\cmsis_gcc.h ****  */
 731:C:\Workspaces\DAVE-4.1\Flightcontroller_PWM_CopterRocks_Working/Libraries/CMSIS/Include\cmsis_gcc.h **** __attribute__((always_inline)) __STATIC_INLINE uint8_t __LDRBT(volatile uint8_t *addr)
 732:C:\Workspaces\DAVE-4.1\Flightcontroller_PWM_CopterRocks_Working/Libraries/CMSIS/Include\cmsis_gcc.h **** {
 733:C:\Workspaces\DAVE-4.1\Flightcontroller_PWM_CopterRocks_Working/Libraries/CMSIS/Include\cmsis_gcc.h ****     uint32_t result;
 734:C:\Workspaces\DAVE-4.1\Flightcontroller_PWM_CopterRocks_Working/Libraries/CMSIS/Include\cmsis_gcc.h **** 
 735:C:\Workspaces\DAVE-4.1\Flightcontroller_PWM_CopterRocks_Working/Libraries/CMSIS/Include\cmsis_gcc.h **** #if (__GNUC__ > 4) || (__GNUC__ == 4 && __GNUC_MINOR__ >= 8)
 736:C:\Workspaces\DAVE-4.1\Flightcontroller_PWM_CopterRocks_Working/Libraries/CMSIS/Include\cmsis_gcc.h ****    __ASM volatile ("ldrbt %0, %1" : "=r" (result) : "Q" (*addr) );
 737:C:\Workspaces\DAVE-4.1\Flightcontroller_PWM_CopterRocks_Working/Libraries/CMSIS/Include\cmsis_gcc.h **** #else
 738:C:\Workspaces\DAVE-4.1\Flightcontroller_PWM_CopterRocks_Working/Libraries/CMSIS/Include\cmsis_gcc.h ****     /* Prior to GCC 4.8, "Q" will be expanded to [rx, #0] which is not
 739:C:\Workspaces\DAVE-4.1\Flightcontroller_PWM_CopterRocks_Working/Libraries/CMSIS/Include\cmsis_gcc.h ****        accepted by assembler. So has to use following less efficient pattern.
 740:C:\Workspaces\DAVE-4.1\Flightcontroller_PWM_CopterRocks_Working/Libraries/CMSIS/Include\cmsis_gcc.h ****     */
 741:C:\Workspaces\DAVE-4.1\Flightcontroller_PWM_CopterRocks_Working/Libraries/CMSIS/Include\cmsis_gcc.h ****    __ASM volatile ("ldrbt %0, [%1]" : "=r" (result) : "r" (addr) : "memory" );
 742:C:\Workspaces\DAVE-4.1\Flightcontroller_PWM_CopterRocks_Working/Libraries/CMSIS/Include\cmsis_gcc.h **** #endif
 743:C:\Workspaces\DAVE-4.1\Flightcontroller_PWM_CopterRocks_Working/Libraries/CMSIS/Include\cmsis_gcc.h ****    return ((uint8_t) result);    /* Add explicit type cast here */
 744:C:\Workspaces\DAVE-4.1\Flightcontroller_PWM_CopterRocks_Working/Libraries/CMSIS/Include\cmsis_gcc.h **** }
 745:C:\Workspaces\DAVE-4.1\Flightcontroller_PWM_CopterRocks_Working/Libraries/CMSIS/Include\cmsis_gcc.h **** 
 746:C:\Workspaces\DAVE-4.1\Flightcontroller_PWM_CopterRocks_Working/Libraries/CMSIS/Include\cmsis_gcc.h **** 
 747:C:\Workspaces\DAVE-4.1\Flightcontroller_PWM_CopterRocks_Working/Libraries/CMSIS/Include\cmsis_gcc.h **** /**
 748:C:\Workspaces\DAVE-4.1\Flightcontroller_PWM_CopterRocks_Working/Libraries/CMSIS/Include\cmsis_gcc.h ****   \brief   LDRT Unprivileged (16 bit)
 749:C:\Workspaces\DAVE-4.1\Flightcontroller_PWM_CopterRocks_Working/Libraries/CMSIS/Include\cmsis_gcc.h ****   \details Executes a Unprivileged LDRT instruction for 16 bit values.
 750:C:\Workspaces\DAVE-4.1\Flightcontroller_PWM_CopterRocks_Working/Libraries/CMSIS/Include\cmsis_gcc.h ****   \param [in]    ptr  Pointer to data
 751:C:\Workspaces\DAVE-4.1\Flightcontroller_PWM_CopterRocks_Working/Libraries/CMSIS/Include\cmsis_gcc.h ****   \return        value of type uint16_t at (*ptr)
 752:C:\Workspaces\DAVE-4.1\Flightcontroller_PWM_CopterRocks_Working/Libraries/CMSIS/Include\cmsis_gcc.h ****  */
 753:C:\Workspaces\DAVE-4.1\Flightcontroller_PWM_CopterRocks_Working/Libraries/CMSIS/Include\cmsis_gcc.h **** __attribute__((always_inline)) __STATIC_INLINE uint16_t __LDRHT(volatile uint16_t *addr)
 754:C:\Workspaces\DAVE-4.1\Flightcontroller_PWM_CopterRocks_Working/Libraries/CMSIS/Include\cmsis_gcc.h **** {
 755:C:\Workspaces\DAVE-4.1\Flightcontroller_PWM_CopterRocks_Working/Libraries/CMSIS/Include\cmsis_gcc.h ****     uint32_t result;
 756:C:\Workspaces\DAVE-4.1\Flightcontroller_PWM_CopterRocks_Working/Libraries/CMSIS/Include\cmsis_gcc.h **** 
 757:C:\Workspaces\DAVE-4.1\Flightcontroller_PWM_CopterRocks_Working/Libraries/CMSIS/Include\cmsis_gcc.h **** #if (__GNUC__ > 4) || (__GNUC__ == 4 && __GNUC_MINOR__ >= 8)
 758:C:\Workspaces\DAVE-4.1\Flightcontroller_PWM_CopterRocks_Working/Libraries/CMSIS/Include\cmsis_gcc.h ****    __ASM volatile ("ldrht %0, %1" : "=r" (result) : "Q" (*addr) );
 759:C:\Workspaces\DAVE-4.1\Flightcontroller_PWM_CopterRocks_Working/Libraries/CMSIS/Include\cmsis_gcc.h **** #else
 760:C:\Workspaces\DAVE-4.1\Flightcontroller_PWM_CopterRocks_Working/Libraries/CMSIS/Include\cmsis_gcc.h ****     /* Prior to GCC 4.8, "Q" will be expanded to [rx, #0] which is not
 761:C:\Workspaces\DAVE-4.1\Flightcontroller_PWM_CopterRocks_Working/Libraries/CMSIS/Include\cmsis_gcc.h ****        accepted by assembler. So has to use following less efficient pattern.
 762:C:\Workspaces\DAVE-4.1\Flightcontroller_PWM_CopterRocks_Working/Libraries/CMSIS/Include\cmsis_gcc.h ****     */
 763:C:\Workspaces\DAVE-4.1\Flightcontroller_PWM_CopterRocks_Working/Libraries/CMSIS/Include\cmsis_gcc.h ****    __ASM volatile ("ldrht %0, [%1]" : "=r" (result) : "r" (addr) : "memory" );
 764:C:\Workspaces\DAVE-4.1\Flightcontroller_PWM_CopterRocks_Working/Libraries/CMSIS/Include\cmsis_gcc.h **** #endif
 765:C:\Workspaces\DAVE-4.1\Flightcontroller_PWM_CopterRocks_Working/Libraries/CMSIS/Include\cmsis_gcc.h ****    return ((uint16_t) result);    /* Add explicit type cast here */
 766:C:\Workspaces\DAVE-4.1\Flightcontroller_PWM_CopterRocks_Working/Libraries/CMSIS/Include\cmsis_gcc.h **** }
 767:C:\Workspaces\DAVE-4.1\Flightcontroller_PWM_CopterRocks_Working/Libraries/CMSIS/Include\cmsis_gcc.h **** 
 768:C:\Workspaces\DAVE-4.1\Flightcontroller_PWM_CopterRocks_Working/Libraries/CMSIS/Include\cmsis_gcc.h **** 
 769:C:\Workspaces\DAVE-4.1\Flightcontroller_PWM_CopterRocks_Working/Libraries/CMSIS/Include\cmsis_gcc.h **** /**
 770:C:\Workspaces\DAVE-4.1\Flightcontroller_PWM_CopterRocks_Working/Libraries/CMSIS/Include\cmsis_gcc.h ****   \brief   LDRT Unprivileged (32 bit)
 771:C:\Workspaces\DAVE-4.1\Flightcontroller_PWM_CopterRocks_Working/Libraries/CMSIS/Include\cmsis_gcc.h ****   \details Executes a Unprivileged LDRT instruction for 32 bit values.
 772:C:\Workspaces\DAVE-4.1\Flightcontroller_PWM_CopterRocks_Working/Libraries/CMSIS/Include\cmsis_gcc.h ****   \param [in]    ptr  Pointer to data
 773:C:\Workspaces\DAVE-4.1\Flightcontroller_PWM_CopterRocks_Working/Libraries/CMSIS/Include\cmsis_gcc.h ****   \return        value of type uint32_t at (*ptr)
 774:C:\Workspaces\DAVE-4.1\Flightcontroller_PWM_CopterRocks_Working/Libraries/CMSIS/Include\cmsis_gcc.h ****  */
 775:C:\Workspaces\DAVE-4.1\Flightcontroller_PWM_CopterRocks_Working/Libraries/CMSIS/Include\cmsis_gcc.h **** __attribute__((always_inline)) __STATIC_INLINE uint32_t __LDRT(volatile uint32_t *addr)
 776:C:\Workspaces\DAVE-4.1\Flightcontroller_PWM_CopterRocks_Working/Libraries/CMSIS/Include\cmsis_gcc.h **** {
 777:C:\Workspaces\DAVE-4.1\Flightcontroller_PWM_CopterRocks_Working/Libraries/CMSIS/Include\cmsis_gcc.h ****     uint32_t result;
 778:C:\Workspaces\DAVE-4.1\Flightcontroller_PWM_CopterRocks_Working/Libraries/CMSIS/Include\cmsis_gcc.h **** 
 779:C:\Workspaces\DAVE-4.1\Flightcontroller_PWM_CopterRocks_Working/Libraries/CMSIS/Include\cmsis_gcc.h ****    __ASM volatile ("ldrt %0, %1" : "=r" (result) : "Q" (*addr) );
 780:C:\Workspaces\DAVE-4.1\Flightcontroller_PWM_CopterRocks_Working/Libraries/CMSIS/Include\cmsis_gcc.h ****    return(result);
 781:C:\Workspaces\DAVE-4.1\Flightcontroller_PWM_CopterRocks_Working/Libraries/CMSIS/Include\cmsis_gcc.h **** }
 782:C:\Workspaces\DAVE-4.1\Flightcontroller_PWM_CopterRocks_Working/Libraries/CMSIS/Include\cmsis_gcc.h **** 
 783:C:\Workspaces\DAVE-4.1\Flightcontroller_PWM_CopterRocks_Working/Libraries/CMSIS/Include\cmsis_gcc.h **** 
 784:C:\Workspaces\DAVE-4.1\Flightcontroller_PWM_CopterRocks_Working/Libraries/CMSIS/Include\cmsis_gcc.h **** /**
 785:C:\Workspaces\DAVE-4.1\Flightcontroller_PWM_CopterRocks_Working/Libraries/CMSIS/Include\cmsis_gcc.h ****   \brief   STRT Unprivileged (8 bit)
 786:C:\Workspaces\DAVE-4.1\Flightcontroller_PWM_CopterRocks_Working/Libraries/CMSIS/Include\cmsis_gcc.h ****   \details Executes a Unprivileged STRT instruction for 8 bit values.
 787:C:\Workspaces\DAVE-4.1\Flightcontroller_PWM_CopterRocks_Working/Libraries/CMSIS/Include\cmsis_gcc.h ****   \param [in]  value  Value to store
 788:C:\Workspaces\DAVE-4.1\Flightcontroller_PWM_CopterRocks_Working/Libraries/CMSIS/Include\cmsis_gcc.h ****   \param [in]    ptr  Pointer to location
 789:C:\Workspaces\DAVE-4.1\Flightcontroller_PWM_CopterRocks_Working/Libraries/CMSIS/Include\cmsis_gcc.h ****  */
 790:C:\Workspaces\DAVE-4.1\Flightcontroller_PWM_CopterRocks_Working/Libraries/CMSIS/Include\cmsis_gcc.h **** __attribute__((always_inline)) __STATIC_INLINE void __STRBT(uint8_t value, volatile uint8_t *addr)
 791:C:\Workspaces\DAVE-4.1\Flightcontroller_PWM_CopterRocks_Working/Libraries/CMSIS/Include\cmsis_gcc.h **** {
 792:C:\Workspaces\DAVE-4.1\Flightcontroller_PWM_CopterRocks_Working/Libraries/CMSIS/Include\cmsis_gcc.h ****    __ASM volatile ("strbt %1, %0" : "=Q" (*addr) : "r" ((uint32_t)value) );
 793:C:\Workspaces\DAVE-4.1\Flightcontroller_PWM_CopterRocks_Working/Libraries/CMSIS/Include\cmsis_gcc.h **** }
 794:C:\Workspaces\DAVE-4.1\Flightcontroller_PWM_CopterRocks_Working/Libraries/CMSIS/Include\cmsis_gcc.h **** 
 795:C:\Workspaces\DAVE-4.1\Flightcontroller_PWM_CopterRocks_Working/Libraries/CMSIS/Include\cmsis_gcc.h **** 
 796:C:\Workspaces\DAVE-4.1\Flightcontroller_PWM_CopterRocks_Working/Libraries/CMSIS/Include\cmsis_gcc.h **** /**
 797:C:\Workspaces\DAVE-4.1\Flightcontroller_PWM_CopterRocks_Working/Libraries/CMSIS/Include\cmsis_gcc.h ****   \brief   STRT Unprivileged (16 bit)
 798:C:\Workspaces\DAVE-4.1\Flightcontroller_PWM_CopterRocks_Working/Libraries/CMSIS/Include\cmsis_gcc.h ****   \details Executes a Unprivileged STRT instruction for 16 bit values.
 799:C:\Workspaces\DAVE-4.1\Flightcontroller_PWM_CopterRocks_Working/Libraries/CMSIS/Include\cmsis_gcc.h ****   \param [in]  value  Value to store
 800:C:\Workspaces\DAVE-4.1\Flightcontroller_PWM_CopterRocks_Working/Libraries/CMSIS/Include\cmsis_gcc.h ****   \param [in]    ptr  Pointer to location
 801:C:\Workspaces\DAVE-4.1\Flightcontroller_PWM_CopterRocks_Working/Libraries/CMSIS/Include\cmsis_gcc.h ****  */
 802:C:\Workspaces\DAVE-4.1\Flightcontroller_PWM_CopterRocks_Working/Libraries/CMSIS/Include\cmsis_gcc.h **** __attribute__((always_inline)) __STATIC_INLINE void __STRHT(uint16_t value, volatile uint16_t *addr
 803:C:\Workspaces\DAVE-4.1\Flightcontroller_PWM_CopterRocks_Working/Libraries/CMSIS/Include\cmsis_gcc.h **** {
 804:C:\Workspaces\DAVE-4.1\Flightcontroller_PWM_CopterRocks_Working/Libraries/CMSIS/Include\cmsis_gcc.h ****    __ASM volatile ("strht %1, %0" : "=Q" (*addr) : "r" ((uint32_t)value) );
 805:C:\Workspaces\DAVE-4.1\Flightcontroller_PWM_CopterRocks_Working/Libraries/CMSIS/Include\cmsis_gcc.h **** }
 806:C:\Workspaces\DAVE-4.1\Flightcontroller_PWM_CopterRocks_Working/Libraries/CMSIS/Include\cmsis_gcc.h **** 
 807:C:\Workspaces\DAVE-4.1\Flightcontroller_PWM_CopterRocks_Working/Libraries/CMSIS/Include\cmsis_gcc.h **** 
 808:C:\Workspaces\DAVE-4.1\Flightcontroller_PWM_CopterRocks_Working/Libraries/CMSIS/Include\cmsis_gcc.h **** /**
 809:C:\Workspaces\DAVE-4.1\Flightcontroller_PWM_CopterRocks_Working/Libraries/CMSIS/Include\cmsis_gcc.h ****   \brief   STRT Unprivileged (32 bit)
 810:C:\Workspaces\DAVE-4.1\Flightcontroller_PWM_CopterRocks_Working/Libraries/CMSIS/Include\cmsis_gcc.h ****   \details Executes a Unprivileged STRT instruction for 32 bit values.
 811:C:\Workspaces\DAVE-4.1\Flightcontroller_PWM_CopterRocks_Working/Libraries/CMSIS/Include\cmsis_gcc.h ****   \param [in]  value  Value to store
 812:C:\Workspaces\DAVE-4.1\Flightcontroller_PWM_CopterRocks_Working/Libraries/CMSIS/Include\cmsis_gcc.h ****   \param [in]    ptr  Pointer to location
 813:C:\Workspaces\DAVE-4.1\Flightcontroller_PWM_CopterRocks_Working/Libraries/CMSIS/Include\cmsis_gcc.h ****  */
 814:C:\Workspaces\DAVE-4.1\Flightcontroller_PWM_CopterRocks_Working/Libraries/CMSIS/Include\cmsis_gcc.h **** __attribute__((always_inline)) __STATIC_INLINE void __STRT(uint32_t value, volatile uint32_t *addr)
 815:C:\Workspaces\DAVE-4.1\Flightcontroller_PWM_CopterRocks_Working/Libraries/CMSIS/Include\cmsis_gcc.h **** {
 816:C:\Workspaces\DAVE-4.1\Flightcontroller_PWM_CopterRocks_Working/Libraries/CMSIS/Include\cmsis_gcc.h ****    __ASM volatile ("strt %1, %0" : "=Q" (*addr) : "r" (value) );
 817:C:\Workspaces\DAVE-4.1\Flightcontroller_PWM_CopterRocks_Working/Libraries/CMSIS/Include\cmsis_gcc.h **** }
 818:C:\Workspaces\DAVE-4.1\Flightcontroller_PWM_CopterRocks_Working/Libraries/CMSIS/Include\cmsis_gcc.h **** 
 819:C:\Workspaces\DAVE-4.1\Flightcontroller_PWM_CopterRocks_Working/Libraries/CMSIS/Include\cmsis_gcc.h **** #endif /* (__CORTEX_M >= 0x03U) || (__CORTEX_SC >= 300U) */
 820:C:\Workspaces\DAVE-4.1\Flightcontroller_PWM_CopterRocks_Working/Libraries/CMSIS/Include\cmsis_gcc.h **** 
 821:C:\Workspaces\DAVE-4.1\Flightcontroller_PWM_CopterRocks_Working/Libraries/CMSIS/Include\cmsis_gcc.h **** /*@}*/ /* end of group CMSIS_Core_InstructionInterface */
 822:C:\Workspaces\DAVE-4.1\Flightcontroller_PWM_CopterRocks_Working/Libraries/CMSIS/Include\cmsis_gcc.h **** 
 823:C:\Workspaces\DAVE-4.1\Flightcontroller_PWM_CopterRocks_Working/Libraries/CMSIS/Include\cmsis_gcc.h **** 
 824:C:\Workspaces\DAVE-4.1\Flightcontroller_PWM_CopterRocks_Working/Libraries/CMSIS/Include\cmsis_gcc.h **** /* ###################  Compiler specific Intrinsics  ########################### */
 825:C:\Workspaces\DAVE-4.1\Flightcontroller_PWM_CopterRocks_Working/Libraries/CMSIS/Include\cmsis_gcc.h **** /** \defgroup CMSIS_SIMD_intrinsics CMSIS SIMD Intrinsics
 826:C:\Workspaces\DAVE-4.1\Flightcontroller_PWM_CopterRocks_Working/Libraries/CMSIS/Include\cmsis_gcc.h ****   Access to dedicated SIMD instructions
 827:C:\Workspaces\DAVE-4.1\Flightcontroller_PWM_CopterRocks_Working/Libraries/CMSIS/Include\cmsis_gcc.h ****   @{
 828:C:\Workspaces\DAVE-4.1\Flightcontroller_PWM_CopterRocks_Working/Libraries/CMSIS/Include\cmsis_gcc.h **** */
 829:C:\Workspaces\DAVE-4.1\Flightcontroller_PWM_CopterRocks_Working/Libraries/CMSIS/Include\cmsis_gcc.h **** 
 830:C:\Workspaces\DAVE-4.1\Flightcontroller_PWM_CopterRocks_Working/Libraries/CMSIS/Include\cmsis_gcc.h **** #if (__CORTEX_M >= 0x04U)  /* only for Cortex-M4 and above */
 831:C:\Workspaces\DAVE-4.1\Flightcontroller_PWM_CopterRocks_Working/Libraries/CMSIS/Include\cmsis_gcc.h **** 
 832:C:\Workspaces\DAVE-4.1\Flightcontroller_PWM_CopterRocks_Working/Libraries/CMSIS/Include\cmsis_gcc.h **** __attribute__( ( always_inline ) ) __STATIC_INLINE uint32_t __SADD8(uint32_t op1, uint32_t op2)
 833:C:\Workspaces\DAVE-4.1\Flightcontroller_PWM_CopterRocks_Working/Libraries/CMSIS/Include\cmsis_gcc.h **** {
 834:C:\Workspaces\DAVE-4.1\Flightcontroller_PWM_CopterRocks_Working/Libraries/CMSIS/Include\cmsis_gcc.h ****   uint32_t result;
 835:C:\Workspaces\DAVE-4.1\Flightcontroller_PWM_CopterRocks_Working/Libraries/CMSIS/Include\cmsis_gcc.h **** 
 836:C:\Workspaces\DAVE-4.1\Flightcontroller_PWM_CopterRocks_Working/Libraries/CMSIS/Include\cmsis_gcc.h ****   __ASM volatile ("sadd8 %0, %1, %2" : "=r" (result) : "r" (op1), "r" (op2) );
 837:C:\Workspaces\DAVE-4.1\Flightcontroller_PWM_CopterRocks_Working/Libraries/CMSIS/Include\cmsis_gcc.h ****   return(result);
 838:C:\Workspaces\DAVE-4.1\Flightcontroller_PWM_CopterRocks_Working/Libraries/CMSIS/Include\cmsis_gcc.h **** }
 839:C:\Workspaces\DAVE-4.1\Flightcontroller_PWM_CopterRocks_Working/Libraries/CMSIS/Include\cmsis_gcc.h **** 
 840:C:\Workspaces\DAVE-4.1\Flightcontroller_PWM_CopterRocks_Working/Libraries/CMSIS/Include\cmsis_gcc.h **** __attribute__( ( always_inline ) ) __STATIC_INLINE uint32_t __QADD8(uint32_t op1, uint32_t op2)
 841:C:\Workspaces\DAVE-4.1\Flightcontroller_PWM_CopterRocks_Working/Libraries/CMSIS/Include\cmsis_gcc.h **** {
 842:C:\Workspaces\DAVE-4.1\Flightcontroller_PWM_CopterRocks_Working/Libraries/CMSIS/Include\cmsis_gcc.h ****   uint32_t result;
 843:C:\Workspaces\DAVE-4.1\Flightcontroller_PWM_CopterRocks_Working/Libraries/CMSIS/Include\cmsis_gcc.h **** 
 844:C:\Workspaces\DAVE-4.1\Flightcontroller_PWM_CopterRocks_Working/Libraries/CMSIS/Include\cmsis_gcc.h ****   __ASM volatile ("qadd8 %0, %1, %2" : "=r" (result) : "r" (op1), "r" (op2) );
 845:C:\Workspaces\DAVE-4.1\Flightcontroller_PWM_CopterRocks_Working/Libraries/CMSIS/Include\cmsis_gcc.h ****   return(result);
 846:C:\Workspaces\DAVE-4.1\Flightcontroller_PWM_CopterRocks_Working/Libraries/CMSIS/Include\cmsis_gcc.h **** }
 847:C:\Workspaces\DAVE-4.1\Flightcontroller_PWM_CopterRocks_Working/Libraries/CMSIS/Include\cmsis_gcc.h **** 
 848:C:\Workspaces\DAVE-4.1\Flightcontroller_PWM_CopterRocks_Working/Libraries/CMSIS/Include\cmsis_gcc.h **** __attribute__( ( always_inline ) ) __STATIC_INLINE uint32_t __SHADD8(uint32_t op1, uint32_t op2)
 849:C:\Workspaces\DAVE-4.1\Flightcontroller_PWM_CopterRocks_Working/Libraries/CMSIS/Include\cmsis_gcc.h **** {
 850:C:\Workspaces\DAVE-4.1\Flightcontroller_PWM_CopterRocks_Working/Libraries/CMSIS/Include\cmsis_gcc.h ****   uint32_t result;
 851:C:\Workspaces\DAVE-4.1\Flightcontroller_PWM_CopterRocks_Working/Libraries/CMSIS/Include\cmsis_gcc.h **** 
 852:C:\Workspaces\DAVE-4.1\Flightcontroller_PWM_CopterRocks_Working/Libraries/CMSIS/Include\cmsis_gcc.h ****   __ASM volatile ("shadd8 %0, %1, %2" : "=r" (result) : "r" (op1), "r" (op2) );
 853:C:\Workspaces\DAVE-4.1\Flightcontroller_PWM_CopterRocks_Working/Libraries/CMSIS/Include\cmsis_gcc.h ****   return(result);
 854:C:\Workspaces\DAVE-4.1\Flightcontroller_PWM_CopterRocks_Working/Libraries/CMSIS/Include\cmsis_gcc.h **** }
 855:C:\Workspaces\DAVE-4.1\Flightcontroller_PWM_CopterRocks_Working/Libraries/CMSIS/Include\cmsis_gcc.h **** 
 856:C:\Workspaces\DAVE-4.1\Flightcontroller_PWM_CopterRocks_Working/Libraries/CMSIS/Include\cmsis_gcc.h **** __attribute__( ( always_inline ) ) __STATIC_INLINE uint32_t __UADD8(uint32_t op1, uint32_t op2)
 857:C:\Workspaces\DAVE-4.1\Flightcontroller_PWM_CopterRocks_Working/Libraries/CMSIS/Include\cmsis_gcc.h **** {
 858:C:\Workspaces\DAVE-4.1\Flightcontroller_PWM_CopterRocks_Working/Libraries/CMSIS/Include\cmsis_gcc.h ****   uint32_t result;
 859:C:\Workspaces\DAVE-4.1\Flightcontroller_PWM_CopterRocks_Working/Libraries/CMSIS/Include\cmsis_gcc.h **** 
 860:C:\Workspaces\DAVE-4.1\Flightcontroller_PWM_CopterRocks_Working/Libraries/CMSIS/Include\cmsis_gcc.h ****   __ASM volatile ("uadd8 %0, %1, %2" : "=r" (result) : "r" (op1), "r" (op2) );
 861:C:\Workspaces\DAVE-4.1\Flightcontroller_PWM_CopterRocks_Working/Libraries/CMSIS/Include\cmsis_gcc.h ****   return(result);
 862:C:\Workspaces\DAVE-4.1\Flightcontroller_PWM_CopterRocks_Working/Libraries/CMSIS/Include\cmsis_gcc.h **** }
 863:C:\Workspaces\DAVE-4.1\Flightcontroller_PWM_CopterRocks_Working/Libraries/CMSIS/Include\cmsis_gcc.h **** 
 864:C:\Workspaces\DAVE-4.1\Flightcontroller_PWM_CopterRocks_Working/Libraries/CMSIS/Include\cmsis_gcc.h **** __attribute__( ( always_inline ) ) __STATIC_INLINE uint32_t __UQADD8(uint32_t op1, uint32_t op2)
 865:C:\Workspaces\DAVE-4.1\Flightcontroller_PWM_CopterRocks_Working/Libraries/CMSIS/Include\cmsis_gcc.h **** {
 866:C:\Workspaces\DAVE-4.1\Flightcontroller_PWM_CopterRocks_Working/Libraries/CMSIS/Include\cmsis_gcc.h ****   uint32_t result;
 867:C:\Workspaces\DAVE-4.1\Flightcontroller_PWM_CopterRocks_Working/Libraries/CMSIS/Include\cmsis_gcc.h **** 
 868:C:\Workspaces\DAVE-4.1\Flightcontroller_PWM_CopterRocks_Working/Libraries/CMSIS/Include\cmsis_gcc.h ****   __ASM volatile ("uqadd8 %0, %1, %2" : "=r" (result) : "r" (op1), "r" (op2) );
 869:C:\Workspaces\DAVE-4.1\Flightcontroller_PWM_CopterRocks_Working/Libraries/CMSIS/Include\cmsis_gcc.h ****   return(result);
 870:C:\Workspaces\DAVE-4.1\Flightcontroller_PWM_CopterRocks_Working/Libraries/CMSIS/Include\cmsis_gcc.h **** }
 871:C:\Workspaces\DAVE-4.1\Flightcontroller_PWM_CopterRocks_Working/Libraries/CMSIS/Include\cmsis_gcc.h **** 
 872:C:\Workspaces\DAVE-4.1\Flightcontroller_PWM_CopterRocks_Working/Libraries/CMSIS/Include\cmsis_gcc.h **** __attribute__( ( always_inline ) ) __STATIC_INLINE uint32_t __UHADD8(uint32_t op1, uint32_t op2)
 873:C:\Workspaces\DAVE-4.1\Flightcontroller_PWM_CopterRocks_Working/Libraries/CMSIS/Include\cmsis_gcc.h **** {
 874:C:\Workspaces\DAVE-4.1\Flightcontroller_PWM_CopterRocks_Working/Libraries/CMSIS/Include\cmsis_gcc.h ****   uint32_t result;
 875:C:\Workspaces\DAVE-4.1\Flightcontroller_PWM_CopterRocks_Working/Libraries/CMSIS/Include\cmsis_gcc.h **** 
 876:C:\Workspaces\DAVE-4.1\Flightcontroller_PWM_CopterRocks_Working/Libraries/CMSIS/Include\cmsis_gcc.h ****   __ASM volatile ("uhadd8 %0, %1, %2" : "=r" (result) : "r" (op1), "r" (op2) );
 877:C:\Workspaces\DAVE-4.1\Flightcontroller_PWM_CopterRocks_Working/Libraries/CMSIS/Include\cmsis_gcc.h ****   return(result);
 878:C:\Workspaces\DAVE-4.1\Flightcontroller_PWM_CopterRocks_Working/Libraries/CMSIS/Include\cmsis_gcc.h **** }
 879:C:\Workspaces\DAVE-4.1\Flightcontroller_PWM_CopterRocks_Working/Libraries/CMSIS/Include\cmsis_gcc.h **** 
 880:C:\Workspaces\DAVE-4.1\Flightcontroller_PWM_CopterRocks_Working/Libraries/CMSIS/Include\cmsis_gcc.h **** 
 881:C:\Workspaces\DAVE-4.1\Flightcontroller_PWM_CopterRocks_Working/Libraries/CMSIS/Include\cmsis_gcc.h **** __attribute__( ( always_inline ) ) __STATIC_INLINE uint32_t __SSUB8(uint32_t op1, uint32_t op2)
 882:C:\Workspaces\DAVE-4.1\Flightcontroller_PWM_CopterRocks_Working/Libraries/CMSIS/Include\cmsis_gcc.h **** {
 883:C:\Workspaces\DAVE-4.1\Flightcontroller_PWM_CopterRocks_Working/Libraries/CMSIS/Include\cmsis_gcc.h ****   uint32_t result;
 884:C:\Workspaces\DAVE-4.1\Flightcontroller_PWM_CopterRocks_Working/Libraries/CMSIS/Include\cmsis_gcc.h **** 
 885:C:\Workspaces\DAVE-4.1\Flightcontroller_PWM_CopterRocks_Working/Libraries/CMSIS/Include\cmsis_gcc.h ****   __ASM volatile ("ssub8 %0, %1, %2" : "=r" (result) : "r" (op1), "r" (op2) );
 886:C:\Workspaces\DAVE-4.1\Flightcontroller_PWM_CopterRocks_Working/Libraries/CMSIS/Include\cmsis_gcc.h ****   return(result);
 887:C:\Workspaces\DAVE-4.1\Flightcontroller_PWM_CopterRocks_Working/Libraries/CMSIS/Include\cmsis_gcc.h **** }
 888:C:\Workspaces\DAVE-4.1\Flightcontroller_PWM_CopterRocks_Working/Libraries/CMSIS/Include\cmsis_gcc.h **** 
 889:C:\Workspaces\DAVE-4.1\Flightcontroller_PWM_CopterRocks_Working/Libraries/CMSIS/Include\cmsis_gcc.h **** __attribute__( ( always_inline ) ) __STATIC_INLINE uint32_t __QSUB8(uint32_t op1, uint32_t op2)
 890:C:\Workspaces\DAVE-4.1\Flightcontroller_PWM_CopterRocks_Working/Libraries/CMSIS/Include\cmsis_gcc.h **** {
 891:C:\Workspaces\DAVE-4.1\Flightcontroller_PWM_CopterRocks_Working/Libraries/CMSIS/Include\cmsis_gcc.h ****   uint32_t result;
 892:C:\Workspaces\DAVE-4.1\Flightcontroller_PWM_CopterRocks_Working/Libraries/CMSIS/Include\cmsis_gcc.h **** 
 893:C:\Workspaces\DAVE-4.1\Flightcontroller_PWM_CopterRocks_Working/Libraries/CMSIS/Include\cmsis_gcc.h ****   __ASM volatile ("qsub8 %0, %1, %2" : "=r" (result) : "r" (op1), "r" (op2) );
 894:C:\Workspaces\DAVE-4.1\Flightcontroller_PWM_CopterRocks_Working/Libraries/CMSIS/Include\cmsis_gcc.h ****   return(result);
 895:C:\Workspaces\DAVE-4.1\Flightcontroller_PWM_CopterRocks_Working/Libraries/CMSIS/Include\cmsis_gcc.h **** }
 896:C:\Workspaces\DAVE-4.1\Flightcontroller_PWM_CopterRocks_Working/Libraries/CMSIS/Include\cmsis_gcc.h **** 
 897:C:\Workspaces\DAVE-4.1\Flightcontroller_PWM_CopterRocks_Working/Libraries/CMSIS/Include\cmsis_gcc.h **** __attribute__( ( always_inline ) ) __STATIC_INLINE uint32_t __SHSUB8(uint32_t op1, uint32_t op2)
 898:C:\Workspaces\DAVE-4.1\Flightcontroller_PWM_CopterRocks_Working/Libraries/CMSIS/Include\cmsis_gcc.h **** {
 899:C:\Workspaces\DAVE-4.1\Flightcontroller_PWM_CopterRocks_Working/Libraries/CMSIS/Include\cmsis_gcc.h ****   uint32_t result;
 900:C:\Workspaces\DAVE-4.1\Flightcontroller_PWM_CopterRocks_Working/Libraries/CMSIS/Include\cmsis_gcc.h **** 
 901:C:\Workspaces\DAVE-4.1\Flightcontroller_PWM_CopterRocks_Working/Libraries/CMSIS/Include\cmsis_gcc.h ****   __ASM volatile ("shsub8 %0, %1, %2" : "=r" (result) : "r" (op1), "r" (op2) );
 902:C:\Workspaces\DAVE-4.1\Flightcontroller_PWM_CopterRocks_Working/Libraries/CMSIS/Include\cmsis_gcc.h ****   return(result);
 903:C:\Workspaces\DAVE-4.1\Flightcontroller_PWM_CopterRocks_Working/Libraries/CMSIS/Include\cmsis_gcc.h **** }
 904:C:\Workspaces\DAVE-4.1\Flightcontroller_PWM_CopterRocks_Working/Libraries/CMSIS/Include\cmsis_gcc.h **** 
 905:C:\Workspaces\DAVE-4.1\Flightcontroller_PWM_CopterRocks_Working/Libraries/CMSIS/Include\cmsis_gcc.h **** __attribute__( ( always_inline ) ) __STATIC_INLINE uint32_t __USUB8(uint32_t op1, uint32_t op2)
 906:C:\Workspaces\DAVE-4.1\Flightcontroller_PWM_CopterRocks_Working/Libraries/CMSIS/Include\cmsis_gcc.h **** {
 907:C:\Workspaces\DAVE-4.1\Flightcontroller_PWM_CopterRocks_Working/Libraries/CMSIS/Include\cmsis_gcc.h ****   uint32_t result;
 908:C:\Workspaces\DAVE-4.1\Flightcontroller_PWM_CopterRocks_Working/Libraries/CMSIS/Include\cmsis_gcc.h **** 
 909:C:\Workspaces\DAVE-4.1\Flightcontroller_PWM_CopterRocks_Working/Libraries/CMSIS/Include\cmsis_gcc.h ****   __ASM volatile ("usub8 %0, %1, %2" : "=r" (result) : "r" (op1), "r" (op2) );
 910:C:\Workspaces\DAVE-4.1\Flightcontroller_PWM_CopterRocks_Working/Libraries/CMSIS/Include\cmsis_gcc.h ****   return(result);
 911:C:\Workspaces\DAVE-4.1\Flightcontroller_PWM_CopterRocks_Working/Libraries/CMSIS/Include\cmsis_gcc.h **** }
 912:C:\Workspaces\DAVE-4.1\Flightcontroller_PWM_CopterRocks_Working/Libraries/CMSIS/Include\cmsis_gcc.h **** 
 913:C:\Workspaces\DAVE-4.1\Flightcontroller_PWM_CopterRocks_Working/Libraries/CMSIS/Include\cmsis_gcc.h **** __attribute__( ( always_inline ) ) __STATIC_INLINE uint32_t __UQSUB8(uint32_t op1, uint32_t op2)
 914:C:\Workspaces\DAVE-4.1\Flightcontroller_PWM_CopterRocks_Working/Libraries/CMSIS/Include\cmsis_gcc.h **** {
 915:C:\Workspaces\DAVE-4.1\Flightcontroller_PWM_CopterRocks_Working/Libraries/CMSIS/Include\cmsis_gcc.h ****   uint32_t result;
 916:C:\Workspaces\DAVE-4.1\Flightcontroller_PWM_CopterRocks_Working/Libraries/CMSIS/Include\cmsis_gcc.h **** 
 917:C:\Workspaces\DAVE-4.1\Flightcontroller_PWM_CopterRocks_Working/Libraries/CMSIS/Include\cmsis_gcc.h ****   __ASM volatile ("uqsub8 %0, %1, %2" : "=r" (result) : "r" (op1), "r" (op2) );
 918:C:\Workspaces\DAVE-4.1\Flightcontroller_PWM_CopterRocks_Working/Libraries/CMSIS/Include\cmsis_gcc.h ****   return(result);
 919:C:\Workspaces\DAVE-4.1\Flightcontroller_PWM_CopterRocks_Working/Libraries/CMSIS/Include\cmsis_gcc.h **** }
 920:C:\Workspaces\DAVE-4.1\Flightcontroller_PWM_CopterRocks_Working/Libraries/CMSIS/Include\cmsis_gcc.h **** 
 921:C:\Workspaces\DAVE-4.1\Flightcontroller_PWM_CopterRocks_Working/Libraries/CMSIS/Include\cmsis_gcc.h **** __attribute__( ( always_inline ) ) __STATIC_INLINE uint32_t __UHSUB8(uint32_t op1, uint32_t op2)
 922:C:\Workspaces\DAVE-4.1\Flightcontroller_PWM_CopterRocks_Working/Libraries/CMSIS/Include\cmsis_gcc.h **** {
 923:C:\Workspaces\DAVE-4.1\Flightcontroller_PWM_CopterRocks_Working/Libraries/CMSIS/Include\cmsis_gcc.h ****   uint32_t result;
 924:C:\Workspaces\DAVE-4.1\Flightcontroller_PWM_CopterRocks_Working/Libraries/CMSIS/Include\cmsis_gcc.h **** 
 925:C:\Workspaces\DAVE-4.1\Flightcontroller_PWM_CopterRocks_Working/Libraries/CMSIS/Include\cmsis_gcc.h ****   __ASM volatile ("uhsub8 %0, %1, %2" : "=r" (result) : "r" (op1), "r" (op2) );
 926:C:\Workspaces\DAVE-4.1\Flightcontroller_PWM_CopterRocks_Working/Libraries/CMSIS/Include\cmsis_gcc.h ****   return(result);
 927:C:\Workspaces\DAVE-4.1\Flightcontroller_PWM_CopterRocks_Working/Libraries/CMSIS/Include\cmsis_gcc.h **** }
 928:C:\Workspaces\DAVE-4.1\Flightcontroller_PWM_CopterRocks_Working/Libraries/CMSIS/Include\cmsis_gcc.h **** 
 929:C:\Workspaces\DAVE-4.1\Flightcontroller_PWM_CopterRocks_Working/Libraries/CMSIS/Include\cmsis_gcc.h **** 
 930:C:\Workspaces\DAVE-4.1\Flightcontroller_PWM_CopterRocks_Working/Libraries/CMSIS/Include\cmsis_gcc.h **** __attribute__( ( always_inline ) ) __STATIC_INLINE uint32_t __SADD16(uint32_t op1, uint32_t op2)
 931:C:\Workspaces\DAVE-4.1\Flightcontroller_PWM_CopterRocks_Working/Libraries/CMSIS/Include\cmsis_gcc.h **** {
 932:C:\Workspaces\DAVE-4.1\Flightcontroller_PWM_CopterRocks_Working/Libraries/CMSIS/Include\cmsis_gcc.h ****   uint32_t result;
 933:C:\Workspaces\DAVE-4.1\Flightcontroller_PWM_CopterRocks_Working/Libraries/CMSIS/Include\cmsis_gcc.h **** 
 934:C:\Workspaces\DAVE-4.1\Flightcontroller_PWM_CopterRocks_Working/Libraries/CMSIS/Include\cmsis_gcc.h ****   __ASM volatile ("sadd16 %0, %1, %2" : "=r" (result) : "r" (op1), "r" (op2) );
 935:C:\Workspaces\DAVE-4.1\Flightcontroller_PWM_CopterRocks_Working/Libraries/CMSIS/Include\cmsis_gcc.h ****   return(result);
 936:C:\Workspaces\DAVE-4.1\Flightcontroller_PWM_CopterRocks_Working/Libraries/CMSIS/Include\cmsis_gcc.h **** }
 937:C:\Workspaces\DAVE-4.1\Flightcontroller_PWM_CopterRocks_Working/Libraries/CMSIS/Include\cmsis_gcc.h **** 
 938:C:\Workspaces\DAVE-4.1\Flightcontroller_PWM_CopterRocks_Working/Libraries/CMSIS/Include\cmsis_gcc.h **** __attribute__( ( always_inline ) ) __STATIC_INLINE uint32_t __QADD16(uint32_t op1, uint32_t op2)
 939:C:\Workspaces\DAVE-4.1\Flightcontroller_PWM_CopterRocks_Working/Libraries/CMSIS/Include\cmsis_gcc.h **** {
 940:C:\Workspaces\DAVE-4.1\Flightcontroller_PWM_CopterRocks_Working/Libraries/CMSIS/Include\cmsis_gcc.h ****   uint32_t result;
 941:C:\Workspaces\DAVE-4.1\Flightcontroller_PWM_CopterRocks_Working/Libraries/CMSIS/Include\cmsis_gcc.h **** 
 942:C:\Workspaces\DAVE-4.1\Flightcontroller_PWM_CopterRocks_Working/Libraries/CMSIS/Include\cmsis_gcc.h ****   __ASM volatile ("qadd16 %0, %1, %2" : "=r" (result) : "r" (op1), "r" (op2) );
 943:C:\Workspaces\DAVE-4.1\Flightcontroller_PWM_CopterRocks_Working/Libraries/CMSIS/Include\cmsis_gcc.h ****   return(result);
 944:C:\Workspaces\DAVE-4.1\Flightcontroller_PWM_CopterRocks_Working/Libraries/CMSIS/Include\cmsis_gcc.h **** }
 945:C:\Workspaces\DAVE-4.1\Flightcontroller_PWM_CopterRocks_Working/Libraries/CMSIS/Include\cmsis_gcc.h **** 
 946:C:\Workspaces\DAVE-4.1\Flightcontroller_PWM_CopterRocks_Working/Libraries/CMSIS/Include\cmsis_gcc.h **** __attribute__( ( always_inline ) ) __STATIC_INLINE uint32_t __SHADD16(uint32_t op1, uint32_t op2)
 947:C:\Workspaces\DAVE-4.1\Flightcontroller_PWM_CopterRocks_Working/Libraries/CMSIS/Include\cmsis_gcc.h **** {
 948:C:\Workspaces\DAVE-4.1\Flightcontroller_PWM_CopterRocks_Working/Libraries/CMSIS/Include\cmsis_gcc.h ****   uint32_t result;
 949:C:\Workspaces\DAVE-4.1\Flightcontroller_PWM_CopterRocks_Working/Libraries/CMSIS/Include\cmsis_gcc.h **** 
 950:C:\Workspaces\DAVE-4.1\Flightcontroller_PWM_CopterRocks_Working/Libraries/CMSIS/Include\cmsis_gcc.h ****   __ASM volatile ("shadd16 %0, %1, %2" : "=r" (result) : "r" (op1), "r" (op2) );
 951:C:\Workspaces\DAVE-4.1\Flightcontroller_PWM_CopterRocks_Working/Libraries/CMSIS/Include\cmsis_gcc.h ****   return(result);
 952:C:\Workspaces\DAVE-4.1\Flightcontroller_PWM_CopterRocks_Working/Libraries/CMSIS/Include\cmsis_gcc.h **** }
 953:C:\Workspaces\DAVE-4.1\Flightcontroller_PWM_CopterRocks_Working/Libraries/CMSIS/Include\cmsis_gcc.h **** 
 954:C:\Workspaces\DAVE-4.1\Flightcontroller_PWM_CopterRocks_Working/Libraries/CMSIS/Include\cmsis_gcc.h **** __attribute__( ( always_inline ) ) __STATIC_INLINE uint32_t __UADD16(uint32_t op1, uint32_t op2)
 955:C:\Workspaces\DAVE-4.1\Flightcontroller_PWM_CopterRocks_Working/Libraries/CMSIS/Include\cmsis_gcc.h **** {
 956:C:\Workspaces\DAVE-4.1\Flightcontroller_PWM_CopterRocks_Working/Libraries/CMSIS/Include\cmsis_gcc.h ****   uint32_t result;
 957:C:\Workspaces\DAVE-4.1\Flightcontroller_PWM_CopterRocks_Working/Libraries/CMSIS/Include\cmsis_gcc.h **** 
 958:C:\Workspaces\DAVE-4.1\Flightcontroller_PWM_CopterRocks_Working/Libraries/CMSIS/Include\cmsis_gcc.h ****   __ASM volatile ("uadd16 %0, %1, %2" : "=r" (result) : "r" (op1), "r" (op2) );
 959:C:\Workspaces\DAVE-4.1\Flightcontroller_PWM_CopterRocks_Working/Libraries/CMSIS/Include\cmsis_gcc.h ****   return(result);
 960:C:\Workspaces\DAVE-4.1\Flightcontroller_PWM_CopterRocks_Working/Libraries/CMSIS/Include\cmsis_gcc.h **** }
 961:C:\Workspaces\DAVE-4.1\Flightcontroller_PWM_CopterRocks_Working/Libraries/CMSIS/Include\cmsis_gcc.h **** 
 962:C:\Workspaces\DAVE-4.1\Flightcontroller_PWM_CopterRocks_Working/Libraries/CMSIS/Include\cmsis_gcc.h **** __attribute__( ( always_inline ) ) __STATIC_INLINE uint32_t __UQADD16(uint32_t op1, uint32_t op2)
 963:C:\Workspaces\DAVE-4.1\Flightcontroller_PWM_CopterRocks_Working/Libraries/CMSIS/Include\cmsis_gcc.h **** {
 964:C:\Workspaces\DAVE-4.1\Flightcontroller_PWM_CopterRocks_Working/Libraries/CMSIS/Include\cmsis_gcc.h ****   uint32_t result;
 965:C:\Workspaces\DAVE-4.1\Flightcontroller_PWM_CopterRocks_Working/Libraries/CMSIS/Include\cmsis_gcc.h **** 
 966:C:\Workspaces\DAVE-4.1\Flightcontroller_PWM_CopterRocks_Working/Libraries/CMSIS/Include\cmsis_gcc.h ****   __ASM volatile ("uqadd16 %0, %1, %2" : "=r" (result) : "r" (op1), "r" (op2) );
 967:C:\Workspaces\DAVE-4.1\Flightcontroller_PWM_CopterRocks_Working/Libraries/CMSIS/Include\cmsis_gcc.h ****   return(result);
 968:C:\Workspaces\DAVE-4.1\Flightcontroller_PWM_CopterRocks_Working/Libraries/CMSIS/Include\cmsis_gcc.h **** }
 969:C:\Workspaces\DAVE-4.1\Flightcontroller_PWM_CopterRocks_Working/Libraries/CMSIS/Include\cmsis_gcc.h **** 
 970:C:\Workspaces\DAVE-4.1\Flightcontroller_PWM_CopterRocks_Working/Libraries/CMSIS/Include\cmsis_gcc.h **** __attribute__( ( always_inline ) ) __STATIC_INLINE uint32_t __UHADD16(uint32_t op1, uint32_t op2)
 971:C:\Workspaces\DAVE-4.1\Flightcontroller_PWM_CopterRocks_Working/Libraries/CMSIS/Include\cmsis_gcc.h **** {
 972:C:\Workspaces\DAVE-4.1\Flightcontroller_PWM_CopterRocks_Working/Libraries/CMSIS/Include\cmsis_gcc.h ****   uint32_t result;
 973:C:\Workspaces\DAVE-4.1\Flightcontroller_PWM_CopterRocks_Working/Libraries/CMSIS/Include\cmsis_gcc.h **** 
 974:C:\Workspaces\DAVE-4.1\Flightcontroller_PWM_CopterRocks_Working/Libraries/CMSIS/Include\cmsis_gcc.h ****   __ASM volatile ("uhadd16 %0, %1, %2" : "=r" (result) : "r" (op1), "r" (op2) );
 975:C:\Workspaces\DAVE-4.1\Flightcontroller_PWM_CopterRocks_Working/Libraries/CMSIS/Include\cmsis_gcc.h ****   return(result);
 976:C:\Workspaces\DAVE-4.1\Flightcontroller_PWM_CopterRocks_Working/Libraries/CMSIS/Include\cmsis_gcc.h **** }
 977:C:\Workspaces\DAVE-4.1\Flightcontroller_PWM_CopterRocks_Working/Libraries/CMSIS/Include\cmsis_gcc.h **** 
 978:C:\Workspaces\DAVE-4.1\Flightcontroller_PWM_CopterRocks_Working/Libraries/CMSIS/Include\cmsis_gcc.h **** __attribute__( ( always_inline ) ) __STATIC_INLINE uint32_t __SSUB16(uint32_t op1, uint32_t op2)
 979:C:\Workspaces\DAVE-4.1\Flightcontroller_PWM_CopterRocks_Working/Libraries/CMSIS/Include\cmsis_gcc.h **** {
 980:C:\Workspaces\DAVE-4.1\Flightcontroller_PWM_CopterRocks_Working/Libraries/CMSIS/Include\cmsis_gcc.h ****   uint32_t result;
 981:C:\Workspaces\DAVE-4.1\Flightcontroller_PWM_CopterRocks_Working/Libraries/CMSIS/Include\cmsis_gcc.h **** 
 982:C:\Workspaces\DAVE-4.1\Flightcontroller_PWM_CopterRocks_Working/Libraries/CMSIS/Include\cmsis_gcc.h ****   __ASM volatile ("ssub16 %0, %1, %2" : "=r" (result) : "r" (op1), "r" (op2) );
 983:C:\Workspaces\DAVE-4.1\Flightcontroller_PWM_CopterRocks_Working/Libraries/CMSIS/Include\cmsis_gcc.h ****   return(result);
 984:C:\Workspaces\DAVE-4.1\Flightcontroller_PWM_CopterRocks_Working/Libraries/CMSIS/Include\cmsis_gcc.h **** }
 985:C:\Workspaces\DAVE-4.1\Flightcontroller_PWM_CopterRocks_Working/Libraries/CMSIS/Include\cmsis_gcc.h **** 
 986:C:\Workspaces\DAVE-4.1\Flightcontroller_PWM_CopterRocks_Working/Libraries/CMSIS/Include\cmsis_gcc.h **** __attribute__( ( always_inline ) ) __STATIC_INLINE uint32_t __QSUB16(uint32_t op1, uint32_t op2)
 987:C:\Workspaces\DAVE-4.1\Flightcontroller_PWM_CopterRocks_Working/Libraries/CMSIS/Include\cmsis_gcc.h **** {
 988:C:\Workspaces\DAVE-4.1\Flightcontroller_PWM_CopterRocks_Working/Libraries/CMSIS/Include\cmsis_gcc.h ****   uint32_t result;
 989:C:\Workspaces\DAVE-4.1\Flightcontroller_PWM_CopterRocks_Working/Libraries/CMSIS/Include\cmsis_gcc.h **** 
 990:C:\Workspaces\DAVE-4.1\Flightcontroller_PWM_CopterRocks_Working/Libraries/CMSIS/Include\cmsis_gcc.h ****   __ASM volatile ("qsub16 %0, %1, %2" : "=r" (result) : "r" (op1), "r" (op2) );
 220              	 .loc 2 990 0 discriminator 3
 221 00f4 D7F8FC30 	 ldr r3,[r7,#252]
 222 00f8 D7F8F820 	 ldr r2,[r7,#248]
 223              	
 224 00fc D3FA12F3 	 qsub16 r3,r3,r2
 225              	
 226              	 .thumb
 227 0100 C7F8F430 	 str r3,[r7,#244]
 991:C:\Workspaces\DAVE-4.1\Flightcontroller_PWM_CopterRocks_Working/Libraries/CMSIS/Include\cmsis_gcc.h ****   return(result);
 228              	 .loc 2 991 0 discriminator 3
 229 0104 D7F8F430 	 ldr r3,[r7,#244]
 230              	.LBE79:
 231              	.LBE78:
 232              	 .loc 1 141 0 discriminator 3
 233 0108 C7F80831 	 str r3,[r7,#264]
 142:../Dave/Generated/CMSIS_DSP/TransformFunctions/arm_cfft_radix2_q15.c **** 
 143:../Dave/Generated/CMSIS_DSP/TransformFunctions/arm_cfft_radix2_q15.c ****     _SIMD32_OFFSET(pSrc + (2 * i)) = __SHADD16(T, S);
 234              	 .loc 1 143 0 discriminator 3
 235 010c D7F83431 	 ldr r3,[r7,#308]
 236 0110 9B00     	 lsls r3,r3,#2
 237 0112 07F10C02 	 add r2,r7,#12
 238 0116 1268     	 ldr r2,[r2]
 239 0118 1344     	 add r3,r3,r2
 240 011a D7F81411 	 ldr r1,[r7,#276]
 241 011e D7F80C21 	 ldr r2,[r7,#268]
 242 0122 C7F8F010 	 str r1,[r7,#240]
 243 0126 C7F8EC20 	 str r2,[r7,#236]
 244              	.LBB80:
 245              	.LBB81:
 950:C:\Workspaces\DAVE-4.1\Flightcontroller_PWM_CopterRocks_Working/Libraries/CMSIS/Include\cmsis_gcc.h ****   return(result);
 246              	 .loc 2 950 0 discriminator 3
 247 012a D7F8F020 	 ldr r2,[r7,#240]
 248 012e D7F8EC10 	 ldr r1,[r7,#236]
 249              	
 250 0132 92FA21F2 	 shadd16 r2,r2,r1
 251              	
 252              	 .thumb
 253 0136 C7F8E820 	 str r2,[r7,#232]
 951:C:\Workspaces\DAVE-4.1\Flightcontroller_PWM_CopterRocks_Working/Libraries/CMSIS/Include\cmsis_gcc.h **** }
 254              	 .loc 2 951 0 discriminator 3
 255 013a D7F8E820 	 ldr r2,[r7,#232]
 256              	.LBE81:
 257              	.LBE80:
 258              	 .loc 1 143 0 discriminator 3
 259 013e 1A60     	 str r2,[r3]
 144:../Dave/Generated/CMSIS_DSP/TransformFunctions/arm_cfft_radix2_q15.c **** 
 145:../Dave/Generated/CMSIS_DSP/TransformFunctions/arm_cfft_radix2_q15.c **** #ifndef ARM_MATH_BIG_ENDIAN
 146:../Dave/Generated/CMSIS_DSP/TransformFunctions/arm_cfft_radix2_q15.c **** 
 147:../Dave/Generated/CMSIS_DSP/TransformFunctions/arm_cfft_radix2_q15.c ****     out1 = __SMUAD(coeff, R) >> 16;
 260              	 .loc 1 147 0 discriminator 3
 261 0140 D7F81C21 	 ldr r2,[r7,#284]
 262 0144 D7F80831 	 ldr r3,[r7,#264]
 263 0148 C7F8E420 	 str r2,[r7,#228]
 264 014c C7F8E030 	 str r3,[r7,#224]
 265              	.LBB82:
 266              	.LBB83:
 992:C:\Workspaces\DAVE-4.1\Flightcontroller_PWM_CopterRocks_Working/Libraries/CMSIS/Include\cmsis_gcc.h **** }
 993:C:\Workspaces\DAVE-4.1\Flightcontroller_PWM_CopterRocks_Working/Libraries/CMSIS/Include\cmsis_gcc.h **** 
 994:C:\Workspaces\DAVE-4.1\Flightcontroller_PWM_CopterRocks_Working/Libraries/CMSIS/Include\cmsis_gcc.h **** __attribute__( ( always_inline ) ) __STATIC_INLINE uint32_t __SHSUB16(uint32_t op1, uint32_t op2)
 995:C:\Workspaces\DAVE-4.1\Flightcontroller_PWM_CopterRocks_Working/Libraries/CMSIS/Include\cmsis_gcc.h **** {
 996:C:\Workspaces\DAVE-4.1\Flightcontroller_PWM_CopterRocks_Working/Libraries/CMSIS/Include\cmsis_gcc.h ****   uint32_t result;
 997:C:\Workspaces\DAVE-4.1\Flightcontroller_PWM_CopterRocks_Working/Libraries/CMSIS/Include\cmsis_gcc.h **** 
 998:C:\Workspaces\DAVE-4.1\Flightcontroller_PWM_CopterRocks_Working/Libraries/CMSIS/Include\cmsis_gcc.h ****   __ASM volatile ("shsub16 %0, %1, %2" : "=r" (result) : "r" (op1), "r" (op2) );
 999:C:\Workspaces\DAVE-4.1\Flightcontroller_PWM_CopterRocks_Working/Libraries/CMSIS/Include\cmsis_gcc.h ****   return(result);
1000:C:\Workspaces\DAVE-4.1\Flightcontroller_PWM_CopterRocks_Working/Libraries/CMSIS/Include\cmsis_gcc.h **** }
1001:C:\Workspaces\DAVE-4.1\Flightcontroller_PWM_CopterRocks_Working/Libraries/CMSIS/Include\cmsis_gcc.h **** 
1002:C:\Workspaces\DAVE-4.1\Flightcontroller_PWM_CopterRocks_Working/Libraries/CMSIS/Include\cmsis_gcc.h **** __attribute__( ( always_inline ) ) __STATIC_INLINE uint32_t __USUB16(uint32_t op1, uint32_t op2)
1003:C:\Workspaces\DAVE-4.1\Flightcontroller_PWM_CopterRocks_Working/Libraries/CMSIS/Include\cmsis_gcc.h **** {
1004:C:\Workspaces\DAVE-4.1\Flightcontroller_PWM_CopterRocks_Working/Libraries/CMSIS/Include\cmsis_gcc.h ****   uint32_t result;
1005:C:\Workspaces\DAVE-4.1\Flightcontroller_PWM_CopterRocks_Working/Libraries/CMSIS/Include\cmsis_gcc.h **** 
1006:C:\Workspaces\DAVE-4.1\Flightcontroller_PWM_CopterRocks_Working/Libraries/CMSIS/Include\cmsis_gcc.h ****   __ASM volatile ("usub16 %0, %1, %2" : "=r" (result) : "r" (op1), "r" (op2) );
1007:C:\Workspaces\DAVE-4.1\Flightcontroller_PWM_CopterRocks_Working/Libraries/CMSIS/Include\cmsis_gcc.h ****   return(result);
1008:C:\Workspaces\DAVE-4.1\Flightcontroller_PWM_CopterRocks_Working/Libraries/CMSIS/Include\cmsis_gcc.h **** }
1009:C:\Workspaces\DAVE-4.1\Flightcontroller_PWM_CopterRocks_Working/Libraries/CMSIS/Include\cmsis_gcc.h **** 
1010:C:\Workspaces\DAVE-4.1\Flightcontroller_PWM_CopterRocks_Working/Libraries/CMSIS/Include\cmsis_gcc.h **** __attribute__( ( always_inline ) ) __STATIC_INLINE uint32_t __UQSUB16(uint32_t op1, uint32_t op2)
1011:C:\Workspaces\DAVE-4.1\Flightcontroller_PWM_CopterRocks_Working/Libraries/CMSIS/Include\cmsis_gcc.h **** {
1012:C:\Workspaces\DAVE-4.1\Flightcontroller_PWM_CopterRocks_Working/Libraries/CMSIS/Include\cmsis_gcc.h ****   uint32_t result;
1013:C:\Workspaces\DAVE-4.1\Flightcontroller_PWM_CopterRocks_Working/Libraries/CMSIS/Include\cmsis_gcc.h **** 
1014:C:\Workspaces\DAVE-4.1\Flightcontroller_PWM_CopterRocks_Working/Libraries/CMSIS/Include\cmsis_gcc.h ****   __ASM volatile ("uqsub16 %0, %1, %2" : "=r" (result) : "r" (op1), "r" (op2) );
1015:C:\Workspaces\DAVE-4.1\Flightcontroller_PWM_CopterRocks_Working/Libraries/CMSIS/Include\cmsis_gcc.h ****   return(result);
1016:C:\Workspaces\DAVE-4.1\Flightcontroller_PWM_CopterRocks_Working/Libraries/CMSIS/Include\cmsis_gcc.h **** }
1017:C:\Workspaces\DAVE-4.1\Flightcontroller_PWM_CopterRocks_Working/Libraries/CMSIS/Include\cmsis_gcc.h **** 
1018:C:\Workspaces\DAVE-4.1\Flightcontroller_PWM_CopterRocks_Working/Libraries/CMSIS/Include\cmsis_gcc.h **** __attribute__( ( always_inline ) ) __STATIC_INLINE uint32_t __UHSUB16(uint32_t op1, uint32_t op2)
1019:C:\Workspaces\DAVE-4.1\Flightcontroller_PWM_CopterRocks_Working/Libraries/CMSIS/Include\cmsis_gcc.h **** {
1020:C:\Workspaces\DAVE-4.1\Flightcontroller_PWM_CopterRocks_Working/Libraries/CMSIS/Include\cmsis_gcc.h ****   uint32_t result;
1021:C:\Workspaces\DAVE-4.1\Flightcontroller_PWM_CopterRocks_Working/Libraries/CMSIS/Include\cmsis_gcc.h **** 
1022:C:\Workspaces\DAVE-4.1\Flightcontroller_PWM_CopterRocks_Working/Libraries/CMSIS/Include\cmsis_gcc.h ****   __ASM volatile ("uhsub16 %0, %1, %2" : "=r" (result) : "r" (op1), "r" (op2) );
1023:C:\Workspaces\DAVE-4.1\Flightcontroller_PWM_CopterRocks_Working/Libraries/CMSIS/Include\cmsis_gcc.h ****   return(result);
1024:C:\Workspaces\DAVE-4.1\Flightcontroller_PWM_CopterRocks_Working/Libraries/CMSIS/Include\cmsis_gcc.h **** }
1025:C:\Workspaces\DAVE-4.1\Flightcontroller_PWM_CopterRocks_Working/Libraries/CMSIS/Include\cmsis_gcc.h **** 
1026:C:\Workspaces\DAVE-4.1\Flightcontroller_PWM_CopterRocks_Working/Libraries/CMSIS/Include\cmsis_gcc.h **** __attribute__( ( always_inline ) ) __STATIC_INLINE uint32_t __SASX(uint32_t op1, uint32_t op2)
1027:C:\Workspaces\DAVE-4.1\Flightcontroller_PWM_CopterRocks_Working/Libraries/CMSIS/Include\cmsis_gcc.h **** {
1028:C:\Workspaces\DAVE-4.1\Flightcontroller_PWM_CopterRocks_Working/Libraries/CMSIS/Include\cmsis_gcc.h ****   uint32_t result;
1029:C:\Workspaces\DAVE-4.1\Flightcontroller_PWM_CopterRocks_Working/Libraries/CMSIS/Include\cmsis_gcc.h **** 
1030:C:\Workspaces\DAVE-4.1\Flightcontroller_PWM_CopterRocks_Working/Libraries/CMSIS/Include\cmsis_gcc.h ****   __ASM volatile ("sasx %0, %1, %2" : "=r" (result) : "r" (op1), "r" (op2) );
1031:C:\Workspaces\DAVE-4.1\Flightcontroller_PWM_CopterRocks_Working/Libraries/CMSIS/Include\cmsis_gcc.h ****   return(result);
1032:C:\Workspaces\DAVE-4.1\Flightcontroller_PWM_CopterRocks_Working/Libraries/CMSIS/Include\cmsis_gcc.h **** }
1033:C:\Workspaces\DAVE-4.1\Flightcontroller_PWM_CopterRocks_Working/Libraries/CMSIS/Include\cmsis_gcc.h **** 
1034:C:\Workspaces\DAVE-4.1\Flightcontroller_PWM_CopterRocks_Working/Libraries/CMSIS/Include\cmsis_gcc.h **** __attribute__( ( always_inline ) ) __STATIC_INLINE uint32_t __QASX(uint32_t op1, uint32_t op2)
1035:C:\Workspaces\DAVE-4.1\Flightcontroller_PWM_CopterRocks_Working/Libraries/CMSIS/Include\cmsis_gcc.h **** {
1036:C:\Workspaces\DAVE-4.1\Flightcontroller_PWM_CopterRocks_Working/Libraries/CMSIS/Include\cmsis_gcc.h ****   uint32_t result;
1037:C:\Workspaces\DAVE-4.1\Flightcontroller_PWM_CopterRocks_Working/Libraries/CMSIS/Include\cmsis_gcc.h **** 
1038:C:\Workspaces\DAVE-4.1\Flightcontroller_PWM_CopterRocks_Working/Libraries/CMSIS/Include\cmsis_gcc.h ****   __ASM volatile ("qasx %0, %1, %2" : "=r" (result) : "r" (op1), "r" (op2) );
1039:C:\Workspaces\DAVE-4.1\Flightcontroller_PWM_CopterRocks_Working/Libraries/CMSIS/Include\cmsis_gcc.h ****   return(result);
1040:C:\Workspaces\DAVE-4.1\Flightcontroller_PWM_CopterRocks_Working/Libraries/CMSIS/Include\cmsis_gcc.h **** }
1041:C:\Workspaces\DAVE-4.1\Flightcontroller_PWM_CopterRocks_Working/Libraries/CMSIS/Include\cmsis_gcc.h **** 
1042:C:\Workspaces\DAVE-4.1\Flightcontroller_PWM_CopterRocks_Working/Libraries/CMSIS/Include\cmsis_gcc.h **** __attribute__( ( always_inline ) ) __STATIC_INLINE uint32_t __SHASX(uint32_t op1, uint32_t op2)
1043:C:\Workspaces\DAVE-4.1\Flightcontroller_PWM_CopterRocks_Working/Libraries/CMSIS/Include\cmsis_gcc.h **** {
1044:C:\Workspaces\DAVE-4.1\Flightcontroller_PWM_CopterRocks_Working/Libraries/CMSIS/Include\cmsis_gcc.h ****   uint32_t result;
1045:C:\Workspaces\DAVE-4.1\Flightcontroller_PWM_CopterRocks_Working/Libraries/CMSIS/Include\cmsis_gcc.h **** 
1046:C:\Workspaces\DAVE-4.1\Flightcontroller_PWM_CopterRocks_Working/Libraries/CMSIS/Include\cmsis_gcc.h ****   __ASM volatile ("shasx %0, %1, %2" : "=r" (result) : "r" (op1), "r" (op2) );
1047:C:\Workspaces\DAVE-4.1\Flightcontroller_PWM_CopterRocks_Working/Libraries/CMSIS/Include\cmsis_gcc.h ****   return(result);
1048:C:\Workspaces\DAVE-4.1\Flightcontroller_PWM_CopterRocks_Working/Libraries/CMSIS/Include\cmsis_gcc.h **** }
1049:C:\Workspaces\DAVE-4.1\Flightcontroller_PWM_CopterRocks_Working/Libraries/CMSIS/Include\cmsis_gcc.h **** 
1050:C:\Workspaces\DAVE-4.1\Flightcontroller_PWM_CopterRocks_Working/Libraries/CMSIS/Include\cmsis_gcc.h **** __attribute__( ( always_inline ) ) __STATIC_INLINE uint32_t __UASX(uint32_t op1, uint32_t op2)
1051:C:\Workspaces\DAVE-4.1\Flightcontroller_PWM_CopterRocks_Working/Libraries/CMSIS/Include\cmsis_gcc.h **** {
1052:C:\Workspaces\DAVE-4.1\Flightcontroller_PWM_CopterRocks_Working/Libraries/CMSIS/Include\cmsis_gcc.h ****   uint32_t result;
1053:C:\Workspaces\DAVE-4.1\Flightcontroller_PWM_CopterRocks_Working/Libraries/CMSIS/Include\cmsis_gcc.h **** 
1054:C:\Workspaces\DAVE-4.1\Flightcontroller_PWM_CopterRocks_Working/Libraries/CMSIS/Include\cmsis_gcc.h ****   __ASM volatile ("uasx %0, %1, %2" : "=r" (result) : "r" (op1), "r" (op2) );
1055:C:\Workspaces\DAVE-4.1\Flightcontroller_PWM_CopterRocks_Working/Libraries/CMSIS/Include\cmsis_gcc.h ****   return(result);
1056:C:\Workspaces\DAVE-4.1\Flightcontroller_PWM_CopterRocks_Working/Libraries/CMSIS/Include\cmsis_gcc.h **** }
1057:C:\Workspaces\DAVE-4.1\Flightcontroller_PWM_CopterRocks_Working/Libraries/CMSIS/Include\cmsis_gcc.h **** 
1058:C:\Workspaces\DAVE-4.1\Flightcontroller_PWM_CopterRocks_Working/Libraries/CMSIS/Include\cmsis_gcc.h **** __attribute__( ( always_inline ) ) __STATIC_INLINE uint32_t __UQASX(uint32_t op1, uint32_t op2)
1059:C:\Workspaces\DAVE-4.1\Flightcontroller_PWM_CopterRocks_Working/Libraries/CMSIS/Include\cmsis_gcc.h **** {
1060:C:\Workspaces\DAVE-4.1\Flightcontroller_PWM_CopterRocks_Working/Libraries/CMSIS/Include\cmsis_gcc.h ****   uint32_t result;
1061:C:\Workspaces\DAVE-4.1\Flightcontroller_PWM_CopterRocks_Working/Libraries/CMSIS/Include\cmsis_gcc.h **** 
1062:C:\Workspaces\DAVE-4.1\Flightcontroller_PWM_CopterRocks_Working/Libraries/CMSIS/Include\cmsis_gcc.h ****   __ASM volatile ("uqasx %0, %1, %2" : "=r" (result) : "r" (op1), "r" (op2) );
1063:C:\Workspaces\DAVE-4.1\Flightcontroller_PWM_CopterRocks_Working/Libraries/CMSIS/Include\cmsis_gcc.h ****   return(result);
1064:C:\Workspaces\DAVE-4.1\Flightcontroller_PWM_CopterRocks_Working/Libraries/CMSIS/Include\cmsis_gcc.h **** }
1065:C:\Workspaces\DAVE-4.1\Flightcontroller_PWM_CopterRocks_Working/Libraries/CMSIS/Include\cmsis_gcc.h **** 
1066:C:\Workspaces\DAVE-4.1\Flightcontroller_PWM_CopterRocks_Working/Libraries/CMSIS/Include\cmsis_gcc.h **** __attribute__( ( always_inline ) ) __STATIC_INLINE uint32_t __UHASX(uint32_t op1, uint32_t op2)
1067:C:\Workspaces\DAVE-4.1\Flightcontroller_PWM_CopterRocks_Working/Libraries/CMSIS/Include\cmsis_gcc.h **** {
1068:C:\Workspaces\DAVE-4.1\Flightcontroller_PWM_CopterRocks_Working/Libraries/CMSIS/Include\cmsis_gcc.h ****   uint32_t result;
1069:C:\Workspaces\DAVE-4.1\Flightcontroller_PWM_CopterRocks_Working/Libraries/CMSIS/Include\cmsis_gcc.h **** 
1070:C:\Workspaces\DAVE-4.1\Flightcontroller_PWM_CopterRocks_Working/Libraries/CMSIS/Include\cmsis_gcc.h ****   __ASM volatile ("uhasx %0, %1, %2" : "=r" (result) : "r" (op1), "r" (op2) );
1071:C:\Workspaces\DAVE-4.1\Flightcontroller_PWM_CopterRocks_Working/Libraries/CMSIS/Include\cmsis_gcc.h ****   return(result);
1072:C:\Workspaces\DAVE-4.1\Flightcontroller_PWM_CopterRocks_Working/Libraries/CMSIS/Include\cmsis_gcc.h **** }
1073:C:\Workspaces\DAVE-4.1\Flightcontroller_PWM_CopterRocks_Working/Libraries/CMSIS/Include\cmsis_gcc.h **** 
1074:C:\Workspaces\DAVE-4.1\Flightcontroller_PWM_CopterRocks_Working/Libraries/CMSIS/Include\cmsis_gcc.h **** __attribute__( ( always_inline ) ) __STATIC_INLINE uint32_t __SSAX(uint32_t op1, uint32_t op2)
1075:C:\Workspaces\DAVE-4.1\Flightcontroller_PWM_CopterRocks_Working/Libraries/CMSIS/Include\cmsis_gcc.h **** {
1076:C:\Workspaces\DAVE-4.1\Flightcontroller_PWM_CopterRocks_Working/Libraries/CMSIS/Include\cmsis_gcc.h ****   uint32_t result;
1077:C:\Workspaces\DAVE-4.1\Flightcontroller_PWM_CopterRocks_Working/Libraries/CMSIS/Include\cmsis_gcc.h **** 
1078:C:\Workspaces\DAVE-4.1\Flightcontroller_PWM_CopterRocks_Working/Libraries/CMSIS/Include\cmsis_gcc.h ****   __ASM volatile ("ssax %0, %1, %2" : "=r" (result) : "r" (op1), "r" (op2) );
1079:C:\Workspaces\DAVE-4.1\Flightcontroller_PWM_CopterRocks_Working/Libraries/CMSIS/Include\cmsis_gcc.h ****   return(result);
1080:C:\Workspaces\DAVE-4.1\Flightcontroller_PWM_CopterRocks_Working/Libraries/CMSIS/Include\cmsis_gcc.h **** }
1081:C:\Workspaces\DAVE-4.1\Flightcontroller_PWM_CopterRocks_Working/Libraries/CMSIS/Include\cmsis_gcc.h **** 
1082:C:\Workspaces\DAVE-4.1\Flightcontroller_PWM_CopterRocks_Working/Libraries/CMSIS/Include\cmsis_gcc.h **** __attribute__( ( always_inline ) ) __STATIC_INLINE uint32_t __QSAX(uint32_t op1, uint32_t op2)
1083:C:\Workspaces\DAVE-4.1\Flightcontroller_PWM_CopterRocks_Working/Libraries/CMSIS/Include\cmsis_gcc.h **** {
1084:C:\Workspaces\DAVE-4.1\Flightcontroller_PWM_CopterRocks_Working/Libraries/CMSIS/Include\cmsis_gcc.h ****   uint32_t result;
1085:C:\Workspaces\DAVE-4.1\Flightcontroller_PWM_CopterRocks_Working/Libraries/CMSIS/Include\cmsis_gcc.h **** 
1086:C:\Workspaces\DAVE-4.1\Flightcontroller_PWM_CopterRocks_Working/Libraries/CMSIS/Include\cmsis_gcc.h ****   __ASM volatile ("qsax %0, %1, %2" : "=r" (result) : "r" (op1), "r" (op2) );
1087:C:\Workspaces\DAVE-4.1\Flightcontroller_PWM_CopterRocks_Working/Libraries/CMSIS/Include\cmsis_gcc.h ****   return(result);
1088:C:\Workspaces\DAVE-4.1\Flightcontroller_PWM_CopterRocks_Working/Libraries/CMSIS/Include\cmsis_gcc.h **** }
1089:C:\Workspaces\DAVE-4.1\Flightcontroller_PWM_CopterRocks_Working/Libraries/CMSIS/Include\cmsis_gcc.h **** 
1090:C:\Workspaces\DAVE-4.1\Flightcontroller_PWM_CopterRocks_Working/Libraries/CMSIS/Include\cmsis_gcc.h **** __attribute__( ( always_inline ) ) __STATIC_INLINE uint32_t __SHSAX(uint32_t op1, uint32_t op2)
1091:C:\Workspaces\DAVE-4.1\Flightcontroller_PWM_CopterRocks_Working/Libraries/CMSIS/Include\cmsis_gcc.h **** {
1092:C:\Workspaces\DAVE-4.1\Flightcontroller_PWM_CopterRocks_Working/Libraries/CMSIS/Include\cmsis_gcc.h ****   uint32_t result;
1093:C:\Workspaces\DAVE-4.1\Flightcontroller_PWM_CopterRocks_Working/Libraries/CMSIS/Include\cmsis_gcc.h **** 
1094:C:\Workspaces\DAVE-4.1\Flightcontroller_PWM_CopterRocks_Working/Libraries/CMSIS/Include\cmsis_gcc.h ****   __ASM volatile ("shsax %0, %1, %2" : "=r" (result) : "r" (op1), "r" (op2) );
1095:C:\Workspaces\DAVE-4.1\Flightcontroller_PWM_CopterRocks_Working/Libraries/CMSIS/Include\cmsis_gcc.h ****   return(result);
1096:C:\Workspaces\DAVE-4.1\Flightcontroller_PWM_CopterRocks_Working/Libraries/CMSIS/Include\cmsis_gcc.h **** }
1097:C:\Workspaces\DAVE-4.1\Flightcontroller_PWM_CopterRocks_Working/Libraries/CMSIS/Include\cmsis_gcc.h **** 
1098:C:\Workspaces\DAVE-4.1\Flightcontroller_PWM_CopterRocks_Working/Libraries/CMSIS/Include\cmsis_gcc.h **** __attribute__( ( always_inline ) ) __STATIC_INLINE uint32_t __USAX(uint32_t op1, uint32_t op2)
1099:C:\Workspaces\DAVE-4.1\Flightcontroller_PWM_CopterRocks_Working/Libraries/CMSIS/Include\cmsis_gcc.h **** {
1100:C:\Workspaces\DAVE-4.1\Flightcontroller_PWM_CopterRocks_Working/Libraries/CMSIS/Include\cmsis_gcc.h ****   uint32_t result;
1101:C:\Workspaces\DAVE-4.1\Flightcontroller_PWM_CopterRocks_Working/Libraries/CMSIS/Include\cmsis_gcc.h **** 
1102:C:\Workspaces\DAVE-4.1\Flightcontroller_PWM_CopterRocks_Working/Libraries/CMSIS/Include\cmsis_gcc.h ****   __ASM volatile ("usax %0, %1, %2" : "=r" (result) : "r" (op1), "r" (op2) );
1103:C:\Workspaces\DAVE-4.1\Flightcontroller_PWM_CopterRocks_Working/Libraries/CMSIS/Include\cmsis_gcc.h ****   return(result);
1104:C:\Workspaces\DAVE-4.1\Flightcontroller_PWM_CopterRocks_Working/Libraries/CMSIS/Include\cmsis_gcc.h **** }
1105:C:\Workspaces\DAVE-4.1\Flightcontroller_PWM_CopterRocks_Working/Libraries/CMSIS/Include\cmsis_gcc.h **** 
1106:C:\Workspaces\DAVE-4.1\Flightcontroller_PWM_CopterRocks_Working/Libraries/CMSIS/Include\cmsis_gcc.h **** __attribute__( ( always_inline ) ) __STATIC_INLINE uint32_t __UQSAX(uint32_t op1, uint32_t op2)
1107:C:\Workspaces\DAVE-4.1\Flightcontroller_PWM_CopterRocks_Working/Libraries/CMSIS/Include\cmsis_gcc.h **** {
1108:C:\Workspaces\DAVE-4.1\Flightcontroller_PWM_CopterRocks_Working/Libraries/CMSIS/Include\cmsis_gcc.h ****   uint32_t result;
1109:C:\Workspaces\DAVE-4.1\Flightcontroller_PWM_CopterRocks_Working/Libraries/CMSIS/Include\cmsis_gcc.h **** 
1110:C:\Workspaces\DAVE-4.1\Flightcontroller_PWM_CopterRocks_Working/Libraries/CMSIS/Include\cmsis_gcc.h ****   __ASM volatile ("uqsax %0, %1, %2" : "=r" (result) : "r" (op1), "r" (op2) );
1111:C:\Workspaces\DAVE-4.1\Flightcontroller_PWM_CopterRocks_Working/Libraries/CMSIS/Include\cmsis_gcc.h ****   return(result);
1112:C:\Workspaces\DAVE-4.1\Flightcontroller_PWM_CopterRocks_Working/Libraries/CMSIS/Include\cmsis_gcc.h **** }
1113:C:\Workspaces\DAVE-4.1\Flightcontroller_PWM_CopterRocks_Working/Libraries/CMSIS/Include\cmsis_gcc.h **** 
1114:C:\Workspaces\DAVE-4.1\Flightcontroller_PWM_CopterRocks_Working/Libraries/CMSIS/Include\cmsis_gcc.h **** __attribute__( ( always_inline ) ) __STATIC_INLINE uint32_t __UHSAX(uint32_t op1, uint32_t op2)
1115:C:\Workspaces\DAVE-4.1\Flightcontroller_PWM_CopterRocks_Working/Libraries/CMSIS/Include\cmsis_gcc.h **** {
1116:C:\Workspaces\DAVE-4.1\Flightcontroller_PWM_CopterRocks_Working/Libraries/CMSIS/Include\cmsis_gcc.h ****   uint32_t result;
1117:C:\Workspaces\DAVE-4.1\Flightcontroller_PWM_CopterRocks_Working/Libraries/CMSIS/Include\cmsis_gcc.h **** 
1118:C:\Workspaces\DAVE-4.1\Flightcontroller_PWM_CopterRocks_Working/Libraries/CMSIS/Include\cmsis_gcc.h ****   __ASM volatile ("uhsax %0, %1, %2" : "=r" (result) : "r" (op1), "r" (op2) );
1119:C:\Workspaces\DAVE-4.1\Flightcontroller_PWM_CopterRocks_Working/Libraries/CMSIS/Include\cmsis_gcc.h ****   return(result);
1120:C:\Workspaces\DAVE-4.1\Flightcontroller_PWM_CopterRocks_Working/Libraries/CMSIS/Include\cmsis_gcc.h **** }
1121:C:\Workspaces\DAVE-4.1\Flightcontroller_PWM_CopterRocks_Working/Libraries/CMSIS/Include\cmsis_gcc.h **** 
1122:C:\Workspaces\DAVE-4.1\Flightcontroller_PWM_CopterRocks_Working/Libraries/CMSIS/Include\cmsis_gcc.h **** __attribute__( ( always_inline ) ) __STATIC_INLINE uint32_t __USAD8(uint32_t op1, uint32_t op2)
1123:C:\Workspaces\DAVE-4.1\Flightcontroller_PWM_CopterRocks_Working/Libraries/CMSIS/Include\cmsis_gcc.h **** {
1124:C:\Workspaces\DAVE-4.1\Flightcontroller_PWM_CopterRocks_Working/Libraries/CMSIS/Include\cmsis_gcc.h ****   uint32_t result;
1125:C:\Workspaces\DAVE-4.1\Flightcontroller_PWM_CopterRocks_Working/Libraries/CMSIS/Include\cmsis_gcc.h **** 
1126:C:\Workspaces\DAVE-4.1\Flightcontroller_PWM_CopterRocks_Working/Libraries/CMSIS/Include\cmsis_gcc.h ****   __ASM volatile ("usad8 %0, %1, %2" : "=r" (result) : "r" (op1), "r" (op2) );
1127:C:\Workspaces\DAVE-4.1\Flightcontroller_PWM_CopterRocks_Working/Libraries/CMSIS/Include\cmsis_gcc.h ****   return(result);
1128:C:\Workspaces\DAVE-4.1\Flightcontroller_PWM_CopterRocks_Working/Libraries/CMSIS/Include\cmsis_gcc.h **** }
1129:C:\Workspaces\DAVE-4.1\Flightcontroller_PWM_CopterRocks_Working/Libraries/CMSIS/Include\cmsis_gcc.h **** 
1130:C:\Workspaces\DAVE-4.1\Flightcontroller_PWM_CopterRocks_Working/Libraries/CMSIS/Include\cmsis_gcc.h **** __attribute__( ( always_inline ) ) __STATIC_INLINE uint32_t __USADA8(uint32_t op1, uint32_t op2, ui
1131:C:\Workspaces\DAVE-4.1\Flightcontroller_PWM_CopterRocks_Working/Libraries/CMSIS/Include\cmsis_gcc.h **** {
1132:C:\Workspaces\DAVE-4.1\Flightcontroller_PWM_CopterRocks_Working/Libraries/CMSIS/Include\cmsis_gcc.h ****   uint32_t result;
1133:C:\Workspaces\DAVE-4.1\Flightcontroller_PWM_CopterRocks_Working/Libraries/CMSIS/Include\cmsis_gcc.h **** 
1134:C:\Workspaces\DAVE-4.1\Flightcontroller_PWM_CopterRocks_Working/Libraries/CMSIS/Include\cmsis_gcc.h ****   __ASM volatile ("usada8 %0, %1, %2, %3" : "=r" (result) : "r" (op1), "r" (op2), "r" (op3) );
1135:C:\Workspaces\DAVE-4.1\Flightcontroller_PWM_CopterRocks_Working/Libraries/CMSIS/Include\cmsis_gcc.h ****   return(result);
1136:C:\Workspaces\DAVE-4.1\Flightcontroller_PWM_CopterRocks_Working/Libraries/CMSIS/Include\cmsis_gcc.h **** }
1137:C:\Workspaces\DAVE-4.1\Flightcontroller_PWM_CopterRocks_Working/Libraries/CMSIS/Include\cmsis_gcc.h **** 
1138:C:\Workspaces\DAVE-4.1\Flightcontroller_PWM_CopterRocks_Working/Libraries/CMSIS/Include\cmsis_gcc.h **** #define __SSAT16(ARG1,ARG2) \
1139:C:\Workspaces\DAVE-4.1\Flightcontroller_PWM_CopterRocks_Working/Libraries/CMSIS/Include\cmsis_gcc.h **** ({                          \
1140:C:\Workspaces\DAVE-4.1\Flightcontroller_PWM_CopterRocks_Working/Libraries/CMSIS/Include\cmsis_gcc.h ****   int32_t __RES, __ARG1 = (ARG1); \
1141:C:\Workspaces\DAVE-4.1\Flightcontroller_PWM_CopterRocks_Working/Libraries/CMSIS/Include\cmsis_gcc.h ****   __ASM ("ssat16 %0, %1, %2" : "=r" (__RES) :  "I" (ARG2), "r" (__ARG1) ); \
1142:C:\Workspaces\DAVE-4.1\Flightcontroller_PWM_CopterRocks_Working/Libraries/CMSIS/Include\cmsis_gcc.h ****   __RES; \
1143:C:\Workspaces\DAVE-4.1\Flightcontroller_PWM_CopterRocks_Working/Libraries/CMSIS/Include\cmsis_gcc.h ****  })
1144:C:\Workspaces\DAVE-4.1\Flightcontroller_PWM_CopterRocks_Working/Libraries/CMSIS/Include\cmsis_gcc.h **** 
1145:C:\Workspaces\DAVE-4.1\Flightcontroller_PWM_CopterRocks_Working/Libraries/CMSIS/Include\cmsis_gcc.h **** #define __USAT16(ARG1,ARG2) \
1146:C:\Workspaces\DAVE-4.1\Flightcontroller_PWM_CopterRocks_Working/Libraries/CMSIS/Include\cmsis_gcc.h **** ({                          \
1147:C:\Workspaces\DAVE-4.1\Flightcontroller_PWM_CopterRocks_Working/Libraries/CMSIS/Include\cmsis_gcc.h ****   uint32_t __RES, __ARG1 = (ARG1); \
1148:C:\Workspaces\DAVE-4.1\Flightcontroller_PWM_CopterRocks_Working/Libraries/CMSIS/Include\cmsis_gcc.h ****   __ASM ("usat16 %0, %1, %2" : "=r" (__RES) :  "I" (ARG2), "r" (__ARG1) ); \
1149:C:\Workspaces\DAVE-4.1\Flightcontroller_PWM_CopterRocks_Working/Libraries/CMSIS/Include\cmsis_gcc.h ****   __RES; \
1150:C:\Workspaces\DAVE-4.1\Flightcontroller_PWM_CopterRocks_Working/Libraries/CMSIS/Include\cmsis_gcc.h ****  })
1151:C:\Workspaces\DAVE-4.1\Flightcontroller_PWM_CopterRocks_Working/Libraries/CMSIS/Include\cmsis_gcc.h **** 
1152:C:\Workspaces\DAVE-4.1\Flightcontroller_PWM_CopterRocks_Working/Libraries/CMSIS/Include\cmsis_gcc.h **** __attribute__( ( always_inline ) ) __STATIC_INLINE uint32_t __UXTB16(uint32_t op1)
1153:C:\Workspaces\DAVE-4.1\Flightcontroller_PWM_CopterRocks_Working/Libraries/CMSIS/Include\cmsis_gcc.h **** {
1154:C:\Workspaces\DAVE-4.1\Flightcontroller_PWM_CopterRocks_Working/Libraries/CMSIS/Include\cmsis_gcc.h ****   uint32_t result;
1155:C:\Workspaces\DAVE-4.1\Flightcontroller_PWM_CopterRocks_Working/Libraries/CMSIS/Include\cmsis_gcc.h **** 
1156:C:\Workspaces\DAVE-4.1\Flightcontroller_PWM_CopterRocks_Working/Libraries/CMSIS/Include\cmsis_gcc.h ****   __ASM volatile ("uxtb16 %0, %1" : "=r" (result) : "r" (op1));
1157:C:\Workspaces\DAVE-4.1\Flightcontroller_PWM_CopterRocks_Working/Libraries/CMSIS/Include\cmsis_gcc.h ****   return(result);
1158:C:\Workspaces\DAVE-4.1\Flightcontroller_PWM_CopterRocks_Working/Libraries/CMSIS/Include\cmsis_gcc.h **** }
1159:C:\Workspaces\DAVE-4.1\Flightcontroller_PWM_CopterRocks_Working/Libraries/CMSIS/Include\cmsis_gcc.h **** 
1160:C:\Workspaces\DAVE-4.1\Flightcontroller_PWM_CopterRocks_Working/Libraries/CMSIS/Include\cmsis_gcc.h **** __attribute__( ( always_inline ) ) __STATIC_INLINE uint32_t __UXTAB16(uint32_t op1, uint32_t op2)
1161:C:\Workspaces\DAVE-4.1\Flightcontroller_PWM_CopterRocks_Working/Libraries/CMSIS/Include\cmsis_gcc.h **** {
1162:C:\Workspaces\DAVE-4.1\Flightcontroller_PWM_CopterRocks_Working/Libraries/CMSIS/Include\cmsis_gcc.h ****   uint32_t result;
1163:C:\Workspaces\DAVE-4.1\Flightcontroller_PWM_CopterRocks_Working/Libraries/CMSIS/Include\cmsis_gcc.h **** 
1164:C:\Workspaces\DAVE-4.1\Flightcontroller_PWM_CopterRocks_Working/Libraries/CMSIS/Include\cmsis_gcc.h ****   __ASM volatile ("uxtab16 %0, %1, %2" : "=r" (result) : "r" (op1), "r" (op2) );
1165:C:\Workspaces\DAVE-4.1\Flightcontroller_PWM_CopterRocks_Working/Libraries/CMSIS/Include\cmsis_gcc.h ****   return(result);
1166:C:\Workspaces\DAVE-4.1\Flightcontroller_PWM_CopterRocks_Working/Libraries/CMSIS/Include\cmsis_gcc.h **** }
1167:C:\Workspaces\DAVE-4.1\Flightcontroller_PWM_CopterRocks_Working/Libraries/CMSIS/Include\cmsis_gcc.h **** 
1168:C:\Workspaces\DAVE-4.1\Flightcontroller_PWM_CopterRocks_Working/Libraries/CMSIS/Include\cmsis_gcc.h **** __attribute__( ( always_inline ) ) __STATIC_INLINE uint32_t __SXTB16(uint32_t op1)
1169:C:\Workspaces\DAVE-4.1\Flightcontroller_PWM_CopterRocks_Working/Libraries/CMSIS/Include\cmsis_gcc.h **** {
1170:C:\Workspaces\DAVE-4.1\Flightcontroller_PWM_CopterRocks_Working/Libraries/CMSIS/Include\cmsis_gcc.h ****   uint32_t result;
1171:C:\Workspaces\DAVE-4.1\Flightcontroller_PWM_CopterRocks_Working/Libraries/CMSIS/Include\cmsis_gcc.h **** 
1172:C:\Workspaces\DAVE-4.1\Flightcontroller_PWM_CopterRocks_Working/Libraries/CMSIS/Include\cmsis_gcc.h ****   __ASM volatile ("sxtb16 %0, %1" : "=r" (result) : "r" (op1));
1173:C:\Workspaces\DAVE-4.1\Flightcontroller_PWM_CopterRocks_Working/Libraries/CMSIS/Include\cmsis_gcc.h ****   return(result);
1174:C:\Workspaces\DAVE-4.1\Flightcontroller_PWM_CopterRocks_Working/Libraries/CMSIS/Include\cmsis_gcc.h **** }
1175:C:\Workspaces\DAVE-4.1\Flightcontroller_PWM_CopterRocks_Working/Libraries/CMSIS/Include\cmsis_gcc.h **** 
1176:C:\Workspaces\DAVE-4.1\Flightcontroller_PWM_CopterRocks_Working/Libraries/CMSIS/Include\cmsis_gcc.h **** __attribute__( ( always_inline ) ) __STATIC_INLINE uint32_t __SXTAB16(uint32_t op1, uint32_t op2)
1177:C:\Workspaces\DAVE-4.1\Flightcontroller_PWM_CopterRocks_Working/Libraries/CMSIS/Include\cmsis_gcc.h **** {
1178:C:\Workspaces\DAVE-4.1\Flightcontroller_PWM_CopterRocks_Working/Libraries/CMSIS/Include\cmsis_gcc.h ****   uint32_t result;
1179:C:\Workspaces\DAVE-4.1\Flightcontroller_PWM_CopterRocks_Working/Libraries/CMSIS/Include\cmsis_gcc.h **** 
1180:C:\Workspaces\DAVE-4.1\Flightcontroller_PWM_CopterRocks_Working/Libraries/CMSIS/Include\cmsis_gcc.h ****   __ASM volatile ("sxtab16 %0, %1, %2" : "=r" (result) : "r" (op1), "r" (op2) );
1181:C:\Workspaces\DAVE-4.1\Flightcontroller_PWM_CopterRocks_Working/Libraries/CMSIS/Include\cmsis_gcc.h ****   return(result);
1182:C:\Workspaces\DAVE-4.1\Flightcontroller_PWM_CopterRocks_Working/Libraries/CMSIS/Include\cmsis_gcc.h **** }
1183:C:\Workspaces\DAVE-4.1\Flightcontroller_PWM_CopterRocks_Working/Libraries/CMSIS/Include\cmsis_gcc.h **** 
1184:C:\Workspaces\DAVE-4.1\Flightcontroller_PWM_CopterRocks_Working/Libraries/CMSIS/Include\cmsis_gcc.h **** __attribute__( ( always_inline ) ) __STATIC_INLINE uint32_t __SMUAD  (uint32_t op1, uint32_t op2)
1185:C:\Workspaces\DAVE-4.1\Flightcontroller_PWM_CopterRocks_Working/Libraries/CMSIS/Include\cmsis_gcc.h **** {
1186:C:\Workspaces\DAVE-4.1\Flightcontroller_PWM_CopterRocks_Working/Libraries/CMSIS/Include\cmsis_gcc.h ****   uint32_t result;
1187:C:\Workspaces\DAVE-4.1\Flightcontroller_PWM_CopterRocks_Working/Libraries/CMSIS/Include\cmsis_gcc.h **** 
1188:C:\Workspaces\DAVE-4.1\Flightcontroller_PWM_CopterRocks_Working/Libraries/CMSIS/Include\cmsis_gcc.h ****   __ASM volatile ("smuad %0, %1, %2" : "=r" (result) : "r" (op1), "r" (op2) );
 267              	 .loc 2 1188 0 discriminator 3
 268 0150 D7F8E430 	 ldr r3,[r7,#228]
 269 0154 D7F8E020 	 ldr r2,[r7,#224]
 270              	
 271 0158 23FB02F3 	 smuad r3,r3,r2
 272              	
 273              	 .thumb
 274 015c C7F8DC30 	 str r3,[r7,#220]
1189:C:\Workspaces\DAVE-4.1\Flightcontroller_PWM_CopterRocks_Working/Libraries/CMSIS/Include\cmsis_gcc.h ****   return(result);
 275              	 .loc 2 1189 0 discriminator 3
 276 0160 D7F8DC30 	 ldr r3,[r7,#220]
 277              	.LBE83:
 278              	.LBE82:
 279              	 .loc 1 147 0 discriminator 3
 280 0164 1B0C     	 lsrs r3,r3,#16
 281 0166 C7F80431 	 str r3,[r7,#260]
 148:../Dave/Generated/CMSIS_DSP/TransformFunctions/arm_cfft_radix2_q15.c ****     out2 = __SMUSDX(coeff, R);
 282              	 .loc 1 148 0 discriminator 3
 283 016a D7F81C21 	 ldr r2,[r7,#284]
 284 016e D7F80831 	 ldr r3,[r7,#264]
 285 0172 C7F8D820 	 str r2,[r7,#216]
 286 0176 C7F8D430 	 str r3,[r7,#212]
 287              	.LBB84:
 288              	.LBB85:
1190:C:\Workspaces\DAVE-4.1\Flightcontroller_PWM_CopterRocks_Working/Libraries/CMSIS/Include\cmsis_gcc.h **** }
1191:C:\Workspaces\DAVE-4.1\Flightcontroller_PWM_CopterRocks_Working/Libraries/CMSIS/Include\cmsis_gcc.h **** 
1192:C:\Workspaces\DAVE-4.1\Flightcontroller_PWM_CopterRocks_Working/Libraries/CMSIS/Include\cmsis_gcc.h **** __attribute__( ( always_inline ) ) __STATIC_INLINE uint32_t __SMUADX (uint32_t op1, uint32_t op2)
1193:C:\Workspaces\DAVE-4.1\Flightcontroller_PWM_CopterRocks_Working/Libraries/CMSIS/Include\cmsis_gcc.h **** {
1194:C:\Workspaces\DAVE-4.1\Flightcontroller_PWM_CopterRocks_Working/Libraries/CMSIS/Include\cmsis_gcc.h ****   uint32_t result;
1195:C:\Workspaces\DAVE-4.1\Flightcontroller_PWM_CopterRocks_Working/Libraries/CMSIS/Include\cmsis_gcc.h **** 
1196:C:\Workspaces\DAVE-4.1\Flightcontroller_PWM_CopterRocks_Working/Libraries/CMSIS/Include\cmsis_gcc.h ****   __ASM volatile ("smuadx %0, %1, %2" : "=r" (result) : "r" (op1), "r" (op2) );
1197:C:\Workspaces\DAVE-4.1\Flightcontroller_PWM_CopterRocks_Working/Libraries/CMSIS/Include\cmsis_gcc.h ****   return(result);
1198:C:\Workspaces\DAVE-4.1\Flightcontroller_PWM_CopterRocks_Working/Libraries/CMSIS/Include\cmsis_gcc.h **** }
1199:C:\Workspaces\DAVE-4.1\Flightcontroller_PWM_CopterRocks_Working/Libraries/CMSIS/Include\cmsis_gcc.h **** 
1200:C:\Workspaces\DAVE-4.1\Flightcontroller_PWM_CopterRocks_Working/Libraries/CMSIS/Include\cmsis_gcc.h **** __attribute__( ( always_inline ) ) __STATIC_INLINE uint32_t __SMLAD (uint32_t op1, uint32_t op2, ui
1201:C:\Workspaces\DAVE-4.1\Flightcontroller_PWM_CopterRocks_Working/Libraries/CMSIS/Include\cmsis_gcc.h **** {
1202:C:\Workspaces\DAVE-4.1\Flightcontroller_PWM_CopterRocks_Working/Libraries/CMSIS/Include\cmsis_gcc.h ****   uint32_t result;
1203:C:\Workspaces\DAVE-4.1\Flightcontroller_PWM_CopterRocks_Working/Libraries/CMSIS/Include\cmsis_gcc.h **** 
1204:C:\Workspaces\DAVE-4.1\Flightcontroller_PWM_CopterRocks_Working/Libraries/CMSIS/Include\cmsis_gcc.h ****   __ASM volatile ("smlad %0, %1, %2, %3" : "=r" (result) : "r" (op1), "r" (op2), "r" (op3) );
1205:C:\Workspaces\DAVE-4.1\Flightcontroller_PWM_CopterRocks_Working/Libraries/CMSIS/Include\cmsis_gcc.h ****   return(result);
1206:C:\Workspaces\DAVE-4.1\Flightcontroller_PWM_CopterRocks_Working/Libraries/CMSIS/Include\cmsis_gcc.h **** }
1207:C:\Workspaces\DAVE-4.1\Flightcontroller_PWM_CopterRocks_Working/Libraries/CMSIS/Include\cmsis_gcc.h **** 
1208:C:\Workspaces\DAVE-4.1\Flightcontroller_PWM_CopterRocks_Working/Libraries/CMSIS/Include\cmsis_gcc.h **** __attribute__( ( always_inline ) ) __STATIC_INLINE uint32_t __SMLADX (uint32_t op1, uint32_t op2, u
1209:C:\Workspaces\DAVE-4.1\Flightcontroller_PWM_CopterRocks_Working/Libraries/CMSIS/Include\cmsis_gcc.h **** {
1210:C:\Workspaces\DAVE-4.1\Flightcontroller_PWM_CopterRocks_Working/Libraries/CMSIS/Include\cmsis_gcc.h ****   uint32_t result;
1211:C:\Workspaces\DAVE-4.1\Flightcontroller_PWM_CopterRocks_Working/Libraries/CMSIS/Include\cmsis_gcc.h **** 
1212:C:\Workspaces\DAVE-4.1\Flightcontroller_PWM_CopterRocks_Working/Libraries/CMSIS/Include\cmsis_gcc.h ****   __ASM volatile ("smladx %0, %1, %2, %3" : "=r" (result) : "r" (op1), "r" (op2), "r" (op3) );
1213:C:\Workspaces\DAVE-4.1\Flightcontroller_PWM_CopterRocks_Working/Libraries/CMSIS/Include\cmsis_gcc.h ****   return(result);
1214:C:\Workspaces\DAVE-4.1\Flightcontroller_PWM_CopterRocks_Working/Libraries/CMSIS/Include\cmsis_gcc.h **** }
1215:C:\Workspaces\DAVE-4.1\Flightcontroller_PWM_CopterRocks_Working/Libraries/CMSIS/Include\cmsis_gcc.h **** 
1216:C:\Workspaces\DAVE-4.1\Flightcontroller_PWM_CopterRocks_Working/Libraries/CMSIS/Include\cmsis_gcc.h **** __attribute__( ( always_inline ) ) __STATIC_INLINE uint64_t __SMLALD (uint32_t op1, uint32_t op2, u
1217:C:\Workspaces\DAVE-4.1\Flightcontroller_PWM_CopterRocks_Working/Libraries/CMSIS/Include\cmsis_gcc.h **** {
1218:C:\Workspaces\DAVE-4.1\Flightcontroller_PWM_CopterRocks_Working/Libraries/CMSIS/Include\cmsis_gcc.h ****   union llreg_u{
1219:C:\Workspaces\DAVE-4.1\Flightcontroller_PWM_CopterRocks_Working/Libraries/CMSIS/Include\cmsis_gcc.h ****     uint32_t w32[2];
1220:C:\Workspaces\DAVE-4.1\Flightcontroller_PWM_CopterRocks_Working/Libraries/CMSIS/Include\cmsis_gcc.h ****     uint64_t w64;
1221:C:\Workspaces\DAVE-4.1\Flightcontroller_PWM_CopterRocks_Working/Libraries/CMSIS/Include\cmsis_gcc.h ****   } llr;
1222:C:\Workspaces\DAVE-4.1\Flightcontroller_PWM_CopterRocks_Working/Libraries/CMSIS/Include\cmsis_gcc.h ****   llr.w64 = acc;
1223:C:\Workspaces\DAVE-4.1\Flightcontroller_PWM_CopterRocks_Working/Libraries/CMSIS/Include\cmsis_gcc.h **** 
1224:C:\Workspaces\DAVE-4.1\Flightcontroller_PWM_CopterRocks_Working/Libraries/CMSIS/Include\cmsis_gcc.h **** #ifndef __ARMEB__   /* Little endian */
1225:C:\Workspaces\DAVE-4.1\Flightcontroller_PWM_CopterRocks_Working/Libraries/CMSIS/Include\cmsis_gcc.h ****   __ASM volatile ("smlald %0, %1, %2, %3" : "=r" (llr.w32[0]), "=r" (llr.w32[1]): "r" (op1), "r" (o
1226:C:\Workspaces\DAVE-4.1\Flightcontroller_PWM_CopterRocks_Working/Libraries/CMSIS/Include\cmsis_gcc.h **** #else               /* Big endian */
1227:C:\Workspaces\DAVE-4.1\Flightcontroller_PWM_CopterRocks_Working/Libraries/CMSIS/Include\cmsis_gcc.h ****   __ASM volatile ("smlald %0, %1, %2, %3" : "=r" (llr.w32[1]), "=r" (llr.w32[0]): "r" (op1), "r" (o
1228:C:\Workspaces\DAVE-4.1\Flightcontroller_PWM_CopterRocks_Working/Libraries/CMSIS/Include\cmsis_gcc.h **** #endif
1229:C:\Workspaces\DAVE-4.1\Flightcontroller_PWM_CopterRocks_Working/Libraries/CMSIS/Include\cmsis_gcc.h **** 
1230:C:\Workspaces\DAVE-4.1\Flightcontroller_PWM_CopterRocks_Working/Libraries/CMSIS/Include\cmsis_gcc.h ****   return(llr.w64);
1231:C:\Workspaces\DAVE-4.1\Flightcontroller_PWM_CopterRocks_Working/Libraries/CMSIS/Include\cmsis_gcc.h **** }
1232:C:\Workspaces\DAVE-4.1\Flightcontroller_PWM_CopterRocks_Working/Libraries/CMSIS/Include\cmsis_gcc.h **** 
1233:C:\Workspaces\DAVE-4.1\Flightcontroller_PWM_CopterRocks_Working/Libraries/CMSIS/Include\cmsis_gcc.h **** __attribute__( ( always_inline ) ) __STATIC_INLINE uint64_t __SMLALDX (uint32_t op1, uint32_t op2, 
1234:C:\Workspaces\DAVE-4.1\Flightcontroller_PWM_CopterRocks_Working/Libraries/CMSIS/Include\cmsis_gcc.h **** {
1235:C:\Workspaces\DAVE-4.1\Flightcontroller_PWM_CopterRocks_Working/Libraries/CMSIS/Include\cmsis_gcc.h ****   union llreg_u{
1236:C:\Workspaces\DAVE-4.1\Flightcontroller_PWM_CopterRocks_Working/Libraries/CMSIS/Include\cmsis_gcc.h ****     uint32_t w32[2];
1237:C:\Workspaces\DAVE-4.1\Flightcontroller_PWM_CopterRocks_Working/Libraries/CMSIS/Include\cmsis_gcc.h ****     uint64_t w64;
1238:C:\Workspaces\DAVE-4.1\Flightcontroller_PWM_CopterRocks_Working/Libraries/CMSIS/Include\cmsis_gcc.h ****   } llr;
1239:C:\Workspaces\DAVE-4.1\Flightcontroller_PWM_CopterRocks_Working/Libraries/CMSIS/Include\cmsis_gcc.h ****   llr.w64 = acc;
1240:C:\Workspaces\DAVE-4.1\Flightcontroller_PWM_CopterRocks_Working/Libraries/CMSIS/Include\cmsis_gcc.h **** 
1241:C:\Workspaces\DAVE-4.1\Flightcontroller_PWM_CopterRocks_Working/Libraries/CMSIS/Include\cmsis_gcc.h **** #ifndef __ARMEB__   /* Little endian */
1242:C:\Workspaces\DAVE-4.1\Flightcontroller_PWM_CopterRocks_Working/Libraries/CMSIS/Include\cmsis_gcc.h ****   __ASM volatile ("smlaldx %0, %1, %2, %3" : "=r" (llr.w32[0]), "=r" (llr.w32[1]): "r" (op1), "r" (
1243:C:\Workspaces\DAVE-4.1\Flightcontroller_PWM_CopterRocks_Working/Libraries/CMSIS/Include\cmsis_gcc.h **** #else               /* Big endian */
1244:C:\Workspaces\DAVE-4.1\Flightcontroller_PWM_CopterRocks_Working/Libraries/CMSIS/Include\cmsis_gcc.h ****   __ASM volatile ("smlaldx %0, %1, %2, %3" : "=r" (llr.w32[1]), "=r" (llr.w32[0]): "r" (op1), "r" (
1245:C:\Workspaces\DAVE-4.1\Flightcontroller_PWM_CopterRocks_Working/Libraries/CMSIS/Include\cmsis_gcc.h **** #endif
1246:C:\Workspaces\DAVE-4.1\Flightcontroller_PWM_CopterRocks_Working/Libraries/CMSIS/Include\cmsis_gcc.h **** 
1247:C:\Workspaces\DAVE-4.1\Flightcontroller_PWM_CopterRocks_Working/Libraries/CMSIS/Include\cmsis_gcc.h ****   return(llr.w64);
1248:C:\Workspaces\DAVE-4.1\Flightcontroller_PWM_CopterRocks_Working/Libraries/CMSIS/Include\cmsis_gcc.h **** }
1249:C:\Workspaces\DAVE-4.1\Flightcontroller_PWM_CopterRocks_Working/Libraries/CMSIS/Include\cmsis_gcc.h **** 
1250:C:\Workspaces\DAVE-4.1\Flightcontroller_PWM_CopterRocks_Working/Libraries/CMSIS/Include\cmsis_gcc.h **** __attribute__( ( always_inline ) ) __STATIC_INLINE uint32_t __SMUSD  (uint32_t op1, uint32_t op2)
1251:C:\Workspaces\DAVE-4.1\Flightcontroller_PWM_CopterRocks_Working/Libraries/CMSIS/Include\cmsis_gcc.h **** {
1252:C:\Workspaces\DAVE-4.1\Flightcontroller_PWM_CopterRocks_Working/Libraries/CMSIS/Include\cmsis_gcc.h ****   uint32_t result;
1253:C:\Workspaces\DAVE-4.1\Flightcontroller_PWM_CopterRocks_Working/Libraries/CMSIS/Include\cmsis_gcc.h **** 
1254:C:\Workspaces\DAVE-4.1\Flightcontroller_PWM_CopterRocks_Working/Libraries/CMSIS/Include\cmsis_gcc.h ****   __ASM volatile ("smusd %0, %1, %2" : "=r" (result) : "r" (op1), "r" (op2) );
1255:C:\Workspaces\DAVE-4.1\Flightcontroller_PWM_CopterRocks_Working/Libraries/CMSIS/Include\cmsis_gcc.h ****   return(result);
1256:C:\Workspaces\DAVE-4.1\Flightcontroller_PWM_CopterRocks_Working/Libraries/CMSIS/Include\cmsis_gcc.h **** }
1257:C:\Workspaces\DAVE-4.1\Flightcontroller_PWM_CopterRocks_Working/Libraries/CMSIS/Include\cmsis_gcc.h **** 
1258:C:\Workspaces\DAVE-4.1\Flightcontroller_PWM_CopterRocks_Working/Libraries/CMSIS/Include\cmsis_gcc.h **** __attribute__( ( always_inline ) ) __STATIC_INLINE uint32_t __SMUSDX (uint32_t op1, uint32_t op2)
1259:C:\Workspaces\DAVE-4.1\Flightcontroller_PWM_CopterRocks_Working/Libraries/CMSIS/Include\cmsis_gcc.h **** {
1260:C:\Workspaces\DAVE-4.1\Flightcontroller_PWM_CopterRocks_Working/Libraries/CMSIS/Include\cmsis_gcc.h ****   uint32_t result;
1261:C:\Workspaces\DAVE-4.1\Flightcontroller_PWM_CopterRocks_Working/Libraries/CMSIS/Include\cmsis_gcc.h **** 
1262:C:\Workspaces\DAVE-4.1\Flightcontroller_PWM_CopterRocks_Working/Libraries/CMSIS/Include\cmsis_gcc.h ****   __ASM volatile ("smusdx %0, %1, %2" : "=r" (result) : "r" (op1), "r" (op2) );
 289              	 .loc 2 1262 0 discriminator 3
 290 017a D7F8D830 	 ldr r3,[r7,#216]
 291 017e D7F8D420 	 ldr r2,[r7,#212]
 292              	
 293 0182 43FB12F3 	 smusdx r3,r3,r2
 294              	
 295              	 .thumb
 296 0186 C7F8D030 	 str r3,[r7,#208]
1263:C:\Workspaces\DAVE-4.1\Flightcontroller_PWM_CopterRocks_Working/Libraries/CMSIS/Include\cmsis_gcc.h ****   return(result);
 297              	 .loc 2 1263 0 discriminator 3
 298 018a D7F8D030 	 ldr r3,[r7,#208]
 299              	.LBE85:
 300              	.LBE84:
 301              	 .loc 1 148 0 discriminator 3
 302 018e C7F80031 	 str r3,[r7,#256]
 149:../Dave/Generated/CMSIS_DSP/TransformFunctions/arm_cfft_radix2_q15.c **** 
 150:../Dave/Generated/CMSIS_DSP/TransformFunctions/arm_cfft_radix2_q15.c **** #else
 151:../Dave/Generated/CMSIS_DSP/TransformFunctions/arm_cfft_radix2_q15.c **** 
 152:../Dave/Generated/CMSIS_DSP/TransformFunctions/arm_cfft_radix2_q15.c ****     out1 = __SMUSDX(R, coeff) >> 16u;
 153:../Dave/Generated/CMSIS_DSP/TransformFunctions/arm_cfft_radix2_q15.c ****     out2 = __SMUAD(coeff, R);
 154:../Dave/Generated/CMSIS_DSP/TransformFunctions/arm_cfft_radix2_q15.c **** 
 155:../Dave/Generated/CMSIS_DSP/TransformFunctions/arm_cfft_radix2_q15.c **** #endif //     #ifndef ARM_MATH_BIG_ENDIAN
 156:../Dave/Generated/CMSIS_DSP/TransformFunctions/arm_cfft_radix2_q15.c **** 
 157:../Dave/Generated/CMSIS_DSP/TransformFunctions/arm_cfft_radix2_q15.c ****     _SIMD32_OFFSET(pSrc + (2u * l)) =
 303              	 .loc 1 157 0 discriminator 3
 304 0192 D7F81831 	 ldr r3,[r7,#280]
 305 0196 9B00     	 lsls r3,r3,#2
 306 0198 07F10C02 	 add r2,r7,#12
 307 019c 1268     	 ldr r2,[r2]
 308 019e 1A44     	 add r2,r2,r3
 158:../Dave/Generated/CMSIS_DSP/TransformFunctions/arm_cfft_radix2_q15.c ****       (q31_t) ((out2) & 0xFFFF0000) | (out1 & 0x0000FFFF);
 309              	 .loc 1 158 0 discriminator 3
 310 01a0 D7F80031 	 ldr r3,[r7,#256]
 311 01a4 1B0C     	 lsrs r3,r3,#16
 312 01a6 1B04     	 lsls r3,r3,#16
 313 01a8 D7F80411 	 ldr r1,[r7,#260]
 314 01ac 89B2     	 uxth r1,r1
 315 01ae 0B43     	 orrs r3,r3,r1
 157:../Dave/Generated/CMSIS_DSP/TransformFunctions/arm_cfft_radix2_q15.c ****       (q31_t) ((out2) & 0xFFFF0000) | (out1 & 0x0000FFFF);
 316              	 .loc 1 157 0 discriminator 3
 317 01b0 1360     	 str r3,[r2]
 159:../Dave/Generated/CMSIS_DSP/TransformFunctions/arm_cfft_radix2_q15.c **** 
 160:../Dave/Generated/CMSIS_DSP/TransformFunctions/arm_cfft_radix2_q15.c ****     coeff = _SIMD32_OFFSET(pCoef + (ia * 2u));
 318              	 .loc 1 160 0 discriminator 3
 319 01b2 D7F82431 	 ldr r3,[r7,#292]
 320 01b6 9B00     	 lsls r3,r3,#2
 321 01b8 3A1D     	 adds r2,r7,#4
 322 01ba 1268     	 ldr r2,[r2]
 323 01bc 1344     	 add r3,r3,r2
 324 01be 1B68     	 ldr r3,[r3]
 325 01c0 C7F81C31 	 str r3,[r7,#284]
 161:../Dave/Generated/CMSIS_DSP/TransformFunctions/arm_cfft_radix2_q15.c **** 
 162:../Dave/Generated/CMSIS_DSP/TransformFunctions/arm_cfft_radix2_q15.c ****     ia = ia + twidCoefModifier;
 326              	 .loc 1 162 0 discriminator 3
 327 01c4 BB1C     	 adds r3,r7,#2
 328 01c6 1B88     	 ldrh r3,[r3]
 329 01c8 D7F82421 	 ldr r2,[r7,#292]
 330 01cc 1344     	 add r3,r3,r2
 331 01ce C7F82431 	 str r3,[r7,#292]
 163:../Dave/Generated/CMSIS_DSP/TransformFunctions/arm_cfft_radix2_q15.c **** 
 164:../Dave/Generated/CMSIS_DSP/TransformFunctions/arm_cfft_radix2_q15.c ****     // loop for butterfly 
 165:../Dave/Generated/CMSIS_DSP/TransformFunctions/arm_cfft_radix2_q15.c ****     i++;
 332              	 .loc 1 165 0 discriminator 3
 333 01d2 D7F83431 	 ldr r3,[r7,#308]
 334 01d6 0133     	 adds r3,r3,#1
 335 01d8 C7F83431 	 str r3,[r7,#308]
 166:../Dave/Generated/CMSIS_DSP/TransformFunctions/arm_cfft_radix2_q15.c ****     l++;
 336              	 .loc 1 166 0 discriminator 3
 337 01dc D7F81831 	 ldr r3,[r7,#280]
 338 01e0 0133     	 adds r3,r3,#1
 339 01e2 C7F81831 	 str r3,[r7,#280]
 167:../Dave/Generated/CMSIS_DSP/TransformFunctions/arm_cfft_radix2_q15.c **** 
 168:../Dave/Generated/CMSIS_DSP/TransformFunctions/arm_cfft_radix2_q15.c ****     T = _SIMD32_OFFSET(pSrc + (2 * i));
 340              	 .loc 1 168 0 discriminator 3
 341 01e6 D7F83431 	 ldr r3,[r7,#308]
 342 01ea 9B00     	 lsls r3,r3,#2
 343 01ec 07F10C02 	 add r2,r7,#12
 344 01f0 1268     	 ldr r2,[r2]
 345 01f2 1344     	 add r3,r3,r2
 346 01f4 1B68     	 ldr r3,[r3]
 347 01f6 C7F81431 	 str r3,[r7,#276]
 169:../Dave/Generated/CMSIS_DSP/TransformFunctions/arm_cfft_radix2_q15.c ****     in = ((int16_t) (T & 0xFFFF)) >> 1;
 348              	 .loc 1 169 0 discriminator 3
 349 01fa D7F81431 	 ldr r3,[r7,#276]
 350 01fe 9BB2     	 uxth r3,r3
 351 0200 1BB2     	 sxth r3,r3
 352 0202 5B10     	 asrs r3,r3,#1
 353 0204 A7F81231 	 strh r3,[r7,#274]
 170:../Dave/Generated/CMSIS_DSP/TransformFunctions/arm_cfft_radix2_q15.c ****     T = ((T >> 1) & 0xFFFF0000) | (in & 0xFFFF);
 354              	 .loc 1 170 0 discriminator 3
 355 0208 D7F81431 	 ldr r3,[r7,#276]
 356 020c 5B10     	 asrs r3,r3,#1
 357 020e 1B0C     	 lsrs r3,r3,#16
 358 0210 1B04     	 lsls r3,r3,#16
 359 0212 B7F91221 	 ldrsh r2,[r7,#274]
 360 0216 92B2     	 uxth r2,r2
 361 0218 1343     	 orrs r3,r3,r2
 362 021a C7F81431 	 str r3,[r7,#276]
 171:../Dave/Generated/CMSIS_DSP/TransformFunctions/arm_cfft_radix2_q15.c **** 
 172:../Dave/Generated/CMSIS_DSP/TransformFunctions/arm_cfft_radix2_q15.c ****     S = _SIMD32_OFFSET(pSrc + (2 * l));
 363              	 .loc 1 172 0 discriminator 3
 364 021e D7F81831 	 ldr r3,[r7,#280]
 365 0222 9B00     	 lsls r3,r3,#2
 366 0224 07F10C02 	 add r2,r7,#12
 367 0228 1268     	 ldr r2,[r2]
 368 022a 1344     	 add r3,r3,r2
 369 022c 1B68     	 ldr r3,[r3]
 370 022e C7F80C31 	 str r3,[r7,#268]
 173:../Dave/Generated/CMSIS_DSP/TransformFunctions/arm_cfft_radix2_q15.c ****     in = ((int16_t) (S & 0xFFFF)) >> 1;
 371              	 .loc 1 173 0 discriminator 3
 372 0232 D7F80C31 	 ldr r3,[r7,#268]
 373 0236 9BB2     	 uxth r3,r3
 374 0238 1BB2     	 sxth r3,r3
 375 023a 5B10     	 asrs r3,r3,#1
 376 023c A7F81231 	 strh r3,[r7,#274]
 174:../Dave/Generated/CMSIS_DSP/TransformFunctions/arm_cfft_radix2_q15.c ****     S = ((S >> 1) & 0xFFFF0000) | (in & 0xFFFF);
 377              	 .loc 1 174 0 discriminator 3
 378 0240 D7F80C31 	 ldr r3,[r7,#268]
 379 0244 5B10     	 asrs r3,r3,#1
 380 0246 1B0C     	 lsrs r3,r3,#16
 381 0248 1B04     	 lsls r3,r3,#16
 382 024a B7F91221 	 ldrsh r2,[r7,#274]
 383 024e 92B2     	 uxth r2,r2
 384 0250 1343     	 orrs r3,r3,r2
 385 0252 C7F80C31 	 str r3,[r7,#268]
 175:../Dave/Generated/CMSIS_DSP/TransformFunctions/arm_cfft_radix2_q15.c **** 
 176:../Dave/Generated/CMSIS_DSP/TransformFunctions/arm_cfft_radix2_q15.c ****     R = __QSUB16(T, S);
 386              	 .loc 1 176 0 discriminator 3
 387 0256 D7F81421 	 ldr r2,[r7,#276]
 388 025a D7F80C31 	 ldr r3,[r7,#268]
 389 025e C7F8CC20 	 str r2,[r7,#204]
 390 0262 C7F8C830 	 str r3,[r7,#200]
 391              	.LBB86:
 392              	.LBB87:
 990:C:\Workspaces\DAVE-4.1\Flightcontroller_PWM_CopterRocks_Working/Libraries/CMSIS/Include\cmsis_gcc.h ****   return(result);
 393              	 .loc 2 990 0 discriminator 3
 394 0266 D7F8CC30 	 ldr r3,[r7,#204]
 395 026a D7F8C820 	 ldr r2,[r7,#200]
 396              	
 397 026e D3FA12F3 	 qsub16 r3,r3,r2
 398              	
 399              	 .thumb
 400 0272 C7F8C430 	 str r3,[r7,#196]
 991:C:\Workspaces\DAVE-4.1\Flightcontroller_PWM_CopterRocks_Working/Libraries/CMSIS/Include\cmsis_gcc.h **** }
 401              	 .loc 2 991 0 discriminator 3
 402 0276 D7F8C430 	 ldr r3,[r7,#196]
 403              	.LBE87:
 404              	.LBE86:
 405              	 .loc 1 176 0 discriminator 3
 406 027a C7F80831 	 str r3,[r7,#264]
 177:../Dave/Generated/CMSIS_DSP/TransformFunctions/arm_cfft_radix2_q15.c **** 
 178:../Dave/Generated/CMSIS_DSP/TransformFunctions/arm_cfft_radix2_q15.c ****     _SIMD32_OFFSET(pSrc + (2 * i)) = __SHADD16(T, S);
 407              	 .loc 1 178 0 discriminator 3
 408 027e D7F83431 	 ldr r3,[r7,#308]
 409 0282 9B00     	 lsls r3,r3,#2
 410 0284 07F10C02 	 add r2,r7,#12
 411 0288 1268     	 ldr r2,[r2]
 412 028a 1344     	 add r3,r3,r2
 413 028c D7F81411 	 ldr r1,[r7,#276]
 414 0290 D7F80C21 	 ldr r2,[r7,#268]
 415 0294 C7F8C010 	 str r1,[r7,#192]
 416 0298 C7F8BC20 	 str r2,[r7,#188]
 417              	.LBB88:
 418              	.LBB89:
 950:C:\Workspaces\DAVE-4.1\Flightcontroller_PWM_CopterRocks_Working/Libraries/CMSIS/Include\cmsis_gcc.h ****   return(result);
 419              	 .loc 2 950 0 discriminator 3
 420 029c D7F8C020 	 ldr r2,[r7,#192]
 421 02a0 D7F8BC10 	 ldr r1,[r7,#188]
 422              	
 423 02a4 92FA21F2 	 shadd16 r2,r2,r1
 424              	
 425              	 .thumb
 426 02a8 C7F8B820 	 str r2,[r7,#184]
 951:C:\Workspaces\DAVE-4.1\Flightcontroller_PWM_CopterRocks_Working/Libraries/CMSIS/Include\cmsis_gcc.h **** }
 427              	 .loc 2 951 0 discriminator 3
 428 02ac D7F8B820 	 ldr r2,[r7,#184]
 429              	.LBE89:
 430              	.LBE88:
 431              	 .loc 1 178 0 discriminator 3
 432 02b0 1A60     	 str r2,[r3]
 179:../Dave/Generated/CMSIS_DSP/TransformFunctions/arm_cfft_radix2_q15.c **** 
 180:../Dave/Generated/CMSIS_DSP/TransformFunctions/arm_cfft_radix2_q15.c **** #ifndef ARM_MATH_BIG_ENDIAN
 181:../Dave/Generated/CMSIS_DSP/TransformFunctions/arm_cfft_radix2_q15.c **** 
 182:../Dave/Generated/CMSIS_DSP/TransformFunctions/arm_cfft_radix2_q15.c ****     out1 = __SMUAD(coeff, R) >> 16;
 433              	 .loc 1 182 0 discriminator 3
 434 02b2 D7F81C21 	 ldr r2,[r7,#284]
 435 02b6 D7F80831 	 ldr r3,[r7,#264]
 436 02ba C7F8B420 	 str r2,[r7,#180]
 437 02be C7F8B030 	 str r3,[r7,#176]
 438              	.LBB90:
 439              	.LBB91:
1188:C:\Workspaces\DAVE-4.1\Flightcontroller_PWM_CopterRocks_Working/Libraries/CMSIS/Include\cmsis_gcc.h ****   return(result);
 440              	 .loc 2 1188 0 discriminator 3
 441 02c2 D7F8B430 	 ldr r3,[r7,#180]
 442 02c6 D7F8B020 	 ldr r2,[r7,#176]
 443              	
 444 02ca 23FB02F3 	 smuad r3,r3,r2
 445              	
 446              	 .thumb
 447 02ce C7F8AC30 	 str r3,[r7,#172]
1189:C:\Workspaces\DAVE-4.1\Flightcontroller_PWM_CopterRocks_Working/Libraries/CMSIS/Include\cmsis_gcc.h **** }
 448              	 .loc 2 1189 0 discriminator 3
 449 02d2 D7F8AC30 	 ldr r3,[r7,#172]
 450              	.LBE91:
 451              	.LBE90:
 452              	 .loc 1 182 0 discriminator 3
 453 02d6 1B0C     	 lsrs r3,r3,#16
 454 02d8 C7F80431 	 str r3,[r7,#260]
 183:../Dave/Generated/CMSIS_DSP/TransformFunctions/arm_cfft_radix2_q15.c ****     out2 = __SMUSDX(coeff, R);
 455              	 .loc 1 183 0 discriminator 3
 456 02dc D7F81C21 	 ldr r2,[r7,#284]
 457 02e0 D7F80831 	 ldr r3,[r7,#264]
 458 02e4 C7F8A820 	 str r2,[r7,#168]
 459 02e8 C7F8A430 	 str r3,[r7,#164]
 460              	.LBB92:
 461              	.LBB93:
1262:C:\Workspaces\DAVE-4.1\Flightcontroller_PWM_CopterRocks_Working/Libraries/CMSIS/Include\cmsis_gcc.h ****   return(result);
 462              	 .loc 2 1262 0 discriminator 3
 463 02ec D7F8A830 	 ldr r3,[r7,#168]
 464 02f0 D7F8A420 	 ldr r2,[r7,#164]
 465              	
 466 02f4 43FB12F3 	 smusdx r3,r3,r2
 467              	
 468              	 .thumb
 469 02f8 C7F8A030 	 str r3,[r7,#160]
 470              	 .loc 2 1263 0 discriminator 3
 471 02fc D7F8A030 	 ldr r3,[r7,#160]
 472              	.LBE93:
 473              	.LBE92:
 474              	 .loc 1 183 0 discriminator 3
 475 0300 C7F80031 	 str r3,[r7,#256]
 184:../Dave/Generated/CMSIS_DSP/TransformFunctions/arm_cfft_radix2_q15.c **** 
 185:../Dave/Generated/CMSIS_DSP/TransformFunctions/arm_cfft_radix2_q15.c **** #else
 186:../Dave/Generated/CMSIS_DSP/TransformFunctions/arm_cfft_radix2_q15.c **** 
 187:../Dave/Generated/CMSIS_DSP/TransformFunctions/arm_cfft_radix2_q15.c ****     out1 = __SMUSDX(R, coeff) >> 16u;
 188:../Dave/Generated/CMSIS_DSP/TransformFunctions/arm_cfft_radix2_q15.c ****     out2 = __SMUAD(coeff, R);
 189:../Dave/Generated/CMSIS_DSP/TransformFunctions/arm_cfft_radix2_q15.c **** 
 190:../Dave/Generated/CMSIS_DSP/TransformFunctions/arm_cfft_radix2_q15.c **** #endif //     #ifndef ARM_MATH_BIG_ENDIAN
 191:../Dave/Generated/CMSIS_DSP/TransformFunctions/arm_cfft_radix2_q15.c **** 
 192:../Dave/Generated/CMSIS_DSP/TransformFunctions/arm_cfft_radix2_q15.c ****     _SIMD32_OFFSET(pSrc + (2u * l)) =
 476              	 .loc 1 192 0 discriminator 3
 477 0304 D7F81831 	 ldr r3,[r7,#280]
 478 0308 9B00     	 lsls r3,r3,#2
 479 030a 07F10C02 	 add r2,r7,#12
 480 030e 1268     	 ldr r2,[r2]
 481 0310 1A44     	 add r2,r2,r3
 193:../Dave/Generated/CMSIS_DSP/TransformFunctions/arm_cfft_radix2_q15.c ****       (q31_t) ((out2) & 0xFFFF0000) | (out1 & 0x0000FFFF);
 482              	 .loc 1 193 0 discriminator 3
 483 0312 D7F80031 	 ldr r3,[r7,#256]
 484 0316 1B0C     	 lsrs r3,r3,#16
 485 0318 1B04     	 lsls r3,r3,#16
 486 031a D7F80411 	 ldr r1,[r7,#260]
 487 031e 89B2     	 uxth r1,r1
 488 0320 0B43     	 orrs r3,r3,r1
 192:../Dave/Generated/CMSIS_DSP/TransformFunctions/arm_cfft_radix2_q15.c ****       (q31_t) ((out2) & 0xFFFF0000) | (out1 & 0x0000FFFF);
 489              	 .loc 1 192 0 discriminator 3
 490 0322 1360     	 str r3,[r2]
 125:../Dave/Generated/CMSIS_DSP/TransformFunctions/arm_cfft_radix2_q15.c ****   {
 491              	 .loc 1 125 0 discriminator 3
 492 0324 D7F83431 	 ldr r3,[r7,#308]
 493 0328 0133     	 adds r3,r3,#1
 494 032a C7F83431 	 str r3,[r7,#308]
 495              	.L5:
 125:../Dave/Generated/CMSIS_DSP/TransformFunctions/arm_cfft_radix2_q15.c ****   {
 496              	 .loc 1 125 0 is_stmt 0 discriminator 1
 497 032e D7F83421 	 ldr r2,[r7,#308]
 498 0332 D7F82831 	 ldr r3,[r7,#296]
 499 0336 9A42     	 cmp r2,r3
 500 0338 FFF485AE 	 bcc .L14
 194:../Dave/Generated/CMSIS_DSP/TransformFunctions/arm_cfft_radix2_q15.c **** 
 195:../Dave/Generated/CMSIS_DSP/TransformFunctions/arm_cfft_radix2_q15.c ****   }                             // groups loop end 
 196:../Dave/Generated/CMSIS_DSP/TransformFunctions/arm_cfft_radix2_q15.c **** 
 197:../Dave/Generated/CMSIS_DSP/TransformFunctions/arm_cfft_radix2_q15.c ****   twidCoefModifier = twidCoefModifier << 1u;
 501              	 .loc 1 197 0 is_stmt 1
 502 033c BB1C     	 adds r3,r7,#2
 503 033e BA1C     	 adds r2,r7,#2
 504 0340 1288     	 ldrh r2,[r2]
 505 0342 5200     	 lsls r2,r2,#1
 506 0344 1A80     	 strh r2,[r3]
 198:../Dave/Generated/CMSIS_DSP/TransformFunctions/arm_cfft_radix2_q15.c **** 
 199:../Dave/Generated/CMSIS_DSP/TransformFunctions/arm_cfft_radix2_q15.c ****   // loop for stage 
 200:../Dave/Generated/CMSIS_DSP/TransformFunctions/arm_cfft_radix2_q15.c ****   for (k = fftLen / 2; k > 2; k = k >> 1)
 507              	 .loc 1 200 0
 508 0346 07F10803 	 add r3,r7,#8
 509 034a 1B68     	 ldr r3,[r3]
 510 034c 5B08     	 lsrs r3,r3,#1
 511 034e C7F82C31 	 str r3,[r7,#300]
 512 0352 34E1     	 b .L15
 513              	.L28:
 201:../Dave/Generated/CMSIS_DSP/TransformFunctions/arm_cfft_radix2_q15.c ****   {
 202:../Dave/Generated/CMSIS_DSP/TransformFunctions/arm_cfft_radix2_q15.c ****     n1 = n2;
 514              	 .loc 1 202 0
 515 0354 D7F82831 	 ldr r3,[r7,#296]
 516 0358 C7F82031 	 str r3,[r7,#288]
 203:../Dave/Generated/CMSIS_DSP/TransformFunctions/arm_cfft_radix2_q15.c ****     n2 = n2 >> 1;
 517              	 .loc 1 203 0
 518 035c D7F82831 	 ldr r3,[r7,#296]
 519 0360 5B08     	 lsrs r3,r3,#1
 520 0362 C7F82831 	 str r3,[r7,#296]
 204:../Dave/Generated/CMSIS_DSP/TransformFunctions/arm_cfft_radix2_q15.c ****     ia = 0;
 521              	 .loc 1 204 0
 522 0366 0023     	 movs r3,#0
 523 0368 C7F82431 	 str r3,[r7,#292]
 205:../Dave/Generated/CMSIS_DSP/TransformFunctions/arm_cfft_radix2_q15.c **** 
 206:../Dave/Generated/CMSIS_DSP/TransformFunctions/arm_cfft_radix2_q15.c ****     // loop for groups 
 207:../Dave/Generated/CMSIS_DSP/TransformFunctions/arm_cfft_radix2_q15.c ****     for (j = 0; j < n2; j++)
 524              	 .loc 1 207 0
 525 036c 0023     	 movs r3,#0
 526 036e C7F83031 	 str r3,[r7,#304]
 527 0372 13E1     	 b .L16
 528              	.L27:
 208:../Dave/Generated/CMSIS_DSP/TransformFunctions/arm_cfft_radix2_q15.c ****     {
 209:../Dave/Generated/CMSIS_DSP/TransformFunctions/arm_cfft_radix2_q15.c ****       coeff = _SIMD32_OFFSET(pCoef + (ia * 2u));
 529              	 .loc 1 209 0
 530 0374 D7F82431 	 ldr r3,[r7,#292]
 531 0378 9B00     	 lsls r3,r3,#2
 532 037a 3A1D     	 adds r2,r7,#4
 533 037c 1268     	 ldr r2,[r2]
 534 037e 1344     	 add r3,r3,r2
 535 0380 1B68     	 ldr r3,[r3]
 536 0382 C7F81C31 	 str r3,[r7,#284]
 210:../Dave/Generated/CMSIS_DSP/TransformFunctions/arm_cfft_radix2_q15.c **** 
 211:../Dave/Generated/CMSIS_DSP/TransformFunctions/arm_cfft_radix2_q15.c ****       ia = ia + twidCoefModifier;
 537              	 .loc 1 211 0
 538 0386 BB1C     	 adds r3,r7,#2
 539 0388 1B88     	 ldrh r3,[r3]
 540 038a D7F82421 	 ldr r2,[r7,#292]
 541 038e 1344     	 add r3,r3,r2
 542 0390 C7F82431 	 str r3,[r7,#292]
 212:../Dave/Generated/CMSIS_DSP/TransformFunctions/arm_cfft_radix2_q15.c **** 
 213:../Dave/Generated/CMSIS_DSP/TransformFunctions/arm_cfft_radix2_q15.c ****       // loop for butterfly 
 214:../Dave/Generated/CMSIS_DSP/TransformFunctions/arm_cfft_radix2_q15.c ****       for (i = j; i < fftLen; i += n1)
 543              	 .loc 1 214 0
 544 0394 D7F83031 	 ldr r3,[r7,#304]
 545 0398 C7F83431 	 str r3,[r7,#308]
 546 039c F1E0     	 b .L17
 547              	.L26:
 215:../Dave/Generated/CMSIS_DSP/TransformFunctions/arm_cfft_radix2_q15.c ****       {
 216:../Dave/Generated/CMSIS_DSP/TransformFunctions/arm_cfft_radix2_q15.c ****         l = i + n2;
 548              	 .loc 1 216 0 discriminator 3
 549 039e D7F83421 	 ldr r2,[r7,#308]
 550 03a2 D7F82831 	 ldr r3,[r7,#296]
 551 03a6 1344     	 add r3,r3,r2
 552 03a8 C7F81831 	 str r3,[r7,#280]
 217:../Dave/Generated/CMSIS_DSP/TransformFunctions/arm_cfft_radix2_q15.c **** 
 218:../Dave/Generated/CMSIS_DSP/TransformFunctions/arm_cfft_radix2_q15.c ****         T = _SIMD32_OFFSET(pSrc + (2 * i));
 553              	 .loc 1 218 0 discriminator 3
 554 03ac D7F83431 	 ldr r3,[r7,#308]
 555 03b0 9B00     	 lsls r3,r3,#2
 556 03b2 07F10C02 	 add r2,r7,#12
 557 03b6 1268     	 ldr r2,[r2]
 558 03b8 1344     	 add r3,r3,r2
 559 03ba 1B68     	 ldr r3,[r3]
 560 03bc C7F81431 	 str r3,[r7,#276]
 219:../Dave/Generated/CMSIS_DSP/TransformFunctions/arm_cfft_radix2_q15.c **** 
 220:../Dave/Generated/CMSIS_DSP/TransformFunctions/arm_cfft_radix2_q15.c ****         S = _SIMD32_OFFSET(pSrc + (2 * l));
 561              	 .loc 1 220 0 discriminator 3
 562 03c0 D7F81831 	 ldr r3,[r7,#280]
 563 03c4 9B00     	 lsls r3,r3,#2
 564 03c6 07F10C02 	 add r2,r7,#12
 565 03ca 1268     	 ldr r2,[r2]
 566 03cc 1344     	 add r3,r3,r2
 567 03ce 1B68     	 ldr r3,[r3]
 568 03d0 C7F80C31 	 str r3,[r7,#268]
 221:../Dave/Generated/CMSIS_DSP/TransformFunctions/arm_cfft_radix2_q15.c **** 
 222:../Dave/Generated/CMSIS_DSP/TransformFunctions/arm_cfft_radix2_q15.c ****         R = __QSUB16(T, S);
 569              	 .loc 1 222 0 discriminator 3
 570 03d4 D7F81421 	 ldr r2,[r7,#276]
 571 03d8 D7F80C31 	 ldr r3,[r7,#268]
 572 03dc C7F89C20 	 str r2,[r7,#156]
 573 03e0 C7F89830 	 str r3,[r7,#152]
 574              	.LBB94:
 575              	.LBB95:
 990:C:\Workspaces\DAVE-4.1\Flightcontroller_PWM_CopterRocks_Working/Libraries/CMSIS/Include\cmsis_gcc.h ****   return(result);
 576              	 .loc 2 990 0 discriminator 3
 577 03e4 D7F89C30 	 ldr r3,[r7,#156]
 578 03e8 D7F89820 	 ldr r2,[r7,#152]
 579              	
 580 03ec D3FA12F3 	 qsub16 r3,r3,r2
 581              	
 582              	 .thumb
 583 03f0 C7F89430 	 str r3,[r7,#148]
 991:C:\Workspaces\DAVE-4.1\Flightcontroller_PWM_CopterRocks_Working/Libraries/CMSIS/Include\cmsis_gcc.h **** }
 584              	 .loc 2 991 0 discriminator 3
 585 03f4 D7F89430 	 ldr r3,[r7,#148]
 586              	.LBE95:
 587              	.LBE94:
 588              	 .loc 1 222 0 discriminator 3
 589 03f8 C7F80831 	 str r3,[r7,#264]
 223:../Dave/Generated/CMSIS_DSP/TransformFunctions/arm_cfft_radix2_q15.c **** 
 224:../Dave/Generated/CMSIS_DSP/TransformFunctions/arm_cfft_radix2_q15.c ****         _SIMD32_OFFSET(pSrc + (2 * i)) = __SHADD16(T, S);
 590              	 .loc 1 224 0 discriminator 3
 591 03fc D7F83431 	 ldr r3,[r7,#308]
 592 0400 9B00     	 lsls r3,r3,#2
 593 0402 07F10C02 	 add r2,r7,#12
 594 0406 1268     	 ldr r2,[r2]
 595 0408 1344     	 add r3,r3,r2
 596 040a D7F81411 	 ldr r1,[r7,#276]
 597 040e D7F80C21 	 ldr r2,[r7,#268]
 598 0412 C7F89010 	 str r1,[r7,#144]
 599 0416 C7F88C20 	 str r2,[r7,#140]
 600              	.LBB96:
 601              	.LBB97:
 950:C:\Workspaces\DAVE-4.1\Flightcontroller_PWM_CopterRocks_Working/Libraries/CMSIS/Include\cmsis_gcc.h ****   return(result);
 602              	 .loc 2 950 0 discriminator 3
 603 041a D7F89020 	 ldr r2,[r7,#144]
 604 041e D7F88C10 	 ldr r1,[r7,#140]
 605              	
 606 0422 92FA21F2 	 shadd16 r2,r2,r1
 607              	
 608              	 .thumb
 609 0426 C7F88820 	 str r2,[r7,#136]
 951:C:\Workspaces\DAVE-4.1\Flightcontroller_PWM_CopterRocks_Working/Libraries/CMSIS/Include\cmsis_gcc.h **** }
 610              	 .loc 2 951 0 discriminator 3
 611 042a D7F88820 	 ldr r2,[r7,#136]
 612              	.LBE97:
 613              	.LBE96:
 614              	 .loc 1 224 0 discriminator 3
 615 042e 1A60     	 str r2,[r3]
 225:../Dave/Generated/CMSIS_DSP/TransformFunctions/arm_cfft_radix2_q15.c **** 
 226:../Dave/Generated/CMSIS_DSP/TransformFunctions/arm_cfft_radix2_q15.c **** #ifndef ARM_MATH_BIG_ENDIAN
 227:../Dave/Generated/CMSIS_DSP/TransformFunctions/arm_cfft_radix2_q15.c **** 
 228:../Dave/Generated/CMSIS_DSP/TransformFunctions/arm_cfft_radix2_q15.c ****         out1 = __SMUAD(coeff, R) >> 16;
 616              	 .loc 1 228 0 discriminator 3
 617 0430 D7F81C21 	 ldr r2,[r7,#284]
 618 0434 D7F80831 	 ldr r3,[r7,#264]
 619 0438 C7F88420 	 str r2,[r7,#132]
 620 043c C7F88030 	 str r3,[r7,#128]
 621              	.LBB98:
 622              	.LBB99:
1188:C:\Workspaces\DAVE-4.1\Flightcontroller_PWM_CopterRocks_Working/Libraries/CMSIS/Include\cmsis_gcc.h ****   return(result);
 623              	 .loc 2 1188 0 discriminator 3
 624 0440 D7F88430 	 ldr r3,[r7,#132]
 625 0444 D7F88020 	 ldr r2,[r7,#128]
 626              	
 627 0448 23FB02F3 	 smuad r3,r3,r2
 628              	
 629              	 .thumb
 630 044c FB67     	 str r3,[r7,#124]
1189:C:\Workspaces\DAVE-4.1\Flightcontroller_PWM_CopterRocks_Working/Libraries/CMSIS/Include\cmsis_gcc.h **** }
 631              	 .loc 2 1189 0 discriminator 3
 632 044e FB6F     	 ldr r3,[r7,#124]
 633              	.LBE99:
 634              	.LBE98:
 635              	 .loc 1 228 0 discriminator 3
 636 0450 1B0C     	 lsrs r3,r3,#16
 637 0452 C7F80431 	 str r3,[r7,#260]
 229:../Dave/Generated/CMSIS_DSP/TransformFunctions/arm_cfft_radix2_q15.c ****         out2 = __SMUSDX(coeff, R);
 638              	 .loc 1 229 0 discriminator 3
 639 0456 D7F81C21 	 ldr r2,[r7,#284]
 640 045a D7F80831 	 ldr r3,[r7,#264]
 641 045e BA67     	 str r2,[r7,#120]
 642 0460 7B67     	 str r3,[r7,#116]
 643              	.LBB100:
 644              	.LBB101:
1262:C:\Workspaces\DAVE-4.1\Flightcontroller_PWM_CopterRocks_Working/Libraries/CMSIS/Include\cmsis_gcc.h ****   return(result);
 645              	 .loc 2 1262 0 discriminator 3
 646 0462 BB6F     	 ldr r3,[r7,#120]
 647 0464 7A6F     	 ldr r2,[r7,#116]
 648              	
 649 0466 43FB12F3 	 smusdx r3,r3,r2
 650              	
 651              	 .thumb
 652 046a 3B67     	 str r3,[r7,#112]
 653              	 .loc 2 1263 0 discriminator 3
 654 046c 3B6F     	 ldr r3,[r7,#112]
 655              	.LBE101:
 656              	.LBE100:
 657              	 .loc 1 229 0 discriminator 3
 658 046e C7F80031 	 str r3,[r7,#256]
 230:../Dave/Generated/CMSIS_DSP/TransformFunctions/arm_cfft_radix2_q15.c **** 
 231:../Dave/Generated/CMSIS_DSP/TransformFunctions/arm_cfft_radix2_q15.c **** #else
 232:../Dave/Generated/CMSIS_DSP/TransformFunctions/arm_cfft_radix2_q15.c **** 
 233:../Dave/Generated/CMSIS_DSP/TransformFunctions/arm_cfft_radix2_q15.c ****         out1 = __SMUSDX(R, coeff) >> 16u;
 234:../Dave/Generated/CMSIS_DSP/TransformFunctions/arm_cfft_radix2_q15.c ****         out2 = __SMUAD(coeff, R);
 235:../Dave/Generated/CMSIS_DSP/TransformFunctions/arm_cfft_radix2_q15.c **** 
 236:../Dave/Generated/CMSIS_DSP/TransformFunctions/arm_cfft_radix2_q15.c **** #endif //     #ifndef ARM_MATH_BIG_ENDIAN
 237:../Dave/Generated/CMSIS_DSP/TransformFunctions/arm_cfft_radix2_q15.c **** 
 238:../Dave/Generated/CMSIS_DSP/TransformFunctions/arm_cfft_radix2_q15.c ****         _SIMD32_OFFSET(pSrc + (2u * l)) =
 659              	 .loc 1 238 0 discriminator 3
 660 0472 D7F81831 	 ldr r3,[r7,#280]
 661 0476 9B00     	 lsls r3,r3,#2
 662 0478 07F10C02 	 add r2,r7,#12
 663 047c 1268     	 ldr r2,[r2]
 664 047e 1A44     	 add r2,r2,r3
 239:../Dave/Generated/CMSIS_DSP/TransformFunctions/arm_cfft_radix2_q15.c ****           (q31_t) ((out2) & 0xFFFF0000) | (out1 & 0x0000FFFF);
 665              	 .loc 1 239 0 discriminator 3
 666 0480 D7F80031 	 ldr r3,[r7,#256]
 667 0484 1B0C     	 lsrs r3,r3,#16
 668 0486 1B04     	 lsls r3,r3,#16
 669 0488 D7F80411 	 ldr r1,[r7,#260]
 670 048c 89B2     	 uxth r1,r1
 671 048e 0B43     	 orrs r3,r3,r1
 238:../Dave/Generated/CMSIS_DSP/TransformFunctions/arm_cfft_radix2_q15.c ****           (q31_t) ((out2) & 0xFFFF0000) | (out1 & 0x0000FFFF);
 672              	 .loc 1 238 0 discriminator 3
 673 0490 1360     	 str r3,[r2]
 240:../Dave/Generated/CMSIS_DSP/TransformFunctions/arm_cfft_radix2_q15.c **** 
 241:../Dave/Generated/CMSIS_DSP/TransformFunctions/arm_cfft_radix2_q15.c ****         i += n1;
 674              	 .loc 1 241 0 discriminator 3
 675 0492 D7F83421 	 ldr r2,[r7,#308]
 676 0496 D7F82031 	 ldr r3,[r7,#288]
 677 049a 1344     	 add r3,r3,r2
 678 049c C7F83431 	 str r3,[r7,#308]
 242:../Dave/Generated/CMSIS_DSP/TransformFunctions/arm_cfft_radix2_q15.c **** 
 243:../Dave/Generated/CMSIS_DSP/TransformFunctions/arm_cfft_radix2_q15.c ****         l = i + n2;
 679              	 .loc 1 243 0 discriminator 3
 680 04a0 D7F83421 	 ldr r2,[r7,#308]
 681 04a4 D7F82831 	 ldr r3,[r7,#296]
 682 04a8 1344     	 add r3,r3,r2
 683 04aa C7F81831 	 str r3,[r7,#280]
 244:../Dave/Generated/CMSIS_DSP/TransformFunctions/arm_cfft_radix2_q15.c **** 
 245:../Dave/Generated/CMSIS_DSP/TransformFunctions/arm_cfft_radix2_q15.c ****         T = _SIMD32_OFFSET(pSrc + (2 * i));
 684              	 .loc 1 245 0 discriminator 3
 685 04ae D7F83431 	 ldr r3,[r7,#308]
 686 04b2 9B00     	 lsls r3,r3,#2
 687 04b4 07F10C02 	 add r2,r7,#12
 688 04b8 1268     	 ldr r2,[r2]
 689 04ba 1344     	 add r3,r3,r2
 690 04bc 1B68     	 ldr r3,[r3]
 691 04be C7F81431 	 str r3,[r7,#276]
 246:../Dave/Generated/CMSIS_DSP/TransformFunctions/arm_cfft_radix2_q15.c **** 
 247:../Dave/Generated/CMSIS_DSP/TransformFunctions/arm_cfft_radix2_q15.c ****         S = _SIMD32_OFFSET(pSrc + (2 * l));
 692              	 .loc 1 247 0 discriminator 3
 693 04c2 D7F81831 	 ldr r3,[r7,#280]
 694 04c6 9B00     	 lsls r3,r3,#2
 695 04c8 07F10C02 	 add r2,r7,#12
 696 04cc 1268     	 ldr r2,[r2]
 697 04ce 1344     	 add r3,r3,r2
 698 04d0 1B68     	 ldr r3,[r3]
 699 04d2 C7F80C31 	 str r3,[r7,#268]
 248:../Dave/Generated/CMSIS_DSP/TransformFunctions/arm_cfft_radix2_q15.c **** 
 249:../Dave/Generated/CMSIS_DSP/TransformFunctions/arm_cfft_radix2_q15.c ****         R = __QSUB16(T, S);
 700              	 .loc 1 249 0 discriminator 3
 701 04d6 D7F81421 	 ldr r2,[r7,#276]
 702 04da D7F80C31 	 ldr r3,[r7,#268]
 703 04de FA66     	 str r2,[r7,#108]
 704 04e0 BB66     	 str r3,[r7,#104]
 705              	.LBB102:
 706              	.LBB103:
 990:C:\Workspaces\DAVE-4.1\Flightcontroller_PWM_CopterRocks_Working/Libraries/CMSIS/Include\cmsis_gcc.h ****   return(result);
 707              	 .loc 2 990 0 discriminator 3
 708 04e2 FB6E     	 ldr r3,[r7,#108]
 709 04e4 BA6E     	 ldr r2,[r7,#104]
 710              	
 711 04e6 D3FA12F3 	 qsub16 r3,r3,r2
 712              	
 713              	 .thumb
 714 04ea 7B66     	 str r3,[r7,#100]
 991:C:\Workspaces\DAVE-4.1\Flightcontroller_PWM_CopterRocks_Working/Libraries/CMSIS/Include\cmsis_gcc.h **** }
 715              	 .loc 2 991 0 discriminator 3
 716 04ec 7B6E     	 ldr r3,[r7,#100]
 717              	.LBE103:
 718              	.LBE102:
 719              	 .loc 1 249 0 discriminator 3
 720 04ee C7F80831 	 str r3,[r7,#264]
 250:../Dave/Generated/CMSIS_DSP/TransformFunctions/arm_cfft_radix2_q15.c **** 
 251:../Dave/Generated/CMSIS_DSP/TransformFunctions/arm_cfft_radix2_q15.c ****         _SIMD32_OFFSET(pSrc + (2 * i)) = __SHADD16(T, S);
 721              	 .loc 1 251 0 discriminator 3
 722 04f2 D7F83431 	 ldr r3,[r7,#308]
 723 04f6 9B00     	 lsls r3,r3,#2
 724 04f8 07F10C02 	 add r2,r7,#12
 725 04fc 1268     	 ldr r2,[r2]
 726 04fe 1344     	 add r3,r3,r2
 727 0500 D7F81411 	 ldr r1,[r7,#276]
 728 0504 D7F80C21 	 ldr r2,[r7,#268]
 729 0508 3966     	 str r1,[r7,#96]
 730 050a FA65     	 str r2,[r7,#92]
 731              	.LBB104:
 732              	.LBB105:
 950:C:\Workspaces\DAVE-4.1\Flightcontroller_PWM_CopterRocks_Working/Libraries/CMSIS/Include\cmsis_gcc.h ****   return(result);
 733              	 .loc 2 950 0 discriminator 3
 734 050c 3A6E     	 ldr r2,[r7,#96]
 735 050e F96D     	 ldr r1,[r7,#92]
 736              	
 737 0510 92FA21F2 	 shadd16 r2,r2,r1
 738              	
 739              	 .thumb
 740 0514 BA65     	 str r2,[r7,#88]
 951:C:\Workspaces\DAVE-4.1\Flightcontroller_PWM_CopterRocks_Working/Libraries/CMSIS/Include\cmsis_gcc.h **** }
 741              	 .loc 2 951 0 discriminator 3
 742 0516 BA6D     	 ldr r2,[r7,#88]
 743              	.LBE105:
 744              	.LBE104:
 745              	 .loc 1 251 0 discriminator 3
 746 0518 1A60     	 str r2,[r3]
 252:../Dave/Generated/CMSIS_DSP/TransformFunctions/arm_cfft_radix2_q15.c **** 
 253:../Dave/Generated/CMSIS_DSP/TransformFunctions/arm_cfft_radix2_q15.c **** #ifndef ARM_MATH_BIG_ENDIAN
 254:../Dave/Generated/CMSIS_DSP/TransformFunctions/arm_cfft_radix2_q15.c **** 
 255:../Dave/Generated/CMSIS_DSP/TransformFunctions/arm_cfft_radix2_q15.c ****         out1 = __SMUAD(coeff, R) >> 16;
 747              	 .loc 1 255 0 discriminator 3
 748 051a D7F81C21 	 ldr r2,[r7,#284]
 749 051e D7F80831 	 ldr r3,[r7,#264]
 750 0522 7A65     	 str r2,[r7,#84]
 751 0524 3B65     	 str r3,[r7,#80]
 752              	.LBB106:
 753              	.LBB107:
1188:C:\Workspaces\DAVE-4.1\Flightcontroller_PWM_CopterRocks_Working/Libraries/CMSIS/Include\cmsis_gcc.h ****   return(result);
 754              	 .loc 2 1188 0 discriminator 3
 755 0526 7B6D     	 ldr r3,[r7,#84]
 756 0528 3A6D     	 ldr r2,[r7,#80]
 757              	
 758 052a 23FB02F3 	 smuad r3,r3,r2
 759              	
 760              	 .thumb
 761 052e FB64     	 str r3,[r7,#76]
1189:C:\Workspaces\DAVE-4.1\Flightcontroller_PWM_CopterRocks_Working/Libraries/CMSIS/Include\cmsis_gcc.h **** }
 762              	 .loc 2 1189 0 discriminator 3
 763 0530 FB6C     	 ldr r3,[r7,#76]
 764              	.LBE107:
 765              	.LBE106:
 766              	 .loc 1 255 0 discriminator 3
 767 0532 1B0C     	 lsrs r3,r3,#16
 768 0534 C7F80431 	 str r3,[r7,#260]
 256:../Dave/Generated/CMSIS_DSP/TransformFunctions/arm_cfft_radix2_q15.c ****         out2 = __SMUSDX(coeff, R);
 769              	 .loc 1 256 0 discriminator 3
 770 0538 D7F81C21 	 ldr r2,[r7,#284]
 771 053c D7F80831 	 ldr r3,[r7,#264]
 772 0540 BA64     	 str r2,[r7,#72]
 773 0542 7B64     	 str r3,[r7,#68]
 774              	.LBB108:
 775              	.LBB109:
1262:C:\Workspaces\DAVE-4.1\Flightcontroller_PWM_CopterRocks_Working/Libraries/CMSIS/Include\cmsis_gcc.h ****   return(result);
 776              	 .loc 2 1262 0 discriminator 3
 777 0544 BB6C     	 ldr r3,[r7,#72]
 778 0546 7A6C     	 ldr r2,[r7,#68]
 779              	
 780 0548 43FB12F3 	 smusdx r3,r3,r2
 781              	
 782              	 .thumb
 783 054c 3B64     	 str r3,[r7,#64]
 784              	 .loc 2 1263 0 discriminator 3
 785 054e 3B6C     	 ldr r3,[r7,#64]
 786              	.LBE109:
 787              	.LBE108:
 788              	 .loc 1 256 0 discriminator 3
 789 0550 C7F80031 	 str r3,[r7,#256]
 257:../Dave/Generated/CMSIS_DSP/TransformFunctions/arm_cfft_radix2_q15.c **** 
 258:../Dave/Generated/CMSIS_DSP/TransformFunctions/arm_cfft_radix2_q15.c **** #else
 259:../Dave/Generated/CMSIS_DSP/TransformFunctions/arm_cfft_radix2_q15.c **** 
 260:../Dave/Generated/CMSIS_DSP/TransformFunctions/arm_cfft_radix2_q15.c ****         out1 = __SMUSDX(R, coeff) >> 16u;
 261:../Dave/Generated/CMSIS_DSP/TransformFunctions/arm_cfft_radix2_q15.c ****         out2 = __SMUAD(coeff, R);
 262:../Dave/Generated/CMSIS_DSP/TransformFunctions/arm_cfft_radix2_q15.c **** 
 263:../Dave/Generated/CMSIS_DSP/TransformFunctions/arm_cfft_radix2_q15.c **** #endif //     #ifndef ARM_MATH_BIG_ENDIAN
 264:../Dave/Generated/CMSIS_DSP/TransformFunctions/arm_cfft_radix2_q15.c **** 
 265:../Dave/Generated/CMSIS_DSP/TransformFunctions/arm_cfft_radix2_q15.c ****         _SIMD32_OFFSET(pSrc + (2u * l)) =
 790              	 .loc 1 265 0 discriminator 3
 791 0554 D7F81831 	 ldr r3,[r7,#280]
 792 0558 9B00     	 lsls r3,r3,#2
 793 055a 07F10C02 	 add r2,r7,#12
 794 055e 1268     	 ldr r2,[r2]
 795 0560 1A44     	 add r2,r2,r3
 266:../Dave/Generated/CMSIS_DSP/TransformFunctions/arm_cfft_radix2_q15.c ****           (q31_t) ((out2) & 0xFFFF0000) | (out1 & 0x0000FFFF);
 796              	 .loc 1 266 0 discriminator 3
 797 0562 D7F80031 	 ldr r3,[r7,#256]
 798 0566 1B0C     	 lsrs r3,r3,#16
 799 0568 1B04     	 lsls r3,r3,#16
 800 056a D7F80411 	 ldr r1,[r7,#260]
 801 056e 89B2     	 uxth r1,r1
 802 0570 0B43     	 orrs r3,r3,r1
 265:../Dave/Generated/CMSIS_DSP/TransformFunctions/arm_cfft_radix2_q15.c ****           (q31_t) ((out2) & 0xFFFF0000) | (out1 & 0x0000FFFF);
 803              	 .loc 1 265 0 discriminator 3
 804 0572 1360     	 str r3,[r2]
 214:../Dave/Generated/CMSIS_DSP/TransformFunctions/arm_cfft_radix2_q15.c ****       {
 805              	 .loc 1 214 0 discriminator 3
 806 0574 D7F83421 	 ldr r2,[r7,#308]
 807 0578 D7F82031 	 ldr r3,[r7,#288]
 808 057c 1344     	 add r3,r3,r2
 809 057e C7F83431 	 str r3,[r7,#308]
 810              	.L17:
 214:../Dave/Generated/CMSIS_DSP/TransformFunctions/arm_cfft_radix2_q15.c ****       {
 811              	 .loc 1 214 0 is_stmt 0 discriminator 1
 812 0582 07F10803 	 add r3,r7,#8
 813 0586 D7F83421 	 ldr r2,[r7,#308]
 814 058a 1B68     	 ldr r3,[r3]
 815 058c 9A42     	 cmp r2,r3
 816 058e FFF406AF 	 bcc .L26
 207:../Dave/Generated/CMSIS_DSP/TransformFunctions/arm_cfft_radix2_q15.c ****     {
 817              	 .loc 1 207 0 is_stmt 1 discriminator 2
 818 0592 D7F83031 	 ldr r3,[r7,#304]
 819 0596 0133     	 adds r3,r3,#1
 820 0598 C7F83031 	 str r3,[r7,#304]
 821              	.L16:
 207:../Dave/Generated/CMSIS_DSP/TransformFunctions/arm_cfft_radix2_q15.c ****     {
 822              	 .loc 1 207 0 is_stmt 0 discriminator 1
 823 059c D7F83021 	 ldr r2,[r7,#304]
 824 05a0 D7F82831 	 ldr r3,[r7,#296]
 825 05a4 9A42     	 cmp r2,r3
 826 05a6 FFF4E5AE 	 bcc .L27
 267:../Dave/Generated/CMSIS_DSP/TransformFunctions/arm_cfft_radix2_q15.c **** 
 268:../Dave/Generated/CMSIS_DSP/TransformFunctions/arm_cfft_radix2_q15.c ****       }                         // butterfly loop end 
 269:../Dave/Generated/CMSIS_DSP/TransformFunctions/arm_cfft_radix2_q15.c **** 
 270:../Dave/Generated/CMSIS_DSP/TransformFunctions/arm_cfft_radix2_q15.c ****     }                           // groups loop end 
 271:../Dave/Generated/CMSIS_DSP/TransformFunctions/arm_cfft_radix2_q15.c **** 
 272:../Dave/Generated/CMSIS_DSP/TransformFunctions/arm_cfft_radix2_q15.c ****     twidCoefModifier = twidCoefModifier << 1u;
 827              	 .loc 1 272 0 is_stmt 1 discriminator 2
 828 05aa BB1C     	 adds r3,r7,#2
 829 05ac BA1C     	 adds r2,r7,#2
 830 05ae 1288     	 ldrh r2,[r2]
 831 05b0 5200     	 lsls r2,r2,#1
 832 05b2 1A80     	 strh r2,[r3]
 200:../Dave/Generated/CMSIS_DSP/TransformFunctions/arm_cfft_radix2_q15.c ****   {
 833              	 .loc 1 200 0 discriminator 2
 834 05b4 D7F82C31 	 ldr r3,[r7,#300]
 835 05b8 5B08     	 lsrs r3,r3,#1
 836 05ba C7F82C31 	 str r3,[r7,#300]
 837              	.L15:
 200:../Dave/Generated/CMSIS_DSP/TransformFunctions/arm_cfft_radix2_q15.c ****   {
 838              	 .loc 1 200 0 is_stmt 0 discriminator 1
 839 05be D7F82C31 	 ldr r3,[r7,#300]
 840 05c2 022B     	 cmp r3,#2
 841 05c4 3FF6C6AE 	 bhi .L28
 273:../Dave/Generated/CMSIS_DSP/TransformFunctions/arm_cfft_radix2_q15.c ****   }                             // stages loop end 
 274:../Dave/Generated/CMSIS_DSP/TransformFunctions/arm_cfft_radix2_q15.c **** 
 275:../Dave/Generated/CMSIS_DSP/TransformFunctions/arm_cfft_radix2_q15.c ****   n1 = n2;
 842              	 .loc 1 275 0 is_stmt 1
 843 05c8 D7F82831 	 ldr r3,[r7,#296]
 844 05cc C7F82031 	 str r3,[r7,#288]
 276:../Dave/Generated/CMSIS_DSP/TransformFunctions/arm_cfft_radix2_q15.c ****   n2 = n2 >> 1;
 845              	 .loc 1 276 0
 846 05d0 D7F82831 	 ldr r3,[r7,#296]
 847 05d4 5B08     	 lsrs r3,r3,#1
 848 05d6 C7F82831 	 str r3,[r7,#296]
 277:../Dave/Generated/CMSIS_DSP/TransformFunctions/arm_cfft_radix2_q15.c ****   ia = 0;
 849              	 .loc 1 277 0
 850 05da 0023     	 movs r3,#0
 851 05dc C7F82431 	 str r3,[r7,#292]
 278:../Dave/Generated/CMSIS_DSP/TransformFunctions/arm_cfft_radix2_q15.c **** 
 279:../Dave/Generated/CMSIS_DSP/TransformFunctions/arm_cfft_radix2_q15.c ****   coeff = _SIMD32_OFFSET(pCoef + (ia * 2u));
 852              	 .loc 1 279 0
 853 05e0 D7F82431 	 ldr r3,[r7,#292]
 854 05e4 9B00     	 lsls r3,r3,#2
 855 05e6 3A1D     	 adds r2,r7,#4
 856 05e8 1268     	 ldr r2,[r2]
 857 05ea 1344     	 add r3,r3,r2
 858 05ec 1B68     	 ldr r3,[r3]
 859 05ee C7F81C31 	 str r3,[r7,#284]
 280:../Dave/Generated/CMSIS_DSP/TransformFunctions/arm_cfft_radix2_q15.c **** 
 281:../Dave/Generated/CMSIS_DSP/TransformFunctions/arm_cfft_radix2_q15.c ****   ia = ia + twidCoefModifier;
 860              	 .loc 1 281 0
 861 05f2 BB1C     	 adds r3,r7,#2
 862 05f4 1B88     	 ldrh r3,[r3]
 863 05f6 D7F82421 	 ldr r2,[r7,#292]
 864 05fa 1344     	 add r3,r3,r2
 865 05fc C7F82431 	 str r3,[r7,#292]
 282:../Dave/Generated/CMSIS_DSP/TransformFunctions/arm_cfft_radix2_q15.c **** 
 283:../Dave/Generated/CMSIS_DSP/TransformFunctions/arm_cfft_radix2_q15.c ****   // loop for butterfly 
 284:../Dave/Generated/CMSIS_DSP/TransformFunctions/arm_cfft_radix2_q15.c ****   for (i = 0; i < fftLen; i += n1)
 866              	 .loc 1 284 0
 867 0600 0023     	 movs r3,#0
 868 0602 C7F83431 	 str r3,[r7,#308]
 869 0606 C7E0     	 b .L29
 870              	.L34:
 285:../Dave/Generated/CMSIS_DSP/TransformFunctions/arm_cfft_radix2_q15.c ****   {
 286:../Dave/Generated/CMSIS_DSP/TransformFunctions/arm_cfft_radix2_q15.c ****     l = i + n2;
 871              	 .loc 1 286 0 discriminator 3
 872 0608 D7F83421 	 ldr r2,[r7,#308]
 873 060c D7F82831 	 ldr r3,[r7,#296]
 874 0610 1344     	 add r3,r3,r2
 875 0612 C7F81831 	 str r3,[r7,#280]
 287:../Dave/Generated/CMSIS_DSP/TransformFunctions/arm_cfft_radix2_q15.c **** 
 288:../Dave/Generated/CMSIS_DSP/TransformFunctions/arm_cfft_radix2_q15.c ****     T = _SIMD32_OFFSET(pSrc + (2 * i));
 876              	 .loc 1 288 0 discriminator 3
 877 0616 D7F83431 	 ldr r3,[r7,#308]
 878 061a 9B00     	 lsls r3,r3,#2
 879 061c 07F10C02 	 add r2,r7,#12
 880 0620 1268     	 ldr r2,[r2]
 881 0622 1344     	 add r3,r3,r2
 882 0624 1B68     	 ldr r3,[r3]
 883 0626 C7F81431 	 str r3,[r7,#276]
 289:../Dave/Generated/CMSIS_DSP/TransformFunctions/arm_cfft_radix2_q15.c **** 
 290:../Dave/Generated/CMSIS_DSP/TransformFunctions/arm_cfft_radix2_q15.c ****     S = _SIMD32_OFFSET(pSrc + (2 * l));
 884              	 .loc 1 290 0 discriminator 3
 885 062a D7F81831 	 ldr r3,[r7,#280]
 886 062e 9B00     	 lsls r3,r3,#2
 887 0630 07F10C02 	 add r2,r7,#12
 888 0634 1268     	 ldr r2,[r2]
 889 0636 1344     	 add r3,r3,r2
 890 0638 1B68     	 ldr r3,[r3]
 891 063a C7F80C31 	 str r3,[r7,#268]
 291:../Dave/Generated/CMSIS_DSP/TransformFunctions/arm_cfft_radix2_q15.c **** 
 292:../Dave/Generated/CMSIS_DSP/TransformFunctions/arm_cfft_radix2_q15.c ****     R = __QSUB16(T, S);
 892              	 .loc 1 292 0 discriminator 3
 893 063e D7F81431 	 ldr r3,[r7,#276]
 894 0642 D7F80C21 	 ldr r2,[r7,#268]
 895 0646 FB63     	 str r3,[r7,#60]
 896 0648 07F13803 	 add r3,r7,#56
 897 064c 1A60     	 str r2,[r3]
 898              	.LBB110:
 899              	.LBB111:
 990:C:\Workspaces\DAVE-4.1\Flightcontroller_PWM_CopterRocks_Working/Libraries/CMSIS/Include\cmsis_gcc.h ****   return(result);
 900              	 .loc 2 990 0 discriminator 3
 901 064e FB6B     	 ldr r3,[r7,#60]
 902 0650 07F13802 	 add r2,r7,#56
 903 0654 1268     	 ldr r2,[r2]
 904              	
 905 0656 D3FA12F2 	 qsub16 r2,r3,r2
 906              	
 907              	 .thumb
 908 065a 07F13403 	 add r3,r7,#52
 909 065e 1A60     	 str r2,[r3]
 991:C:\Workspaces\DAVE-4.1\Flightcontroller_PWM_CopterRocks_Working/Libraries/CMSIS/Include\cmsis_gcc.h **** }
 910              	 .loc 2 991 0 discriminator 3
 911 0660 07F13403 	 add r3,r7,#52
 912 0664 1B68     	 ldr r3,[r3]
 913              	.LBE111:
 914              	.LBE110:
 915              	 .loc 1 292 0 discriminator 3
 916 0666 C7F80831 	 str r3,[r7,#264]
 293:../Dave/Generated/CMSIS_DSP/TransformFunctions/arm_cfft_radix2_q15.c **** 
 294:../Dave/Generated/CMSIS_DSP/TransformFunctions/arm_cfft_radix2_q15.c ****     _SIMD32_OFFSET(pSrc + (2 * i)) = __QADD16(T, S);
 917              	 .loc 1 294 0 discriminator 3
 918 066a D7F83431 	 ldr r3,[r7,#308]
 919 066e 9B00     	 lsls r3,r3,#2
 920 0670 07F10C02 	 add r2,r7,#12
 921 0674 1268     	 ldr r2,[r2]
 922 0676 1344     	 add r3,r3,r2
 923 0678 D7F81401 	 ldr r0,[r7,#276]
 924 067c D7F80C11 	 ldr r1,[r7,#268]
 925 0680 07F13002 	 add r2,r7,#48
 926 0684 1060     	 str r0,[r2]
 927 0686 07F12C02 	 add r2,r7,#44
 928 068a 1160     	 str r1,[r2]
 929              	.LBB112:
 930              	.LBB113:
 942:C:\Workspaces\DAVE-4.1\Flightcontroller_PWM_CopterRocks_Working/Libraries/CMSIS/Include\cmsis_gcc.h ****   return(result);
 931              	 .loc 2 942 0 discriminator 3
 932 068c 07F13002 	 add r2,r7,#48
 933 0690 1268     	 ldr r2,[r2]
 934 0692 07F12C01 	 add r1,r7,#44
 935 0696 0968     	 ldr r1,[r1]
 936              	
 937 0698 92FA11F1 	 qadd16 r1,r2,r1
 938              	
 939              	 .thumb
 940 069c 07F12802 	 add r2,r7,#40
 941 06a0 1160     	 str r1,[r2]
 943:C:\Workspaces\DAVE-4.1\Flightcontroller_PWM_CopterRocks_Working/Libraries/CMSIS/Include\cmsis_gcc.h **** }
 942              	 .loc 2 943 0 discriminator 3
 943 06a2 07F12802 	 add r2,r7,#40
 944 06a6 1268     	 ldr r2,[r2]
 945              	.LBE113:
 946              	.LBE112:
 947              	 .loc 1 294 0 discriminator 3
 948 06a8 1A60     	 str r2,[r3]
 295:../Dave/Generated/CMSIS_DSP/TransformFunctions/arm_cfft_radix2_q15.c **** 
 296:../Dave/Generated/CMSIS_DSP/TransformFunctions/arm_cfft_radix2_q15.c ****     _SIMD32_OFFSET(pSrc + (2u * l)) = R;
 949              	 .loc 1 296 0 discriminator 3
 950 06aa D7F81831 	 ldr r3,[r7,#280]
 951 06ae 9B00     	 lsls r3,r3,#2
 952 06b0 07F10C02 	 add r2,r7,#12
 953 06b4 1268     	 ldr r2,[r2]
 954 06b6 1344     	 add r3,r3,r2
 955 06b8 D7F80821 	 ldr r2,[r7,#264]
 956 06bc 1A60     	 str r2,[r3]
 297:../Dave/Generated/CMSIS_DSP/TransformFunctions/arm_cfft_radix2_q15.c **** 
 298:../Dave/Generated/CMSIS_DSP/TransformFunctions/arm_cfft_radix2_q15.c ****     i += n1;
 957              	 .loc 1 298 0 discriminator 3
 958 06be D7F83421 	 ldr r2,[r7,#308]
 959 06c2 D7F82031 	 ldr r3,[r7,#288]
 960 06c6 1344     	 add r3,r3,r2
 961 06c8 C7F83431 	 str r3,[r7,#308]
 299:../Dave/Generated/CMSIS_DSP/TransformFunctions/arm_cfft_radix2_q15.c ****     l = i + n2;
 962              	 .loc 1 299 0 discriminator 3
 963 06cc D7F83421 	 ldr r2,[r7,#308]
 964 06d0 D7F82831 	 ldr r3,[r7,#296]
 965 06d4 1344     	 add r3,r3,r2
 966 06d6 C7F81831 	 str r3,[r7,#280]
 300:../Dave/Generated/CMSIS_DSP/TransformFunctions/arm_cfft_radix2_q15.c **** 
 301:../Dave/Generated/CMSIS_DSP/TransformFunctions/arm_cfft_radix2_q15.c ****     T = _SIMD32_OFFSET(pSrc + (2 * i));
 967              	 .loc 1 301 0 discriminator 3
 968 06da D7F83431 	 ldr r3,[r7,#308]
 969 06de 9B00     	 lsls r3,r3,#2
 970 06e0 07F10C02 	 add r2,r7,#12
 971 06e4 1268     	 ldr r2,[r2]
 972 06e6 1344     	 add r3,r3,r2
 973 06e8 1B68     	 ldr r3,[r3]
 974 06ea C7F81431 	 str r3,[r7,#276]
 302:../Dave/Generated/CMSIS_DSP/TransformFunctions/arm_cfft_radix2_q15.c **** 
 303:../Dave/Generated/CMSIS_DSP/TransformFunctions/arm_cfft_radix2_q15.c ****     S = _SIMD32_OFFSET(pSrc + (2 * l));
 975              	 .loc 1 303 0 discriminator 3
 976 06ee D7F81831 	 ldr r3,[r7,#280]
 977 06f2 9B00     	 lsls r3,r3,#2
 978 06f4 07F10C02 	 add r2,r7,#12
 979 06f8 1268     	 ldr r2,[r2]
 980 06fa 1344     	 add r3,r3,r2
 981 06fc 1B68     	 ldr r3,[r3]
 982 06fe C7F80C31 	 str r3,[r7,#268]
 304:../Dave/Generated/CMSIS_DSP/TransformFunctions/arm_cfft_radix2_q15.c **** 
 305:../Dave/Generated/CMSIS_DSP/TransformFunctions/arm_cfft_radix2_q15.c ****     R = __QSUB16(T, S);
 983              	 .loc 1 305 0 discriminator 3
 984 0702 D7F81411 	 ldr r1,[r7,#276]
 985 0706 D7F80C21 	 ldr r2,[r7,#268]
 986 070a 07F12403 	 add r3,r7,#36
 987 070e 1960     	 str r1,[r3]
 988 0710 07F12003 	 add r3,r7,#32
 989 0714 1A60     	 str r2,[r3]
 990              	.LBB114:
 991              	.LBB115:
 990:C:\Workspaces\DAVE-4.1\Flightcontroller_PWM_CopterRocks_Working/Libraries/CMSIS/Include\cmsis_gcc.h ****   return(result);
 992              	 .loc 2 990 0 discriminator 3
 993 0716 07F12403 	 add r3,r7,#36
 994 071a 1B68     	 ldr r3,[r3]
 995 071c 07F12002 	 add r2,r7,#32
 996 0720 1268     	 ldr r2,[r2]
 997              	
 998 0722 D3FA12F2 	 qsub16 r2,r3,r2
 999              	
 1000              	 .thumb
 1001 0726 07F11C03 	 add r3,r7,#28
 1002 072a 1A60     	 str r2,[r3]
 991:C:\Workspaces\DAVE-4.1\Flightcontroller_PWM_CopterRocks_Working/Libraries/CMSIS/Include\cmsis_gcc.h **** }
 1003              	 .loc 2 991 0 discriminator 3
 1004 072c 07F11C03 	 add r3,r7,#28
 1005 0730 1B68     	 ldr r3,[r3]
 1006              	.LBE115:
 1007              	.LBE114:
 1008              	 .loc 1 305 0 discriminator 3
 1009 0732 C7F80831 	 str r3,[r7,#264]
 306:../Dave/Generated/CMSIS_DSP/TransformFunctions/arm_cfft_radix2_q15.c **** 
 307:../Dave/Generated/CMSIS_DSP/TransformFunctions/arm_cfft_radix2_q15.c ****     _SIMD32_OFFSET(pSrc + (2 * i)) = __QADD16(T, S);
 1010              	 .loc 1 307 0 discriminator 3
 1011 0736 D7F83431 	 ldr r3,[r7,#308]
 1012 073a 9B00     	 lsls r3,r3,#2
 1013 073c 07F10C02 	 add r2,r7,#12
 1014 0740 1268     	 ldr r2,[r2]
 1015 0742 1344     	 add r3,r3,r2
 1016 0744 D7F81401 	 ldr r0,[r7,#276]
 1017 0748 D7F80C11 	 ldr r1,[r7,#268]
 1018 074c 07F11802 	 add r2,r7,#24
 1019 0750 1060     	 str r0,[r2]
 1020 0752 07F11402 	 add r2,r7,#20
 1021 0756 1160     	 str r1,[r2]
 1022              	.LBB116:
 1023              	.LBB117:
 942:C:\Workspaces\DAVE-4.1\Flightcontroller_PWM_CopterRocks_Working/Libraries/CMSIS/Include\cmsis_gcc.h ****   return(result);
 1024              	 .loc 2 942 0 discriminator 3
 1025 0758 07F11802 	 add r2,r7,#24
 1026 075c 1268     	 ldr r2,[r2]
 1027 075e 07F11401 	 add r1,r7,#20
 1028 0762 0968     	 ldr r1,[r1]
 1029              	
 1030 0764 92FA11F1 	 qadd16 r1,r2,r1
 1031              	
 1032              	 .thumb
 1033 0768 07F11002 	 add r2,r7,#16
 1034 076c 1160     	 str r1,[r2]
 943:C:\Workspaces\DAVE-4.1\Flightcontroller_PWM_CopterRocks_Working/Libraries/CMSIS/Include\cmsis_gcc.h **** }
 1035              	 .loc 2 943 0 discriminator 3
 1036 076e 07F11002 	 add r2,r7,#16
 1037 0772 1268     	 ldr r2,[r2]
 1038              	.LBE117:
 1039              	.LBE116:
 1040              	 .loc 1 307 0 discriminator 3
 1041 0774 1A60     	 str r2,[r3]
 308:../Dave/Generated/CMSIS_DSP/TransformFunctions/arm_cfft_radix2_q15.c **** 
