   1              	 .syntax unified
   2              	 .cpu cortex-m4
   3              	 .eabi_attribute 27,3
   4              	 .fpu fpv4-sp-d16
   5              	 .eabi_attribute 20,1
   6              	 .eabi_attribute 21,1
   7              	 .eabi_attribute 23,3
   8              	 .eabi_attribute 24,1
   9              	 .eabi_attribute 25,1
  10              	 .eabi_attribute 26,1
  11              	 .eabi_attribute 30,6
  12              	 .eabi_attribute 34,1
  13              	 .eabi_attribute 18,4
  14              	 .thumb
  15              	 .file "arm_cfft_radix4_q31.c"
  16              	 .text
  17              	.Ltext0:
  18              	 .cfi_sections .debug_frame
  19              	 .section .text.arm_cfft_radix4_q31,"ax",%progbits
  20              	 .align 2
  21              	 .global arm_cfft_radix4_q31
  22              	 .thumb
  23              	 .thumb_func
  25              	arm_cfft_radix4_q31:
  26              	.LFB139:
  27              	 .file 1 "../Dave/Generated/CMSIS_DSP/TransformFunctions/arm_cfft_radix4_q31.c"
   1:../Dave/Generated/CMSIS_DSP/TransformFunctions/arm_cfft_radix4_q31.c **** /* ----------------------------------------------------------------------    
   2:../Dave/Generated/CMSIS_DSP/TransformFunctions/arm_cfft_radix4_q31.c **** * Copyright (C) 2010-2014 ARM Limited. All rights reserved.    
   3:../Dave/Generated/CMSIS_DSP/TransformFunctions/arm_cfft_radix4_q31.c **** *    
   4:../Dave/Generated/CMSIS_DSP/TransformFunctions/arm_cfft_radix4_q31.c **** * $Date:        31. July 2014 
   5:../Dave/Generated/CMSIS_DSP/TransformFunctions/arm_cfft_radix4_q31.c **** * $Revision: 	V1.4.4  
   6:../Dave/Generated/CMSIS_DSP/TransformFunctions/arm_cfft_radix4_q31.c **** *    
   7:../Dave/Generated/CMSIS_DSP/TransformFunctions/arm_cfft_radix4_q31.c **** * Project: 	    CMSIS DSP Library    
   8:../Dave/Generated/CMSIS_DSP/TransformFunctions/arm_cfft_radix4_q31.c **** * Title:	    arm_cfft_radix4_q31.c    
   9:../Dave/Generated/CMSIS_DSP/TransformFunctions/arm_cfft_radix4_q31.c **** *    
  10:../Dave/Generated/CMSIS_DSP/TransformFunctions/arm_cfft_radix4_q31.c **** * Description:	This file has function definition of Radix-4 FFT & IFFT function and    
  11:../Dave/Generated/CMSIS_DSP/TransformFunctions/arm_cfft_radix4_q31.c **** *				In-place bit reversal using bit reversal table    
  12:../Dave/Generated/CMSIS_DSP/TransformFunctions/arm_cfft_radix4_q31.c **** *    
  13:../Dave/Generated/CMSIS_DSP/TransformFunctions/arm_cfft_radix4_q31.c **** * Target Processor: Cortex-M4/Cortex-M3/Cortex-M0
  14:../Dave/Generated/CMSIS_DSP/TransformFunctions/arm_cfft_radix4_q31.c **** *  
  15:../Dave/Generated/CMSIS_DSP/TransformFunctions/arm_cfft_radix4_q31.c **** * Redistribution and use in source and binary forms, with or without 
  16:../Dave/Generated/CMSIS_DSP/TransformFunctions/arm_cfft_radix4_q31.c **** * modification, are permitted provided that the following conditions
  17:../Dave/Generated/CMSIS_DSP/TransformFunctions/arm_cfft_radix4_q31.c **** * are met:
  18:../Dave/Generated/CMSIS_DSP/TransformFunctions/arm_cfft_radix4_q31.c **** *   - Redistributions of source code must retain the above copyright
  19:../Dave/Generated/CMSIS_DSP/TransformFunctions/arm_cfft_radix4_q31.c **** *     notice, this list of conditions and the following disclaimer.
  20:../Dave/Generated/CMSIS_DSP/TransformFunctions/arm_cfft_radix4_q31.c **** *   - Redistributions in binary form must reproduce the above copyright
  21:../Dave/Generated/CMSIS_DSP/TransformFunctions/arm_cfft_radix4_q31.c **** *     notice, this list of conditions and the following disclaimer in
  22:../Dave/Generated/CMSIS_DSP/TransformFunctions/arm_cfft_radix4_q31.c **** *     the documentation and/or other materials provided with the 
  23:../Dave/Generated/CMSIS_DSP/TransformFunctions/arm_cfft_radix4_q31.c **** *     distribution.
  24:../Dave/Generated/CMSIS_DSP/TransformFunctions/arm_cfft_radix4_q31.c **** *   - Neither the name of ARM LIMITED nor the names of its contributors
  25:../Dave/Generated/CMSIS_DSP/TransformFunctions/arm_cfft_radix4_q31.c **** *     may be used to endorse or promote products derived from this
  26:../Dave/Generated/CMSIS_DSP/TransformFunctions/arm_cfft_radix4_q31.c **** *     software without specific prior written permission.
  27:../Dave/Generated/CMSIS_DSP/TransformFunctions/arm_cfft_radix4_q31.c **** *
  28:../Dave/Generated/CMSIS_DSP/TransformFunctions/arm_cfft_radix4_q31.c **** * THIS SOFTWARE IS PROVIDED BY THE COPYRIGHT HOLDERS AND CONTRIBUTORS
  29:../Dave/Generated/CMSIS_DSP/TransformFunctions/arm_cfft_radix4_q31.c **** * "AS IS" AND ANY EXPRESS OR IMPLIED WARRANTIES, INCLUDING, BUT NOT
  30:../Dave/Generated/CMSIS_DSP/TransformFunctions/arm_cfft_radix4_q31.c **** * LIMITED TO, THE IMPLIED WARRANTIES OF MERCHANTABILITY AND FITNESS
  31:../Dave/Generated/CMSIS_DSP/TransformFunctions/arm_cfft_radix4_q31.c **** * FOR A PARTICULAR PURPOSE ARE DISCLAIMED. IN NO EVENT SHALL THE 
  32:../Dave/Generated/CMSIS_DSP/TransformFunctions/arm_cfft_radix4_q31.c **** * COPYRIGHT OWNER OR CONTRIBUTORS BE LIABLE FOR ANY DIRECT, INDIRECT,
  33:../Dave/Generated/CMSIS_DSP/TransformFunctions/arm_cfft_radix4_q31.c **** * INCIDENTAL, SPECIAL, EXEMPLARY, OR CONSEQUENTIAL DAMAGES (INCLUDING,
  34:../Dave/Generated/CMSIS_DSP/TransformFunctions/arm_cfft_radix4_q31.c **** * BUT NOT LIMITED TO, PROCUREMENT OF SUBSTITUTE GOODS OR SERVICES;
  35:../Dave/Generated/CMSIS_DSP/TransformFunctions/arm_cfft_radix4_q31.c **** * LOSS OF USE, DATA, OR PROFITS; OR BUSINESS INTERRUPTION) HOWEVER
  36:../Dave/Generated/CMSIS_DSP/TransformFunctions/arm_cfft_radix4_q31.c **** * CAUSED AND ON ANY THEORY OF LIABILITY, WHETHER IN CONTRACT, STRICT
  37:../Dave/Generated/CMSIS_DSP/TransformFunctions/arm_cfft_radix4_q31.c **** * LIABILITY, OR TORT (INCLUDING NEGLIGENCE OR OTHERWISE) ARISING IN
  38:../Dave/Generated/CMSIS_DSP/TransformFunctions/arm_cfft_radix4_q31.c **** * ANY WAY OUT OF THE USE OF THIS SOFTWARE, EVEN IF ADVISED OF THE
  39:../Dave/Generated/CMSIS_DSP/TransformFunctions/arm_cfft_radix4_q31.c **** * POSSIBILITY OF SUCH DAMAGE.     
  40:../Dave/Generated/CMSIS_DSP/TransformFunctions/arm_cfft_radix4_q31.c **** * -------------------------------------------------------------------- */
  41:../Dave/Generated/CMSIS_DSP/TransformFunctions/arm_cfft_radix4_q31.c **** 
  42:../Dave/Generated/CMSIS_DSP/TransformFunctions/arm_cfft_radix4_q31.c **** #include "CMSIS_DSP/cmsis_dsp.h"
  43:../Dave/Generated/CMSIS_DSP/TransformFunctions/arm_cfft_radix4_q31.c **** 
  44:../Dave/Generated/CMSIS_DSP/TransformFunctions/arm_cfft_radix4_q31.c **** void arm_radix4_butterfly_inverse_q31(
  45:../Dave/Generated/CMSIS_DSP/TransformFunctions/arm_cfft_radix4_q31.c **** q31_t * pSrc,
  46:../Dave/Generated/CMSIS_DSP/TransformFunctions/arm_cfft_radix4_q31.c **** uint32_t fftLen,
  47:../Dave/Generated/CMSIS_DSP/TransformFunctions/arm_cfft_radix4_q31.c **** q31_t * pCoef,
  48:../Dave/Generated/CMSIS_DSP/TransformFunctions/arm_cfft_radix4_q31.c **** uint32_t twidCoefModifier);
  49:../Dave/Generated/CMSIS_DSP/TransformFunctions/arm_cfft_radix4_q31.c **** 
  50:../Dave/Generated/CMSIS_DSP/TransformFunctions/arm_cfft_radix4_q31.c **** void arm_radix4_butterfly_q31(
  51:../Dave/Generated/CMSIS_DSP/TransformFunctions/arm_cfft_radix4_q31.c **** q31_t * pSrc,
  52:../Dave/Generated/CMSIS_DSP/TransformFunctions/arm_cfft_radix4_q31.c **** uint32_t fftLen,
  53:../Dave/Generated/CMSIS_DSP/TransformFunctions/arm_cfft_radix4_q31.c **** q31_t * pCoef,
  54:../Dave/Generated/CMSIS_DSP/TransformFunctions/arm_cfft_radix4_q31.c **** uint32_t twidCoefModifier);
  55:../Dave/Generated/CMSIS_DSP/TransformFunctions/arm_cfft_radix4_q31.c **** 
  56:../Dave/Generated/CMSIS_DSP/TransformFunctions/arm_cfft_radix4_q31.c **** void arm_bitreversal_q31(
  57:../Dave/Generated/CMSIS_DSP/TransformFunctions/arm_cfft_radix4_q31.c **** q31_t * pSrc,
  58:../Dave/Generated/CMSIS_DSP/TransformFunctions/arm_cfft_radix4_q31.c **** uint32_t fftLen,
  59:../Dave/Generated/CMSIS_DSP/TransformFunctions/arm_cfft_radix4_q31.c **** uint16_t bitRevFactor,
  60:../Dave/Generated/CMSIS_DSP/TransformFunctions/arm_cfft_radix4_q31.c **** uint16_t * pBitRevTab);
  61:../Dave/Generated/CMSIS_DSP/TransformFunctions/arm_cfft_radix4_q31.c **** 
  62:../Dave/Generated/CMSIS_DSP/TransformFunctions/arm_cfft_radix4_q31.c **** /**    
  63:../Dave/Generated/CMSIS_DSP/TransformFunctions/arm_cfft_radix4_q31.c ****  * @ingroup groupTransforms    
  64:../Dave/Generated/CMSIS_DSP/TransformFunctions/arm_cfft_radix4_q31.c ****  */
  65:../Dave/Generated/CMSIS_DSP/TransformFunctions/arm_cfft_radix4_q31.c **** 
  66:../Dave/Generated/CMSIS_DSP/TransformFunctions/arm_cfft_radix4_q31.c **** /**    
  67:../Dave/Generated/CMSIS_DSP/TransformFunctions/arm_cfft_radix4_q31.c ****  * @addtogroup ComplexFFT    
  68:../Dave/Generated/CMSIS_DSP/TransformFunctions/arm_cfft_radix4_q31.c ****  * @{    
  69:../Dave/Generated/CMSIS_DSP/TransformFunctions/arm_cfft_radix4_q31.c ****  */
  70:../Dave/Generated/CMSIS_DSP/TransformFunctions/arm_cfft_radix4_q31.c **** 
  71:../Dave/Generated/CMSIS_DSP/TransformFunctions/arm_cfft_radix4_q31.c **** /**    
  72:../Dave/Generated/CMSIS_DSP/TransformFunctions/arm_cfft_radix4_q31.c ****  * @details    
  73:../Dave/Generated/CMSIS_DSP/TransformFunctions/arm_cfft_radix4_q31.c ****  * @brief Processing function for the Q31 CFFT/CIFFT.    
  74:../Dave/Generated/CMSIS_DSP/TransformFunctions/arm_cfft_radix4_q31.c ****  * @deprecated Do not use this function.  It has been superseded by \ref arm_cfft_q31 and will be r
  75:../Dave/Generated/CMSIS_DSP/TransformFunctions/arm_cfft_radix4_q31.c ****  * @param[in]      *S    points to an instance of the Q31 CFFT/CIFFT structure.   
  76:../Dave/Generated/CMSIS_DSP/TransformFunctions/arm_cfft_radix4_q31.c ****  * @param[in, out] *pSrc points to the complex data buffer of size <code>2*fftLen</code>. Processin
  77:../Dave/Generated/CMSIS_DSP/TransformFunctions/arm_cfft_radix4_q31.c ****  * @return none.    
  78:../Dave/Generated/CMSIS_DSP/TransformFunctions/arm_cfft_radix4_q31.c ****  *     
  79:../Dave/Generated/CMSIS_DSP/TransformFunctions/arm_cfft_radix4_q31.c ****  * \par Input and output formats:    
  80:../Dave/Generated/CMSIS_DSP/TransformFunctions/arm_cfft_radix4_q31.c ****  * \par    
  81:../Dave/Generated/CMSIS_DSP/TransformFunctions/arm_cfft_radix4_q31.c ****  * Internally input is downscaled by 2 for every stage to avoid saturations inside CFFT/CIFFT proce
  82:../Dave/Generated/CMSIS_DSP/TransformFunctions/arm_cfft_radix4_q31.c ****  * Hence the output format is different for different FFT sizes.    
  83:../Dave/Generated/CMSIS_DSP/TransformFunctions/arm_cfft_radix4_q31.c ****  * The input and output formats for different FFT sizes and number of bits to upscale are mentioned
  84:../Dave/Generated/CMSIS_DSP/TransformFunctions/arm_cfft_radix4_q31.c ****  * \par   
  85:../Dave/Generated/CMSIS_DSP/TransformFunctions/arm_cfft_radix4_q31.c ****  * \image html CFFTQ31.gif "Input and Output Formats for Q31 CFFT"    
  86:../Dave/Generated/CMSIS_DSP/TransformFunctions/arm_cfft_radix4_q31.c ****  * \image html CIFFTQ31.gif "Input and Output Formats for Q31 CIFFT"    
  87:../Dave/Generated/CMSIS_DSP/TransformFunctions/arm_cfft_radix4_q31.c ****  *    
  88:../Dave/Generated/CMSIS_DSP/TransformFunctions/arm_cfft_radix4_q31.c ****  */
  89:../Dave/Generated/CMSIS_DSP/TransformFunctions/arm_cfft_radix4_q31.c **** 
  90:../Dave/Generated/CMSIS_DSP/TransformFunctions/arm_cfft_radix4_q31.c **** void arm_cfft_radix4_q31(
  91:../Dave/Generated/CMSIS_DSP/TransformFunctions/arm_cfft_radix4_q31.c ****   const arm_cfft_radix4_instance_q31 * S,
  92:../Dave/Generated/CMSIS_DSP/TransformFunctions/arm_cfft_radix4_q31.c ****   q31_t * pSrc)
  93:../Dave/Generated/CMSIS_DSP/TransformFunctions/arm_cfft_radix4_q31.c **** {
  28              	 .loc 1 93 0
  29              	 .cfi_startproc
  30              	 
  31              	 
  32 0000 80B5     	 push {r7,lr}
  33              	.LCFI0:
  34              	 .cfi_def_cfa_offset 8
  35              	 .cfi_offset 7,-8
  36              	 .cfi_offset 14,-4
  37 0002 82B0     	 sub sp,sp,#8
  38              	.LCFI1:
  39              	 .cfi_def_cfa_offset 16
  40 0004 00AF     	 add r7,sp,#0
  41              	.LCFI2:
  42              	 .cfi_def_cfa_register 7
  43 0006 7860     	 str r0,[r7,#4]
  44 0008 3960     	 str r1,[r7]
  94:../Dave/Generated/CMSIS_DSP/TransformFunctions/arm_cfft_radix4_q31.c ****   if(S->ifftFlag == 1u)
  45              	 .loc 1 94 0
  46 000a 7B68     	 ldr r3,[r7,#4]
  47 000c 9B78     	 ldrb r3,[r3,#2]
  48 000e 012B     	 cmp r3,#1
  49 0010 0AD1     	 bne .L2
  95:../Dave/Generated/CMSIS_DSP/TransformFunctions/arm_cfft_radix4_q31.c ****   {
  96:../Dave/Generated/CMSIS_DSP/TransformFunctions/arm_cfft_radix4_q31.c ****     /* Complex IFFT radix-4 */
  97:../Dave/Generated/CMSIS_DSP/TransformFunctions/arm_cfft_radix4_q31.c ****     arm_radix4_butterfly_inverse_q31(pSrc, S->fftLen, S->pTwiddle,
  50              	 .loc 1 97 0
  51 0012 7B68     	 ldr r3,[r7,#4]
  52 0014 1B88     	 ldrh r3,[r3]
  53 0016 1946     	 mov r1,r3
  54 0018 7B68     	 ldr r3,[r7,#4]
  55 001a 5A68     	 ldr r2,[r3,#4]
  98:../Dave/Generated/CMSIS_DSP/TransformFunctions/arm_cfft_radix4_q31.c ****                                      S->twidCoefModifier);
  56              	 .loc 1 98 0
  57 001c 7B68     	 ldr r3,[r7,#4]
  58 001e 9B89     	 ldrh r3,[r3,#12]
  97:../Dave/Generated/CMSIS_DSP/TransformFunctions/arm_cfft_radix4_q31.c ****                                      S->twidCoefModifier);
  59              	 .loc 1 97 0
  60 0020 3868     	 ldr r0,[r7]
  61 0022 FFF7FEFF 	 bl arm_radix4_butterfly_inverse_q31
  62 0026 09E0     	 b .L3
  63              	.L2:
  99:../Dave/Generated/CMSIS_DSP/TransformFunctions/arm_cfft_radix4_q31.c ****   }
 100:../Dave/Generated/CMSIS_DSP/TransformFunctions/arm_cfft_radix4_q31.c ****   else
 101:../Dave/Generated/CMSIS_DSP/TransformFunctions/arm_cfft_radix4_q31.c ****   {
 102:../Dave/Generated/CMSIS_DSP/TransformFunctions/arm_cfft_radix4_q31.c ****     /* Complex FFT radix-4 */
 103:../Dave/Generated/CMSIS_DSP/TransformFunctions/arm_cfft_radix4_q31.c ****     arm_radix4_butterfly_q31(pSrc, S->fftLen, S->pTwiddle,
  64              	 .loc 1 103 0
  65 0028 7B68     	 ldr r3,[r7,#4]
  66 002a 1B88     	 ldrh r3,[r3]
  67 002c 1946     	 mov r1,r3
  68 002e 7B68     	 ldr r3,[r7,#4]
  69 0030 5A68     	 ldr r2,[r3,#4]
 104:../Dave/Generated/CMSIS_DSP/TransformFunctions/arm_cfft_radix4_q31.c ****                              S->twidCoefModifier);
  70              	 .loc 1 104 0
  71 0032 7B68     	 ldr r3,[r7,#4]
  72 0034 9B89     	 ldrh r3,[r3,#12]
 103:../Dave/Generated/CMSIS_DSP/TransformFunctions/arm_cfft_radix4_q31.c ****                              S->twidCoefModifier);
  73              	 .loc 1 103 0
  74 0036 3868     	 ldr r0,[r7]
  75 0038 FFF7FEFF 	 bl arm_radix4_butterfly_q31
  76              	.L3:
 105:../Dave/Generated/CMSIS_DSP/TransformFunctions/arm_cfft_radix4_q31.c ****   }
 106:../Dave/Generated/CMSIS_DSP/TransformFunctions/arm_cfft_radix4_q31.c **** 
 107:../Dave/Generated/CMSIS_DSP/TransformFunctions/arm_cfft_radix4_q31.c **** 
 108:../Dave/Generated/CMSIS_DSP/TransformFunctions/arm_cfft_radix4_q31.c ****   if(S->bitReverseFlag == 1u)
  77              	 .loc 1 108 0
  78 003c 7B68     	 ldr r3,[r7,#4]
  79 003e DB78     	 ldrb r3,[r3,#3]
  80 0040 012B     	 cmp r3,#1
  81 0042 09D1     	 bne .L1
 109:../Dave/Generated/CMSIS_DSP/TransformFunctions/arm_cfft_radix4_q31.c ****   {
 110:../Dave/Generated/CMSIS_DSP/TransformFunctions/arm_cfft_radix4_q31.c ****     /*  Bit Reversal */
 111:../Dave/Generated/CMSIS_DSP/TransformFunctions/arm_cfft_radix4_q31.c ****     arm_bitreversal_q31(pSrc, S->fftLen, S->bitRevFactor, S->pBitRevTable);
  82              	 .loc 1 111 0
  83 0044 7B68     	 ldr r3,[r7,#4]
  84 0046 1B88     	 ldrh r3,[r3]
  85 0048 1946     	 mov r1,r3
  86 004a 7B68     	 ldr r3,[r7,#4]
  87 004c DA89     	 ldrh r2,[r3,#14]
  88 004e 7B68     	 ldr r3,[r7,#4]
  89 0050 9B68     	 ldr r3,[r3,#8]
  90 0052 3868     	 ldr r0,[r7]
  91 0054 FFF7FEFF 	 bl arm_bitreversal_q31
  92              	.L1:
 112:../Dave/Generated/CMSIS_DSP/TransformFunctions/arm_cfft_radix4_q31.c ****   }
 113:../Dave/Generated/CMSIS_DSP/TransformFunctions/arm_cfft_radix4_q31.c **** 
 114:../Dave/Generated/CMSIS_DSP/TransformFunctions/arm_cfft_radix4_q31.c **** }
  93              	 .loc 1 114 0
  94 0058 0837     	 adds r7,r7,#8
  95              	.LCFI3:
  96              	 .cfi_def_cfa_offset 8
  97 005a BD46     	 mov sp,r7
  98              	.LCFI4:
  99              	 .cfi_def_cfa_register 13
 100              	 
 101 005c 80BD     	 pop {r7,pc}
 102              	 .cfi_endproc
 103              	.LFE139:
 105 005e 00BF     	 .section .text.arm_radix4_butterfly_q31,"ax",%progbits
 106              	 .align 2
 107              	 .global arm_radix4_butterfly_q31
 108              	 .thumb
 109              	 .thumb_func
 111              	arm_radix4_butterfly_q31:
 112              	.LFB140:
 115:../Dave/Generated/CMSIS_DSP/TransformFunctions/arm_cfft_radix4_q31.c **** 
 116:../Dave/Generated/CMSIS_DSP/TransformFunctions/arm_cfft_radix4_q31.c **** /**    
 117:../Dave/Generated/CMSIS_DSP/TransformFunctions/arm_cfft_radix4_q31.c ****  * @} end of ComplexFFT group    
 118:../Dave/Generated/CMSIS_DSP/TransformFunctions/arm_cfft_radix4_q31.c ****  */
 119:../Dave/Generated/CMSIS_DSP/TransformFunctions/arm_cfft_radix4_q31.c **** 
 120:../Dave/Generated/CMSIS_DSP/TransformFunctions/arm_cfft_radix4_q31.c **** /*    
 121:../Dave/Generated/CMSIS_DSP/TransformFunctions/arm_cfft_radix4_q31.c **** * Radix-4 FFT algorithm used is :    
 122:../Dave/Generated/CMSIS_DSP/TransformFunctions/arm_cfft_radix4_q31.c **** *    
 123:../Dave/Generated/CMSIS_DSP/TransformFunctions/arm_cfft_radix4_q31.c **** * Input real and imaginary data:    
 124:../Dave/Generated/CMSIS_DSP/TransformFunctions/arm_cfft_radix4_q31.c **** * x(n) = xa + j * ya    
 125:../Dave/Generated/CMSIS_DSP/TransformFunctions/arm_cfft_radix4_q31.c **** * x(n+N/4 ) = xb + j * yb    
 126:../Dave/Generated/CMSIS_DSP/TransformFunctions/arm_cfft_radix4_q31.c **** * x(n+N/2 ) = xc + j * yc    
 127:../Dave/Generated/CMSIS_DSP/TransformFunctions/arm_cfft_radix4_q31.c **** * x(n+3N 4) = xd + j * yd    
 128:../Dave/Generated/CMSIS_DSP/TransformFunctions/arm_cfft_radix4_q31.c **** *    
 129:../Dave/Generated/CMSIS_DSP/TransformFunctions/arm_cfft_radix4_q31.c **** *    
 130:../Dave/Generated/CMSIS_DSP/TransformFunctions/arm_cfft_radix4_q31.c **** * Output real and imaginary data:    
 131:../Dave/Generated/CMSIS_DSP/TransformFunctions/arm_cfft_radix4_q31.c **** * x(4r) = xa'+ j * ya'    
 132:../Dave/Generated/CMSIS_DSP/TransformFunctions/arm_cfft_radix4_q31.c **** * x(4r+1) = xb'+ j * yb'    
 133:../Dave/Generated/CMSIS_DSP/TransformFunctions/arm_cfft_radix4_q31.c **** * x(4r+2) = xc'+ j * yc'    
 134:../Dave/Generated/CMSIS_DSP/TransformFunctions/arm_cfft_radix4_q31.c **** * x(4r+3) = xd'+ j * yd'    
 135:../Dave/Generated/CMSIS_DSP/TransformFunctions/arm_cfft_radix4_q31.c **** *    
 136:../Dave/Generated/CMSIS_DSP/TransformFunctions/arm_cfft_radix4_q31.c **** *    
 137:../Dave/Generated/CMSIS_DSP/TransformFunctions/arm_cfft_radix4_q31.c **** * Twiddle factors for radix-4 FFT:    
 138:../Dave/Generated/CMSIS_DSP/TransformFunctions/arm_cfft_radix4_q31.c **** * Wn = co1 + j * (- si1)    
 139:../Dave/Generated/CMSIS_DSP/TransformFunctions/arm_cfft_radix4_q31.c **** * W2n = co2 + j * (- si2)    
 140:../Dave/Generated/CMSIS_DSP/TransformFunctions/arm_cfft_radix4_q31.c **** * W3n = co3 + j * (- si3)    
 141:../Dave/Generated/CMSIS_DSP/TransformFunctions/arm_cfft_radix4_q31.c **** *    
 142:../Dave/Generated/CMSIS_DSP/TransformFunctions/arm_cfft_radix4_q31.c **** *  Butterfly implementation:    
 143:../Dave/Generated/CMSIS_DSP/TransformFunctions/arm_cfft_radix4_q31.c **** * xa' = xa + xb + xc + xd    
 144:../Dave/Generated/CMSIS_DSP/TransformFunctions/arm_cfft_radix4_q31.c **** * ya' = ya + yb + yc + yd    
 145:../Dave/Generated/CMSIS_DSP/TransformFunctions/arm_cfft_radix4_q31.c **** * xb' = (xa+yb-xc-yd)* co1 + (ya-xb-yc+xd)* (si1)    
 146:../Dave/Generated/CMSIS_DSP/TransformFunctions/arm_cfft_radix4_q31.c **** * yb' = (ya-xb-yc+xd)* co1 - (xa+yb-xc-yd)* (si1)    
 147:../Dave/Generated/CMSIS_DSP/TransformFunctions/arm_cfft_radix4_q31.c **** * xc' = (xa-xb+xc-xd)* co2 + (ya-yb+yc-yd)* (si2)    
 148:../Dave/Generated/CMSIS_DSP/TransformFunctions/arm_cfft_radix4_q31.c **** * yc' = (ya-yb+yc-yd)* co2 - (xa-xb+xc-xd)* (si2)    
 149:../Dave/Generated/CMSIS_DSP/TransformFunctions/arm_cfft_radix4_q31.c **** * xd' = (xa-yb-xc+yd)* co3 + (ya+xb-yc-xd)* (si3)    
 150:../Dave/Generated/CMSIS_DSP/TransformFunctions/arm_cfft_radix4_q31.c **** * yd' = (ya+xb-yc-xd)* co3 - (xa-yb-xc+yd)* (si3)    
 151:../Dave/Generated/CMSIS_DSP/TransformFunctions/arm_cfft_radix4_q31.c **** *    
 152:../Dave/Generated/CMSIS_DSP/TransformFunctions/arm_cfft_radix4_q31.c **** */
 153:../Dave/Generated/CMSIS_DSP/TransformFunctions/arm_cfft_radix4_q31.c **** 
 154:../Dave/Generated/CMSIS_DSP/TransformFunctions/arm_cfft_radix4_q31.c **** /**    
 155:../Dave/Generated/CMSIS_DSP/TransformFunctions/arm_cfft_radix4_q31.c ****  * @brief  Core function for the Q31 CFFT butterfly process.   
 156:../Dave/Generated/CMSIS_DSP/TransformFunctions/arm_cfft_radix4_q31.c ****  * @param[in, out] *pSrc            points to the in-place buffer of Q31 data type.   
 157:../Dave/Generated/CMSIS_DSP/TransformFunctions/arm_cfft_radix4_q31.c ****  * @param[in]      fftLen           length of the FFT.   
 158:../Dave/Generated/CMSIS_DSP/TransformFunctions/arm_cfft_radix4_q31.c ****  * @param[in]      *pCoef           points to twiddle coefficient buffer.   
 159:../Dave/Generated/CMSIS_DSP/TransformFunctions/arm_cfft_radix4_q31.c ****  * @param[in]      twidCoefModifier twiddle coefficient modifier that supports different size FFTs 
 160:../Dave/Generated/CMSIS_DSP/TransformFunctions/arm_cfft_radix4_q31.c ****  * @return none.   
 161:../Dave/Generated/CMSIS_DSP/TransformFunctions/arm_cfft_radix4_q31.c ****  */
 162:../Dave/Generated/CMSIS_DSP/TransformFunctions/arm_cfft_radix4_q31.c **** 
 163:../Dave/Generated/CMSIS_DSP/TransformFunctions/arm_cfft_radix4_q31.c **** void arm_radix4_butterfly_q31(
 164:../Dave/Generated/CMSIS_DSP/TransformFunctions/arm_cfft_radix4_q31.c ****   q31_t * pSrc,
 165:../Dave/Generated/CMSIS_DSP/TransformFunctions/arm_cfft_radix4_q31.c ****   uint32_t fftLen,
 166:../Dave/Generated/CMSIS_DSP/TransformFunctions/arm_cfft_radix4_q31.c ****   q31_t * pCoef,
 167:../Dave/Generated/CMSIS_DSP/TransformFunctions/arm_cfft_radix4_q31.c ****   uint32_t twidCoefModifier)
 168:../Dave/Generated/CMSIS_DSP/TransformFunctions/arm_cfft_radix4_q31.c **** {
 113              	 .loc 1 168 0
 114              	 .cfi_startproc
 115              	 
 116              	 
 117 0000 2DE9F04F 	 push {r4,r5,r6,r7,r8,r9,r10,fp,lr}
 118              	.LCFI5:
 119              	 .cfi_def_cfa_offset 36
 120              	 .cfi_offset 4,-36
 121              	 .cfi_offset 5,-32
 122              	 .cfi_offset 6,-28
 123              	 .cfi_offset 7,-24
 124              	 .cfi_offset 8,-20
 125              	 .cfi_offset 9,-16
 126              	 .cfi_offset 10,-12
 127              	 .cfi_offset 11,-8
 128              	 .cfi_offset 14,-4
 129 0004 EBB0     	 sub sp,sp,#428
 130              	.LCFI6:
 131              	 .cfi_def_cfa_offset 464
 132 0006 00AF     	 add r7,sp,#0
 133              	.LCFI7:
 134              	 .cfi_def_cfa_register 7
 135 0008 C7F8DC00 	 str r0,[r7,#220]
 136 000c C7F8D810 	 str r1,[r7,#216]
 137 0010 C7F8D420 	 str r2,[r7,#212]
 138 0014 C7F8D030 	 str r3,[r7,#208]
 169:../Dave/Generated/CMSIS_DSP/TransformFunctions/arm_cfft_radix4_q31.c **** #if defined(ARM_MATH_CM7)
 170:../Dave/Generated/CMSIS_DSP/TransformFunctions/arm_cfft_radix4_q31.c ****   uint32_t n1, n2, ia1, ia2, ia3, i0, i1, i2, i3, j, k;
 171:../Dave/Generated/CMSIS_DSP/TransformFunctions/arm_cfft_radix4_q31.c ****   q31_t t1, t2, r1, r2, s1, s2, co1, co2, co3, si1, si2, si3;
 172:../Dave/Generated/CMSIS_DSP/TransformFunctions/arm_cfft_radix4_q31.c **** 
 173:../Dave/Generated/CMSIS_DSP/TransformFunctions/arm_cfft_radix4_q31.c ****   q31_t xa, xb, xc, xd;
 174:../Dave/Generated/CMSIS_DSP/TransformFunctions/arm_cfft_radix4_q31.c ****   q31_t ya, yb, yc, yd;
 175:../Dave/Generated/CMSIS_DSP/TransformFunctions/arm_cfft_radix4_q31.c ****   q31_t xa_out, xb_out, xc_out, xd_out;
 176:../Dave/Generated/CMSIS_DSP/TransformFunctions/arm_cfft_radix4_q31.c ****   q31_t ya_out, yb_out, yc_out, yd_out;
 177:../Dave/Generated/CMSIS_DSP/TransformFunctions/arm_cfft_radix4_q31.c **** 
 178:../Dave/Generated/CMSIS_DSP/TransformFunctions/arm_cfft_radix4_q31.c ****   q31_t *ptr1;
 179:../Dave/Generated/CMSIS_DSP/TransformFunctions/arm_cfft_radix4_q31.c ****   q63_t xaya, xbyb, xcyc, xdyd;
 180:../Dave/Generated/CMSIS_DSP/TransformFunctions/arm_cfft_radix4_q31.c ****   /* Total process is divided into three stages */
 181:../Dave/Generated/CMSIS_DSP/TransformFunctions/arm_cfft_radix4_q31.c **** 
 182:../Dave/Generated/CMSIS_DSP/TransformFunctions/arm_cfft_radix4_q31.c ****   /* process first stage, middle stages, & last stage */
 183:../Dave/Generated/CMSIS_DSP/TransformFunctions/arm_cfft_radix4_q31.c **** 
 184:../Dave/Generated/CMSIS_DSP/TransformFunctions/arm_cfft_radix4_q31.c **** 
 185:../Dave/Generated/CMSIS_DSP/TransformFunctions/arm_cfft_radix4_q31.c ****   /* start of first stage process */
 186:../Dave/Generated/CMSIS_DSP/TransformFunctions/arm_cfft_radix4_q31.c **** 
 187:../Dave/Generated/CMSIS_DSP/TransformFunctions/arm_cfft_radix4_q31.c ****   /*  Initializations for the first stage */
 188:../Dave/Generated/CMSIS_DSP/TransformFunctions/arm_cfft_radix4_q31.c ****   n2 = fftLen;
 189:../Dave/Generated/CMSIS_DSP/TransformFunctions/arm_cfft_radix4_q31.c ****   n1 = n2;
 190:../Dave/Generated/CMSIS_DSP/TransformFunctions/arm_cfft_radix4_q31.c ****   /* n2 = fftLen/4 */
 191:../Dave/Generated/CMSIS_DSP/TransformFunctions/arm_cfft_radix4_q31.c ****   n2 >>= 2u;
 192:../Dave/Generated/CMSIS_DSP/TransformFunctions/arm_cfft_radix4_q31.c ****   i0 = 0u;
 193:../Dave/Generated/CMSIS_DSP/TransformFunctions/arm_cfft_radix4_q31.c ****   ia1 = 0u;
 194:../Dave/Generated/CMSIS_DSP/TransformFunctions/arm_cfft_radix4_q31.c **** 
 195:../Dave/Generated/CMSIS_DSP/TransformFunctions/arm_cfft_radix4_q31.c ****   j = n2;
 196:../Dave/Generated/CMSIS_DSP/TransformFunctions/arm_cfft_radix4_q31.c **** 
 197:../Dave/Generated/CMSIS_DSP/TransformFunctions/arm_cfft_radix4_q31.c ****   /*  Calculation of first stage */
 198:../Dave/Generated/CMSIS_DSP/TransformFunctions/arm_cfft_radix4_q31.c ****   do
 199:../Dave/Generated/CMSIS_DSP/TransformFunctions/arm_cfft_radix4_q31.c ****   {
 200:../Dave/Generated/CMSIS_DSP/TransformFunctions/arm_cfft_radix4_q31.c ****     /*  index calculation for the input as, */
 201:../Dave/Generated/CMSIS_DSP/TransformFunctions/arm_cfft_radix4_q31.c ****     /*  pSrc[i0 + 0], pSrc[i0 + fftLen/4], pSrc[i0 + fftLen/2u], pSrc[i0 + 3fftLen/4] */
 202:../Dave/Generated/CMSIS_DSP/TransformFunctions/arm_cfft_radix4_q31.c ****     i1 = i0 + n2;
 203:../Dave/Generated/CMSIS_DSP/TransformFunctions/arm_cfft_radix4_q31.c ****     i2 = i1 + n2;
 204:../Dave/Generated/CMSIS_DSP/TransformFunctions/arm_cfft_radix4_q31.c ****     i3 = i2 + n2;
 205:../Dave/Generated/CMSIS_DSP/TransformFunctions/arm_cfft_radix4_q31.c **** 
 206:../Dave/Generated/CMSIS_DSP/TransformFunctions/arm_cfft_radix4_q31.c ****     /* input is in 1.31(q31) format and provide 4 guard bits for the input */
 207:../Dave/Generated/CMSIS_DSP/TransformFunctions/arm_cfft_radix4_q31.c **** 
 208:../Dave/Generated/CMSIS_DSP/TransformFunctions/arm_cfft_radix4_q31.c ****     /*  Butterfly implementation */
 209:../Dave/Generated/CMSIS_DSP/TransformFunctions/arm_cfft_radix4_q31.c ****     /* xa + xc */
 210:../Dave/Generated/CMSIS_DSP/TransformFunctions/arm_cfft_radix4_q31.c ****     r1 = (pSrc[(2u * i0)] >> 4u) + (pSrc[(2u * i2)] >> 4u);
 211:../Dave/Generated/CMSIS_DSP/TransformFunctions/arm_cfft_radix4_q31.c ****     /* xa - xc */
 212:../Dave/Generated/CMSIS_DSP/TransformFunctions/arm_cfft_radix4_q31.c ****     r2 = (pSrc[2u * i0] >> 4u) - (pSrc[2u * i2] >> 4u);
 213:../Dave/Generated/CMSIS_DSP/TransformFunctions/arm_cfft_radix4_q31.c **** 
 214:../Dave/Generated/CMSIS_DSP/TransformFunctions/arm_cfft_radix4_q31.c ****     /* xb + xd */
 215:../Dave/Generated/CMSIS_DSP/TransformFunctions/arm_cfft_radix4_q31.c ****     t1 = (pSrc[2u * i1] >> 4u) + (pSrc[2u * i3] >> 4u);
 216:../Dave/Generated/CMSIS_DSP/TransformFunctions/arm_cfft_radix4_q31.c **** 
 217:../Dave/Generated/CMSIS_DSP/TransformFunctions/arm_cfft_radix4_q31.c ****     /* ya + yc */
 218:../Dave/Generated/CMSIS_DSP/TransformFunctions/arm_cfft_radix4_q31.c ****     s1 = (pSrc[(2u * i0) + 1u] >> 4u) + (pSrc[(2u * i2) + 1u] >> 4u);
 219:../Dave/Generated/CMSIS_DSP/TransformFunctions/arm_cfft_radix4_q31.c ****     /* ya - yc */
 220:../Dave/Generated/CMSIS_DSP/TransformFunctions/arm_cfft_radix4_q31.c ****     s2 = (pSrc[(2u * i0) + 1u] >> 4u) - (pSrc[(2u * i2) + 1u] >> 4u);
 221:../Dave/Generated/CMSIS_DSP/TransformFunctions/arm_cfft_radix4_q31.c **** 
 222:../Dave/Generated/CMSIS_DSP/TransformFunctions/arm_cfft_radix4_q31.c ****     /* xa' = xa + xb + xc + xd */
 223:../Dave/Generated/CMSIS_DSP/TransformFunctions/arm_cfft_radix4_q31.c ****     pSrc[2u * i0] = (r1 + t1);
 224:../Dave/Generated/CMSIS_DSP/TransformFunctions/arm_cfft_radix4_q31.c ****     /* (xa + xc) - (xb + xd) */
 225:../Dave/Generated/CMSIS_DSP/TransformFunctions/arm_cfft_radix4_q31.c ****     r1 = r1 - t1;
 226:../Dave/Generated/CMSIS_DSP/TransformFunctions/arm_cfft_radix4_q31.c ****     /* yb + yd */
 227:../Dave/Generated/CMSIS_DSP/TransformFunctions/arm_cfft_radix4_q31.c ****     t2 = (pSrc[(2u * i1) + 1u] >> 4u) + (pSrc[(2u * i3) + 1u] >> 4u);
 228:../Dave/Generated/CMSIS_DSP/TransformFunctions/arm_cfft_radix4_q31.c **** 
 229:../Dave/Generated/CMSIS_DSP/TransformFunctions/arm_cfft_radix4_q31.c ****     /* ya' = ya + yb + yc + yd */
 230:../Dave/Generated/CMSIS_DSP/TransformFunctions/arm_cfft_radix4_q31.c ****     pSrc[(2u * i0) + 1u] = (s1 + t2);
 231:../Dave/Generated/CMSIS_DSP/TransformFunctions/arm_cfft_radix4_q31.c **** 
 232:../Dave/Generated/CMSIS_DSP/TransformFunctions/arm_cfft_radix4_q31.c ****     /* (ya + yc) - (yb + yd) */
 233:../Dave/Generated/CMSIS_DSP/TransformFunctions/arm_cfft_radix4_q31.c ****     s1 = s1 - t2;
 234:../Dave/Generated/CMSIS_DSP/TransformFunctions/arm_cfft_radix4_q31.c **** 
 235:../Dave/Generated/CMSIS_DSP/TransformFunctions/arm_cfft_radix4_q31.c ****     /* yb - yd */
 236:../Dave/Generated/CMSIS_DSP/TransformFunctions/arm_cfft_radix4_q31.c ****     t1 = (pSrc[(2u * i1) + 1u] >> 4u) - (pSrc[(2u * i3) + 1u] >> 4u);
 237:../Dave/Generated/CMSIS_DSP/TransformFunctions/arm_cfft_radix4_q31.c ****     /* xb - xd */
 238:../Dave/Generated/CMSIS_DSP/TransformFunctions/arm_cfft_radix4_q31.c ****     t2 = (pSrc[2u * i1] >> 4u) - (pSrc[2u * i3] >> 4u);
 239:../Dave/Generated/CMSIS_DSP/TransformFunctions/arm_cfft_radix4_q31.c **** 
 240:../Dave/Generated/CMSIS_DSP/TransformFunctions/arm_cfft_radix4_q31.c ****     /*  index calculation for the coefficients */
 241:../Dave/Generated/CMSIS_DSP/TransformFunctions/arm_cfft_radix4_q31.c ****     ia2 = 2u * ia1;
 242:../Dave/Generated/CMSIS_DSP/TransformFunctions/arm_cfft_radix4_q31.c ****     co2 = pCoef[ia2 * 2u];
 243:../Dave/Generated/CMSIS_DSP/TransformFunctions/arm_cfft_radix4_q31.c ****     si2 = pCoef[(ia2 * 2u) + 1u];
 244:../Dave/Generated/CMSIS_DSP/TransformFunctions/arm_cfft_radix4_q31.c **** 
 245:../Dave/Generated/CMSIS_DSP/TransformFunctions/arm_cfft_radix4_q31.c ****     /* xc' = (xa-xb+xc-xd)co2 + (ya-yb+yc-yd)(si2) */
 246:../Dave/Generated/CMSIS_DSP/TransformFunctions/arm_cfft_radix4_q31.c ****     pSrc[2u * i1] = (((int32_t) (((q63_t) r1 * co2) >> 32)) +
 247:../Dave/Generated/CMSIS_DSP/TransformFunctions/arm_cfft_radix4_q31.c ****                      ((int32_t) (((q63_t) s1 * si2) >> 32))) << 1u;
 248:../Dave/Generated/CMSIS_DSP/TransformFunctions/arm_cfft_radix4_q31.c **** 
 249:../Dave/Generated/CMSIS_DSP/TransformFunctions/arm_cfft_radix4_q31.c ****     /* yc' = (ya-yb+yc-yd)co2 - (xa-xb+xc-xd)(si2) */
 250:../Dave/Generated/CMSIS_DSP/TransformFunctions/arm_cfft_radix4_q31.c ****     pSrc[(2u * i1) + 1u] = (((int32_t) (((q63_t) s1 * co2) >> 32)) -
 251:../Dave/Generated/CMSIS_DSP/TransformFunctions/arm_cfft_radix4_q31.c ****                             ((int32_t) (((q63_t) r1 * si2) >> 32))) << 1u;
 252:../Dave/Generated/CMSIS_DSP/TransformFunctions/arm_cfft_radix4_q31.c **** 
 253:../Dave/Generated/CMSIS_DSP/TransformFunctions/arm_cfft_radix4_q31.c ****     /* (xa - xc) + (yb - yd) */
 254:../Dave/Generated/CMSIS_DSP/TransformFunctions/arm_cfft_radix4_q31.c ****     r1 = r2 + t1;
 255:../Dave/Generated/CMSIS_DSP/TransformFunctions/arm_cfft_radix4_q31.c ****     /* (xa - xc) - (yb - yd) */
 256:../Dave/Generated/CMSIS_DSP/TransformFunctions/arm_cfft_radix4_q31.c ****     r2 = r2 - t1;
 257:../Dave/Generated/CMSIS_DSP/TransformFunctions/arm_cfft_radix4_q31.c **** 
 258:../Dave/Generated/CMSIS_DSP/TransformFunctions/arm_cfft_radix4_q31.c ****     /* (ya - yc) - (xb - xd) */
 259:../Dave/Generated/CMSIS_DSP/TransformFunctions/arm_cfft_radix4_q31.c ****     s1 = s2 - t2;
 260:../Dave/Generated/CMSIS_DSP/TransformFunctions/arm_cfft_radix4_q31.c ****     /* (ya - yc) + (xb - xd) */
 261:../Dave/Generated/CMSIS_DSP/TransformFunctions/arm_cfft_radix4_q31.c ****     s2 = s2 + t2;
 262:../Dave/Generated/CMSIS_DSP/TransformFunctions/arm_cfft_radix4_q31.c **** 
 263:../Dave/Generated/CMSIS_DSP/TransformFunctions/arm_cfft_radix4_q31.c ****     co1 = pCoef[ia1 * 2u];
 264:../Dave/Generated/CMSIS_DSP/TransformFunctions/arm_cfft_radix4_q31.c ****     si1 = pCoef[(ia1 * 2u) + 1u];
 265:../Dave/Generated/CMSIS_DSP/TransformFunctions/arm_cfft_radix4_q31.c **** 
 266:../Dave/Generated/CMSIS_DSP/TransformFunctions/arm_cfft_radix4_q31.c ****     /* xb' = (xa+yb-xc-yd)co1 + (ya-xb-yc+xd)(si1) */
 267:../Dave/Generated/CMSIS_DSP/TransformFunctions/arm_cfft_radix4_q31.c ****     pSrc[2u * i2] = (((int32_t) (((q63_t) r1 * co1) >> 32)) +
 268:../Dave/Generated/CMSIS_DSP/TransformFunctions/arm_cfft_radix4_q31.c ****                      ((int32_t) (((q63_t) s1 * si1) >> 32))) << 1u;
 269:../Dave/Generated/CMSIS_DSP/TransformFunctions/arm_cfft_radix4_q31.c **** 
 270:../Dave/Generated/CMSIS_DSP/TransformFunctions/arm_cfft_radix4_q31.c ****     /* yb' = (ya-xb-yc+xd)co1 - (xa+yb-xc-yd)(si1) */
 271:../Dave/Generated/CMSIS_DSP/TransformFunctions/arm_cfft_radix4_q31.c ****     pSrc[(2u * i2) + 1u] = (((int32_t) (((q63_t) s1 * co1) >> 32)) -
 272:../Dave/Generated/CMSIS_DSP/TransformFunctions/arm_cfft_radix4_q31.c ****                             ((int32_t) (((q63_t) r1 * si1) >> 32))) << 1u;
 273:../Dave/Generated/CMSIS_DSP/TransformFunctions/arm_cfft_radix4_q31.c **** 
 274:../Dave/Generated/CMSIS_DSP/TransformFunctions/arm_cfft_radix4_q31.c ****     /*  index calculation for the coefficients */
 275:../Dave/Generated/CMSIS_DSP/TransformFunctions/arm_cfft_radix4_q31.c ****     ia3 = 3u * ia1;
 276:../Dave/Generated/CMSIS_DSP/TransformFunctions/arm_cfft_radix4_q31.c ****     co3 = pCoef[ia3 * 2u];
 277:../Dave/Generated/CMSIS_DSP/TransformFunctions/arm_cfft_radix4_q31.c ****     si3 = pCoef[(ia3 * 2u) + 1u];
 278:../Dave/Generated/CMSIS_DSP/TransformFunctions/arm_cfft_radix4_q31.c **** 
 279:../Dave/Generated/CMSIS_DSP/TransformFunctions/arm_cfft_radix4_q31.c ****     /* xd' = (xa-yb-xc+yd)co3 + (ya+xb-yc-xd)(si3) */
 280:../Dave/Generated/CMSIS_DSP/TransformFunctions/arm_cfft_radix4_q31.c ****     pSrc[2u * i3] = (((int32_t) (((q63_t) r2 * co3) >> 32)) +
 281:../Dave/Generated/CMSIS_DSP/TransformFunctions/arm_cfft_radix4_q31.c ****                      ((int32_t) (((q63_t) s2 * si3) >> 32))) << 1u;
 282:../Dave/Generated/CMSIS_DSP/TransformFunctions/arm_cfft_radix4_q31.c **** 
 283:../Dave/Generated/CMSIS_DSP/TransformFunctions/arm_cfft_radix4_q31.c ****     /* yd' = (ya+xb-yc-xd)co3 - (xa-yb-xc+yd)(si3) */
 284:../Dave/Generated/CMSIS_DSP/TransformFunctions/arm_cfft_radix4_q31.c ****     pSrc[(2u * i3) + 1u] = (((int32_t) (((q63_t) s2 * co3) >> 32)) -
 285:../Dave/Generated/CMSIS_DSP/TransformFunctions/arm_cfft_radix4_q31.c ****                             ((int32_t) (((q63_t) r2 * si3) >> 32))) << 1u;
 286:../Dave/Generated/CMSIS_DSP/TransformFunctions/arm_cfft_radix4_q31.c **** 
 287:../Dave/Generated/CMSIS_DSP/TransformFunctions/arm_cfft_radix4_q31.c ****     /*  Twiddle coefficients index modifier */
 288:../Dave/Generated/CMSIS_DSP/TransformFunctions/arm_cfft_radix4_q31.c ****     ia1 = ia1 + twidCoefModifier;
 289:../Dave/Generated/CMSIS_DSP/TransformFunctions/arm_cfft_radix4_q31.c **** 
 290:../Dave/Generated/CMSIS_DSP/TransformFunctions/arm_cfft_radix4_q31.c ****     /*  Updating input index */
 291:../Dave/Generated/CMSIS_DSP/TransformFunctions/arm_cfft_radix4_q31.c ****     i0 = i0 + 1u;
 292:../Dave/Generated/CMSIS_DSP/TransformFunctions/arm_cfft_radix4_q31.c **** 
 293:../Dave/Generated/CMSIS_DSP/TransformFunctions/arm_cfft_radix4_q31.c ****   } while(--j);
 294:../Dave/Generated/CMSIS_DSP/TransformFunctions/arm_cfft_radix4_q31.c **** 
 295:../Dave/Generated/CMSIS_DSP/TransformFunctions/arm_cfft_radix4_q31.c ****   /* end of first stage process */
 296:../Dave/Generated/CMSIS_DSP/TransformFunctions/arm_cfft_radix4_q31.c **** 
 297:../Dave/Generated/CMSIS_DSP/TransformFunctions/arm_cfft_radix4_q31.c ****   /* data is in 5.27(q27) format */
 298:../Dave/Generated/CMSIS_DSP/TransformFunctions/arm_cfft_radix4_q31.c **** 
 299:../Dave/Generated/CMSIS_DSP/TransformFunctions/arm_cfft_radix4_q31.c **** 
 300:../Dave/Generated/CMSIS_DSP/TransformFunctions/arm_cfft_radix4_q31.c ****   /* start of Middle stages process */
 301:../Dave/Generated/CMSIS_DSP/TransformFunctions/arm_cfft_radix4_q31.c **** 
 302:../Dave/Generated/CMSIS_DSP/TransformFunctions/arm_cfft_radix4_q31.c **** 
 303:../Dave/Generated/CMSIS_DSP/TransformFunctions/arm_cfft_radix4_q31.c ****   /* each stage in middle stages provides two down scaling of the input */
 304:../Dave/Generated/CMSIS_DSP/TransformFunctions/arm_cfft_radix4_q31.c **** 
 305:../Dave/Generated/CMSIS_DSP/TransformFunctions/arm_cfft_radix4_q31.c ****   twidCoefModifier <<= 2u;
 306:../Dave/Generated/CMSIS_DSP/TransformFunctions/arm_cfft_radix4_q31.c **** 
 307:../Dave/Generated/CMSIS_DSP/TransformFunctions/arm_cfft_radix4_q31.c **** 
 308:../Dave/Generated/CMSIS_DSP/TransformFunctions/arm_cfft_radix4_q31.c ****   for (k = fftLen / 4u; k > 4u; k >>= 2u)
 309:../Dave/Generated/CMSIS_DSP/TransformFunctions/arm_cfft_radix4_q31.c ****   {
 310:../Dave/Generated/CMSIS_DSP/TransformFunctions/arm_cfft_radix4_q31.c ****     /*  Initializations for the first stage */
 311:../Dave/Generated/CMSIS_DSP/TransformFunctions/arm_cfft_radix4_q31.c ****     n1 = n2;
 312:../Dave/Generated/CMSIS_DSP/TransformFunctions/arm_cfft_radix4_q31.c ****     n2 >>= 2u;
 313:../Dave/Generated/CMSIS_DSP/TransformFunctions/arm_cfft_radix4_q31.c ****     ia1 = 0u;
 314:../Dave/Generated/CMSIS_DSP/TransformFunctions/arm_cfft_radix4_q31.c **** 
 315:../Dave/Generated/CMSIS_DSP/TransformFunctions/arm_cfft_radix4_q31.c ****     /*  Calculation of first stage */
 316:../Dave/Generated/CMSIS_DSP/TransformFunctions/arm_cfft_radix4_q31.c ****     for (j = 0u; j <= (n2 - 1u); j++)
 317:../Dave/Generated/CMSIS_DSP/TransformFunctions/arm_cfft_radix4_q31.c ****     {
 318:../Dave/Generated/CMSIS_DSP/TransformFunctions/arm_cfft_radix4_q31.c ****       /*  index calculation for the coefficients */
 319:../Dave/Generated/CMSIS_DSP/TransformFunctions/arm_cfft_radix4_q31.c ****       ia2 = ia1 + ia1;
 320:../Dave/Generated/CMSIS_DSP/TransformFunctions/arm_cfft_radix4_q31.c ****       ia3 = ia2 + ia1;
 321:../Dave/Generated/CMSIS_DSP/TransformFunctions/arm_cfft_radix4_q31.c ****       co1 = pCoef[ia1 * 2u];
 322:../Dave/Generated/CMSIS_DSP/TransformFunctions/arm_cfft_radix4_q31.c ****       si1 = pCoef[(ia1 * 2u) + 1u];
 323:../Dave/Generated/CMSIS_DSP/TransformFunctions/arm_cfft_radix4_q31.c ****       co2 = pCoef[ia2 * 2u];
 324:../Dave/Generated/CMSIS_DSP/TransformFunctions/arm_cfft_radix4_q31.c ****       si2 = pCoef[(ia2 * 2u) + 1u];
 325:../Dave/Generated/CMSIS_DSP/TransformFunctions/arm_cfft_radix4_q31.c ****       co3 = pCoef[ia3 * 2u];
 326:../Dave/Generated/CMSIS_DSP/TransformFunctions/arm_cfft_radix4_q31.c ****       si3 = pCoef[(ia3 * 2u) + 1u];
 327:../Dave/Generated/CMSIS_DSP/TransformFunctions/arm_cfft_radix4_q31.c ****       /*  Twiddle coefficients index modifier */
 328:../Dave/Generated/CMSIS_DSP/TransformFunctions/arm_cfft_radix4_q31.c ****       ia1 = ia1 + twidCoefModifier;
 329:../Dave/Generated/CMSIS_DSP/TransformFunctions/arm_cfft_radix4_q31.c **** 
 330:../Dave/Generated/CMSIS_DSP/TransformFunctions/arm_cfft_radix4_q31.c ****       for (i0 = j; i0 < fftLen; i0 += n1)
 331:../Dave/Generated/CMSIS_DSP/TransformFunctions/arm_cfft_radix4_q31.c ****       {
 332:../Dave/Generated/CMSIS_DSP/TransformFunctions/arm_cfft_radix4_q31.c ****         /*  index calculation for the input as, */
 333:../Dave/Generated/CMSIS_DSP/TransformFunctions/arm_cfft_radix4_q31.c ****         /*  pSrc[i0 + 0], pSrc[i0 + fftLen/4], pSrc[i0 + fftLen/2u], pSrc[i0 + 3fftLen/4] */
 334:../Dave/Generated/CMSIS_DSP/TransformFunctions/arm_cfft_radix4_q31.c ****         i1 = i0 + n2;
 335:../Dave/Generated/CMSIS_DSP/TransformFunctions/arm_cfft_radix4_q31.c ****         i2 = i1 + n2;
 336:../Dave/Generated/CMSIS_DSP/TransformFunctions/arm_cfft_radix4_q31.c ****         i3 = i2 + n2;
 337:../Dave/Generated/CMSIS_DSP/TransformFunctions/arm_cfft_radix4_q31.c **** 
 338:../Dave/Generated/CMSIS_DSP/TransformFunctions/arm_cfft_radix4_q31.c ****         /*  Butterfly implementation */
 339:../Dave/Generated/CMSIS_DSP/TransformFunctions/arm_cfft_radix4_q31.c ****         /* xa + xc */
 340:../Dave/Generated/CMSIS_DSP/TransformFunctions/arm_cfft_radix4_q31.c ****         r1 = pSrc[2u * i0] + pSrc[2u * i2];
 341:../Dave/Generated/CMSIS_DSP/TransformFunctions/arm_cfft_radix4_q31.c ****         /* xa - xc */
 342:../Dave/Generated/CMSIS_DSP/TransformFunctions/arm_cfft_radix4_q31.c ****         r2 = pSrc[2u * i0] - pSrc[2u * i2];
 343:../Dave/Generated/CMSIS_DSP/TransformFunctions/arm_cfft_radix4_q31.c **** 
 344:../Dave/Generated/CMSIS_DSP/TransformFunctions/arm_cfft_radix4_q31.c ****         /* ya + yc */
 345:../Dave/Generated/CMSIS_DSP/TransformFunctions/arm_cfft_radix4_q31.c ****         s1 = pSrc[(2u * i0) + 1u] + pSrc[(2u * i2) + 1u];
 346:../Dave/Generated/CMSIS_DSP/TransformFunctions/arm_cfft_radix4_q31.c ****         /* ya - yc */
 347:../Dave/Generated/CMSIS_DSP/TransformFunctions/arm_cfft_radix4_q31.c ****         s2 = pSrc[(2u * i0) + 1u] - pSrc[(2u * i2) + 1u];
 348:../Dave/Generated/CMSIS_DSP/TransformFunctions/arm_cfft_radix4_q31.c **** 
 349:../Dave/Generated/CMSIS_DSP/TransformFunctions/arm_cfft_radix4_q31.c ****         /* xb + xd */
 350:../Dave/Generated/CMSIS_DSP/TransformFunctions/arm_cfft_radix4_q31.c ****         t1 = pSrc[2u * i1] + pSrc[2u * i3];
 351:../Dave/Generated/CMSIS_DSP/TransformFunctions/arm_cfft_radix4_q31.c **** 
 352:../Dave/Generated/CMSIS_DSP/TransformFunctions/arm_cfft_radix4_q31.c ****         /* xa' = xa + xb + xc + xd */
 353:../Dave/Generated/CMSIS_DSP/TransformFunctions/arm_cfft_radix4_q31.c ****         pSrc[2u * i0] = (r1 + t1) >> 2u;
 354:../Dave/Generated/CMSIS_DSP/TransformFunctions/arm_cfft_radix4_q31.c ****         /* xa + xc -(xb + xd) */
 355:../Dave/Generated/CMSIS_DSP/TransformFunctions/arm_cfft_radix4_q31.c ****         r1 = r1 - t1;
 356:../Dave/Generated/CMSIS_DSP/TransformFunctions/arm_cfft_radix4_q31.c **** 
 357:../Dave/Generated/CMSIS_DSP/TransformFunctions/arm_cfft_radix4_q31.c ****         /* yb + yd */
 358:../Dave/Generated/CMSIS_DSP/TransformFunctions/arm_cfft_radix4_q31.c ****         t2 = pSrc[(2u * i1) + 1u] + pSrc[(2u * i3) + 1u];
 359:../Dave/Generated/CMSIS_DSP/TransformFunctions/arm_cfft_radix4_q31.c ****         /* ya' = ya + yb + yc + yd */
 360:../Dave/Generated/CMSIS_DSP/TransformFunctions/arm_cfft_radix4_q31.c ****         pSrc[(2u * i0) + 1u] = (s1 + t2) >> 2u;
 361:../Dave/Generated/CMSIS_DSP/TransformFunctions/arm_cfft_radix4_q31.c **** 
 362:../Dave/Generated/CMSIS_DSP/TransformFunctions/arm_cfft_radix4_q31.c ****         /* (ya + yc) - (yb + yd) */
 363:../Dave/Generated/CMSIS_DSP/TransformFunctions/arm_cfft_radix4_q31.c ****         s1 = s1 - t2;
 364:../Dave/Generated/CMSIS_DSP/TransformFunctions/arm_cfft_radix4_q31.c **** 
 365:../Dave/Generated/CMSIS_DSP/TransformFunctions/arm_cfft_radix4_q31.c ****         /* (yb - yd) */
 366:../Dave/Generated/CMSIS_DSP/TransformFunctions/arm_cfft_radix4_q31.c ****         t1 = pSrc[(2u * i1) + 1u] - pSrc[(2u * i3) + 1u];
 367:../Dave/Generated/CMSIS_DSP/TransformFunctions/arm_cfft_radix4_q31.c ****         /* (xb - xd) */
 368:../Dave/Generated/CMSIS_DSP/TransformFunctions/arm_cfft_radix4_q31.c ****         t2 = pSrc[2u * i1] - pSrc[2u * i3];
 369:../Dave/Generated/CMSIS_DSP/TransformFunctions/arm_cfft_radix4_q31.c **** 
 370:../Dave/Generated/CMSIS_DSP/TransformFunctions/arm_cfft_radix4_q31.c ****         /* xc' = (xa-xb+xc-xd)co2 + (ya-yb+yc-yd)(si2) */
 371:../Dave/Generated/CMSIS_DSP/TransformFunctions/arm_cfft_radix4_q31.c ****         pSrc[2u * i1] = (((int32_t) (((q63_t) r1 * co2) >> 32)) +
 372:../Dave/Generated/CMSIS_DSP/TransformFunctions/arm_cfft_radix4_q31.c ****                          ((int32_t) (((q63_t) s1 * si2) >> 32))) >> 1u;
 373:../Dave/Generated/CMSIS_DSP/TransformFunctions/arm_cfft_radix4_q31.c **** 
 374:../Dave/Generated/CMSIS_DSP/TransformFunctions/arm_cfft_radix4_q31.c ****         /* yc' = (ya-yb+yc-yd)co2 - (xa-xb+xc-xd)(si2) */
 375:../Dave/Generated/CMSIS_DSP/TransformFunctions/arm_cfft_radix4_q31.c ****         pSrc[(2u * i1) + 1u] = (((int32_t) (((q63_t) s1 * co2) >> 32)) -
 376:../Dave/Generated/CMSIS_DSP/TransformFunctions/arm_cfft_radix4_q31.c ****                                 ((int32_t) (((q63_t) r1 * si2) >> 32))) >> 1u;
 377:../Dave/Generated/CMSIS_DSP/TransformFunctions/arm_cfft_radix4_q31.c **** 
 378:../Dave/Generated/CMSIS_DSP/TransformFunctions/arm_cfft_radix4_q31.c ****         /* (xa - xc) + (yb - yd) */
 379:../Dave/Generated/CMSIS_DSP/TransformFunctions/arm_cfft_radix4_q31.c ****         r1 = r2 + t1;
 380:../Dave/Generated/CMSIS_DSP/TransformFunctions/arm_cfft_radix4_q31.c ****         /* (xa - xc) - (yb - yd) */
 381:../Dave/Generated/CMSIS_DSP/TransformFunctions/arm_cfft_radix4_q31.c ****         r2 = r2 - t1;
 382:../Dave/Generated/CMSIS_DSP/TransformFunctions/arm_cfft_radix4_q31.c **** 
 383:../Dave/Generated/CMSIS_DSP/TransformFunctions/arm_cfft_radix4_q31.c ****         /* (ya - yc) -  (xb - xd) */
 384:../Dave/Generated/CMSIS_DSP/TransformFunctions/arm_cfft_radix4_q31.c ****         s1 = s2 - t2;
 385:../Dave/Generated/CMSIS_DSP/TransformFunctions/arm_cfft_radix4_q31.c ****         /* (ya - yc) +  (xb - xd) */
 386:../Dave/Generated/CMSIS_DSP/TransformFunctions/arm_cfft_radix4_q31.c ****         s2 = s2 + t2;
 387:../Dave/Generated/CMSIS_DSP/TransformFunctions/arm_cfft_radix4_q31.c **** 
 388:../Dave/Generated/CMSIS_DSP/TransformFunctions/arm_cfft_radix4_q31.c ****         /* xb' = (xa+yb-xc-yd)co1 + (ya-xb-yc+xd)(si1) */
 389:../Dave/Generated/CMSIS_DSP/TransformFunctions/arm_cfft_radix4_q31.c ****         pSrc[2u * i2] = (((int32_t) (((q63_t) r1 * co1) >> 32)) +
 390:../Dave/Generated/CMSIS_DSP/TransformFunctions/arm_cfft_radix4_q31.c ****                          ((int32_t) (((q63_t) s1 * si1) >> 32))) >> 1u;
 391:../Dave/Generated/CMSIS_DSP/TransformFunctions/arm_cfft_radix4_q31.c **** 
 392:../Dave/Generated/CMSIS_DSP/TransformFunctions/arm_cfft_radix4_q31.c ****         /* yb' = (ya-xb-yc+xd)co1 - (xa+yb-xc-yd)(si1) */
 393:../Dave/Generated/CMSIS_DSP/TransformFunctions/arm_cfft_radix4_q31.c ****         pSrc[(2u * i2) + 1u] = (((int32_t) (((q63_t) s1 * co1) >> 32)) -
 394:../Dave/Generated/CMSIS_DSP/TransformFunctions/arm_cfft_radix4_q31.c ****                                 ((int32_t) (((q63_t) r1 * si1) >> 32))) >> 1u;
 395:../Dave/Generated/CMSIS_DSP/TransformFunctions/arm_cfft_radix4_q31.c **** 
 396:../Dave/Generated/CMSIS_DSP/TransformFunctions/arm_cfft_radix4_q31.c ****         /* xd' = (xa-yb-xc+yd)co3 + (ya+xb-yc-xd)(si3) */
 397:../Dave/Generated/CMSIS_DSP/TransformFunctions/arm_cfft_radix4_q31.c ****         pSrc[2u * i3] = (((int32_t) (((q63_t) r2 * co3) >> 32)) +
 398:../Dave/Generated/CMSIS_DSP/TransformFunctions/arm_cfft_radix4_q31.c ****                          ((int32_t) (((q63_t) s2 * si3) >> 32))) >> 1u;
 399:../Dave/Generated/CMSIS_DSP/TransformFunctions/arm_cfft_radix4_q31.c **** 
 400:../Dave/Generated/CMSIS_DSP/TransformFunctions/arm_cfft_radix4_q31.c ****         /* yd' = (ya+xb-yc-xd)co3 - (xa-yb-xc+yd)(si3) */
 401:../Dave/Generated/CMSIS_DSP/TransformFunctions/arm_cfft_radix4_q31.c ****         pSrc[(2u * i3) + 1u] = (((int32_t) (((q63_t) s2 * co3) >> 32)) -
 402:../Dave/Generated/CMSIS_DSP/TransformFunctions/arm_cfft_radix4_q31.c ****                                 ((int32_t) (((q63_t) r2 * si3) >> 32))) >> 1u;
 403:../Dave/Generated/CMSIS_DSP/TransformFunctions/arm_cfft_radix4_q31.c ****       }
 404:../Dave/Generated/CMSIS_DSP/TransformFunctions/arm_cfft_radix4_q31.c ****     }
 405:../Dave/Generated/CMSIS_DSP/TransformFunctions/arm_cfft_radix4_q31.c ****     twidCoefModifier <<= 2u;
 406:../Dave/Generated/CMSIS_DSP/TransformFunctions/arm_cfft_radix4_q31.c ****   }
 407:../Dave/Generated/CMSIS_DSP/TransformFunctions/arm_cfft_radix4_q31.c **** #else
 408:../Dave/Generated/CMSIS_DSP/TransformFunctions/arm_cfft_radix4_q31.c ****   uint32_t n1, n2, ia1, ia2, ia3, i0, j, k;
 409:../Dave/Generated/CMSIS_DSP/TransformFunctions/arm_cfft_radix4_q31.c ****   q31_t t1, t2, r1, r2, s1, s2, co1, co2, co3, si1, si2, si3;
 410:../Dave/Generated/CMSIS_DSP/TransformFunctions/arm_cfft_radix4_q31.c **** 
 411:../Dave/Generated/CMSIS_DSP/TransformFunctions/arm_cfft_radix4_q31.c ****   q31_t xa, xb, xc, xd;
 412:../Dave/Generated/CMSIS_DSP/TransformFunctions/arm_cfft_radix4_q31.c ****   q31_t ya, yb, yc, yd;
 413:../Dave/Generated/CMSIS_DSP/TransformFunctions/arm_cfft_radix4_q31.c ****   q31_t xa_out, xb_out, xc_out, xd_out;
 414:../Dave/Generated/CMSIS_DSP/TransformFunctions/arm_cfft_radix4_q31.c ****   q31_t ya_out, yb_out, yc_out, yd_out;
 415:../Dave/Generated/CMSIS_DSP/TransformFunctions/arm_cfft_radix4_q31.c **** 
 416:../Dave/Generated/CMSIS_DSP/TransformFunctions/arm_cfft_radix4_q31.c ****   q31_t *ptr1;
 417:../Dave/Generated/CMSIS_DSP/TransformFunctions/arm_cfft_radix4_q31.c ****   q31_t *pSi0;
 418:../Dave/Generated/CMSIS_DSP/TransformFunctions/arm_cfft_radix4_q31.c ****   q31_t *pSi1;
 419:../Dave/Generated/CMSIS_DSP/TransformFunctions/arm_cfft_radix4_q31.c ****   q31_t *pSi2;
 420:../Dave/Generated/CMSIS_DSP/TransformFunctions/arm_cfft_radix4_q31.c ****   q31_t *pSi3;
 421:../Dave/Generated/CMSIS_DSP/TransformFunctions/arm_cfft_radix4_q31.c ****   q63_t xaya, xbyb, xcyc, xdyd;
 422:../Dave/Generated/CMSIS_DSP/TransformFunctions/arm_cfft_radix4_q31.c ****   /* Total process is divided into three stages */
 423:../Dave/Generated/CMSIS_DSP/TransformFunctions/arm_cfft_radix4_q31.c **** 
 424:../Dave/Generated/CMSIS_DSP/TransformFunctions/arm_cfft_radix4_q31.c ****   /* process first stage, middle stages, & last stage */
 425:../Dave/Generated/CMSIS_DSP/TransformFunctions/arm_cfft_radix4_q31.c **** 
 426:../Dave/Generated/CMSIS_DSP/TransformFunctions/arm_cfft_radix4_q31.c **** 
 427:../Dave/Generated/CMSIS_DSP/TransformFunctions/arm_cfft_radix4_q31.c ****   /* start of first stage process */
 428:../Dave/Generated/CMSIS_DSP/TransformFunctions/arm_cfft_radix4_q31.c **** 
 429:../Dave/Generated/CMSIS_DSP/TransformFunctions/arm_cfft_radix4_q31.c ****   /*  Initializations for the first stage */
 430:../Dave/Generated/CMSIS_DSP/TransformFunctions/arm_cfft_radix4_q31.c ****   n2 = fftLen;
 139              	 .loc 1 430 0
 140 0018 D7F8D830 	 ldr r3,[r7,#216]
 141 001c C7F8A431 	 str r3,[r7,#420]
 431:../Dave/Generated/CMSIS_DSP/TransformFunctions/arm_cfft_radix4_q31.c ****   n1 = n2;
 142              	 .loc 1 431 0
 143 0020 D7F8A431 	 ldr r3,[r7,#420]
 144 0024 C7F88031 	 str r3,[r7,#384]
 432:../Dave/Generated/CMSIS_DSP/TransformFunctions/arm_cfft_radix4_q31.c ****   /* n2 = fftLen/4 */
 433:../Dave/Generated/CMSIS_DSP/TransformFunctions/arm_cfft_radix4_q31.c ****   n2 >>= 2u;
 145              	 .loc 1 433 0
 146 0028 D7F8A431 	 ldr r3,[r7,#420]
 147 002c 9B08     	 lsrs r3,r3,#2
 148 002e C7F8A431 	 str r3,[r7,#420]
 434:../Dave/Generated/CMSIS_DSP/TransformFunctions/arm_cfft_radix4_q31.c **** 
 435:../Dave/Generated/CMSIS_DSP/TransformFunctions/arm_cfft_radix4_q31.c ****   ia1 = 0u;
 149              	 .loc 1 435 0
 150 0032 0023     	 movs r3,#0
 151 0034 C7F8A031 	 str r3,[r7,#416]
 436:../Dave/Generated/CMSIS_DSP/TransformFunctions/arm_cfft_radix4_q31.c **** 
 437:../Dave/Generated/CMSIS_DSP/TransformFunctions/arm_cfft_radix4_q31.c ****   j = n2;
 152              	 .loc 1 437 0
 153 0038 D7F8A431 	 ldr r3,[r7,#420]
 154 003c C7F89831 	 str r3,[r7,#408]
 438:../Dave/Generated/CMSIS_DSP/TransformFunctions/arm_cfft_radix4_q31.c ****   
 439:../Dave/Generated/CMSIS_DSP/TransformFunctions/arm_cfft_radix4_q31.c ****   pSi0 = pSrc;
 155              	 .loc 1 439 0
 156 0040 D7F8DC30 	 ldr r3,[r7,#220]
 157 0044 C7F89031 	 str r3,[r7,#400]
 440:../Dave/Generated/CMSIS_DSP/TransformFunctions/arm_cfft_radix4_q31.c ****   pSi1 = pSi0 + 2 * n2;
 158              	 .loc 1 440 0
 159 0048 D7F8A431 	 ldr r3,[r7,#420]
 160 004c DA00     	 lsls r2,r3,#3
 161 004e D7F89031 	 ldr r3,[r7,#400]
 162 0052 1344     	 add r3,r3,r2
 163 0054 C7F88C31 	 str r3,[r7,#396]
 441:../Dave/Generated/CMSIS_DSP/TransformFunctions/arm_cfft_radix4_q31.c ****   pSi2 = pSi1 + 2 * n2;
 164              	 .loc 1 441 0
 165 0058 D7F8A431 	 ldr r3,[r7,#420]
 166 005c DA00     	 lsls r2,r3,#3
 167 005e D7F88C31 	 ldr r3,[r7,#396]
 168 0062 1344     	 add r3,r3,r2
 169 0064 C7F88831 	 str r3,[r7,#392]
 442:../Dave/Generated/CMSIS_DSP/TransformFunctions/arm_cfft_radix4_q31.c ****   pSi3 = pSi2 + 2 * n2;
 170              	 .loc 1 442 0
 171 0068 D7F8A431 	 ldr r3,[r7,#420]
 172 006c DA00     	 lsls r2,r3,#3
 173 006e D7F88831 	 ldr r3,[r7,#392]
 174 0072 1344     	 add r3,r3,r2
 175 0074 C7F88431 	 str r3,[r7,#388]
 176              	.L6:
 443:../Dave/Generated/CMSIS_DSP/TransformFunctions/arm_cfft_radix4_q31.c **** 
 444:../Dave/Generated/CMSIS_DSP/TransformFunctions/arm_cfft_radix4_q31.c ****   /*  Calculation of first stage */
 445:../Dave/Generated/CMSIS_DSP/TransformFunctions/arm_cfft_radix4_q31.c ****   do
 446:../Dave/Generated/CMSIS_DSP/TransformFunctions/arm_cfft_radix4_q31.c ****   {
 447:../Dave/Generated/CMSIS_DSP/TransformFunctions/arm_cfft_radix4_q31.c ****     /* input is in 1.31(q31) format and provide 4 guard bits for the input */
 448:../Dave/Generated/CMSIS_DSP/TransformFunctions/arm_cfft_radix4_q31.c **** 
 449:../Dave/Generated/CMSIS_DSP/TransformFunctions/arm_cfft_radix4_q31.c ****     /*  Butterfly implementation */
 450:../Dave/Generated/CMSIS_DSP/TransformFunctions/arm_cfft_radix4_q31.c ****     /* xa + xc */
 451:../Dave/Generated/CMSIS_DSP/TransformFunctions/arm_cfft_radix4_q31.c ****     r1 = (pSi0[0] >> 4u) + (pSi2[0] >> 4u);
 177              	 .loc 1 451 0 discriminator 1
 178 0078 D7F89031 	 ldr r3,[r7,#400]
 179 007c 1B68     	 ldr r3,[r3]
 180 007e 1A11     	 asrs r2,r3,#4
 181 0080 D7F88831 	 ldr r3,[r7,#392]
 182 0084 1B68     	 ldr r3,[r3]
 183 0086 1B11     	 asrs r3,r3,#4
 184 0088 1344     	 add r3,r3,r2
 185 008a C7F87C31 	 str r3,[r7,#380]
 452:../Dave/Generated/CMSIS_DSP/TransformFunctions/arm_cfft_radix4_q31.c ****     /* xa - xc */
 453:../Dave/Generated/CMSIS_DSP/TransformFunctions/arm_cfft_radix4_q31.c ****     r2 = (pSi0[0] >> 4u) - (pSi2[0] >> 4u);
 186              	 .loc 1 453 0 discriminator 1
 187 008e D7F89031 	 ldr r3,[r7,#400]
 188 0092 1B68     	 ldr r3,[r3]
 189 0094 1A11     	 asrs r2,r3,#4
 190 0096 D7F88831 	 ldr r3,[r7,#392]
 191 009a 1B68     	 ldr r3,[r3]
 192 009c 1B11     	 asrs r3,r3,#4
 193 009e D31A     	 subs r3,r2,r3
 194 00a0 C7F87831 	 str r3,[r7,#376]
 454:../Dave/Generated/CMSIS_DSP/TransformFunctions/arm_cfft_radix4_q31.c **** 
 455:../Dave/Generated/CMSIS_DSP/TransformFunctions/arm_cfft_radix4_q31.c ****     /* xb + xd */
 456:../Dave/Generated/CMSIS_DSP/TransformFunctions/arm_cfft_radix4_q31.c ****     t1 = (pSi1[0] >> 4u) + (pSi3[0] >> 4u);
 195              	 .loc 1 456 0 discriminator 1
 196 00a4 D7F88C31 	 ldr r3,[r7,#396]
 197 00a8 1B68     	 ldr r3,[r3]
 198 00aa 1A11     	 asrs r2,r3,#4
 199 00ac D7F88431 	 ldr r3,[r7,#388]
 200 00b0 1B68     	 ldr r3,[r3]
 201 00b2 1B11     	 asrs r3,r3,#4
 202 00b4 1344     	 add r3,r3,r2
 203 00b6 C7F87431 	 str r3,[r7,#372]
 457:../Dave/Generated/CMSIS_DSP/TransformFunctions/arm_cfft_radix4_q31.c **** 
 458:../Dave/Generated/CMSIS_DSP/TransformFunctions/arm_cfft_radix4_q31.c ****     /* ya + yc */
 459:../Dave/Generated/CMSIS_DSP/TransformFunctions/arm_cfft_radix4_q31.c ****     s1 = (pSi0[1] >> 4u) + (pSi2[1] >> 4u);
 204              	 .loc 1 459 0 discriminator 1
 205 00ba D7F89031 	 ldr r3,[r7,#400]
 206 00be 0433     	 adds r3,r3,#4
 207 00c0 1B68     	 ldr r3,[r3]
 208 00c2 1A11     	 asrs r2,r3,#4
 209 00c4 D7F88831 	 ldr r3,[r7,#392]
 210 00c8 0433     	 adds r3,r3,#4
 211 00ca 1B68     	 ldr r3,[r3]
 212 00cc 1B11     	 asrs r3,r3,#4
 213 00ce 1344     	 add r3,r3,r2
 214 00d0 C7F87031 	 str r3,[r7,#368]
 460:../Dave/Generated/CMSIS_DSP/TransformFunctions/arm_cfft_radix4_q31.c ****     /* ya - yc */
 461:../Dave/Generated/CMSIS_DSP/TransformFunctions/arm_cfft_radix4_q31.c ****     s2 = (pSi0[1] >> 4u) - (pSi2[1] >> 4u);
 215              	 .loc 1 461 0 discriminator 1
 216 00d4 D7F89031 	 ldr r3,[r7,#400]
 217 00d8 0433     	 adds r3,r3,#4
 218 00da 1B68     	 ldr r3,[r3]
 219 00dc 1A11     	 asrs r2,r3,#4
 220 00de D7F88831 	 ldr r3,[r7,#392]
 221 00e2 0433     	 adds r3,r3,#4
 222 00e4 1B68     	 ldr r3,[r3]
 223 00e6 1B11     	 asrs r3,r3,#4
 224 00e8 D31A     	 subs r3,r2,r3
 225 00ea C7F86C31 	 str r3,[r7,#364]
 462:../Dave/Generated/CMSIS_DSP/TransformFunctions/arm_cfft_radix4_q31.c **** 
 463:../Dave/Generated/CMSIS_DSP/TransformFunctions/arm_cfft_radix4_q31.c ****     /* xa' = xa + xb + xc + xd */
 464:../Dave/Generated/CMSIS_DSP/TransformFunctions/arm_cfft_radix4_q31.c ****     *pSi0++ = (r1 + t1);
 226              	 .loc 1 464 0 discriminator 1
 227 00ee D7F89011 	 ldr r1,[r7,#400]
 228 00f2 0B1D     	 adds r3,r1,#4
 229 00f4 C7F89031 	 str r3,[r7,#400]
 230 00f8 D7F87C21 	 ldr r2,[r7,#380]
 231 00fc D7F87431 	 ldr r3,[r7,#372]
 232 0100 1344     	 add r3,r3,r2
 233 0102 0B60     	 str r3,[r1]
 465:../Dave/Generated/CMSIS_DSP/TransformFunctions/arm_cfft_radix4_q31.c ****     /* (xa + xc) - (xb + xd) */
 466:../Dave/Generated/CMSIS_DSP/TransformFunctions/arm_cfft_radix4_q31.c ****     r1 = r1 - t1;
 234              	 .loc 1 466 0 discriminator 1
 235 0104 D7F87C21 	 ldr r2,[r7,#380]
 236 0108 D7F87431 	 ldr r3,[r7,#372]
 237 010c D31A     	 subs r3,r2,r3
 238 010e C7F87C31 	 str r3,[r7,#380]
 467:../Dave/Generated/CMSIS_DSP/TransformFunctions/arm_cfft_radix4_q31.c ****     /* yb + yd */
 468:../Dave/Generated/CMSIS_DSP/TransformFunctions/arm_cfft_radix4_q31.c ****     t2 = (pSi1[1] >> 4u) + (pSi3[1] >> 4u);
 239              	 .loc 1 468 0 discriminator 1
 240 0112 D7F88C31 	 ldr r3,[r7,#396]
 241 0116 0433     	 adds r3,r3,#4
 242 0118 1B68     	 ldr r3,[r3]
 243 011a 1A11     	 asrs r2,r3,#4
 244 011c D7F88431 	 ldr r3,[r7,#388]
 245 0120 0433     	 adds r3,r3,#4
 246 0122 1B68     	 ldr r3,[r3]
 247 0124 1B11     	 asrs r3,r3,#4
 248 0126 1344     	 add r3,r3,r2
 249 0128 C7F86831 	 str r3,[r7,#360]
 469:../Dave/Generated/CMSIS_DSP/TransformFunctions/arm_cfft_radix4_q31.c **** 
 470:../Dave/Generated/CMSIS_DSP/TransformFunctions/arm_cfft_radix4_q31.c ****     /* ya' = ya + yb + yc + yd */
 471:../Dave/Generated/CMSIS_DSP/TransformFunctions/arm_cfft_radix4_q31.c ****     *pSi0++ = (s1 + t2);
 250              	 .loc 1 471 0 discriminator 1
 251 012c D7F89011 	 ldr r1,[r7,#400]
 252 0130 0B1D     	 adds r3,r1,#4
 253 0132 C7F89031 	 str r3,[r7,#400]
 254 0136 D7F87021 	 ldr r2,[r7,#368]
 255 013a D7F86831 	 ldr r3,[r7,#360]
 256 013e 1344     	 add r3,r3,r2
 257 0140 0B60     	 str r3,[r1]
 472:../Dave/Generated/CMSIS_DSP/TransformFunctions/arm_cfft_radix4_q31.c **** 
 473:../Dave/Generated/CMSIS_DSP/TransformFunctions/arm_cfft_radix4_q31.c ****     /* (ya + yc) - (yb + yd) */
 474:../Dave/Generated/CMSIS_DSP/TransformFunctions/arm_cfft_radix4_q31.c ****     s1 = s1 - t2;
 258              	 .loc 1 474 0 discriminator 1
 259 0142 D7F87021 	 ldr r2,[r7,#368]
 260 0146 D7F86831 	 ldr r3,[r7,#360]
 261 014a D31A     	 subs r3,r2,r3
 262 014c C7F87031 	 str r3,[r7,#368]
 475:../Dave/Generated/CMSIS_DSP/TransformFunctions/arm_cfft_radix4_q31.c **** 
 476:../Dave/Generated/CMSIS_DSP/TransformFunctions/arm_cfft_radix4_q31.c ****     /* yb - yd */
 477:../Dave/Generated/CMSIS_DSP/TransformFunctions/arm_cfft_radix4_q31.c ****     t1 = (pSi1[1] >> 4u) - (pSi3[1] >> 4u);
 263              	 .loc 1 477 0 discriminator 1
 264 0150 D7F88C31 	 ldr r3,[r7,#396]
 265 0154 0433     	 adds r3,r3,#4
 266 0156 1B68     	 ldr r3,[r3]
 267 0158 1A11     	 asrs r2,r3,#4
 268 015a D7F88431 	 ldr r3,[r7,#388]
 269 015e 0433     	 adds r3,r3,#4
 270 0160 1B68     	 ldr r3,[r3]
 271 0162 1B11     	 asrs r3,r3,#4
 272 0164 D31A     	 subs r3,r2,r3
 273 0166 C7F87431 	 str r3,[r7,#372]
 478:../Dave/Generated/CMSIS_DSP/TransformFunctions/arm_cfft_radix4_q31.c ****     /* xb - xd */
 479:../Dave/Generated/CMSIS_DSP/TransformFunctions/arm_cfft_radix4_q31.c ****     t2 = (pSi1[0] >> 4u) - (pSi3[0] >> 4u);
 274              	 .loc 1 479 0 discriminator 1
 275 016a D7F88C31 	 ldr r3,[r7,#396]
 276 016e 1B68     	 ldr r3,[r3]
 277 0170 1A11     	 asrs r2,r3,#4
 278 0172 D7F88431 	 ldr r3,[r7,#388]
 279 0176 1B68     	 ldr r3,[r3]
 280 0178 1B11     	 asrs r3,r3,#4
 281 017a D31A     	 subs r3,r2,r3
 282 017c C7F86831 	 str r3,[r7,#360]
 480:../Dave/Generated/CMSIS_DSP/TransformFunctions/arm_cfft_radix4_q31.c **** 
 481:../Dave/Generated/CMSIS_DSP/TransformFunctions/arm_cfft_radix4_q31.c ****     /*  index calculation for the coefficients */
 482:../Dave/Generated/CMSIS_DSP/TransformFunctions/arm_cfft_radix4_q31.c ****     ia2 = 2u * ia1;
 283              	 .loc 1 482 0 discriminator 1
 284 0180 D7F8A031 	 ldr r3,[r7,#416]
 285 0184 5B00     	 lsls r3,r3,#1
 286 0186 C7F86431 	 str r3,[r7,#356]
 483:../Dave/Generated/CMSIS_DSP/TransformFunctions/arm_cfft_radix4_q31.c ****     co2 = pCoef[ia2 * 2u];
 287              	 .loc 1 483 0 discriminator 1
 288 018a D7F86431 	 ldr r3,[r7,#356]
 289 018e DA00     	 lsls r2,r3,#3
 290 0190 D7F8D430 	 ldr r3,[r7,#212]
 291 0194 1344     	 add r3,r3,r2
 292 0196 1B68     	 ldr r3,[r3]
 293 0198 C7F86031 	 str r3,[r7,#352]
 484:../Dave/Generated/CMSIS_DSP/TransformFunctions/arm_cfft_radix4_q31.c ****     si2 = pCoef[(ia2 * 2u) + 1u];
 294              	 .loc 1 484 0 discriminator 1
 295 019c D7F86431 	 ldr r3,[r7,#356]
 296 01a0 DB00     	 lsls r3,r3,#3
 297 01a2 1A1D     	 adds r2,r3,#4
 298 01a4 D7F8D430 	 ldr r3,[r7,#212]
 299 01a8 1344     	 add r3,r3,r2
 300 01aa 1B68     	 ldr r3,[r3]
 301 01ac C7F85C31 	 str r3,[r7,#348]
 485:../Dave/Generated/CMSIS_DSP/TransformFunctions/arm_cfft_radix4_q31.c **** 
 486:../Dave/Generated/CMSIS_DSP/TransformFunctions/arm_cfft_radix4_q31.c ****     /* xc' = (xa-xb+xc-xd)co2 + (ya-yb+yc-yd)(si2) */
 487:../Dave/Generated/CMSIS_DSP/TransformFunctions/arm_cfft_radix4_q31.c ****     *pSi1++ = (((int32_t) (((q63_t) r1 * co2) >> 32)) +
 302              	 .loc 1 487 0 discriminator 1
 303 01b0 D7F88C61 	 ldr r6,[r7,#396]
 304 01b4 331D     	 adds r3,r6,#4
 305 01b6 C7F88C31 	 str r3,[r7,#396]
 306 01ba D7F87C31 	 ldr r3,[r7,#380]
 307 01be 1846     	 mov r0,r3
 308 01c0 4FEAE071 	 asr r1,r0,#31
 309 01c4 D7F86031 	 ldr r3,[r7,#352]
 310 01c8 1A46     	 mov r2,r3
 311 01ca 4FEAE273 	 asr r3,r2,#31
 312 01ce 02FB01F5 	 mul r5,r2,r1
 313 01d2 00FB03F4 	 mul r4,r0,r3
 314 01d6 2C44     	 add r4,r4,r5
 315 01d8 A0FB0223 	 umull r2,r3,r0,r2
 316 01dc E118     	 adds r1,r4,r3
 317 01de 0B46     	 mov r3,r1
 318 01e0 1900     	 movs r1,r3
 319 01e2 C7F8C810 	 str r1,[r7,#200]
 320 01e6 DB17     	 asrs r3,r3,#31
 321 01e8 C7F8CC30 	 str r3,[r7,#204]
 322 01ec D7F8C8E0 	 ldr lr,[r7,#200]
 488:../Dave/Generated/CMSIS_DSP/TransformFunctions/arm_cfft_radix4_q31.c ****                      ((int32_t) (((q63_t) s1 * si2) >> 32))) << 1u;
 323              	 .loc 1 488 0 discriminator 1
 324 01f0 D7F87031 	 ldr r3,[r7,#368]
 325 01f4 1846     	 mov r0,r3
 326 01f6 4FEAE071 	 asr r1,r0,#31
 327 01fa D7F85C31 	 ldr r3,[r7,#348]
 328 01fe 1A46     	 mov r2,r3
 329 0200 4FEAE273 	 asr r3,r2,#31
 330 0204 02FB01F5 	 mul r5,r2,r1
 331 0208 00FB03F4 	 mul r4,r0,r3
 332 020c 2C44     	 add r4,r4,r5
 333 020e A0FB0223 	 umull r2,r3,r0,r2
 334 0212 E118     	 adds r1,r4,r3
 335 0214 0B46     	 mov r3,r1
 336 0216 1900     	 movs r1,r3
 337 0218 C7F8C010 	 str r1,[r7,#192]
 338 021c DB17     	 asrs r3,r3,#31
 339 021e C7F8C430 	 str r3,[r7,#196]
 340 0222 D7F8C030 	 ldr r3,[r7,#192]
 487:../Dave/Generated/CMSIS_DSP/TransformFunctions/arm_cfft_radix4_q31.c ****                      ((int32_t) (((q63_t) s1 * si2) >> 32))) << 1u;
 341              	 .loc 1 487 0 discriminator 1
 342 0226 7344     	 add r3,r3,lr
 343              	 .loc 1 488 0 discriminator 1
 344 0228 5B00     	 lsls r3,r3,#1
 487:../Dave/Generated/CMSIS_DSP/TransformFunctions/arm_cfft_radix4_q31.c ****                      ((int32_t) (((q63_t) s1 * si2) >> 32))) << 1u;
 345              	 .loc 1 487 0 discriminator 1
 346 022a 3360     	 str r3,[r6]
 489:../Dave/Generated/CMSIS_DSP/TransformFunctions/arm_cfft_radix4_q31.c **** 
 490:../Dave/Generated/CMSIS_DSP/TransformFunctions/arm_cfft_radix4_q31.c ****     /* yc' = (ya-yb+yc-yd)co2 - (xa-xb+xc-xd)(si2) */
 491:../Dave/Generated/CMSIS_DSP/TransformFunctions/arm_cfft_radix4_q31.c ****     *pSi1++ = (((int32_t) (((q63_t) s1 * co2) >> 32)) -
 347              	 .loc 1 491 0 discriminator 1
 348 022c D7F88C61 	 ldr r6,[r7,#396]
 349 0230 331D     	 adds r3,r6,#4
 350 0232 C7F88C31 	 str r3,[r7,#396]
 351 0236 D7F87031 	 ldr r3,[r7,#368]
 352 023a 1846     	 mov r0,r3
 353 023c 4FEAE071 	 asr r1,r0,#31
 354 0240 D7F86031 	 ldr r3,[r7,#352]
 355 0244 1A46     	 mov r2,r3
 356 0246 4FEAE273 	 asr r3,r2,#31
 357 024a 02FB01F5 	 mul r5,r2,r1
 358 024e 00FB03F4 	 mul r4,r0,r3
 359 0252 2C44     	 add r4,r4,r5
 360 0254 A0FB0223 	 umull r2,r3,r0,r2
 361 0258 E118     	 adds r1,r4,r3
 362 025a 0B46     	 mov r3,r1
 363 025c 1900     	 movs r1,r3
 364 025e C7F8B810 	 str r1,[r7,#184]
 365 0262 DB17     	 asrs r3,r3,#31
 366 0264 C7F8BC30 	 str r3,[r7,#188]
 367 0268 D7F8B8E0 	 ldr lr,[r7,#184]
 492:../Dave/Generated/CMSIS_DSP/TransformFunctions/arm_cfft_radix4_q31.c ****                             ((int32_t) (((q63_t) r1 * si2) >> 32))) << 1u;
 368              	 .loc 1 492 0 discriminator 1
 369 026c D7F87C31 	 ldr r3,[r7,#380]
 370 0270 1846     	 mov r0,r3
 371 0272 4FEAE071 	 asr r1,r0,#31
 372 0276 D7F85C31 	 ldr r3,[r7,#348]
 373 027a 1A46     	 mov r2,r3
 374 027c 4FEAE273 	 asr r3,r2,#31
 375 0280 02FB01F5 	 mul r5,r2,r1
 376 0284 00FB03F4 	 mul r4,r0,r3
 377 0288 2C44     	 add r4,r4,r5
 378 028a A0FB0223 	 umull r2,r3,r0,r2
 379 028e E118     	 adds r1,r4,r3
 380 0290 0B46     	 mov r3,r1
 381 0292 1900     	 movs r1,r3
 382 0294 C7F8B010 	 str r1,[r7,#176]
 383 0298 DB17     	 asrs r3,r3,#31
 384 029a C7F8B430 	 str r3,[r7,#180]
 385 029e D7F8B030 	 ldr r3,[r7,#176]
 491:../Dave/Generated/CMSIS_DSP/TransformFunctions/arm_cfft_radix4_q31.c ****                             ((int32_t) (((q63_t) r1 * si2) >> 32))) << 1u;
 386              	 .loc 1 491 0 discriminator 1
 387 02a2 C3EB0E03 	 rsb r3,r3,lr
 388              	 .loc 1 492 0 discriminator 1
 389 02a6 5B00     	 lsls r3,r3,#1
 491:../Dave/Generated/CMSIS_DSP/TransformFunctions/arm_cfft_radix4_q31.c ****                             ((int32_t) (((q63_t) r1 * si2) >> 32))) << 1u;
 390              	 .loc 1 491 0 discriminator 1
 391 02a8 3360     	 str r3,[r6]
 493:../Dave/Generated/CMSIS_DSP/TransformFunctions/arm_cfft_radix4_q31.c **** 
 494:../Dave/Generated/CMSIS_DSP/TransformFunctions/arm_cfft_radix4_q31.c ****     /* (xa - xc) + (yb - yd) */
 495:../Dave/Generated/CMSIS_DSP/TransformFunctions/arm_cfft_radix4_q31.c ****     r1 = r2 + t1;
 392              	 .loc 1 495 0 discriminator 1
 393 02aa D7F87821 	 ldr r2,[r7,#376]
 394 02ae D7F87431 	 ldr r3,[r7,#372]
 395 02b2 1344     	 add r3,r3,r2
 396 02b4 C7F87C31 	 str r3,[r7,#380]
 496:../Dave/Generated/CMSIS_DSP/TransformFunctions/arm_cfft_radix4_q31.c ****     /* (xa - xc) - (yb - yd) */
 497:../Dave/Generated/CMSIS_DSP/TransformFunctions/arm_cfft_radix4_q31.c ****     r2 = r2 - t1;
 397              	 .loc 1 497 0 discriminator 1
 398 02b8 D7F87821 	 ldr r2,[r7,#376]
 399 02bc D7F87431 	 ldr r3,[r7,#372]
 400 02c0 D31A     	 subs r3,r2,r3
 401 02c2 C7F87831 	 str r3,[r7,#376]
 498:../Dave/Generated/CMSIS_DSP/TransformFunctions/arm_cfft_radix4_q31.c **** 
 499:../Dave/Generated/CMSIS_DSP/TransformFunctions/arm_cfft_radix4_q31.c ****     /* (ya - yc) - (xb - xd) */
 500:../Dave/Generated/CMSIS_DSP/TransformFunctions/arm_cfft_radix4_q31.c ****     s1 = s2 - t2;
 402              	 .loc 1 500 0 discriminator 1
 403 02c6 D7F86C21 	 ldr r2,[r7,#364]
 404 02ca D7F86831 	 ldr r3,[r7,#360]
 405 02ce D31A     	 subs r3,r2,r3
 406 02d0 C7F87031 	 str r3,[r7,#368]
 501:../Dave/Generated/CMSIS_DSP/TransformFunctions/arm_cfft_radix4_q31.c ****     /* (ya - yc) + (xb - xd) */
 502:../Dave/Generated/CMSIS_DSP/TransformFunctions/arm_cfft_radix4_q31.c ****     s2 = s2 + t2;
 407              	 .loc 1 502 0 discriminator 1
 408 02d4 D7F86C21 	 ldr r2,[r7,#364]
 409 02d8 D7F86831 	 ldr r3,[r7,#360]
 410 02dc 1344     	 add r3,r3,r2
 411 02de C7F86C31 	 str r3,[r7,#364]
 503:../Dave/Generated/CMSIS_DSP/TransformFunctions/arm_cfft_radix4_q31.c **** 
 504:../Dave/Generated/CMSIS_DSP/TransformFunctions/arm_cfft_radix4_q31.c ****     co1 = pCoef[ia1 * 2u];
 412              	 .loc 1 504 0 discriminator 1
 413 02e2 D7F8A031 	 ldr r3,[r7,#416]
 414 02e6 DA00     	 lsls r2,r3,#3
 415 02e8 D7F8D430 	 ldr r3,[r7,#212]
 416 02ec 1344     	 add r3,r3,r2
 417 02ee 1B68     	 ldr r3,[r3]
 418 02f0 C7F85831 	 str r3,[r7,#344]
 505:../Dave/Generated/CMSIS_DSP/TransformFunctions/arm_cfft_radix4_q31.c ****     si1 = pCoef[(ia1 * 2u) + 1u];
 419              	 .loc 1 505 0 discriminator 1
 420 02f4 D7F8A031 	 ldr r3,[r7,#416]
 421 02f8 DB00     	 lsls r3,r3,#3
 422 02fa 1A1D     	 adds r2,r3,#4
 423 02fc D7F8D430 	 ldr r3,[r7,#212]
 424 0300 1344     	 add r3,r3,r2
 425 0302 1B68     	 ldr r3,[r3]
 426 0304 C7F85431 	 str r3,[r7,#340]
 506:../Dave/Generated/CMSIS_DSP/TransformFunctions/arm_cfft_radix4_q31.c **** 
 507:../Dave/Generated/CMSIS_DSP/TransformFunctions/arm_cfft_radix4_q31.c ****     /* xb' = (xa+yb-xc-yd)co1 + (ya-xb-yc+xd)(si1) */
 508:../Dave/Generated/CMSIS_DSP/TransformFunctions/arm_cfft_radix4_q31.c ****     *pSi2++ = (((int32_t) (((q63_t) r1 * co1) >> 32)) +
 427              	 .loc 1 508 0 discriminator 1
 428 0308 D7F88861 	 ldr r6,[r7,#392]
 429 030c 331D     	 adds r3,r6,#4
 430 030e C7F88831 	 str r3,[r7,#392]
 431 0312 D7F87C31 	 ldr r3,[r7,#380]
 432 0316 1846     	 mov r0,r3
 433 0318 4FEAE071 	 asr r1,r0,#31
 434 031c D7F85831 	 ldr r3,[r7,#344]
 435 0320 1A46     	 mov r2,r3
 436 0322 4FEAE273 	 asr r3,r2,#31
 437 0326 02FB01F5 	 mul r5,r2,r1
 438 032a 00FB03F4 	 mul r4,r0,r3
 439 032e 2C44     	 add r4,r4,r5
 440 0330 A0FB0223 	 umull r2,r3,r0,r2
 441 0334 E118     	 adds r1,r4,r3
 442 0336 0B46     	 mov r3,r1
 443 0338 1900     	 movs r1,r3
 444 033a C7F8A810 	 str r1,[r7,#168]
 445 033e DB17     	 asrs r3,r3,#31
 446 0340 C7F8AC30 	 str r3,[r7,#172]
 447 0344 D7F8A8E0 	 ldr lr,[r7,#168]
 509:../Dave/Generated/CMSIS_DSP/TransformFunctions/arm_cfft_radix4_q31.c ****                      ((int32_t) (((q63_t) s1 * si1) >> 32))) << 1u;
 448              	 .loc 1 509 0 discriminator 1
 449 0348 D7F87031 	 ldr r3,[r7,#368]
 450 034c 1846     	 mov r0,r3
 451 034e 4FEAE071 	 asr r1,r0,#31
 452 0352 D7F85431 	 ldr r3,[r7,#340]
 453 0356 1A46     	 mov r2,r3
 454 0358 4FEAE273 	 asr r3,r2,#31
 455 035c 02FB01F5 	 mul r5,r2,r1
 456 0360 00FB03F4 	 mul r4,r0,r3
 457 0364 2C44     	 add r4,r4,r5
 458 0366 A0FB0223 	 umull r2,r3,r0,r2
 459 036a E118     	 adds r1,r4,r3
 460 036c 0B46     	 mov r3,r1
 461 036e 1900     	 movs r1,r3
 462 0370 C7F8A010 	 str r1,[r7,#160]
 463 0374 DB17     	 asrs r3,r3,#31
 464 0376 C7F8A430 	 str r3,[r7,#164]
 465 037a D7F8A030 	 ldr r3,[r7,#160]
 508:../Dave/Generated/CMSIS_DSP/TransformFunctions/arm_cfft_radix4_q31.c ****                      ((int32_t) (((q63_t) s1 * si1) >> 32))) << 1u;
 466              	 .loc 1 508 0 discriminator 1
 467 037e 7344     	 add r3,r3,lr
 468              	 .loc 1 509 0 discriminator 1
 469 0380 5B00     	 lsls r3,r3,#1
 508:../Dave/Generated/CMSIS_DSP/TransformFunctions/arm_cfft_radix4_q31.c ****                      ((int32_t) (((q63_t) s1 * si1) >> 32))) << 1u;
 470              	 .loc 1 508 0 discriminator 1
 471 0382 3360     	 str r3,[r6]
 510:../Dave/Generated/CMSIS_DSP/TransformFunctions/arm_cfft_radix4_q31.c **** 
 511:../Dave/Generated/CMSIS_DSP/TransformFunctions/arm_cfft_radix4_q31.c ****     /* yb' = (ya-xb-yc+xd)co1 - (xa+yb-xc-yd)(si1) */
 512:../Dave/Generated/CMSIS_DSP/TransformFunctions/arm_cfft_radix4_q31.c ****     *pSi2++ = (((int32_t) (((q63_t) s1 * co1) >> 32)) -
 472              	 .loc 1 512 0 discriminator 1
 473 0384 D7F88861 	 ldr r6,[r7,#392]
 474 0388 331D     	 adds r3,r6,#4
 475 038a C7F88831 	 str r3,[r7,#392]
 476 038e D7F87031 	 ldr r3,[r7,#368]
 477 0392 1846     	 mov r0,r3
 478 0394 4FEAE071 	 asr r1,r0,#31
 479 0398 D7F85831 	 ldr r3,[r7,#344]
 480 039c 1A46     	 mov r2,r3
 481 039e 4FEAE273 	 asr r3,r2,#31
 482 03a2 02FB01F5 	 mul r5,r2,r1
 483 03a6 00FB03F4 	 mul r4,r0,r3
 484 03aa 2C44     	 add r4,r4,r5
 485 03ac A0FB0223 	 umull r2,r3,r0,r2
 486 03b0 E118     	 adds r1,r4,r3
 487 03b2 0B46     	 mov r3,r1
 488 03b4 1900     	 movs r1,r3
 489 03b6 C7F89810 	 str r1,[r7,#152]
 490 03ba DB17     	 asrs r3,r3,#31
 491 03bc C7F89C30 	 str r3,[r7,#156]
 492 03c0 D7F898E0 	 ldr lr,[r7,#152]
 513:../Dave/Generated/CMSIS_DSP/TransformFunctions/arm_cfft_radix4_q31.c ****                             ((int32_t) (((q63_t) r1 * si1) >> 32))) << 1u;
 493              	 .loc 1 513 0 discriminator 1
 494 03c4 D7F87C31 	 ldr r3,[r7,#380]
 495 03c8 1846     	 mov r0,r3
 496 03ca 4FEAE071 	 asr r1,r0,#31
 497 03ce D7F85431 	 ldr r3,[r7,#340]
 498 03d2 1A46     	 mov r2,r3
 499 03d4 4FEAE273 	 asr r3,r2,#31
 500 03d8 02FB01F5 	 mul r5,r2,r1
 501 03dc 00FB03F4 	 mul r4,r0,r3
 502 03e0 2C44     	 add r4,r4,r5
 503 03e2 A0FB0223 	 umull r2,r3,r0,r2
 504 03e6 E118     	 adds r1,r4,r3
 505 03e8 0B46     	 mov r3,r1
 506 03ea 1900     	 movs r1,r3
 507 03ec C7F89010 	 str r1,[r7,#144]
 508 03f0 DB17     	 asrs r3,r3,#31
 509 03f2 C7F89430 	 str r3,[r7,#148]
 510 03f6 D7F89030 	 ldr r3,[r7,#144]
 512:../Dave/Generated/CMSIS_DSP/TransformFunctions/arm_cfft_radix4_q31.c ****                             ((int32_t) (((q63_t) r1 * si1) >> 32))) << 1u;
 511              	 .loc 1 512 0 discriminator 1
 512 03fa C3EB0E03 	 rsb r3,r3,lr
 513              	 .loc 1 513 0 discriminator 1
 514 03fe 5B00     	 lsls r3,r3,#1
 512:../Dave/Generated/CMSIS_DSP/TransformFunctions/arm_cfft_radix4_q31.c ****                             ((int32_t) (((q63_t) r1 * si1) >> 32))) << 1u;
 515              	 .loc 1 512 0 discriminator 1
 516 0400 3360     	 str r3,[r6]
 514:../Dave/Generated/CMSIS_DSP/TransformFunctions/arm_cfft_radix4_q31.c **** 
 515:../Dave/Generated/CMSIS_DSP/TransformFunctions/arm_cfft_radix4_q31.c ****     /*  index calculation for the coefficients */
 516:../Dave/Generated/CMSIS_DSP/TransformFunctions/arm_cfft_radix4_q31.c ****     ia3 = 3u * ia1;
 517              	 .loc 1 516 0 discriminator 1
 518 0402 D7F8A021 	 ldr r2,[r7,#416]
 519 0406 1346     	 mov r3,r2
 520 0408 5B00     	 lsls r3,r3,#1
 521 040a 1344     	 add r3,r3,r2
 522 040c C7F85031 	 str r3,[r7,#336]
 517:../Dave/Generated/CMSIS_DSP/TransformFunctions/arm_cfft_radix4_q31.c ****     co3 = pCoef[ia3 * 2u];
 523              	 .loc 1 517 0 discriminator 1
 524 0410 D7F85031 	 ldr r3,[r7,#336]
 525 0414 DA00     	 lsls r2,r3,#3
 526 0416 D7F8D430 	 ldr r3,[r7,#212]
 527 041a 1344     	 add r3,r3,r2
 528 041c 1B68     	 ldr r3,[r3]
 529 041e C7F84C31 	 str r3,[r7,#332]
 518:../Dave/Generated/CMSIS_DSP/TransformFunctions/arm_cfft_radix4_q31.c ****     si3 = pCoef[(ia3 * 2u) + 1u];
 530              	 .loc 1 518 0 discriminator 1
 531 0422 D7F85031 	 ldr r3,[r7,#336]
 532 0426 DB00     	 lsls r3,r3,#3
 533 0428 1A1D     	 adds r2,r3,#4
 534 042a D7F8D430 	 ldr r3,[r7,#212]
 535 042e 1344     	 add r3,r3,r2
 536 0430 1B68     	 ldr r3,[r3]
 537 0432 C7F84831 	 str r3,[r7,#328]
 519:../Dave/Generated/CMSIS_DSP/TransformFunctions/arm_cfft_radix4_q31.c **** 
 520:../Dave/Generated/CMSIS_DSP/TransformFunctions/arm_cfft_radix4_q31.c ****     /* xd' = (xa-yb-xc+yd)co3 + (ya+xb-yc-xd)(si3) */
 521:../Dave/Generated/CMSIS_DSP/TransformFunctions/arm_cfft_radix4_q31.c ****     *pSi3++ = (((int32_t) (((q63_t) r2 * co3) >> 32)) +
 538              	 .loc 1 521 0 discriminator 1
 539 0436 D7F88461 	 ldr r6,[r7,#388]
 540 043a 331D     	 adds r3,r6,#4
 541 043c C7F88431 	 str r3,[r7,#388]
 542 0440 D7F87831 	 ldr r3,[r7,#376]
 543 0444 1846     	 mov r0,r3
 544 0446 4FEAE071 	 asr r1,r0,#31
 545 044a D7F84C31 	 ldr r3,[r7,#332]
 546 044e 1A46     	 mov r2,r3
 547 0450 4FEAE273 	 asr r3,r2,#31
 548 0454 02FB01F5 	 mul r5,r2,r1
 549 0458 00FB03F4 	 mul r4,r0,r3
 550 045c 2C44     	 add r4,r4,r5
 551 045e A0FB0223 	 umull r2,r3,r0,r2
 552 0462 E118     	 adds r1,r4,r3
 553 0464 0B46     	 mov r3,r1
 554 0466 1900     	 movs r1,r3
 555 0468 C7F88810 	 str r1,[r7,#136]
 556 046c DB17     	 asrs r3,r3,#31
 557 046e C7F88C30 	 str r3,[r7,#140]
 558 0472 D7F888E0 	 ldr lr,[r7,#136]
 522:../Dave/Generated/CMSIS_DSP/TransformFunctions/arm_cfft_radix4_q31.c ****                      ((int32_t) (((q63_t) s2 * si3) >> 32))) << 1u;
 559              	 .loc 1 522 0 discriminator 1
 560 0476 D7F86C31 	 ldr r3,[r7,#364]
 561 047a 1846     	 mov r0,r3
 562 047c 4FEAE071 	 asr r1,r0,#31
 563 0480 D7F84831 	 ldr r3,[r7,#328]
 564 0484 1A46     	 mov r2,r3
 565 0486 4FEAE273 	 asr r3,r2,#31
 566 048a 02FB01F5 	 mul r5,r2,r1
 567 048e 00FB03F4 	 mul r4,r0,r3
 568 0492 2C44     	 add r4,r4,r5
 569 0494 A0FB0223 	 umull r2,r3,r0,r2
 570 0498 E118     	 adds r1,r4,r3
 571 049a 0B46     	 mov r3,r1
 572 049c 1900     	 movs r1,r3
 573 049e C7F88010 	 str r1,[r7,#128]
 574 04a2 DB17     	 asrs r3,r3,#31
 575 04a4 C7F88430 	 str r3,[r7,#132]
 576 04a8 D7F88030 	 ldr r3,[r7,#128]
 521:../Dave/Generated/CMSIS_DSP/TransformFunctions/arm_cfft_radix4_q31.c ****                      ((int32_t) (((q63_t) s2 * si3) >> 32))) << 1u;
 577              	 .loc 1 521 0 discriminator 1
 578 04ac 7344     	 add r3,r3,lr
 579              	 .loc 1 522 0 discriminator 1
 580 04ae 5B00     	 lsls r3,r3,#1
 521:../Dave/Generated/CMSIS_DSP/TransformFunctions/arm_cfft_radix4_q31.c ****                      ((int32_t) (((q63_t) s2 * si3) >> 32))) << 1u;
 581              	 .loc 1 521 0 discriminator 1
 582 04b0 3360     	 str r3,[r6]
 523:../Dave/Generated/CMSIS_DSP/TransformFunctions/arm_cfft_radix4_q31.c **** 
 524:../Dave/Generated/CMSIS_DSP/TransformFunctions/arm_cfft_radix4_q31.c ****     /* yd' = (ya+xb-yc-xd)co3 - (xa-yb-xc+yd)(si3) */
 525:../Dave/Generated/CMSIS_DSP/TransformFunctions/arm_cfft_radix4_q31.c ****     *pSi3++ = (((int32_t) (((q63_t) s2 * co3) >> 32)) -
 583              	 .loc 1 525 0 discriminator 1
 584 04b2 D7F88461 	 ldr r6,[r7,#388]
 585 04b6 331D     	 adds r3,r6,#4
 586 04b8 C7F88431 	 str r3,[r7,#388]
 587 04bc D7F86C31 	 ldr r3,[r7,#364]
 588 04c0 1846     	 mov r0,r3
 589 04c2 4FEAE071 	 asr r1,r0,#31
 590 04c6 D7F84C31 	 ldr r3,[r7,#332]
 591 04ca 1A46     	 mov r2,r3
 592 04cc 4FEAE273 	 asr r3,r2,#31
 593 04d0 02FB01F5 	 mul r5,r2,r1
 594 04d4 00FB03F4 	 mul r4,r0,r3
 595 04d8 2C44     	 add r4,r4,r5
 596 04da A0FB0223 	 umull r2,r3,r0,r2
 597 04de E118     	 adds r1,r4,r3
 598 04e0 0B46     	 mov r3,r1
 599 04e2 9A46     	 mov r10,r3
 600 04e4 4FEAE37B 	 asr fp,r3,#31
 601 04e8 D646     	 mov lr,r10
 526:../Dave/Generated/CMSIS_DSP/TransformFunctions/arm_cfft_radix4_q31.c ****                             ((int32_t) (((q63_t) r2 * si3) >> 32))) << 1u;
 602              	 .loc 1 526 0 discriminator 1
 603 04ea D7F87831 	 ldr r3,[r7,#376]
 604 04ee 1846     	 mov r0,r3
 605 04f0 4FEAE071 	 asr r1,r0,#31
 606 04f4 D7F84831 	 ldr r3,[r7,#328]
 607 04f8 1A46     	 mov r2,r3
 608 04fa 4FEAE273 	 asr r3,r2,#31
 609 04fe 02FB01F5 	 mul r5,r2,r1
 610 0502 00FB03F4 	 mul r4,r0,r3
 611 0506 2C44     	 add r4,r4,r5
 612 0508 A0FB0223 	 umull r2,r3,r0,r2
 613 050c E118     	 adds r1,r4,r3
 614 050e 0B46     	 mov r3,r1
 615 0510 9846     	 mov r8,r3
 616 0512 4FEAE379 	 asr r9,r3,#31
 617 0516 4346     	 mov r3,r8
 525:../Dave/Generated/CMSIS_DSP/TransformFunctions/arm_cfft_radix4_q31.c ****                             ((int32_t) (((q63_t) r2 * si3) >> 32))) << 1u;
 618              	 .loc 1 525 0 discriminator 1
 619 0518 C3EB0E03 	 rsb r3,r3,lr
 620              	 .loc 1 526 0 discriminator 1
 621 051c 5B00     	 lsls r3,r3,#1
 525:../Dave/Generated/CMSIS_DSP/TransformFunctions/arm_cfft_radix4_q31.c ****                             ((int32_t) (((q63_t) r2 * si3) >> 32))) << 1u;
 622              	 .loc 1 525 0 discriminator 1
 623 051e 3360     	 str r3,[r6]
 527:../Dave/Generated/CMSIS_DSP/TransformFunctions/arm_cfft_radix4_q31.c **** 
 528:../Dave/Generated/CMSIS_DSP/TransformFunctions/arm_cfft_radix4_q31.c ****     /*  Twiddle coefficients index modifier */
 529:../Dave/Generated/CMSIS_DSP/TransformFunctions/arm_cfft_radix4_q31.c ****     ia1 = ia1 + twidCoefModifier;
 624              	 .loc 1 529 0 discriminator 1
 625 0520 D7F8A021 	 ldr r2,[r7,#416]
 626 0524 D7F8D030 	 ldr r3,[r7,#208]
 627 0528 1344     	 add r3,r3,r2
 628 052a C7F8A031 	 str r3,[r7,#416]
 530:../Dave/Generated/CMSIS_DSP/TransformFunctions/arm_cfft_radix4_q31.c **** 
 531:../Dave/Generated/CMSIS_DSP/TransformFunctions/arm_cfft_radix4_q31.c ****   } while(--j);
 629              	 .loc 1 531 0 discriminator 1
 630 052e D7F89831 	 ldr r3,[r7,#408]
 631 0532 013B     	 subs r3,r3,#1
 632 0534 C7F89831 	 str r3,[r7,#408]
 633 0538 D7F89831 	 ldr r3,[r7,#408]
 634 053c 002B     	 cmp r3,#0
 635 053e 7FF49BAD 	 bne .L6
 532:../Dave/Generated/CMSIS_DSP/TransformFunctions/arm_cfft_radix4_q31.c **** 
 533:../Dave/Generated/CMSIS_DSP/TransformFunctions/arm_cfft_radix4_q31.c ****   /* end of first stage process */
 534:../Dave/Generated/CMSIS_DSP/TransformFunctions/arm_cfft_radix4_q31.c **** 
 535:../Dave/Generated/CMSIS_DSP/TransformFunctions/arm_cfft_radix4_q31.c ****   /* data is in 5.27(q27) format */
 536:../Dave/Generated/CMSIS_DSP/TransformFunctions/arm_cfft_radix4_q31.c **** 
 537:../Dave/Generated/CMSIS_DSP/TransformFunctions/arm_cfft_radix4_q31.c **** 
 538:../Dave/Generated/CMSIS_DSP/TransformFunctions/arm_cfft_radix4_q31.c ****   /* start of Middle stages process */
 539:../Dave/Generated/CMSIS_DSP/TransformFunctions/arm_cfft_radix4_q31.c **** 
 540:../Dave/Generated/CMSIS_DSP/TransformFunctions/arm_cfft_radix4_q31.c **** 
 541:../Dave/Generated/CMSIS_DSP/TransformFunctions/arm_cfft_radix4_q31.c ****   /* each stage in middle stages provides two down scaling of the input */
 542:../Dave/Generated/CMSIS_DSP/TransformFunctions/arm_cfft_radix4_q31.c **** 
 543:../Dave/Generated/CMSIS_DSP/TransformFunctions/arm_cfft_radix4_q31.c ****   twidCoefModifier <<= 2u;
 636              	 .loc 1 543 0
 637 0542 D7F8D030 	 ldr r3,[r7,#208]
 638 0546 9B00     	 lsls r3,r3,#2
 639 0548 C7F8D030 	 str r3,[r7,#208]
 544:../Dave/Generated/CMSIS_DSP/TransformFunctions/arm_cfft_radix4_q31.c **** 
 545:../Dave/Generated/CMSIS_DSP/TransformFunctions/arm_cfft_radix4_q31.c **** 
 546:../Dave/Generated/CMSIS_DSP/TransformFunctions/arm_cfft_radix4_q31.c ****   for (k = fftLen / 4u; k > 4u; k >>= 2u)
 640              	 .loc 1 546 0
 641 054c D7F8D830 	 ldr r3,[r7,#216]
 642 0550 9B08     	 lsrs r3,r3,#2
 643 0552 C7F89431 	 str r3,[r7,#404]
 644 0556 9BE2     	 b .L7
 645              	.L12:
 547:../Dave/Generated/CMSIS_DSP/TransformFunctions/arm_cfft_radix4_q31.c ****   {
 548:../Dave/Generated/CMSIS_DSP/TransformFunctions/arm_cfft_radix4_q31.c ****     /*  Initializations for the first stage */
 549:../Dave/Generated/CMSIS_DSP/TransformFunctions/arm_cfft_radix4_q31.c ****     n1 = n2;
 646              	 .loc 1 549 0
 647 0558 D7F8A431 	 ldr r3,[r7,#420]
 648 055c C7F88031 	 str r3,[r7,#384]
 550:../Dave/Generated/CMSIS_DSP/TransformFunctions/arm_cfft_radix4_q31.c ****     n2 >>= 2u;
 649              	 .loc 1 550 0
 650 0560 D7F8A431 	 ldr r3,[r7,#420]
 651 0564 9B08     	 lsrs r3,r3,#2
 652 0566 C7F8A431 	 str r3,[r7,#420]
 551:../Dave/Generated/CMSIS_DSP/TransformFunctions/arm_cfft_radix4_q31.c ****     ia1 = 0u;
 653              	 .loc 1 551 0
 654 056a 0023     	 movs r3,#0
 655 056c C7F8A031 	 str r3,[r7,#416]
 552:../Dave/Generated/CMSIS_DSP/TransformFunctions/arm_cfft_radix4_q31.c **** 
 553:../Dave/Generated/CMSIS_DSP/TransformFunctions/arm_cfft_radix4_q31.c ****     /*  Calculation of first stage */
 554:../Dave/Generated/CMSIS_DSP/TransformFunctions/arm_cfft_radix4_q31.c ****     for (j = 0u; j <= (n2 - 1u); j++)
 656              	 .loc 1 554 0
 657 0570 0023     	 movs r3,#0
 658 0572 C7F89831 	 str r3,[r7,#408]
 659 0576 79E2     	 b .L8
 660              	.L11:
 555:../Dave/Generated/CMSIS_DSP/TransformFunctions/arm_cfft_radix4_q31.c ****     {
 556:../Dave/Generated/CMSIS_DSP/TransformFunctions/arm_cfft_radix4_q31.c ****       /*  index calculation for the coefficients */
 557:../Dave/Generated/CMSIS_DSP/TransformFunctions/arm_cfft_radix4_q31.c ****       ia2 = ia1 + ia1;
 661              	 .loc 1 557 0
 662 0578 D7F8A021 	 ldr r2,[r7,#416]
 663 057c D7F8A031 	 ldr r3,[r7,#416]
 664 0580 1344     	 add r3,r3,r2
 665 0582 C7F86431 	 str r3,[r7,#356]
 558:../Dave/Generated/CMSIS_DSP/TransformFunctions/arm_cfft_radix4_q31.c ****       ia3 = ia2 + ia1;
 666              	 .loc 1 558 0
 667 0586 D7F86421 	 ldr r2,[r7,#356]
 668 058a D7F8A031 	 ldr r3,[r7,#416]
 669 058e 1344     	 add r3,r3,r2
 670 0590 C7F85031 	 str r3,[r7,#336]
 559:../Dave/Generated/CMSIS_DSP/TransformFunctions/arm_cfft_radix4_q31.c ****       co1 = pCoef[ia1 * 2u];
 671              	 .loc 1 559 0
 672 0594 D7F8A031 	 ldr r3,[r7,#416]
 673 0598 DA00     	 lsls r2,r3,#3
 674 059a D7F8D430 	 ldr r3,[r7,#212]
 675 059e 1344     	 add r3,r3,r2
 676 05a0 1B68     	 ldr r3,[r3]
 677 05a2 C7F85831 	 str r3,[r7,#344]
 560:../Dave/Generated/CMSIS_DSP/TransformFunctions/arm_cfft_radix4_q31.c ****       si1 = pCoef[(ia1 * 2u) + 1u];
 678              	 .loc 1 560 0
 679 05a6 D7F8A031 	 ldr r3,[r7,#416]
 680 05aa DB00     	 lsls r3,r3,#3
 681 05ac 1A1D     	 adds r2,r3,#4
 682 05ae D7F8D430 	 ldr r3,[r7,#212]
 683 05b2 1344     	 add r3,r3,r2
 684 05b4 1B68     	 ldr r3,[r3]
 685 05b6 C7F85431 	 str r3,[r7,#340]
 561:../Dave/Generated/CMSIS_DSP/TransformFunctions/arm_cfft_radix4_q31.c ****       co2 = pCoef[ia2 * 2u];
 686              	 .loc 1 561 0
 687 05ba D7F86431 	 ldr r3,[r7,#356]
 688 05be DA00     	 lsls r2,r3,#3
 689 05c0 D7F8D430 	 ldr r3,[r7,#212]
 690 05c4 1344     	 add r3,r3,r2
 691 05c6 1B68     	 ldr r3,[r3]
 692 05c8 C7F86031 	 str r3,[r7,#352]
 562:../Dave/Generated/CMSIS_DSP/TransformFunctions/arm_cfft_radix4_q31.c ****       si2 = pCoef[(ia2 * 2u) + 1u];
 693              	 .loc 1 562 0
 694 05cc D7F86431 	 ldr r3,[r7,#356]
 695 05d0 DB00     	 lsls r3,r3,#3
 696 05d2 1A1D     	 adds r2,r3,#4
 697 05d4 D7F8D430 	 ldr r3,[r7,#212]
 698 05d8 1344     	 add r3,r3,r2
 699 05da 1B68     	 ldr r3,[r3]
 700 05dc C7F85C31 	 str r3,[r7,#348]
 563:../Dave/Generated/CMSIS_DSP/TransformFunctions/arm_cfft_radix4_q31.c ****       co3 = pCoef[ia3 * 2u];
 701              	 .loc 1 563 0
 702 05e0 D7F85031 	 ldr r3,[r7,#336]
 703 05e4 DA00     	 lsls r2,r3,#3
 704 05e6 D7F8D430 	 ldr r3,[r7,#212]
 705 05ea 1344     	 add r3,r3,r2
 706 05ec 1B68     	 ldr r3,[r3]
 707 05ee C7F84C31 	 str r3,[r7,#332]
 564:../Dave/Generated/CMSIS_DSP/TransformFunctions/arm_cfft_radix4_q31.c ****       si3 = pCoef[(ia3 * 2u) + 1u];
 708              	 .loc 1 564 0
 709 05f2 D7F85031 	 ldr r3,[r7,#336]
 710 05f6 DB00     	 lsls r3,r3,#3
 711 05f8 1A1D     	 adds r2,r3,#4
 712 05fa D7F8D430 	 ldr r3,[r7,#212]
 713 05fe 1344     	 add r3,r3,r2
 714 0600 1B68     	 ldr r3,[r3]
 715 0602 C7F84831 	 str r3,[r7,#328]
 565:../Dave/Generated/CMSIS_DSP/TransformFunctions/arm_cfft_radix4_q31.c ****       /*  Twiddle coefficients index modifier */
 566:../Dave/Generated/CMSIS_DSP/TransformFunctions/arm_cfft_radix4_q31.c ****       ia1 = ia1 + twidCoefModifier;
 716              	 .loc 1 566 0
 717 0606 D7F8A021 	 ldr r2,[r7,#416]
 718 060a D7F8D030 	 ldr r3,[r7,#208]
 719 060e 1344     	 add r3,r3,r2
 720 0610 C7F8A031 	 str r3,[r7,#416]
 567:../Dave/Generated/CMSIS_DSP/TransformFunctions/arm_cfft_radix4_q31.c ****       
 568:../Dave/Generated/CMSIS_DSP/TransformFunctions/arm_cfft_radix4_q31.c ****       pSi0 = pSrc + 2 * j;
 721              	 .loc 1 568 0
 722 0614 D7F89831 	 ldr r3,[r7,#408]
 723 0618 DA00     	 lsls r2,r3,#3
 724 061a D7F8DC30 	 ldr r3,[r7,#220]
 725 061e 1344     	 add r3,r3,r2
 726 0620 C7F89031 	 str r3,[r7,#400]
 569:../Dave/Generated/CMSIS_DSP/TransformFunctions/arm_cfft_radix4_q31.c ****       pSi1 = pSi0 + 2 * n2;
 727              	 .loc 1 569 0
 728 0624 D7F8A431 	 ldr r3,[r7,#420]
 729 0628 DA00     	 lsls r2,r3,#3
 730 062a D7F89031 	 ldr r3,[r7,#400]
 731 062e 1344     	 add r3,r3,r2
 732 0630 C7F88C31 	 str r3,[r7,#396]
 570:../Dave/Generated/CMSIS_DSP/TransformFunctions/arm_cfft_radix4_q31.c ****       pSi2 = pSi1 + 2 * n2;
 733              	 .loc 1 570 0
 734 0634 D7F8A431 	 ldr r3,[r7,#420]
 735 0638 DA00     	 lsls r2,r3,#3
 736 063a D7F88C31 	 ldr r3,[r7,#396]
 737 063e 1344     	 add r3,r3,r2
 738 0640 C7F88831 	 str r3,[r7,#392]
 571:../Dave/Generated/CMSIS_DSP/TransformFunctions/arm_cfft_radix4_q31.c ****       pSi3 = pSi2 + 2 * n2;
 739              	 .loc 1 571 0
 740 0644 D7F8A431 	 ldr r3,[r7,#420]
 741 0648 DA00     	 lsls r2,r3,#3
 742 064a D7F88831 	 ldr r3,[r7,#392]
 743 064e 1344     	 add r3,r3,r2
 744 0650 C7F88431 	 str r3,[r7,#388]
 572:../Dave/Generated/CMSIS_DSP/TransformFunctions/arm_cfft_radix4_q31.c **** 
 573:../Dave/Generated/CMSIS_DSP/TransformFunctions/arm_cfft_radix4_q31.c ****       for (i0 = j; i0 < fftLen; i0 += n1)
 745              	 .loc 1 573 0
 746 0654 D7F89831 	 ldr r3,[r7,#408]
 747 0658 C7F89C31 	 str r3,[r7,#412]
 748 065c FAE1     	 b .L9
 749              	.L10:
 574:../Dave/Generated/CMSIS_DSP/TransformFunctions/arm_cfft_radix4_q31.c ****       {
 575:../Dave/Generated/CMSIS_DSP/TransformFunctions/arm_cfft_radix4_q31.c ****         /*  Butterfly implementation */
 576:../Dave/Generated/CMSIS_DSP/TransformFunctions/arm_cfft_radix4_q31.c ****         /* xa + xc */
 577:../Dave/Generated/CMSIS_DSP/TransformFunctions/arm_cfft_radix4_q31.c ****         r1 = pSi0[0] + pSi2[0];
 750              	 .loc 1 577 0 discriminator 3
 751 065e D7F89031 	 ldr r3,[r7,#400]
 752 0662 1A68     	 ldr r2,[r3]
 753 0664 D7F88831 	 ldr r3,[r7,#392]
 754 0668 1B68     	 ldr r3,[r3]
 755 066a 1344     	 add r3,r3,r2
 756 066c C7F87C31 	 str r3,[r7,#380]
 578:../Dave/Generated/CMSIS_DSP/TransformFunctions/arm_cfft_radix4_q31.c **** 
 579:../Dave/Generated/CMSIS_DSP/TransformFunctions/arm_cfft_radix4_q31.c ****         /* xa - xc */
 580:../Dave/Generated/CMSIS_DSP/TransformFunctions/arm_cfft_radix4_q31.c ****         r2 = pSi0[0] - pSi2[0];
 757              	 .loc 1 580 0 discriminator 3
 758 0670 D7F89031 	 ldr r3,[r7,#400]
 759 0674 1A68     	 ldr r2,[r3]
 760 0676 D7F88831 	 ldr r3,[r7,#392]
 761 067a 1B68     	 ldr r3,[r3]
 762 067c D31A     	 subs r3,r2,r3
 763 067e C7F87831 	 str r3,[r7,#376]
 581:../Dave/Generated/CMSIS_DSP/TransformFunctions/arm_cfft_radix4_q31.c **** 
 582:../Dave/Generated/CMSIS_DSP/TransformFunctions/arm_cfft_radix4_q31.c **** 
 583:../Dave/Generated/CMSIS_DSP/TransformFunctions/arm_cfft_radix4_q31.c ****         /* ya + yc */
 584:../Dave/Generated/CMSIS_DSP/TransformFunctions/arm_cfft_radix4_q31.c ****         s1 = pSi0[1] + pSi2[1];
 764              	 .loc 1 584 0 discriminator 3
 765 0682 D7F89031 	 ldr r3,[r7,#400]
 766 0686 0433     	 adds r3,r3,#4
 767 0688 1A68     	 ldr r2,[r3]
 768 068a D7F88831 	 ldr r3,[r7,#392]
 769 068e 0433     	 adds r3,r3,#4
 770 0690 1B68     	 ldr r3,[r3]
 771 0692 1344     	 add r3,r3,r2
 772 0694 C7F87031 	 str r3,[r7,#368]
 585:../Dave/Generated/CMSIS_DSP/TransformFunctions/arm_cfft_radix4_q31.c **** 
 586:../Dave/Generated/CMSIS_DSP/TransformFunctions/arm_cfft_radix4_q31.c ****         /* ya - yc */
 587:../Dave/Generated/CMSIS_DSP/TransformFunctions/arm_cfft_radix4_q31.c ****         s2 = pSi0[1] - pSi2[1];
 773              	 .loc 1 587 0 discriminator 3
 774 0698 D7F89031 	 ldr r3,[r7,#400]
 775 069c 0433     	 adds r3,r3,#4
 776 069e 1A68     	 ldr r2,[r3]
 777 06a0 D7F88831 	 ldr r3,[r7,#392]
 778 06a4 0433     	 adds r3,r3,#4
 779 06a6 1B68     	 ldr r3,[r3]
 780 06a8 D31A     	 subs r3,r2,r3
 781 06aa C7F86C31 	 str r3,[r7,#364]
 588:../Dave/Generated/CMSIS_DSP/TransformFunctions/arm_cfft_radix4_q31.c **** 
 589:../Dave/Generated/CMSIS_DSP/TransformFunctions/arm_cfft_radix4_q31.c **** 
 590:../Dave/Generated/CMSIS_DSP/TransformFunctions/arm_cfft_radix4_q31.c ****         /* xb + xd */
 591:../Dave/Generated/CMSIS_DSP/TransformFunctions/arm_cfft_radix4_q31.c ****         t1 = pSi1[0] + pSi3[0];
 782              	 .loc 1 591 0 discriminator 3
 783 06ae D7F88C31 	 ldr r3,[r7,#396]
 784 06b2 1A68     	 ldr r2,[r3]
 785 06b4 D7F88431 	 ldr r3,[r7,#388]
 786 06b8 1B68     	 ldr r3,[r3]
 787 06ba 1344     	 add r3,r3,r2
 788 06bc C7F87431 	 str r3,[r7,#372]
 592:../Dave/Generated/CMSIS_DSP/TransformFunctions/arm_cfft_radix4_q31.c **** 
 593:../Dave/Generated/CMSIS_DSP/TransformFunctions/arm_cfft_radix4_q31.c **** 
 594:../Dave/Generated/CMSIS_DSP/TransformFunctions/arm_cfft_radix4_q31.c ****         /* xa' = xa + xb + xc + xd */
 595:../Dave/Generated/CMSIS_DSP/TransformFunctions/arm_cfft_radix4_q31.c ****         pSi0[0] = (r1 + t1) >> 2u;
 789              	 .loc 1 595 0 discriminator 3
 790 06c0 D7F87C21 	 ldr r2,[r7,#380]
 791 06c4 D7F87431 	 ldr r3,[r7,#372]
 792 06c8 1344     	 add r3,r3,r2
 793 06ca 9A10     	 asrs r2,r3,#2
 794 06cc D7F89031 	 ldr r3,[r7,#400]
 795 06d0 1A60     	 str r2,[r3]
 596:../Dave/Generated/CMSIS_DSP/TransformFunctions/arm_cfft_radix4_q31.c ****         /* xa + xc -(xb + xd) */
 597:../Dave/Generated/CMSIS_DSP/TransformFunctions/arm_cfft_radix4_q31.c ****         r1 = r1 - t1;
 796              	 .loc 1 597 0 discriminator 3
 797 06d2 D7F87C21 	 ldr r2,[r7,#380]
 798 06d6 D7F87431 	 ldr r3,[r7,#372]
 799 06da D31A     	 subs r3,r2,r3
 800 06dc C7F87C31 	 str r3,[r7,#380]
 598:../Dave/Generated/CMSIS_DSP/TransformFunctions/arm_cfft_radix4_q31.c **** 
 599:../Dave/Generated/CMSIS_DSP/TransformFunctions/arm_cfft_radix4_q31.c ****         /* yb + yd */
 600:../Dave/Generated/CMSIS_DSP/TransformFunctions/arm_cfft_radix4_q31.c ****         t2 = pSi1[1] + pSi3[1];
 801              	 .loc 1 600 0 discriminator 3
 802 06e0 D7F88C31 	 ldr r3,[r7,#396]
 803 06e4 0433     	 adds r3,r3,#4
 804 06e6 1A68     	 ldr r2,[r3]
 805 06e8 D7F88431 	 ldr r3,[r7,#388]
 806 06ec 0433     	 adds r3,r3,#4
 807 06ee 1B68     	 ldr r3,[r3]
 808 06f0 1344     	 add r3,r3,r2
 809 06f2 C7F86831 	 str r3,[r7,#360]
 601:../Dave/Generated/CMSIS_DSP/TransformFunctions/arm_cfft_radix4_q31.c **** 
 602:../Dave/Generated/CMSIS_DSP/TransformFunctions/arm_cfft_radix4_q31.c ****         /* ya' = ya + yb + yc + yd */
 603:../Dave/Generated/CMSIS_DSP/TransformFunctions/arm_cfft_radix4_q31.c ****         pSi0[1] = (s1 + t2) >> 2u;
 810              	 .loc 1 603 0 discriminator 3
 811 06f6 D7F89031 	 ldr r3,[r7,#400]
 812 06fa 191D     	 adds r1,r3,#4
 813 06fc D7F87021 	 ldr r2,[r7,#368]
 814 0700 D7F86831 	 ldr r3,[r7,#360]
 815 0704 1344     	 add r3,r3,r2
 816 0706 9B10     	 asrs r3,r3,#2
 817 0708 0B60     	 str r3,[r1]
 604:../Dave/Generated/CMSIS_DSP/TransformFunctions/arm_cfft_radix4_q31.c ****         pSi0 += 2 * n1;
 818              	 .loc 1 604 0 discriminator 3
 819 070a D7F88031 	 ldr r3,[r7,#384]
 820 070e DA00     	 lsls r2,r3,#3
 821 0710 D7F89031 	 ldr r3,[r7,#400]
 822 0714 1344     	 add r3,r3,r2
 823 0716 C7F89031 	 str r3,[r7,#400]
 605:../Dave/Generated/CMSIS_DSP/TransformFunctions/arm_cfft_radix4_q31.c **** 
 606:../Dave/Generated/CMSIS_DSP/TransformFunctions/arm_cfft_radix4_q31.c ****         /* (ya + yc) - (yb + yd) */
 607:../Dave/Generated/CMSIS_DSP/TransformFunctions/arm_cfft_radix4_q31.c ****         s1 = s1 - t2;
 824              	 .loc 1 607 0 discriminator 3
 825 071a D7F87021 	 ldr r2,[r7,#368]
 826 071e D7F86831 	 ldr r3,[r7,#360]
 827 0722 D31A     	 subs r3,r2,r3
 828 0724 C7F87031 	 str r3,[r7,#368]
 608:../Dave/Generated/CMSIS_DSP/TransformFunctions/arm_cfft_radix4_q31.c **** 
 609:../Dave/Generated/CMSIS_DSP/TransformFunctions/arm_cfft_radix4_q31.c ****         /* (yb - yd) */
 610:../Dave/Generated/CMSIS_DSP/TransformFunctions/arm_cfft_radix4_q31.c ****         t1 = pSi1[1] - pSi3[1];
 829              	 .loc 1 610 0 discriminator 3
 830 0728 D7F88C31 	 ldr r3,[r7,#396]
 831 072c 0433     	 adds r3,r3,#4
 832 072e 1A68     	 ldr r2,[r3]
 833 0730 D7F88431 	 ldr r3,[r7,#388]
 834 0734 0433     	 adds r3,r3,#4
 835 0736 1B68     	 ldr r3,[r3]
 836 0738 D31A     	 subs r3,r2,r3
 837 073a C7F87431 	 str r3,[r7,#372]
 611:../Dave/Generated/CMSIS_DSP/TransformFunctions/arm_cfft_radix4_q31.c **** 
 612:../Dave/Generated/CMSIS_DSP/TransformFunctions/arm_cfft_radix4_q31.c ****         /* (xb - xd) */
 613:../Dave/Generated/CMSIS_DSP/TransformFunctions/arm_cfft_radix4_q31.c ****         t2 = pSi1[0] - pSi3[0];
 838              	 .loc 1 613 0 discriminator 3
 839 073e D7F88C31 	 ldr r3,[r7,#396]
 840 0742 1A68     	 ldr r2,[r3]
 841 0744 D7F88431 	 ldr r3,[r7,#388]
 842 0748 1B68     	 ldr r3,[r3]
 843 074a D31A     	 subs r3,r2,r3
 844 074c C7F86831 	 str r3,[r7,#360]
 614:../Dave/Generated/CMSIS_DSP/TransformFunctions/arm_cfft_radix4_q31.c **** 
 615:../Dave/Generated/CMSIS_DSP/TransformFunctions/arm_cfft_radix4_q31.c **** 
 616:../Dave/Generated/CMSIS_DSP/TransformFunctions/arm_cfft_radix4_q31.c ****         /* xc' = (xa-xb+xc-xd)co2 + (ya-yb+yc-yd)(si2) */
 617:../Dave/Generated/CMSIS_DSP/TransformFunctions/arm_cfft_radix4_q31.c ****         pSi1[0] = (((int32_t) (((q63_t) r1 * co2) >> 32)) +
 845              	 .loc 1 617 0 discriminator 3
 846 0750 D7F87C31 	 ldr r3,[r7,#380]
 847 0754 1846     	 mov r0,r3
 848 0756 4FEAE071 	 asr r1,r0,#31
 849 075a D7F86031 	 ldr r3,[r7,#352]
 850 075e 1A46     	 mov r2,r3
 851 0760 4FEAE273 	 asr r3,r2,#31
 852 0764 02FB01F5 	 mul r5,r2,r1
 853 0768 00FB03F4 	 mul r4,r0,r3
 854 076c 2C44     	 add r4,r4,r5
 855 076e A0FB0223 	 umull r2,r3,r0,r2
 856 0772 E118     	 adds r1,r4,r3
 857 0774 0B46     	 mov r3,r1
 858 0776 1900     	 movs r1,r3
 859 0778 B967     	 str r1,[r7,#120]
 860 077a DB17     	 asrs r3,r3,#31
 861 077c FB67     	 str r3,[r7,#124]
 862 077e BE6F     	 ldr r6,[r7,#120]
 618:../Dave/Generated/CMSIS_DSP/TransformFunctions/arm_cfft_radix4_q31.c ****                          ((int32_t) (((q63_t) s1 * si2) >> 32))) >> 1u;
 863              	 .loc 1 618 0 discriminator 3
 864 0780 D7F87031 	 ldr r3,[r7,#368]
 865 0784 1846     	 mov r0,r3
 866 0786 4FEAE071 	 asr r1,r0,#31
 867 078a D7F85C31 	 ldr r3,[r7,#348]
 868 078e 1A46     	 mov r2,r3
 869 0790 4FEAE273 	 asr r3,r2,#31
 870 0794 02FB01F5 	 mul r5,r2,r1
 871 0798 00FB03F4 	 mul r4,r0,r3
 872 079c 2C44     	 add r4,r4,r5
 873 079e A0FB0223 	 umull r2,r3,r0,r2
 874 07a2 E118     	 adds r1,r4,r3
 875 07a4 0B46     	 mov r3,r1
 876 07a6 1900     	 movs r1,r3
 877 07a8 3967     	 str r1,[r7,#112]
 878 07aa DB17     	 asrs r3,r3,#31
 879 07ac 7B67     	 str r3,[r7,#116]
 880 07ae 3B6F     	 ldr r3,[r7,#112]
 617:../Dave/Generated/CMSIS_DSP/TransformFunctions/arm_cfft_radix4_q31.c ****                          ((int32_t) (((q63_t) s1 * si2) >> 32))) >> 1u;
 881              	 .loc 1 617 0 discriminator 3
 882 07b0 3344     	 add r3,r3,r6
 883              	 .loc 1 618 0 discriminator 3
 884 07b2 5A10     	 asrs r2,r3,#1
 617:../Dave/Generated/CMSIS_DSP/TransformFunctions/arm_cfft_radix4_q31.c ****                          ((int32_t) (((q63_t) s1 * si2) >> 32))) >> 1u;
 885              	 .loc 1 617 0 discriminator 3
 886 07b4 D7F88C31 	 ldr r3,[r7,#396]
 887 07b8 1A60     	 str r2,[r3]
 619:../Dave/Generated/CMSIS_DSP/TransformFunctions/arm_cfft_radix4_q31.c **** 
 620:../Dave/Generated/CMSIS_DSP/TransformFunctions/arm_cfft_radix4_q31.c ****         /* yc' = (ya-yb+yc-yd)co2 - (xa-xb+xc-xd)(si2) */
 621:../Dave/Generated/CMSIS_DSP/TransformFunctions/arm_cfft_radix4_q31.c ****         pSi1[1] = (((int32_t) (((q63_t) s1 * co2) >> 32)) -
 888              	 .loc 1 621 0 discriminator 3
 889 07ba D7F88C31 	 ldr r3,[r7,#396]
 890 07be 03F1040E 	 add lr,r3,#4
 891 07c2 D7F87031 	 ldr r3,[r7,#368]
 892 07c6 1846     	 mov r0,r3
 893 07c8 4FEAE071 	 asr r1,r0,#31
 894 07cc D7F86031 	 ldr r3,[r7,#352]
 895 07d0 1A46     	 mov r2,r3
 896 07d2 4FEAE273 	 asr r3,r2,#31
 897 07d6 02FB01F5 	 mul r5,r2,r1
 898 07da 00FB03F4 	 mul r4,r0,r3
 899 07de 2C44     	 add r4,r4,r5
 900 07e0 A0FB0223 	 umull r2,r3,r0,r2
 901 07e4 E118     	 adds r1,r4,r3
 902 07e6 0B46     	 mov r3,r1
 903 07e8 1900     	 movs r1,r3
 904 07ea B966     	 str r1,[r7,#104]
 905 07ec DB17     	 asrs r3,r3,#31
 906 07ee FB66     	 str r3,[r7,#108]
 907 07f0 BE6E     	 ldr r6,[r7,#104]
 622:../Dave/Generated/CMSIS_DSP/TransformFunctions/arm_cfft_radix4_q31.c ****                                 ((int32_t) (((q63_t) r1 * si2) >> 32))) >> 1u;
 908              	 .loc 1 622 0 discriminator 3
 909 07f2 D7F87C31 	 ldr r3,[r7,#380]
 910 07f6 1846     	 mov r0,r3
 911 07f8 4FEAE071 	 asr r1,r0,#31
 912 07fc D7F85C31 	 ldr r3,[r7,#348]
 913 0800 1A46     	 mov r2,r3
 914 0802 4FEAE273 	 asr r3,r2,#31
 915 0806 02FB01F5 	 mul r5,r2,r1
 916 080a 00FB03F4 	 mul r4,r0,r3
 917 080e 2C44     	 add r4,r4,r5
 918 0810 A0FB0223 	 umull r2,r3,r0,r2
 919 0814 E118     	 adds r1,r4,r3
 920 0816 0B46     	 mov r3,r1
 921 0818 1900     	 movs r1,r3
 922 081a 3966     	 str r1,[r7,#96]
 923 081c DB17     	 asrs r3,r3,#31
 924 081e 7B66     	 str r3,[r7,#100]
 925 0820 3B6E     	 ldr r3,[r7,#96]
 621:../Dave/Generated/CMSIS_DSP/TransformFunctions/arm_cfft_radix4_q31.c ****                                 ((int32_t) (((q63_t) r1 * si2) >> 32))) >> 1u;
 926              	 .loc 1 621 0 discriminator 3
 927 0822 F31A     	 subs r3,r6,r3
 928              	 .loc 1 622 0 discriminator 3
 929 0824 5B10     	 asrs r3,r3,#1
 621:../Dave/Generated/CMSIS_DSP/TransformFunctions/arm_cfft_radix4_q31.c ****                                 ((int32_t) (((q63_t) r1 * si2) >> 32))) >> 1u;
 930              	 .loc 1 621 0 discriminator 3
 931 0826 CEF80030 	 str r3,[lr]
 623:../Dave/Generated/CMSIS_DSP/TransformFunctions/arm_cfft_radix4_q31.c ****         pSi1 += 2 * n1;
 932              	 .loc 1 623 0 discriminator 3
 933 082a D7F88031 	 ldr r3,[r7,#384]
 934 082e DA00     	 lsls r2,r3,#3
 935 0830 D7F88C31 	 ldr r3,[r7,#396]
 936 0834 1344     	 add r3,r3,r2
 937 0836 C7F88C31 	 str r3,[r7,#396]
 624:../Dave/Generated/CMSIS_DSP/TransformFunctions/arm_cfft_radix4_q31.c **** 
 625:../Dave/Generated/CMSIS_DSP/TransformFunctions/arm_cfft_radix4_q31.c ****         /* (xa - xc) + (yb - yd) */
 626:../Dave/Generated/CMSIS_DSP/TransformFunctions/arm_cfft_radix4_q31.c ****         r1 = r2 + t1;
 938              	 .loc 1 626 0 discriminator 3
 939 083a D7F87821 	 ldr r2,[r7,#376]
 940 083e D7F87431 	 ldr r3,[r7,#372]
 941 0842 1344     	 add r3,r3,r2
 942 0844 C7F87C31 	 str r3,[r7,#380]
 627:../Dave/Generated/CMSIS_DSP/TransformFunctions/arm_cfft_radix4_q31.c ****         /* (xa - xc) - (yb - yd) */
 628:../Dave/Generated/CMSIS_DSP/TransformFunctions/arm_cfft_radix4_q31.c ****         r2 = r2 - t1;
 943              	 .loc 1 628 0 discriminator 3
 944 0848 D7F87821 	 ldr r2,[r7,#376]
 945 084c D7F87431 	 ldr r3,[r7,#372]
 946 0850 D31A     	 subs r3,r2,r3
 947 0852 C7F87831 	 str r3,[r7,#376]
 629:../Dave/Generated/CMSIS_DSP/TransformFunctions/arm_cfft_radix4_q31.c **** 
 630:../Dave/Generated/CMSIS_DSP/TransformFunctions/arm_cfft_radix4_q31.c ****         /* (ya - yc) -  (xb - xd) */
 631:../Dave/Generated/CMSIS_DSP/TransformFunctions/arm_cfft_radix4_q31.c ****         s1 = s2 - t2;
 948              	 .loc 1 631 0 discriminator 3
 949 0856 D7F86C21 	 ldr r2,[r7,#364]
 950 085a D7F86831 	 ldr r3,[r7,#360]
 951 085e D31A     	 subs r3,r2,r3
 952 0860 C7F87031 	 str r3,[r7,#368]
 632:../Dave/Generated/CMSIS_DSP/TransformFunctions/arm_cfft_radix4_q31.c ****         /* (ya - yc) +  (xb - xd) */
 633:../Dave/Generated/CMSIS_DSP/TransformFunctions/arm_cfft_radix4_q31.c ****         s2 = s2 + t2;
 953              	 .loc 1 633 0 discriminator 3
 954 0864 D7F86C21 	 ldr r2,[r7,#364]
 955 0868 D7F86831 	 ldr r3,[r7,#360]
 956 086c 1344     	 add r3,r3,r2
 957 086e C7F86C31 	 str r3,[r7,#364]
 634:../Dave/Generated/CMSIS_DSP/TransformFunctions/arm_cfft_radix4_q31.c **** 
 635:../Dave/Generated/CMSIS_DSP/TransformFunctions/arm_cfft_radix4_q31.c ****         /* xb' = (xa+yb-xc-yd)co1 + (ya-xb-yc+xd)(si1) */
 636:../Dave/Generated/CMSIS_DSP/TransformFunctions/arm_cfft_radix4_q31.c ****         pSi2[0] = (((int32_t) (((q63_t) r1 * co1) >> 32)) +
 958              	 .loc 1 636 0 discriminator 3
 959 0872 D7F87C31 	 ldr r3,[r7,#380]
 960 0876 1846     	 mov r0,r3
 961 0878 4FEAE071 	 asr r1,r0,#31
 962 087c D7F85831 	 ldr r3,[r7,#344]
 963 0880 1A46     	 mov r2,r3
 964 0882 4FEAE273 	 asr r3,r2,#31
 965 0886 02FB01F5 	 mul r5,r2,r1
 966 088a 00FB03F4 	 mul r4,r0,r3
 967 088e 2C44     	 add r4,r4,r5
 968 0890 A0FB0223 	 umull r2,r3,r0,r2
 969 0894 E118     	 adds r1,r4,r3
 970 0896 0B46     	 mov r3,r1
 971 0898 1900     	 movs r1,r3
 972 089a B965     	 str r1,[r7,#88]
 973 089c DB17     	 asrs r3,r3,#31
 974 089e FB65     	 str r3,[r7,#92]
 975 08a0 BE6D     	 ldr r6,[r7,#88]
 637:../Dave/Generated/CMSIS_DSP/TransformFunctions/arm_cfft_radix4_q31.c ****                          ((int32_t) (((q63_t) s1 * si1) >> 32))) >> 1u;
 976              	 .loc 1 637 0 discriminator 3
 977 08a2 D7F87031 	 ldr r3,[r7,#368]
 978 08a6 1846     	 mov r0,r3
 979 08a8 4FEAE071 	 asr r1,r0,#31
 980 08ac D7F85431 	 ldr r3,[r7,#340]
 981 08b0 1A46     	 mov r2,r3
 982 08b2 4FEAE273 	 asr r3,r2,#31
 983 08b6 02FB01F5 	 mul r5,r2,r1
 984 08ba 00FB03F4 	 mul r4,r0,r3
 985 08be 2C44     	 add r4,r4,r5
 986 08c0 A0FB0223 	 umull r2,r3,r0,r2
 987 08c4 E118     	 adds r1,r4,r3
 988 08c6 0B46     	 mov r3,r1
 989 08c8 1900     	 movs r1,r3
 990 08ca 3965     	 str r1,[r7,#80]
 991 08cc DB17     	 asrs r3,r3,#31
 992 08ce 7B65     	 str r3,[r7,#84]
 993 08d0 3B6D     	 ldr r3,[r7,#80]
 636:../Dave/Generated/CMSIS_DSP/TransformFunctions/arm_cfft_radix4_q31.c ****                          ((int32_t) (((q63_t) s1 * si1) >> 32))) >> 1u;
 994              	 .loc 1 636 0 discriminator 3
 995 08d2 3344     	 add r3,r3,r6
 996              	 .loc 1 637 0 discriminator 3
 997 08d4 5A10     	 asrs r2,r3,#1
 636:../Dave/Generated/CMSIS_DSP/TransformFunctions/arm_cfft_radix4_q31.c ****                          ((int32_t) (((q63_t) s1 * si1) >> 32))) >> 1u;
 998              	 .loc 1 636 0 discriminator 3
 999 08d6 D7F88831 	 ldr r3,[r7,#392]
 1000 08da 1A60     	 str r2,[r3]
 638:../Dave/Generated/CMSIS_DSP/TransformFunctions/arm_cfft_radix4_q31.c **** 
 639:../Dave/Generated/CMSIS_DSP/TransformFunctions/arm_cfft_radix4_q31.c ****         /* yb' = (ya-xb-yc+xd)co1 - (xa+yb-xc-yd)(si1) */
 640:../Dave/Generated/CMSIS_DSP/TransformFunctions/arm_cfft_radix4_q31.c ****         pSi2[1] = (((int32_t) (((q63_t) s1 * co1) >> 32)) -
 1001              	 .loc 1 640 0 discriminator 3
 1002 08dc D7F88831 	 ldr r3,[r7,#392]
 1003 08e0 03F1040E 	 add lr,r3,#4
 1004 08e4 D7F87031 	 ldr r3,[r7,#368]
 1005 08e8 1846     	 mov r0,r3
 1006 08ea 4FEAE071 	 asr r1,r0,#31
 1007 08ee D7F85831 	 ldr r3,[r7,#344]
 1008 08f2 1A46     	 mov r2,r3
 1009 08f4 4FEAE273 	 asr r3,r2,#31
 1010 08f8 02FB01F5 	 mul r5,r2,r1
 1011 08fc 00FB03F4 	 mul r4,r0,r3
 1012 0900 2C44     	 add r4,r4,r5
 1013 0902 A0FB0223 	 umull r2,r3,r0,r2
 1014 0906 E118     	 adds r1,r4,r3
 1015 0908 0B46     	 mov r3,r1
 1016 090a 1900     	 movs r1,r3
 1017 090c B964     	 str r1,[r7,#72]
 1018 090e DB17     	 asrs r3,r3,#31
 1019 0910 FB64     	 str r3,[r7,#76]
 1020 0912 BE6C     	 ldr r6,[r7,#72]
 641:../Dave/Generated/CMSIS_DSP/TransformFunctions/arm_cfft_radix4_q31.c ****                                 ((int32_t) (((q63_t) r1 * si1) >> 32))) >> 1u;
 1021              	 .loc 1 641 0 discriminator 3
 1022 0914 D7F87C31 	 ldr r3,[r7,#380]
 1023 0918 1846     	 mov r0,r3
 1024 091a 4FEAE071 	 asr r1,r0,#31
 1025 091e D7F85431 	 ldr r3,[r7,#340]
 1026 0922 1A46     	 mov r2,r3
 1027 0924 4FEAE273 	 asr r3,r2,#31
 1028 0928 02FB01F5 	 mul r5,r2,r1
 1029 092c 00FB03F4 	 mul r4,r0,r3
 1030 0930 2C44     	 add r4,r4,r5
 1031 0932 A0FB0223 	 umull r2,r3,r0,r2
 1032 0936 E118     	 adds r1,r4,r3
 1033 0938 0B46     	 mov r3,r1
 1034 093a 1900     	 movs r1,r3
 1035 093c 3964     	 str r1,[r7,#64]
 1036 093e DB17     	 asrs r3,r3,#31
 1037 0940 7B64     	 str r3,[r7,#68]
 1038 0942 3B6C     	 ldr r3,[r7,#64]
 640:../Dave/Generated/CMSIS_DSP/TransformFunctions/arm_cfft_radix4_q31.c ****                                 ((int32_t) (((q63_t) r1 * si1) >> 32))) >> 1u;
 1039              	 .loc 1 640 0 discriminator 3
 1040 0944 F31A     	 subs r3,r6,r3
 1041              	 .loc 1 641 0 discriminator 3
 1042 0946 5B10     	 asrs r3,r3,#1
 640:../Dave/Generated/CMSIS_DSP/TransformFunctions/arm_cfft_radix4_q31.c ****                                 ((int32_t) (((q63_t) r1 * si1) >> 32))) >> 1u;
 1043              	 .loc 1 640 0 discriminator 3
 1044 0948 CEF80030 	 str r3,[lr]
 642:../Dave/Generated/CMSIS_DSP/TransformFunctions/arm_cfft_radix4_q31.c ****         pSi2 += 2 * n1;
 1045              	 .loc 1 642 0 discriminator 3
 1046 094c D7F88031 	 ldr r3,[r7,#384]
 1047 0950 DA00     	 lsls r2,r3,#3
 1048 0952 D7F88831 	 ldr r3,[r7,#392]
 1049 0956 1344     	 add r3,r3,r2
 1050 0958 C7F88831 	 str r3,[r7,#392]
 643:../Dave/Generated/CMSIS_DSP/TransformFunctions/arm_cfft_radix4_q31.c **** 
 644:../Dave/Generated/CMSIS_DSP/TransformFunctions/arm_cfft_radix4_q31.c ****         /* xd' = (xa-yb-xc+yd)co3 + (ya+xb-yc-xd)(si3) */
 645:../Dave/Generated/CMSIS_DSP/TransformFunctions/arm_cfft_radix4_q31.c ****         pSi3[0] = (((int32_t) (((q63_t) r2 * co3) >> 32)) +
 1051              	 .loc 1 645 0 discriminator 3
 1052 095c D7F87831 	 ldr r3,[r7,#376]
 1053 0960 1846     	 mov r0,r3
 1054 0962 4FEAE071 	 asr r1,r0,#31
 1055 0966 D7F84C31 	 ldr r3,[r7,#332]
 1056 096a 1A46     	 mov r2,r3
 1057 096c 4FEAE273 	 asr r3,r2,#31
 1058 0970 02FB01F5 	 mul r5,r2,r1
 1059 0974 00FB03F4 	 mul r4,r0,r3
 1060 0978 2C44     	 add r4,r4,r5
 1061 097a A0FB0223 	 umull r2,r3,r0,r2
 1062 097e E118     	 adds r1,r4,r3
 1063 0980 0B46     	 mov r3,r1
 1064 0982 1900     	 movs r1,r3
 1065 0984 B963     	 str r1,[r7,#56]
 1066 0986 DB17     	 asrs r3,r3,#31
 1067 0988 FB63     	 str r3,[r7,#60]
 1068 098a BE6B     	 ldr r6,[r7,#56]
 646:../Dave/Generated/CMSIS_DSP/TransformFunctions/arm_cfft_radix4_q31.c ****                          ((int32_t) (((q63_t) s2 * si3) >> 32))) >> 1u;
 1069              	 .loc 1 646 0 discriminator 3
 1070 098c D7F86C31 	 ldr r3,[r7,#364]
 1071 0990 1846     	 mov r0,r3
 1072 0992 4FEAE071 	 asr r1,r0,#31
 1073 0996 D7F84831 	 ldr r3,[r7,#328]
 1074 099a 1A46     	 mov r2,r3
 1075 099c 4FEAE273 	 asr r3,r2,#31
 1076 09a0 02FB01F5 	 mul r5,r2,r1
 1077 09a4 00FB03F4 	 mul r4,r0,r3
 1078 09a8 2C44     	 add r4,r4,r5
 1079 09aa A0FB0223 	 umull r2,r3,r0,r2
 1080 09ae E118     	 adds r1,r4,r3
 1081 09b0 0B46     	 mov r3,r1
 1082 09b2 1900     	 movs r1,r3
 1083 09b4 3963     	 str r1,[r7,#48]
 1084 09b6 DB17     	 asrs r3,r3,#31
 1085 09b8 7B63     	 str r3,[r7,#52]
 1086 09ba 3B6B     	 ldr r3,[r7,#48]
 645:../Dave/Generated/CMSIS_DSP/TransformFunctions/arm_cfft_radix4_q31.c ****                          ((int32_t) (((q63_t) s2 * si3) >> 32))) >> 1u;
 1087              	 .loc 1 645 0 discriminator 3
 1088 09bc 3344     	 add r3,r3,r6
 1089              	 .loc 1 646 0 discriminator 3
 1090 09be 5A10     	 asrs r2,r3,#1
 645:../Dave/Generated/CMSIS_DSP/TransformFunctions/arm_cfft_radix4_q31.c ****                          ((int32_t) (((q63_t) s2 * si3) >> 32))) >> 1u;
 1091              	 .loc 1 645 0 discriminator 3
 1092 09c0 D7F88431 	 ldr r3,[r7,#388]
 1093 09c4 1A60     	 str r2,[r3]
 647:../Dave/Generated/CMSIS_DSP/TransformFunctions/arm_cfft_radix4_q31.c **** 
 648:../Dave/Generated/CMSIS_DSP/TransformFunctions/arm_cfft_radix4_q31.c ****         /* yd' = (ya+xb-yc-xd)co3 - (xa-yb-xc+yd)(si3) */
 649:../Dave/Generated/CMSIS_DSP/TransformFunctions/arm_cfft_radix4_q31.c ****         pSi3[1] = (((int32_t) (((q63_t) s2 * co3) >> 32)) -
 1094              	 .loc 1 649 0 discriminator 3
 1095 09c6 D7F88431 	 ldr r3,[r7,#388]
 1096 09ca 03F1040E 	 add lr,r3,#4
 1097 09ce D7F86C31 	 ldr r3,[r7,#364]
 1098 09d2 1846     	 mov r0,r3
 1099 09d4 4FEAE071 	 asr r1,r0,#31
 1100 09d8 D7F84C31 	 ldr r3,[r7,#332]
 1101 09dc 1A46     	 mov r2,r3
 1102 09de 4FEAE273 	 asr r3,r2,#31
 1103 09e2 02FB01F5 	 mul r5,r2,r1
 1104 09e6 00FB03F4 	 mul r4,r0,r3
 1105 09ea 2C44     	 add r4,r4,r5
 1106 09ec A0FB0223 	 umull r2,r3,r0,r2
 1107 09f0 E118     	 adds r1,r4,r3
 1108 09f2 0B46     	 mov r3,r1
 1109 09f4 1900     	 movs r1,r3
 1110 09f6 B962     	 str r1,[r7,#40]
 1111 09f8 DB17     	 asrs r3,r3,#31
 1112 09fa FB62     	 str r3,[r7,#44]
 1113 09fc BE6A     	 ldr r6,[r7,#40]
 650:../Dave/Generated/CMSIS_DSP/TransformFunctions/arm_cfft_radix4_q31.c ****                                 ((int32_t) (((q63_t) r2 * si3) >> 32))) >> 1u;
 1114              	 .loc 1 650 0 discriminator 3
 1115 09fe D7F87831 	 ldr r3,[r7,#376]
 1116 0a02 1846     	 mov r0,r3
 1117 0a04 4FEAE071 	 asr r1,r0,#31
 1118 0a08 D7F84831 	 ldr r3,[r7,#328]
 1119 0a0c 1A46     	 mov r2,r3
 1120 0a0e 4FEAE273 	 asr r3,r2,#31
 1121 0a12 02FB01F5 	 mul r5,r2,r1
 1122 0a16 00FB03F4 	 mul r4,r0,r3
 1123 0a1a 2C44     	 add r4,r4,r5
 1124 0a1c A0FB0223 	 umull r2,r3,r0,r2
 1125 0a20 E118     	 adds r1,r4,r3
 1126 0a22 0B46     	 mov r3,r1
 1127 0a24 1900     	 movs r1,r3
 1128 0a26 3962     	 str r1,[r7,#32]
 1129 0a28 DB17     	 asrs r3,r3,#31
 1130 0a2a 7B62     	 str r3,[r7,#36]
 1131 0a2c 3B6A     	 ldr r3,[r7,#32]
 649:../Dave/Generated/CMSIS_DSP/TransformFunctions/arm_cfft_radix4_q31.c ****                                 ((int32_t) (((q63_t) r2 * si3) >> 32))) >> 1u;
 1132              	 .loc 1 649 0 discriminator 3
 1133 0a2e F31A     	 subs r3,r6,r3
 1134              	 .loc 1 650 0 discriminator 3
 1135 0a30 5B10     	 asrs r3,r3,#1
 649:../Dave/Generated/CMSIS_DSP/TransformFunctions/arm_cfft_radix4_q31.c ****                                 ((int32_t) (((q63_t) r2 * si3) >> 32))) >> 1u;
 1136              	 .loc 1 649 0 discriminator 3
 1137 0a32 CEF80030 	 str r3,[lr]
 651:../Dave/Generated/CMSIS_DSP/TransformFunctions/arm_cfft_radix4_q31.c ****         pSi3 += 2 * n1;
 1138              	 .loc 1 651 0 discriminator 3
 1139 0a36 D7F88031 	 ldr r3,[r7,#384]
 1140 0a3a DA00     	 lsls r2,r3,#3
 1141 0a3c D7F88431 	 ldr r3,[r7,#388]
 1142 0a40 1344     	 add r3,r3,r2
 1143 0a42 C7F88431 	 str r3,[r7,#388]
 573:../Dave/Generated/CMSIS_DSP/TransformFunctions/arm_cfft_radix4_q31.c ****       {
 1144              	 .loc 1 573 0 discriminator 3
 1145 0a46 D7F89C21 	 ldr r2,[r7,#412]
 1146 0a4a D7F88031 	 ldr r3,[r7,#384]
 1147 0a4e 1344     	 add r3,r3,r2
 1148 0a50 C7F89C31 	 str r3,[r7,#412]
 1149              	.L9:
 573:../Dave/Generated/CMSIS_DSP/TransformFunctions/arm_cfft_radix4_q31.c ****       {
 1150              	 .loc 1 573 0 is_stmt 0 discriminator 1
 1151 0a54 D7F89C21 	 ldr r2,[r7,#412]
 1152 0a58 D7F8D830 	 ldr r3,[r7,#216]
 1153 0a5c 9A42     	 cmp r2,r3
 1154 0a5e FFF4FEAD 	 bcc .L10
 554:../Dave/Generated/CMSIS_DSP/TransformFunctions/arm_cfft_radix4_q31.c ****     {
 1155              	 .loc 1 554 0 is_stmt 1 discriminator 2
 1156 0a62 D7F89831 	 ldr r3,[r7,#408]
 1157 0a66 0133     	 adds r3,r3,#1
 1158 0a68 C7F89831 	 str r3,[r7,#408]
 1159              	.L8:
 554:../Dave/Generated/CMSIS_DSP/TransformFunctions/arm_cfft_radix4_q31.c ****     {
 1160              	 .loc 1 554 0 is_stmt 0 discriminator 1
 1161 0a6c D7F8A431 	 ldr r3,[r7,#420]
 1162 0a70 5A1E     	 subs r2,r3,#1
 1163 0a72 D7F89831 	 ldr r3,[r7,#408]
 1164 0a76 9A42     	 cmp r2,r3
 1165 0a78 BFF47EAD 	 bcs .L11
 652:../Dave/Generated/CMSIS_DSP/TransformFunctions/arm_cfft_radix4_q31.c ****       }
 653:../Dave/Generated/CMSIS_DSP/TransformFunctions/arm_cfft_radix4_q31.c ****     }
 654:../Dave/Generated/CMSIS_DSP/TransformFunctions/arm_cfft_radix4_q31.c ****     twidCoefModifier <<= 2u;
 1166              	 .loc 1 654 0 is_stmt 1 discriminator 2
 1167 0a7c D7F8D030 	 ldr r3,[r7,#208]
 1168 0a80 9B00     	 lsls r3,r3,#2
 1169 0a82 C7F8D030 	 str r3,[r7,#208]
 546:../Dave/Generated/CMSIS_DSP/TransformFunctions/arm_cfft_radix4_q31.c ****   {
 1170              	 .loc 1 546 0 discriminator 2
 1171 0a86 D7F89431 	 ldr r3,[r7,#404]
 1172 0a8a 9B08     	 lsrs r3,r3,#2
 1173 0a8c C7F89431 	 str r3,[r7,#404]
 1174              	.L7:
 546:../Dave/Generated/CMSIS_DSP/TransformFunctions/arm_cfft_radix4_q31.c ****   {
 1175              	 .loc 1 546 0 is_stmt 0 discriminator 1
 1176 0a90 D7F89431 	 ldr r3,[r7,#404]
 1177 0a94 042B     	 cmp r3,#4
 1178 0a96 3FF65FAD 	 bhi .L12
 655:../Dave/Generated/CMSIS_DSP/TransformFunctions/arm_cfft_radix4_q31.c ****   }
 656:../Dave/Generated/CMSIS_DSP/TransformFunctions/arm_cfft_radix4_q31.c **** #endif
 657:../Dave/Generated/CMSIS_DSP/TransformFunctions/arm_cfft_radix4_q31.c **** 
 658:../Dave/Generated/CMSIS_DSP/TransformFunctions/arm_cfft_radix4_q31.c ****   /* End of Middle stages process */
 659:../Dave/Generated/CMSIS_DSP/TransformFunctions/arm_cfft_radix4_q31.c **** 
 660:../Dave/Generated/CMSIS_DSP/TransformFunctions/arm_cfft_radix4_q31.c ****   /* data is in 11.21(q21) format for the 1024 point as there are 3 middle stages */
 661:../Dave/Generated/CMSIS_DSP/TransformFunctions/arm_cfft_radix4_q31.c ****   /* data is in 9.23(q23) format for the 256 point as there are 2 middle stages */
 662:../Dave/Generated/CMSIS_DSP/TransformFunctions/arm_cfft_radix4_q31.c ****   /* data is in 7.25(q25) format for the 64 point as there are 1 middle stage */
 663:../Dave/Generated/CMSIS_DSP/TransformFunctions/arm_cfft_radix4_q31.c ****   /* data is in 5.27(q27) format for the 16 point as there are no middle stages */
 664:../Dave/Generated/CMSIS_DSP/TransformFunctions/arm_cfft_radix4_q31.c **** 
 665:../Dave/Generated/CMSIS_DSP/TransformFunctions/arm_cfft_radix4_q31.c **** 
 666:../Dave/Generated/CMSIS_DSP/TransformFunctions/arm_cfft_radix4_q31.c ****   /* start of Last stage process */
 667:../Dave/Generated/CMSIS_DSP/TransformFunctions/arm_cfft_radix4_q31.c ****   /*  Initializations for the last stage */
 668:../Dave/Generated/CMSIS_DSP/TransformFunctions/arm_cfft_radix4_q31.c ****   j = fftLen >> 2;
 1179              	 .loc 1 668 0 is_stmt 1
 1180 0a9a D7F8D830 	 ldr r3,[r7,#216]
 1181 0a9e 9B08     	 lsrs r3,r3,#2
 1182 0aa0 C7F89831 	 str r3,[r7,#408]
 669:../Dave/Generated/CMSIS_DSP/TransformFunctions/arm_cfft_radix4_q31.c ****   ptr1 = &pSrc[0];
 1183              	 .loc 1 669 0
 1184 0aa4 D7F8DC30 	 ldr r3,[r7,#220]
 1185 0aa8 C7F8E430 	 str r3,[r7,#228]
 1186              	.L13:
 670:../Dave/Generated/CMSIS_DSP/TransformFunctions/arm_cfft_radix4_q31.c **** 
 671:../Dave/Generated/CMSIS_DSP/TransformFunctions/arm_cfft_radix4_q31.c ****   /*  Calculations of last stage */
 672:../Dave/Generated/CMSIS_DSP/TransformFunctions/arm_cfft_radix4_q31.c ****   do
 673:../Dave/Generated/CMSIS_DSP/TransformFunctions/arm_cfft_radix4_q31.c ****   {
 674:../Dave/Generated/CMSIS_DSP/TransformFunctions/arm_cfft_radix4_q31.c **** 
 675:../Dave/Generated/CMSIS_DSP/TransformFunctions/arm_cfft_radix4_q31.c **** #ifndef ARM_MATH_BIG_ENDIAN
 676:../Dave/Generated/CMSIS_DSP/TransformFunctions/arm_cfft_radix4_q31.c **** 
 677:../Dave/Generated/CMSIS_DSP/TransformFunctions/arm_cfft_radix4_q31.c ****     /* Read xa (real), ya(imag) input */
 678:../Dave/Generated/CMSIS_DSP/TransformFunctions/arm_cfft_radix4_q31.c ****     xaya = *__SIMD64(ptr1)++;
 1187              	 .loc 1 678 0 discriminator 1
 1188 0aac 07F1E402 	 add r2,r7,#228
 1189 0ab0 1368     	 ldr r3,[r2]
 1190 0ab2 03F10801 	 add r1,r3,#8
 1191 0ab6 1160     	 str r1,[r2]
 1192 0ab8 D3E90023 	 ldrd r2,[r3]
 1193 0abc 07F5A071 	 add r1,r7,#320
 1194 0ac0 C1E90023 	 strd r2,[r1]
 679:../Dave/Generated/CMSIS_DSP/TransformFunctions/arm_cfft_radix4_q31.c ****     xa = (q31_t) xaya;
 1195              	 .loc 1 679 0 discriminator 1
 1196 0ac4 D7F84031 	 ldr r3,[r7,#320]
 1197 0ac8 C7F83C31 	 str r3,[r7,#316]
 680:../Dave/Generated/CMSIS_DSP/TransformFunctions/arm_cfft_radix4_q31.c ****     ya = (q31_t) (xaya >> 32);
 1198              	 .loc 1 680 0 discriminator 1
 1199 0acc 07F5A073 	 add r3,r7,#320
 1200 0ad0 D3E90023 	 ldrd r2,[r3]
 1201 0ad4 1900     	 movs r1,r3
 1202 0ad6 B961     	 str r1,[r7,#24]
 1203 0ad8 DB17     	 asrs r3,r3,#31
 1204 0ada FB61     	 str r3,[r7,#28]
 1205 0adc BB69     	 ldr r3,[r7,#24]
 1206 0ade C7F83831 	 str r3,[r7,#312]
 681:../Dave/Generated/CMSIS_DSP/TransformFunctions/arm_cfft_radix4_q31.c **** 
 682:../Dave/Generated/CMSIS_DSP/TransformFunctions/arm_cfft_radix4_q31.c ****     /* Read xb (real), yb(imag) input */
 683:../Dave/Generated/CMSIS_DSP/TransformFunctions/arm_cfft_radix4_q31.c ****     xbyb = *__SIMD64(ptr1)++;
 1207              	 .loc 1 683 0 discriminator 1
 1208 0ae2 07F1E402 	 add r2,r7,#228
 1209 0ae6 1368     	 ldr r3,[r2]
 1210 0ae8 03F10801 	 add r1,r3,#8
 1211 0aec 1160     	 str r1,[r2]
 1212 0aee D3E90023 	 ldrd r2,[r3]
 1213 0af2 07F59871 	 add r1,r7,#304
 1214 0af6 C1E90023 	 strd r2,[r1]
 684:../Dave/Generated/CMSIS_DSP/TransformFunctions/arm_cfft_radix4_q31.c ****     xb = (q31_t) xbyb;
 1215              	 .loc 1 684 0 discriminator 1
 1216 0afa D7F83031 	 ldr r3,[r7,#304]
 1217 0afe C7F82C31 	 str r3,[r7,#300]
 685:../Dave/Generated/CMSIS_DSP/TransformFunctions/arm_cfft_radix4_q31.c ****     yb = (q31_t) (xbyb >> 32);
 1218              	 .loc 1 685 0 discriminator 1
 1219 0b02 07F59873 	 add r3,r7,#304
 1220 0b06 D3E90023 	 ldrd r2,[r3]
 1221 0b0a 1900     	 movs r1,r3
 1222 0b0c 3961     	 str r1,[r7,#16]
 1223 0b0e DB17     	 asrs r3,r3,#31
 1224 0b10 7B61     	 str r3,[r7,#20]
 1225 0b12 3B69     	 ldr r3,[r7,#16]
 1226 0b14 C7F82831 	 str r3,[r7,#296]
 686:../Dave/Generated/CMSIS_DSP/TransformFunctions/arm_cfft_radix4_q31.c **** 
 687:../Dave/Generated/CMSIS_DSP/TransformFunctions/arm_cfft_radix4_q31.c ****     /* Read xc (real), yc(imag) input */
 688:../Dave/Generated/CMSIS_DSP/TransformFunctions/arm_cfft_radix4_q31.c ****     xcyc = *__SIMD64(ptr1)++;
 1227              	 .loc 1 688 0 discriminator 1
 1228 0b18 07F1E402 	 add r2,r7,#228
 1229 0b1c 1368     	 ldr r3,[r2]
 1230 0b1e 03F10801 	 add r1,r3,#8
 1231 0b22 1160     	 str r1,[r2]
 1232 0b24 D3E90023 	 ldrd r2,[r3]
 1233 0b28 07F59071 	 add r1,r7,#288
 1234 0b2c C1E90023 	 strd r2,[r1]
 689:../Dave/Generated/CMSIS_DSP/TransformFunctions/arm_cfft_radix4_q31.c ****     xc = (q31_t) xcyc;
 1235              	 .loc 1 689 0 discriminator 1
 1236 0b30 D7F82031 	 ldr r3,[r7,#288]
 1237 0b34 C7F81C31 	 str r3,[r7,#284]
 690:../Dave/Generated/CMSIS_DSP/TransformFunctions/arm_cfft_radix4_q31.c ****     yc = (q31_t) (xcyc >> 32);
 1238              	 .loc 1 690 0 discriminator 1
 1239 0b38 07F59073 	 add r3,r7,#288
 1240 0b3c D3E90023 	 ldrd r2,[r3]
 1241 0b40 1900     	 movs r1,r3
 1242 0b42 B960     	 str r1,[r7,#8]
 1243 0b44 DB17     	 asrs r3,r3,#31
 1244 0b46 FB60     	 str r3,[r7,#12]
 1245 0b48 BB68     	 ldr r3,[r7,#8]
 1246 0b4a C7F81831 	 str r3,[r7,#280]
 691:../Dave/Generated/CMSIS_DSP/TransformFunctions/arm_cfft_radix4_q31.c **** 
 692:../Dave/Generated/CMSIS_DSP/TransformFunctions/arm_cfft_radix4_q31.c ****     /* Read xc (real), yc(imag) input */
 693:../Dave/Generated/CMSIS_DSP/TransformFunctions/arm_cfft_radix4_q31.c ****     xdyd = *__SIMD64(ptr1)++;
 1247              	 .loc 1 693 0 discriminator 1
 1248 0b4e 07F1E402 	 add r2,r7,#228
 1249 0b52 1368     	 ldr r3,[r2]
 1250 0b54 03F10801 	 add r1,r3,#8
 1251 0b58 1160     	 str r1,[r2]
 1252 0b5a D3E90023 	 ldrd r2,[r3]
 1253 0b5e 07F58871 	 add r1,r7,#272
 1254 0b62 C1E90023 	 strd r2,[r1]
 694:../Dave/Generated/CMSIS_DSP/TransformFunctions/arm_cfft_radix4_q31.c ****     xd = (q31_t) xdyd;
 1255              	 .loc 1 694 0 discriminator 1
 1256 0b66 D7F81031 	 ldr r3,[r7,#272]
 1257 0b6a C7F80C31 	 str r3,[r7,#268]
 695:../Dave/Generated/CMSIS_DSP/TransformFunctions/arm_cfft_radix4_q31.c ****     yd = (q31_t) (xdyd >> 32);
 1258              	 .loc 1 695 0 discriminator 1
 1259 0b6e 07F58873 	 add r3,r7,#272
 1260 0b72 D3E90023 	 ldrd r2,[r3]
 1261 0b76 1900     	 movs r1,r3
 1262 0b78 3960     	 str r1,[r7]
 1263 0b7a DB17     	 asrs r3,r3,#31
 1264 0b7c 7B60     	 str r3,[r7,#4]
 1265 0b7e 3B68     	 ldr r3,[r7]
 1266 0b80 C7F80831 	 str r3,[r7,#264]
 696:../Dave/Generated/CMSIS_DSP/TransformFunctions/arm_cfft_radix4_q31.c **** 
 697:../Dave/Generated/CMSIS_DSP/TransformFunctions/arm_cfft_radix4_q31.c **** #else
 698:../Dave/Generated/CMSIS_DSP/TransformFunctions/arm_cfft_radix4_q31.c **** 
 699:../Dave/Generated/CMSIS_DSP/TransformFunctions/arm_cfft_radix4_q31.c ****     /* Read xa (real), ya(imag) input */
 700:../Dave/Generated/CMSIS_DSP/TransformFunctions/arm_cfft_radix4_q31.c ****     xaya = *__SIMD64(ptr1)++;
 701:../Dave/Generated/CMSIS_DSP/TransformFunctions/arm_cfft_radix4_q31.c ****     ya = (q31_t) xaya;
 702:../Dave/Generated/CMSIS_DSP/TransformFunctions/arm_cfft_radix4_q31.c ****     xa = (q31_t) (xaya >> 32);
 703:../Dave/Generated/CMSIS_DSP/TransformFunctions/arm_cfft_radix4_q31.c **** 
 704:../Dave/Generated/CMSIS_DSP/TransformFunctions/arm_cfft_radix4_q31.c ****     /* Read xb (real), yb(imag) input */
 705:../Dave/Generated/CMSIS_DSP/TransformFunctions/arm_cfft_radix4_q31.c ****     xbyb = *__SIMD64(ptr1)++;
 706:../Dave/Generated/CMSIS_DSP/TransformFunctions/arm_cfft_radix4_q31.c ****     yb = (q31_t) xbyb;
 707:../Dave/Generated/CMSIS_DSP/TransformFunctions/arm_cfft_radix4_q31.c ****     xb = (q31_t) (xbyb >> 32);
 708:../Dave/Generated/CMSIS_DSP/TransformFunctions/arm_cfft_radix4_q31.c **** 
 709:../Dave/Generated/CMSIS_DSP/TransformFunctions/arm_cfft_radix4_q31.c ****     /* Read xc (real), yc(imag) input */
 710:../Dave/Generated/CMSIS_DSP/TransformFunctions/arm_cfft_radix4_q31.c ****     xcyc = *__SIMD64(ptr1)++;
 711:../Dave/Generated/CMSIS_DSP/TransformFunctions/arm_cfft_radix4_q31.c ****     yc = (q31_t) xcyc;
 712:../Dave/Generated/CMSIS_DSP/TransformFunctions/arm_cfft_radix4_q31.c ****     xc = (q31_t) (xcyc >> 32);
 713:../Dave/Generated/CMSIS_DSP/TransformFunctions/arm_cfft_radix4_q31.c **** 
 714:../Dave/Generated/CMSIS_DSP/TransformFunctions/arm_cfft_radix4_q31.c ****     /* Read xc (real), yc(imag) input */
 715:../Dave/Generated/CMSIS_DSP/TransformFunctions/arm_cfft_radix4_q31.c ****     xdyd = *__SIMD64(ptr1)++;
 716:../Dave/Generated/CMSIS_DSP/TransformFunctions/arm_cfft_radix4_q31.c ****     yd = (q31_t) xdyd;
 717:../Dave/Generated/CMSIS_DSP/TransformFunctions/arm_cfft_radix4_q31.c ****     xd = (q31_t) (xdyd >> 32);
 718:../Dave/Generated/CMSIS_DSP/TransformFunctions/arm_cfft_radix4_q31.c **** 
 719:../Dave/Generated/CMSIS_DSP/TransformFunctions/arm_cfft_radix4_q31.c **** 
 720:../Dave/Generated/CMSIS_DSP/TransformFunctions/arm_cfft_radix4_q31.c **** #endif
 721:../Dave/Generated/CMSIS_DSP/TransformFunctions/arm_cfft_radix4_q31.c **** 
 722:../Dave/Generated/CMSIS_DSP/TransformFunctions/arm_cfft_radix4_q31.c ****     /* xa' = xa + xb + xc + xd */
 723:../Dave/Generated/CMSIS_DSP/TransformFunctions/arm_cfft_radix4_q31.c ****     xa_out = xa + xb + xc + xd;
 1267              	 .loc 1 723 0 discriminator 1
 1268 0b84 D7F83C21 	 ldr r2,[r7,#316]
 1269 0b88 D7F82C31 	 ldr r3,[r7,#300]
 1270 0b8c 1A44     	 add r2,r2,r3
 1271 0b8e D7F81C31 	 ldr r3,[r7,#284]
 1272 0b92 1A44     	 add r2,r2,r3
 1273 0b94 D7F80C31 	 ldr r3,[r7,#268]
 1274 0b98 1344     	 add r3,r3,r2
 1275 0b9a C7F80431 	 str r3,[r7,#260]
 724:../Dave/Generated/CMSIS_DSP/TransformFunctions/arm_cfft_radix4_q31.c **** 
 725:../Dave/Generated/CMSIS_DSP/TransformFunctions/arm_cfft_radix4_q31.c ****     /* ya' = ya + yb + yc + yd */
 726:../Dave/Generated/CMSIS_DSP/TransformFunctions/arm_cfft_radix4_q31.c ****     ya_out = ya + yb + yc + yd;
 1276              	 .loc 1 726 0 discriminator 1
 1277 0b9e D7F83821 	 ldr r2,[r7,#312]
 1278 0ba2 D7F82831 	 ldr r3,[r7,#296]
 1279 0ba6 1A44     	 add r2,r2,r3
 1280 0ba8 D7F81831 	 ldr r3,[r7,#280]
 1281 0bac 1A44     	 add r2,r2,r3
 1282 0bae D7F80831 	 ldr r3,[r7,#264]
 1283 0bb2 1344     	 add r3,r3,r2
 1284 0bb4 C7F80031 	 str r3,[r7,#256]
 727:../Dave/Generated/CMSIS_DSP/TransformFunctions/arm_cfft_radix4_q31.c **** 
 728:../Dave/Generated/CMSIS_DSP/TransformFunctions/arm_cfft_radix4_q31.c ****     /* pointer updation for writing */
 729:../Dave/Generated/CMSIS_DSP/TransformFunctions/arm_cfft_radix4_q31.c ****     ptr1 = ptr1 - 8u;
 1285              	 .loc 1 729 0 discriminator 1
 1286 0bb8 D7F8E430 	 ldr r3,[r7,#228]
 1287 0bbc 203B     	 subs r3,r3,#32
 1288 0bbe C7F8E430 	 str r3,[r7,#228]
 730:../Dave/Generated/CMSIS_DSP/TransformFunctions/arm_cfft_radix4_q31.c **** 
 731:../Dave/Generated/CMSIS_DSP/TransformFunctions/arm_cfft_radix4_q31.c ****     /* writing xa' and ya' */
 732:../Dave/Generated/CMSIS_DSP/TransformFunctions/arm_cfft_radix4_q31.c ****     *ptr1++ = xa_out;
 1289              	 .loc 1 732 0 discriminator 1
 1290 0bc2 D7F8E430 	 ldr r3,[r7,#228]
 1291 0bc6 1A1D     	 adds r2,r3,#4
 1292 0bc8 C7F8E420 	 str r2,[r7,#228]
 1293 0bcc D7F80421 	 ldr r2,[r7,#260]
 1294 0bd0 1A60     	 str r2,[r3]
 733:../Dave/Generated/CMSIS_DSP/TransformFunctions/arm_cfft_radix4_q31.c ****     *ptr1++ = ya_out;
 1295              	 .loc 1 733 0 discriminator 1
 1296 0bd2 D7F8E430 	 ldr r3,[r7,#228]
 1297 0bd6 1A1D     	 adds r2,r3,#4
 1298 0bd8 C7F8E420 	 str r2,[r7,#228]
 1299 0bdc D7F80021 	 ldr r2,[r7,#256]
 1300 0be0 1A60     	 str r2,[r3]
 734:../Dave/Generated/CMSIS_DSP/TransformFunctions/arm_cfft_radix4_q31.c **** 
 735:../Dave/Generated/CMSIS_DSP/TransformFunctions/arm_cfft_radix4_q31.c ****     xc_out = (xa - xb + xc - xd);
 1301              	 .loc 1 735 0 discriminator 1
 1302 0be2 D7F83C21 	 ldr r2,[r7,#316]
 1303 0be6 D7F82C31 	 ldr r3,[r7,#300]
 1304 0bea D21A     	 subs r2,r2,r3
 1305 0bec D7F81C31 	 ldr r3,[r7,#284]
 1306 0bf0 1A44     	 add r2,r2,r3
 1307 0bf2 D7F80C31 	 ldr r3,[r7,#268]
 1308 0bf6 D31A     	 subs r3,r2,r3
 1309 0bf8 C7F8FC30 	 str r3,[r7,#252]
 736:../Dave/Generated/CMSIS_DSP/TransformFunctions/arm_cfft_radix4_q31.c ****     yc_out = (ya - yb + yc - yd);
 1310              	 .loc 1 736 0 discriminator 1
 1311 0bfc D7F83821 	 ldr r2,[r7,#312]
 1312 0c00 D7F82831 	 ldr r3,[r7,#296]
 1313 0c04 D21A     	 subs r2,r2,r3
 1314 0c06 D7F81831 	 ldr r3,[r7,#280]
 1315 0c0a 1A44     	 add r2,r2,r3
 1316 0c0c D7F80831 	 ldr r3,[r7,#264]
 1317 0c10 D31A     	 subs r3,r2,r3
 1318 0c12 C7F8F830 	 str r3,[r7,#248]
 737:../Dave/Generated/CMSIS_DSP/TransformFunctions/arm_cfft_radix4_q31.c **** 
 738:../Dave/Generated/CMSIS_DSP/TransformFunctions/arm_cfft_radix4_q31.c ****     /* writing xc' and yc' */
 739:../Dave/Generated/CMSIS_DSP/TransformFunctions/arm_cfft_radix4_q31.c ****     *ptr1++ = xc_out;
 1319              	 .loc 1 739 0 discriminator 1
 1320 0c16 D7F8E430 	 ldr r3,[r7,#228]
 1321 0c1a 1A1D     	 adds r2,r3,#4
 1322 0c1c C7F8E420 	 str r2,[r7,#228]
 1323 0c20 D7F8FC20 	 ldr r2,[r7,#252]
 1324 0c24 1A60     	 str r2,[r3]
 740:../Dave/Generated/CMSIS_DSP/TransformFunctions/arm_cfft_radix4_q31.c ****     *ptr1++ = yc_out;
 1325              	 .loc 1 740 0 discriminator 1
 1326 0c26 D7F8E430 	 ldr r3,[r7,#228]
 1327 0c2a 1A1D     	 adds r2,r3,#4
 1328 0c2c C7F8E420 	 str r2,[r7,#228]
 1329 0c30 D7F8F820 	 ldr r2,[r7,#248]
 1330 0c34 1A60     	 str r2,[r3]
 741:../Dave/Generated/CMSIS_DSP/TransformFunctions/arm_cfft_radix4_q31.c **** 
 742:../Dave/Generated/CMSIS_DSP/TransformFunctions/arm_cfft_radix4_q31.c ****     xb_out = (xa + yb - xc - yd);
 1331              	 .loc 1 742 0 discriminator 1
 1332 0c36 D7F83C21 	 ldr r2,[r7,#316]
 1333 0c3a D7F82831 	 ldr r3,[r7,#296]
 1334 0c3e 1A44     	 add r2,r2,r3
 1335 0c40 D7F81C31 	 ldr r3,[r7,#284]
 1336 0c44 D21A     	 subs r2,r2,r3
 1337 0c46 D7F80831 	 ldr r3,[r7,#264]
 1338 0c4a D31A     	 subs r3,r2,r3
 1339 0c4c C7F8F430 	 str r3,[r7,#244]
 743:../Dave/Generated/CMSIS_DSP/TransformFunctions/arm_cfft_radix4_q31.c ****     yb_out = (ya - xb - yc + xd);
 1340              	 .loc 1 743 0 discriminator 1
 1341 0c50 D7F83821 	 ldr r2,[r7,#312]
 1342 0c54 D7F82C31 	 ldr r3,[r7,#300]
 1343 0c58 D21A     	 subs r2,r2,r3
 1344 0c5a D7F81831 	 ldr r3,[r7,#280]
 1345 0c5e D21A     	 subs r2,r2,r3
 1346 0c60 D7F80C31 	 ldr r3,[r7,#268]
 1347 0c64 1344     	 add r3,r3,r2
 1348 0c66 C7F8F030 	 str r3,[r7,#240]
 744:../Dave/Generated/CMSIS_DSP/TransformFunctions/arm_cfft_radix4_q31.c **** 
 745:../Dave/Generated/CMSIS_DSP/TransformFunctions/arm_cfft_radix4_q31.c ****     /* writing xb' and yb' */
 746:../Dave/Generated/CMSIS_DSP/TransformFunctions/arm_cfft_radix4_q31.c ****     *ptr1++ = xb_out;
 1349              	 .loc 1 746 0 discriminator 1
 1350 0c6a D7F8E430 	 ldr r3,[r7,#228]
 1351 0c6e 1A1D     	 adds r2,r3,#4
 1352 0c70 C7F8E420 	 str r2,[r7,#228]
 1353 0c74 D7F8F420 	 ldr r2,[r7,#244]
 1354 0c78 1A60     	 str r2,[r3]
 747:../Dave/Generated/CMSIS_DSP/TransformFunctions/arm_cfft_radix4_q31.c ****     *ptr1++ = yb_out;
 1355              	 .loc 1 747 0 discriminator 1
 1356 0c7a D7F8E430 	 ldr r3,[r7,#228]
 1357 0c7e 1A1D     	 adds r2,r3,#4
 1358 0c80 C7F8E420 	 str r2,[r7,#228]
 1359 0c84 D7F8F020 	 ldr r2,[r7,#240]
 1360 0c88 1A60     	 str r2,[r3]
 748:../Dave/Generated/CMSIS_DSP/TransformFunctions/arm_cfft_radix4_q31.c **** 
 749:../Dave/Generated/CMSIS_DSP/TransformFunctions/arm_cfft_radix4_q31.c ****     xd_out = (xa - yb - xc + yd);
 1361              	 .loc 1 749 0 discriminator 1
 1362 0c8a D7F83C21 	 ldr r2,[r7,#316]
 1363 0c8e D7F82831 	 ldr r3,[r7,#296]
 1364 0c92 D21A     	 subs r2,r2,r3
 1365 0c94 D7F81C31 	 ldr r3,[r7,#284]
 1366 0c98 D21A     	 subs r2,r2,r3
 1367 0c9a D7F80831 	 ldr r3,[r7,#264]
 1368 0c9e 1344     	 add r3,r3,r2
 1369 0ca0 C7F8EC30 	 str r3,[r7,#236]
 750:../Dave/Generated/CMSIS_DSP/TransformFunctions/arm_cfft_radix4_q31.c ****     yd_out = (ya + xb - yc - xd);
 1370              	 .loc 1 750 0 discriminator 1
 1371 0ca4 D7F83821 	 ldr r2,[r7,#312]
 1372 0ca8 D7F82C31 	 ldr r3,[r7,#300]
 1373 0cac 1A44     	 add r2,r2,r3
 1374 0cae D7F81831 	 ldr r3,[r7,#280]
 1375 0cb2 D21A     	 subs r2,r2,r3
 1376 0cb4 D7F80C31 	 ldr r3,[r7,#268]
 1377 0cb8 D31A     	 subs r3,r2,r3
 1378 0cba C7F8E830 	 str r3,[r7,#232]
 751:../Dave/Generated/CMSIS_DSP/TransformFunctions/arm_cfft_radix4_q31.c **** 
 752:../Dave/Generated/CMSIS_DSP/TransformFunctions/arm_cfft_radix4_q31.c ****     /* writing xd' and yd' */
 753:../Dave/Generated/CMSIS_DSP/TransformFunctions/arm_cfft_radix4_q31.c ****     *ptr1++ = xd_out;
 1379              	 .loc 1 753 0 discriminator 1
 1380 0cbe D7F8E430 	 ldr r3,[r7,#228]
 1381 0cc2 1A1D     	 adds r2,r3,#4
 1382 0cc4 C7F8E420 	 str r2,[r7,#228]
 1383 0cc8 D7F8EC20 	 ldr r2,[r7,#236]
 1384 0ccc 1A60     	 str r2,[r3]
 754:../Dave/Generated/CMSIS_DSP/TransformFunctions/arm_cfft_radix4_q31.c ****     *ptr1++ = yd_out;
 1385              	 .loc 1 754 0 discriminator 1
 1386 0cce D7F8E430 	 ldr r3,[r7,#228]
 1387 0cd2 1A1D     	 adds r2,r3,#4
 1388 0cd4 C7F8E420 	 str r2,[r7,#228]
 1389 0cd8 D7F8E820 	 ldr r2,[r7,#232]
 1390 0cdc 1A60     	 str r2,[r3]
 755:../Dave/Generated/CMSIS_DSP/TransformFunctions/arm_cfft_radix4_q31.c **** 
 756:../Dave/Generated/CMSIS_DSP/TransformFunctions/arm_cfft_radix4_q31.c **** 
 757:../Dave/Generated/CMSIS_DSP/TransformFunctions/arm_cfft_radix4_q31.c ****   } while(--j);
 1391              	 .loc 1 757 0 discriminator 1
 1392 0cde D7F89831 	 ldr r3,[r7,#408]
 1393 0ce2 013B     	 subs r3,r3,#1
 1394 0ce4 C7F89831 	 str r3,[r7,#408]
 1395 0ce8 D7F89831 	 ldr r3,[r7,#408]
 1396 0cec 002B     	 cmp r3,#0
 1397 0cee 7FF4DDAE 	 bne .L13
 758:../Dave/Generated/CMSIS_DSP/TransformFunctions/arm_cfft_radix4_q31.c **** 
 759:../Dave/Generated/CMSIS_DSP/TransformFunctions/arm_cfft_radix4_q31.c ****   /* output is in 11.21(q21) format for the 1024 point */
 760:../Dave/Generated/CMSIS_DSP/TransformFunctions/arm_cfft_radix4_q31.c ****   /* output is in 9.23(q23) format for the 256 point */
 761:../Dave/Generated/CMSIS_DSP/TransformFunctions/arm_cfft_radix4_q31.c ****   /* output is in 7.25(q25) format for the 64 point */
 762:../Dave/Generated/CMSIS_DSP/TransformFunctions/arm_cfft_radix4_q31.c ****   /* output is in 5.27(q27) format for the 16 point */
 763:../Dave/Generated/CMSIS_DSP/TransformFunctions/arm_cfft_radix4_q31.c **** 
 764:../Dave/Generated/CMSIS_DSP/TransformFunctions/arm_cfft_radix4_q31.c ****   /* End of last stage process */
 765:../Dave/Generated/CMSIS_DSP/TransformFunctions/arm_cfft_radix4_q31.c **** 
 766:../Dave/Generated/CMSIS_DSP/TransformFunctions/arm_cfft_radix4_q31.c **** }
 1398              	 .loc 1 766 0
 1399 0cf2 07F5D677 	 add r7,r7,#428
 1400              	.LCFI8:
 1401              	 .cfi_def_cfa_offset 36
 1402 0cf6 BD46     	 mov sp,r7
 1403              	.LCFI9:
 1404              	 .cfi_def_cfa_register 13
 1405              	 
 1406 0cf8 BDE8F08F 	 pop {r4,r5,r6,r7,r8,r9,r10,fp,pc}
 1407              	 .cfi_endproc
 1408              	.LFE140:
 1410              	 .section .text.arm_radix4_butterfly_inverse_q31,"ax",%progbits
 1411              	 .align 2
 1412              	 .global arm_radix4_butterfly_inverse_q31
 1413              	 .thumb
 1414              	 .thumb_func
 1416              	arm_radix4_butterfly_inverse_q31:
 1417              	.LFB141:
 767:../Dave/Generated/CMSIS_DSP/TransformFunctions/arm_cfft_radix4_q31.c **** 
 768:../Dave/Generated/CMSIS_DSP/TransformFunctions/arm_cfft_radix4_q31.c **** 
 769:../Dave/Generated/CMSIS_DSP/TransformFunctions/arm_cfft_radix4_q31.c **** /**    
 770:../Dave/Generated/CMSIS_DSP/TransformFunctions/arm_cfft_radix4_q31.c ****  * @brief  Core function for the Q31 CIFFT butterfly process.   
 771:../Dave/Generated/CMSIS_DSP/TransformFunctions/arm_cfft_radix4_q31.c ****  * @param[in, out] *pSrc            points to the in-place buffer of Q31 data type.   
 772:../Dave/Generated/CMSIS_DSP/TransformFunctions/arm_cfft_radix4_q31.c ****  * @param[in]      fftLen           length of the FFT.   
 773:../Dave/Generated/CMSIS_DSP/TransformFunctions/arm_cfft_radix4_q31.c ****  * @param[in]      *pCoef           points to twiddle coefficient buffer.   
 774:../Dave/Generated/CMSIS_DSP/TransformFunctions/arm_cfft_radix4_q31.c ****  * @param[in]      twidCoefModifier twiddle coefficient modifier that supports different size FFTs 
 775:../Dave/Generated/CMSIS_DSP/TransformFunctions/arm_cfft_radix4_q31.c ****  * @return none.   
 776:../Dave/Generated/CMSIS_DSP/TransformFunctions/arm_cfft_radix4_q31.c ****  */
 777:../Dave/Generated/CMSIS_DSP/TransformFunctions/arm_cfft_radix4_q31.c **** 
 778:../Dave/Generated/CMSIS_DSP/TransformFunctions/arm_cfft_radix4_q31.c **** 
 779:../Dave/Generated/CMSIS_DSP/TransformFunctions/arm_cfft_radix4_q31.c **** /*    
 780:../Dave/Generated/CMSIS_DSP/TransformFunctions/arm_cfft_radix4_q31.c **** * Radix-4 IFFT algorithm used is :    
 781:../Dave/Generated/CMSIS_DSP/TransformFunctions/arm_cfft_radix4_q31.c **** *    
 782:../Dave/Generated/CMSIS_DSP/TransformFunctions/arm_cfft_radix4_q31.c **** * CIFFT uses same twiddle coefficients as CFFT Function    
 783:../Dave/Generated/CMSIS_DSP/TransformFunctions/arm_cfft_radix4_q31.c **** *  x[k] = x[n] + (j)k * x[n + fftLen/4] + (-1)k * x[n+fftLen/2] + (-j)k * x[n+3*fftLen/4]    
 784:../Dave/Generated/CMSIS_DSP/TransformFunctions/arm_cfft_radix4_q31.c **** *    
 785:../Dave/Generated/CMSIS_DSP/TransformFunctions/arm_cfft_radix4_q31.c **** *    
 786:../Dave/Generated/CMSIS_DSP/TransformFunctions/arm_cfft_radix4_q31.c **** * IFFT is implemented with following changes in equations from FFT    
 787:../Dave/Generated/CMSIS_DSP/TransformFunctions/arm_cfft_radix4_q31.c **** *    
 788:../Dave/Generated/CMSIS_DSP/TransformFunctions/arm_cfft_radix4_q31.c **** * Input real and imaginary data:    
 789:../Dave/Generated/CMSIS_DSP/TransformFunctions/arm_cfft_radix4_q31.c **** * x(n) = xa + j * ya    
 790:../Dave/Generated/CMSIS_DSP/TransformFunctions/arm_cfft_radix4_q31.c **** * x(n+N/4 ) = xb + j * yb    
 791:../Dave/Generated/CMSIS_DSP/TransformFunctions/arm_cfft_radix4_q31.c **** * x(n+N/2 ) = xc + j * yc    
 792:../Dave/Generated/CMSIS_DSP/TransformFunctions/arm_cfft_radix4_q31.c **** * x(n+3N 4) = xd + j * yd    
 793:../Dave/Generated/CMSIS_DSP/TransformFunctions/arm_cfft_radix4_q31.c **** *    
 794:../Dave/Generated/CMSIS_DSP/TransformFunctions/arm_cfft_radix4_q31.c **** *    
 795:../Dave/Generated/CMSIS_DSP/TransformFunctions/arm_cfft_radix4_q31.c **** * Output real and imaginary data:    
 796:../Dave/Generated/CMSIS_DSP/TransformFunctions/arm_cfft_radix4_q31.c **** * x(4r) = xa'+ j * ya'    
 797:../Dave/Generated/CMSIS_DSP/TransformFunctions/arm_cfft_radix4_q31.c **** * x(4r+1) = xb'+ j * yb'    
 798:../Dave/Generated/CMSIS_DSP/TransformFunctions/arm_cfft_radix4_q31.c **** * x(4r+2) = xc'+ j * yc'    
 799:../Dave/Generated/CMSIS_DSP/TransformFunctions/arm_cfft_radix4_q31.c **** * x(4r+3) = xd'+ j * yd'    
 800:../Dave/Generated/CMSIS_DSP/TransformFunctions/arm_cfft_radix4_q31.c **** *    
 801:../Dave/Generated/CMSIS_DSP/TransformFunctions/arm_cfft_radix4_q31.c **** *    
 802:../Dave/Generated/CMSIS_DSP/TransformFunctions/arm_cfft_radix4_q31.c **** * Twiddle factors for radix-4 IFFT:    
 803:../Dave/Generated/CMSIS_DSP/TransformFunctions/arm_cfft_radix4_q31.c **** * Wn = co1 + j * (si1)    
 804:../Dave/Generated/CMSIS_DSP/TransformFunctions/arm_cfft_radix4_q31.c **** * W2n = co2 + j * (si2)    
 805:../Dave/Generated/CMSIS_DSP/TransformFunctions/arm_cfft_radix4_q31.c **** * W3n = co3 + j * (si3)    
 806:../Dave/Generated/CMSIS_DSP/TransformFunctions/arm_cfft_radix4_q31.c ****     
 807:../Dave/Generated/CMSIS_DSP/TransformFunctions/arm_cfft_radix4_q31.c **** * The real and imaginary output values for the radix-4 butterfly are    
 808:../Dave/Generated/CMSIS_DSP/TransformFunctions/arm_cfft_radix4_q31.c **** * xa' = xa + xb + xc + xd    
 809:../Dave/Generated/CMSIS_DSP/TransformFunctions/arm_cfft_radix4_q31.c **** * ya' = ya + yb + yc + yd    
 810:../Dave/Generated/CMSIS_DSP/TransformFunctions/arm_cfft_radix4_q31.c **** * xb' = (xa-yb-xc+yd)* co1 - (ya+xb-yc-xd)* (si1)    
 811:../Dave/Generated/CMSIS_DSP/TransformFunctions/arm_cfft_radix4_q31.c **** * yb' = (ya+xb-yc-xd)* co1 + (xa-yb-xc+yd)* (si1)    
 812:../Dave/Generated/CMSIS_DSP/TransformFunctions/arm_cfft_radix4_q31.c **** * xc' = (xa-xb+xc-xd)* co2 - (ya-yb+yc-yd)* (si2)    
 813:../Dave/Generated/CMSIS_DSP/TransformFunctions/arm_cfft_radix4_q31.c **** * yc' = (ya-yb+yc-yd)* co2 + (xa-xb+xc-xd)* (si2)    
 814:../Dave/Generated/CMSIS_DSP/TransformFunctions/arm_cfft_radix4_q31.c **** * xd' = (xa+yb-xc-yd)* co3 - (ya-xb-yc+xd)* (si3)    
 815:../Dave/Generated/CMSIS_DSP/TransformFunctions/arm_cfft_radix4_q31.c **** * yd' = (ya-xb-yc+xd)* co3 + (xa+yb-xc-yd)* (si3)    
 816:../Dave/Generated/CMSIS_DSP/TransformFunctions/arm_cfft_radix4_q31.c **** *    
 817:../Dave/Generated/CMSIS_DSP/TransformFunctions/arm_cfft_radix4_q31.c **** */
 818:../Dave/Generated/CMSIS_DSP/TransformFunctions/arm_cfft_radix4_q31.c **** 
 819:../Dave/Generated/CMSIS_DSP/TransformFunctions/arm_cfft_radix4_q31.c **** void arm_radix4_butterfly_inverse_q31(
 820:../Dave/Generated/CMSIS_DSP/TransformFunctions/arm_cfft_radix4_q31.c ****   q31_t * pSrc,
 821:../Dave/Generated/CMSIS_DSP/TransformFunctions/arm_cfft_radix4_q31.c ****   uint32_t fftLen,
 822:../Dave/Generated/CMSIS_DSP/TransformFunctions/arm_cfft_radix4_q31.c ****   q31_t * pCoef,
 823:../Dave/Generated/CMSIS_DSP/TransformFunctions/arm_cfft_radix4_q31.c ****   uint32_t twidCoefModifier)
 824:../Dave/Generated/CMSIS_DSP/TransformFunctions/arm_cfft_radix4_q31.c **** {
 1418              	 .loc 1 824 0
 1419              	 .cfi_startproc
 1420              	 
 1421              	 
 1422 0000 2DE9F04F 	 push {r4,r5,r6,r7,r8,r9,r10,fp,lr}
 1423              	.LCFI10:
 1424              	 .cfi_def_cfa_offset 36
 1425              	 .cfi_offset 4,-36
 1426              	 .cfi_offset 5,-32
 1427              	 .cfi_offset 6,-28
 1428              	 .cfi_offset 7,-24
 1429              	 .cfi_offset 8,-20
 1430              	 .cfi_offset 9,-16
 1431              	 .cfi_offset 10,-12
 1432              	 .cfi_offset 11,-8
 1433              	 .cfi_offset 14,-4
 1434 0004 EBB0     	 sub sp,sp,#428
 1435              	.LCFI11:
 1436              	 .cfi_def_cfa_offset 464
 1437 0006 00AF     	 add r7,sp,#0
 1438              	.LCFI12:
 1439              	 .cfi_def_cfa_register 7
 1440 0008 C7F8DC00 	 str r0,[r7,#220]
 1441 000c C7F8D810 	 str r1,[r7,#216]
 1442 0010 C7F8D420 	 str r2,[r7,#212]
 1443 0014 C7F8D030 	 str r3,[r7,#208]
 825:../Dave/Generated/CMSIS_DSP/TransformFunctions/arm_cfft_radix4_q31.c **** #if defined(ARM_MATH_CM7)
 826:../Dave/Generated/CMSIS_DSP/TransformFunctions/arm_cfft_radix4_q31.c ****   uint32_t n1, n2, ia1, ia2, ia3, i0, i1, i2, i3, j, k;
 827:../Dave/Generated/CMSIS_DSP/TransformFunctions/arm_cfft_radix4_q31.c ****   q31_t t1, t2, r1, r2, s1, s2, co1, co2, co3, si1, si2, si3;
 828:../Dave/Generated/CMSIS_DSP/TransformFunctions/arm_cfft_radix4_q31.c ****   q31_t xa, xb, xc, xd;
 829:../Dave/Generated/CMSIS_DSP/TransformFunctions/arm_cfft_radix4_q31.c ****   q31_t ya, yb, yc, yd;
 830:../Dave/Generated/CMSIS_DSP/TransformFunctions/arm_cfft_radix4_q31.c ****   q31_t xa_out, xb_out, xc_out, xd_out;
 831:../Dave/Generated/CMSIS_DSP/TransformFunctions/arm_cfft_radix4_q31.c ****   q31_t ya_out, yb_out, yc_out, yd_out;
 832:../Dave/Generated/CMSIS_DSP/TransformFunctions/arm_cfft_radix4_q31.c **** 
 833:../Dave/Generated/CMSIS_DSP/TransformFunctions/arm_cfft_radix4_q31.c ****   q31_t *ptr1;
 834:../Dave/Generated/CMSIS_DSP/TransformFunctions/arm_cfft_radix4_q31.c ****   q63_t xaya, xbyb, xcyc, xdyd;
 835:../Dave/Generated/CMSIS_DSP/TransformFunctions/arm_cfft_radix4_q31.c **** 
 836:../Dave/Generated/CMSIS_DSP/TransformFunctions/arm_cfft_radix4_q31.c ****   /* input is be 1.31(q31) format for all FFT sizes */
 837:../Dave/Generated/CMSIS_DSP/TransformFunctions/arm_cfft_radix4_q31.c ****   /* Total process is divided into three stages */
 838:../Dave/Generated/CMSIS_DSP/TransformFunctions/arm_cfft_radix4_q31.c ****   /* process first stage, middle stages, & last stage */
 839:../Dave/Generated/CMSIS_DSP/TransformFunctions/arm_cfft_radix4_q31.c **** 
 840:../Dave/Generated/CMSIS_DSP/TransformFunctions/arm_cfft_radix4_q31.c ****   /* Start of first stage process */
 841:../Dave/Generated/CMSIS_DSP/TransformFunctions/arm_cfft_radix4_q31.c **** 
 842:../Dave/Generated/CMSIS_DSP/TransformFunctions/arm_cfft_radix4_q31.c ****   /* Initializations for the first stage */
 843:../Dave/Generated/CMSIS_DSP/TransformFunctions/arm_cfft_radix4_q31.c ****   n2 = fftLen;
 844:../Dave/Generated/CMSIS_DSP/TransformFunctions/arm_cfft_radix4_q31.c ****   n1 = n2;
 845:../Dave/Generated/CMSIS_DSP/TransformFunctions/arm_cfft_radix4_q31.c ****   /* n2 = fftLen/4 */
 846:../Dave/Generated/CMSIS_DSP/TransformFunctions/arm_cfft_radix4_q31.c ****   n2 >>= 2u;
 847:../Dave/Generated/CMSIS_DSP/TransformFunctions/arm_cfft_radix4_q31.c ****   i0 = 0u;
 848:../Dave/Generated/CMSIS_DSP/TransformFunctions/arm_cfft_radix4_q31.c ****   ia1 = 0u;
 849:../Dave/Generated/CMSIS_DSP/TransformFunctions/arm_cfft_radix4_q31.c **** 
 850:../Dave/Generated/CMSIS_DSP/TransformFunctions/arm_cfft_radix4_q31.c ****   j = n2;
 851:../Dave/Generated/CMSIS_DSP/TransformFunctions/arm_cfft_radix4_q31.c **** 
 852:../Dave/Generated/CMSIS_DSP/TransformFunctions/arm_cfft_radix4_q31.c ****   do
 853:../Dave/Generated/CMSIS_DSP/TransformFunctions/arm_cfft_radix4_q31.c ****   {
 854:../Dave/Generated/CMSIS_DSP/TransformFunctions/arm_cfft_radix4_q31.c **** 
 855:../Dave/Generated/CMSIS_DSP/TransformFunctions/arm_cfft_radix4_q31.c ****     /* input is in 1.31(q31) format and provide 4 guard bits for the input */
 856:../Dave/Generated/CMSIS_DSP/TransformFunctions/arm_cfft_radix4_q31.c **** 
 857:../Dave/Generated/CMSIS_DSP/TransformFunctions/arm_cfft_radix4_q31.c ****     /*  index calculation for the input as, */
 858:../Dave/Generated/CMSIS_DSP/TransformFunctions/arm_cfft_radix4_q31.c ****     /*  pSrc[i0 + 0], pSrc[i0 + fftLen/4], pSrc[i0 + fftLen/2u], pSrc[i0 + 3fftLen/4] */
 859:../Dave/Generated/CMSIS_DSP/TransformFunctions/arm_cfft_radix4_q31.c ****     i1 = i0 + n2;
 860:../Dave/Generated/CMSIS_DSP/TransformFunctions/arm_cfft_radix4_q31.c ****     i2 = i1 + n2;
 861:../Dave/Generated/CMSIS_DSP/TransformFunctions/arm_cfft_radix4_q31.c ****     i3 = i2 + n2;
 862:../Dave/Generated/CMSIS_DSP/TransformFunctions/arm_cfft_radix4_q31.c **** 
 863:../Dave/Generated/CMSIS_DSP/TransformFunctions/arm_cfft_radix4_q31.c ****     /*  Butterfly implementation */
 864:../Dave/Generated/CMSIS_DSP/TransformFunctions/arm_cfft_radix4_q31.c ****     /* xa + xc */
 865:../Dave/Generated/CMSIS_DSP/TransformFunctions/arm_cfft_radix4_q31.c ****     r1 = (pSrc[2u * i0] >> 4u) + (pSrc[2u * i2] >> 4u);
 866:../Dave/Generated/CMSIS_DSP/TransformFunctions/arm_cfft_radix4_q31.c ****     /* xa - xc */
 867:../Dave/Generated/CMSIS_DSP/TransformFunctions/arm_cfft_radix4_q31.c ****     r2 = (pSrc[2u * i0] >> 4u) - (pSrc[2u * i2] >> 4u);
 868:../Dave/Generated/CMSIS_DSP/TransformFunctions/arm_cfft_radix4_q31.c **** 
 869:../Dave/Generated/CMSIS_DSP/TransformFunctions/arm_cfft_radix4_q31.c ****     /* xb + xd */
 870:../Dave/Generated/CMSIS_DSP/TransformFunctions/arm_cfft_radix4_q31.c ****     t1 = (pSrc[2u * i1] >> 4u) + (pSrc[2u * i3] >> 4u);
 871:../Dave/Generated/CMSIS_DSP/TransformFunctions/arm_cfft_radix4_q31.c **** 
 872:../Dave/Generated/CMSIS_DSP/TransformFunctions/arm_cfft_radix4_q31.c ****     /* ya + yc */
 873:../Dave/Generated/CMSIS_DSP/TransformFunctions/arm_cfft_radix4_q31.c ****     s1 = (pSrc[(2u * i0) + 1u] >> 4u) + (pSrc[(2u * i2) + 1u] >> 4u);
 874:../Dave/Generated/CMSIS_DSP/TransformFunctions/arm_cfft_radix4_q31.c ****     /* ya - yc */
 875:../Dave/Generated/CMSIS_DSP/TransformFunctions/arm_cfft_radix4_q31.c ****     s2 = (pSrc[(2u * i0) + 1u] >> 4u) - (pSrc[(2u * i2) + 1u] >> 4u);
 876:../Dave/Generated/CMSIS_DSP/TransformFunctions/arm_cfft_radix4_q31.c **** 
 877:../Dave/Generated/CMSIS_DSP/TransformFunctions/arm_cfft_radix4_q31.c ****     /* xa' = xa + xb + xc + xd */
 878:../Dave/Generated/CMSIS_DSP/TransformFunctions/arm_cfft_radix4_q31.c ****     pSrc[2u * i0] = (r1 + t1);
 879:../Dave/Generated/CMSIS_DSP/TransformFunctions/arm_cfft_radix4_q31.c ****     /* (xa + xc) - (xb + xd) */
 880:../Dave/Generated/CMSIS_DSP/TransformFunctions/arm_cfft_radix4_q31.c ****     r1 = r1 - t1;
 881:../Dave/Generated/CMSIS_DSP/TransformFunctions/arm_cfft_radix4_q31.c ****     /* yb + yd */
 882:../Dave/Generated/CMSIS_DSP/TransformFunctions/arm_cfft_radix4_q31.c ****     t2 = (pSrc[(2u * i1) + 1u] >> 4u) + (pSrc[(2u * i3) + 1u] >> 4u);
 883:../Dave/Generated/CMSIS_DSP/TransformFunctions/arm_cfft_radix4_q31.c ****     /* ya' = ya + yb + yc + yd */
 884:../Dave/Generated/CMSIS_DSP/TransformFunctions/arm_cfft_radix4_q31.c ****     pSrc[(2u * i0) + 1u] = (s1 + t2);
 885:../Dave/Generated/CMSIS_DSP/TransformFunctions/arm_cfft_radix4_q31.c **** 
 886:../Dave/Generated/CMSIS_DSP/TransformFunctions/arm_cfft_radix4_q31.c ****     /* (ya + yc) - (yb + yd) */
 887:../Dave/Generated/CMSIS_DSP/TransformFunctions/arm_cfft_radix4_q31.c ****     s1 = s1 - t2;
 888:../Dave/Generated/CMSIS_DSP/TransformFunctions/arm_cfft_radix4_q31.c **** 
 889:../Dave/Generated/CMSIS_DSP/TransformFunctions/arm_cfft_radix4_q31.c ****     /* yb - yd */
 890:../Dave/Generated/CMSIS_DSP/TransformFunctions/arm_cfft_radix4_q31.c ****     t1 = (pSrc[(2u * i1) + 1u] >> 4u) - (pSrc[(2u * i3) + 1u] >> 4u);
 891:../Dave/Generated/CMSIS_DSP/TransformFunctions/arm_cfft_radix4_q31.c ****     /* xb - xd */
 892:../Dave/Generated/CMSIS_DSP/TransformFunctions/arm_cfft_radix4_q31.c ****     t2 = (pSrc[2u * i1] >> 4u) - (pSrc[2u * i3] >> 4u);
 893:../Dave/Generated/CMSIS_DSP/TransformFunctions/arm_cfft_radix4_q31.c **** 
 894:../Dave/Generated/CMSIS_DSP/TransformFunctions/arm_cfft_radix4_q31.c ****     /*  index calculation for the coefficients */
 895:../Dave/Generated/CMSIS_DSP/TransformFunctions/arm_cfft_radix4_q31.c ****     ia2 = 2u * ia1;
 896:../Dave/Generated/CMSIS_DSP/TransformFunctions/arm_cfft_radix4_q31.c ****     co2 = pCoef[ia2 * 2u];
 897:../Dave/Generated/CMSIS_DSP/TransformFunctions/arm_cfft_radix4_q31.c ****     si2 = pCoef[(ia2 * 2u) + 1u];
 898:../Dave/Generated/CMSIS_DSP/TransformFunctions/arm_cfft_radix4_q31.c **** 
 899:../Dave/Generated/CMSIS_DSP/TransformFunctions/arm_cfft_radix4_q31.c ****     /* xc' = (xa-xb+xc-xd)co2 - (ya-yb+yc-yd)(si2) */
 900:../Dave/Generated/CMSIS_DSP/TransformFunctions/arm_cfft_radix4_q31.c ****     pSrc[2u * i1] = (((int32_t) (((q63_t) r1 * co2) >> 32)) -
 901:../Dave/Generated/CMSIS_DSP/TransformFunctions/arm_cfft_radix4_q31.c ****                      ((int32_t) (((q63_t) s1 * si2) >> 32))) << 1u;
 902:../Dave/Generated/CMSIS_DSP/TransformFunctions/arm_cfft_radix4_q31.c **** 
 903:../Dave/Generated/CMSIS_DSP/TransformFunctions/arm_cfft_radix4_q31.c ****     /* yc' = (ya-yb+yc-yd)co2 + (xa-xb+xc-xd)(si2) */
 904:../Dave/Generated/CMSIS_DSP/TransformFunctions/arm_cfft_radix4_q31.c ****     pSrc[2u * i1 + 1u] = (((int32_t) (((q63_t) s1 * co2) >> 32)) +
 905:../Dave/Generated/CMSIS_DSP/TransformFunctions/arm_cfft_radix4_q31.c ****                           ((int32_t) (((q63_t) r1 * si2) >> 32))) << 1u;
 906:../Dave/Generated/CMSIS_DSP/TransformFunctions/arm_cfft_radix4_q31.c **** 
 907:../Dave/Generated/CMSIS_DSP/TransformFunctions/arm_cfft_radix4_q31.c ****     /* (xa - xc) - (yb - yd) */
 908:../Dave/Generated/CMSIS_DSP/TransformFunctions/arm_cfft_radix4_q31.c ****     r1 = r2 - t1;
 909:../Dave/Generated/CMSIS_DSP/TransformFunctions/arm_cfft_radix4_q31.c ****     /* (xa - xc) + (yb - yd) */
 910:../Dave/Generated/CMSIS_DSP/TransformFunctions/arm_cfft_radix4_q31.c ****     r2 = r2 + t1;
 911:../Dave/Generated/CMSIS_DSP/TransformFunctions/arm_cfft_radix4_q31.c **** 
 912:../Dave/Generated/CMSIS_DSP/TransformFunctions/arm_cfft_radix4_q31.c ****     /* (ya - yc) + (xb - xd) */
 913:../Dave/Generated/CMSIS_DSP/TransformFunctions/arm_cfft_radix4_q31.c ****     s1 = s2 + t2;
 914:../Dave/Generated/CMSIS_DSP/TransformFunctions/arm_cfft_radix4_q31.c ****     /* (ya - yc) - (xb - xd) */
 915:../Dave/Generated/CMSIS_DSP/TransformFunctions/arm_cfft_radix4_q31.c ****     s2 = s2 - t2;
 916:../Dave/Generated/CMSIS_DSP/TransformFunctions/arm_cfft_radix4_q31.c **** 
 917:../Dave/Generated/CMSIS_DSP/TransformFunctions/arm_cfft_radix4_q31.c ****     co1 = pCoef[ia1 * 2u];
 918:../Dave/Generated/CMSIS_DSP/TransformFunctions/arm_cfft_radix4_q31.c ****     si1 = pCoef[(ia1 * 2u) + 1u];
 919:../Dave/Generated/CMSIS_DSP/TransformFunctions/arm_cfft_radix4_q31.c **** 
 920:../Dave/Generated/CMSIS_DSP/TransformFunctions/arm_cfft_radix4_q31.c ****     /* xb' = (xa+yb-xc-yd)co1 - (ya-xb-yc+xd)(si1) */
 921:../Dave/Generated/CMSIS_DSP/TransformFunctions/arm_cfft_radix4_q31.c ****     pSrc[2u * i2] = (((int32_t) (((q63_t) r1 * co1) >> 32)) -
 922:../Dave/Generated/CMSIS_DSP/TransformFunctions/arm_cfft_radix4_q31.c ****                      ((int32_t) (((q63_t) s1 * si1) >> 32))) << 1u;
 923:../Dave/Generated/CMSIS_DSP/TransformFunctions/arm_cfft_radix4_q31.c **** 
 924:../Dave/Generated/CMSIS_DSP/TransformFunctions/arm_cfft_radix4_q31.c ****     /* yb' = (ya-xb-yc+xd)co1 + (xa+yb-xc-yd)(si1) */
 925:../Dave/Generated/CMSIS_DSP/TransformFunctions/arm_cfft_radix4_q31.c ****     pSrc[(2u * i2) + 1u] = (((int32_t) (((q63_t) s1 * co1) >> 32)) +
 926:../Dave/Generated/CMSIS_DSP/TransformFunctions/arm_cfft_radix4_q31.c ****                             ((int32_t) (((q63_t) r1 * si1) >> 32))) << 1u;
 927:../Dave/Generated/CMSIS_DSP/TransformFunctions/arm_cfft_radix4_q31.c **** 
 928:../Dave/Generated/CMSIS_DSP/TransformFunctions/arm_cfft_radix4_q31.c ****     /*  index calculation for the coefficients */
 929:../Dave/Generated/CMSIS_DSP/TransformFunctions/arm_cfft_radix4_q31.c ****     ia3 = 3u * ia1;
 930:../Dave/Generated/CMSIS_DSP/TransformFunctions/arm_cfft_radix4_q31.c ****     co3 = pCoef[ia3 * 2u];
 931:../Dave/Generated/CMSIS_DSP/TransformFunctions/arm_cfft_radix4_q31.c ****     si3 = pCoef[(ia3 * 2u) + 1u];
 932:../Dave/Generated/CMSIS_DSP/TransformFunctions/arm_cfft_radix4_q31.c **** 
 933:../Dave/Generated/CMSIS_DSP/TransformFunctions/arm_cfft_radix4_q31.c ****     /* xd' = (xa-yb-xc+yd)co3 - (ya+xb-yc-xd)(si3) */
 934:../Dave/Generated/CMSIS_DSP/TransformFunctions/arm_cfft_radix4_q31.c ****     pSrc[2u * i3] = (((int32_t) (((q63_t) r2 * co3) >> 32)) -
 935:../Dave/Generated/CMSIS_DSP/TransformFunctions/arm_cfft_radix4_q31.c ****                      ((int32_t) (((q63_t) s2 * si3) >> 32))) << 1u;
 936:../Dave/Generated/CMSIS_DSP/TransformFunctions/arm_cfft_radix4_q31.c **** 
 937:../Dave/Generated/CMSIS_DSP/TransformFunctions/arm_cfft_radix4_q31.c ****     /* yd' = (ya+xb-yc-xd)co3 + (xa-yb-xc+yd)(si3) */
 938:../Dave/Generated/CMSIS_DSP/TransformFunctions/arm_cfft_radix4_q31.c ****     pSrc[(2u * i3) + 1u] = (((int32_t) (((q63_t) s2 * co3) >> 32)) +
 939:../Dave/Generated/CMSIS_DSP/TransformFunctions/arm_cfft_radix4_q31.c ****                             ((int32_t) (((q63_t) r2 * si3) >> 32))) << 1u;
 940:../Dave/Generated/CMSIS_DSP/TransformFunctions/arm_cfft_radix4_q31.c **** 
 941:../Dave/Generated/CMSIS_DSP/TransformFunctions/arm_cfft_radix4_q31.c ****     /*  Twiddle coefficients index modifier */
 942:../Dave/Generated/CMSIS_DSP/TransformFunctions/arm_cfft_radix4_q31.c ****     ia1 = ia1 + twidCoefModifier;
 943:../Dave/Generated/CMSIS_DSP/TransformFunctions/arm_cfft_radix4_q31.c **** 
 944:../Dave/Generated/CMSIS_DSP/TransformFunctions/arm_cfft_radix4_q31.c ****     /*  Updating input index */
 945:../Dave/Generated/CMSIS_DSP/TransformFunctions/arm_cfft_radix4_q31.c ****     i0 = i0 + 1u;
 946:../Dave/Generated/CMSIS_DSP/TransformFunctions/arm_cfft_radix4_q31.c **** 
 947:../Dave/Generated/CMSIS_DSP/TransformFunctions/arm_cfft_radix4_q31.c ****   } while(--j);
 948:../Dave/Generated/CMSIS_DSP/TransformFunctions/arm_cfft_radix4_q31.c **** 
 949:../Dave/Generated/CMSIS_DSP/TransformFunctions/arm_cfft_radix4_q31.c ****   /* data is in 5.27(q27) format */
 950:../Dave/Generated/CMSIS_DSP/TransformFunctions/arm_cfft_radix4_q31.c ****   /* each stage provides two down scaling of the input */
 951:../Dave/Generated/CMSIS_DSP/TransformFunctions/arm_cfft_radix4_q31.c **** 
 952:../Dave/Generated/CMSIS_DSP/TransformFunctions/arm_cfft_radix4_q31.c **** 
 953:../Dave/Generated/CMSIS_DSP/TransformFunctions/arm_cfft_radix4_q31.c ****   /* Start of Middle stages process */
 954:../Dave/Generated/CMSIS_DSP/TransformFunctions/arm_cfft_radix4_q31.c **** 
 955:../Dave/Generated/CMSIS_DSP/TransformFunctions/arm_cfft_radix4_q31.c ****   twidCoefModifier <<= 2u;
 956:../Dave/Generated/CMSIS_DSP/TransformFunctions/arm_cfft_radix4_q31.c **** 
 957:../Dave/Generated/CMSIS_DSP/TransformFunctions/arm_cfft_radix4_q31.c ****   /*  Calculation of second stage to excluding last stage */
 958:../Dave/Generated/CMSIS_DSP/TransformFunctions/arm_cfft_radix4_q31.c ****   for (k = fftLen / 4u; k > 4u; k >>= 2u)
 959:../Dave/Generated/CMSIS_DSP/TransformFunctions/arm_cfft_radix4_q31.c ****   {
 960:../Dave/Generated/CMSIS_DSP/TransformFunctions/arm_cfft_radix4_q31.c ****     /*  Initializations for the first stage */
 961:../Dave/Generated/CMSIS_DSP/TransformFunctions/arm_cfft_radix4_q31.c ****     n1 = n2;
 962:../Dave/Generated/CMSIS_DSP/TransformFunctions/arm_cfft_radix4_q31.c ****     n2 >>= 2u;
 963:../Dave/Generated/CMSIS_DSP/TransformFunctions/arm_cfft_radix4_q31.c ****     ia1 = 0u;
 964:../Dave/Generated/CMSIS_DSP/TransformFunctions/arm_cfft_radix4_q31.c **** 
 965:../Dave/Generated/CMSIS_DSP/TransformFunctions/arm_cfft_radix4_q31.c ****     for (j = 0; j <= (n2 - 1u); j++)
 966:../Dave/Generated/CMSIS_DSP/TransformFunctions/arm_cfft_radix4_q31.c ****     {
 967:../Dave/Generated/CMSIS_DSP/TransformFunctions/arm_cfft_radix4_q31.c ****       /*  index calculation for the coefficients */
 968:../Dave/Generated/CMSIS_DSP/TransformFunctions/arm_cfft_radix4_q31.c ****       ia2 = ia1 + ia1;
 969:../Dave/Generated/CMSIS_DSP/TransformFunctions/arm_cfft_radix4_q31.c ****       ia3 = ia2 + ia1;
 970:../Dave/Generated/CMSIS_DSP/TransformFunctions/arm_cfft_radix4_q31.c ****       co1 = pCoef[ia1 * 2u];
 971:../Dave/Generated/CMSIS_DSP/TransformFunctions/arm_cfft_radix4_q31.c ****       si1 = pCoef[(ia1 * 2u) + 1u];
 972:../Dave/Generated/CMSIS_DSP/TransformFunctions/arm_cfft_radix4_q31.c ****       co2 = pCoef[ia2 * 2u];
 973:../Dave/Generated/CMSIS_DSP/TransformFunctions/arm_cfft_radix4_q31.c ****       si2 = pCoef[(ia2 * 2u) + 1u];
 974:../Dave/Generated/CMSIS_DSP/TransformFunctions/arm_cfft_radix4_q31.c ****       co3 = pCoef[ia3 * 2u];
 975:../Dave/Generated/CMSIS_DSP/TransformFunctions/arm_cfft_radix4_q31.c ****       si3 = pCoef[(ia3 * 2u) + 1u];
 976:../Dave/Generated/CMSIS_DSP/TransformFunctions/arm_cfft_radix4_q31.c ****       /*  Twiddle coefficients index modifier */
 977:../Dave/Generated/CMSIS_DSP/TransformFunctions/arm_cfft_radix4_q31.c ****       ia1 = ia1 + twidCoefModifier;
 978:../Dave/Generated/CMSIS_DSP/TransformFunctions/arm_cfft_radix4_q31.c **** 
 979:../Dave/Generated/CMSIS_DSP/TransformFunctions/arm_cfft_radix4_q31.c ****       for (i0 = j; i0 < fftLen; i0 += n1)
 980:../Dave/Generated/CMSIS_DSP/TransformFunctions/arm_cfft_radix4_q31.c ****       {
 981:../Dave/Generated/CMSIS_DSP/TransformFunctions/arm_cfft_radix4_q31.c ****         /*  index calculation for the input as, */
 982:../Dave/Generated/CMSIS_DSP/TransformFunctions/arm_cfft_radix4_q31.c ****         /*  pSrc[i0 + 0], pSrc[i0 + fftLen/4], pSrc[i0 + fftLen/2u], pSrc[i0 + 3fftLen/4] */
 983:../Dave/Generated/CMSIS_DSP/TransformFunctions/arm_cfft_radix4_q31.c ****         i1 = i0 + n2;
 984:../Dave/Generated/CMSIS_DSP/TransformFunctions/arm_cfft_radix4_q31.c ****         i2 = i1 + n2;
 985:../Dave/Generated/CMSIS_DSP/TransformFunctions/arm_cfft_radix4_q31.c ****         i3 = i2 + n2;
 986:../Dave/Generated/CMSIS_DSP/TransformFunctions/arm_cfft_radix4_q31.c **** 
 987:../Dave/Generated/CMSIS_DSP/TransformFunctions/arm_cfft_radix4_q31.c ****         /*  Butterfly implementation */
 988:../Dave/Generated/CMSIS_DSP/TransformFunctions/arm_cfft_radix4_q31.c ****         /* xa + xc */
 989:../Dave/Generated/CMSIS_DSP/TransformFunctions/arm_cfft_radix4_q31.c ****         r1 = pSrc[2u * i0] + pSrc[2u * i2];
 990:../Dave/Generated/CMSIS_DSP/TransformFunctions/arm_cfft_radix4_q31.c ****         /* xa - xc */
 991:../Dave/Generated/CMSIS_DSP/TransformFunctions/arm_cfft_radix4_q31.c ****         r2 = pSrc[2u * i0] - pSrc[2u * i2];
 992:../Dave/Generated/CMSIS_DSP/TransformFunctions/arm_cfft_radix4_q31.c **** 
 993:../Dave/Generated/CMSIS_DSP/TransformFunctions/arm_cfft_radix4_q31.c ****         /* ya + yc */
 994:../Dave/Generated/CMSIS_DSP/TransformFunctions/arm_cfft_radix4_q31.c ****         s1 = pSrc[(2u * i0) + 1u] + pSrc[(2u * i2) + 1u];
 995:../Dave/Generated/CMSIS_DSP/TransformFunctions/arm_cfft_radix4_q31.c ****         /* ya - yc */
 996:../Dave/Generated/CMSIS_DSP/TransformFunctions/arm_cfft_radix4_q31.c ****         s2 = pSrc[(2u * i0) + 1u] - pSrc[(2u * i2) + 1u];
 997:../Dave/Generated/CMSIS_DSP/TransformFunctions/arm_cfft_radix4_q31.c **** 
 998:../Dave/Generated/CMSIS_DSP/TransformFunctions/arm_cfft_radix4_q31.c ****         /* xb + xd */
 999:../Dave/Generated/CMSIS_DSP/TransformFunctions/arm_cfft_radix4_q31.c ****         t1 = pSrc[2u * i1] + pSrc[2u * i3];
1000:../Dave/Generated/CMSIS_DSP/TransformFunctions/arm_cfft_radix4_q31.c **** 
1001:../Dave/Generated/CMSIS_DSP/TransformFunctions/arm_cfft_radix4_q31.c ****         /* xa' = xa + xb + xc + xd */
1002:../Dave/Generated/CMSIS_DSP/TransformFunctions/arm_cfft_radix4_q31.c ****         pSrc[2u * i0] = (r1 + t1) >> 2u;
1003:../Dave/Generated/CMSIS_DSP/TransformFunctions/arm_cfft_radix4_q31.c ****         /* xa + xc -(xb + xd) */
1004:../Dave/Generated/CMSIS_DSP/TransformFunctions/arm_cfft_radix4_q31.c ****         r1 = r1 - t1;
1005:../Dave/Generated/CMSIS_DSP/TransformFunctions/arm_cfft_radix4_q31.c ****         /* yb + yd */
1006:../Dave/Generated/CMSIS_DSP/TransformFunctions/arm_cfft_radix4_q31.c ****         t2 = pSrc[(2u * i1) + 1u] + pSrc[(2u * i3) + 1u];
1007:../Dave/Generated/CMSIS_DSP/TransformFunctions/arm_cfft_radix4_q31.c ****         /* ya' = ya + yb + yc + yd */
1008:../Dave/Generated/CMSIS_DSP/TransformFunctions/arm_cfft_radix4_q31.c ****         pSrc[(2u * i0) + 1u] = (s1 + t2) >> 2u;
1009:../Dave/Generated/CMSIS_DSP/TransformFunctions/arm_cfft_radix4_q31.c **** 
1010:../Dave/Generated/CMSIS_DSP/TransformFunctions/arm_cfft_radix4_q31.c ****         /* (ya + yc) - (yb + yd) */
1011:../Dave/Generated/CMSIS_DSP/TransformFunctions/arm_cfft_radix4_q31.c ****         s1 = s1 - t2;
1012:../Dave/Generated/CMSIS_DSP/TransformFunctions/arm_cfft_radix4_q31.c **** 
1013:../Dave/Generated/CMSIS_DSP/TransformFunctions/arm_cfft_radix4_q31.c ****         /* (yb - yd) */
1014:../Dave/Generated/CMSIS_DSP/TransformFunctions/arm_cfft_radix4_q31.c ****         t1 = pSrc[(2u * i1) + 1u] - pSrc[(2u * i3) + 1u];
1015:../Dave/Generated/CMSIS_DSP/TransformFunctions/arm_cfft_radix4_q31.c ****         /* (xb - xd) */
1016:../Dave/Generated/CMSIS_DSP/TransformFunctions/arm_cfft_radix4_q31.c ****         t2 = pSrc[2u * i1] - pSrc[2u * i3];
1017:../Dave/Generated/CMSIS_DSP/TransformFunctions/arm_cfft_radix4_q31.c **** 
1018:../Dave/Generated/CMSIS_DSP/TransformFunctions/arm_cfft_radix4_q31.c ****         /* xc' = (xa-xb+xc-xd)co2 - (ya-yb+yc-yd)(si2) */
1019:../Dave/Generated/CMSIS_DSP/TransformFunctions/arm_cfft_radix4_q31.c ****         pSrc[2u * i1] = (((int32_t) (((q63_t) r1 * co2) >> 32u)) -
1020:../Dave/Generated/CMSIS_DSP/TransformFunctions/arm_cfft_radix4_q31.c ****                          ((int32_t) (((q63_t) s1 * si2) >> 32u))) >> 1u;
1021:../Dave/Generated/CMSIS_DSP/TransformFunctions/arm_cfft_radix4_q31.c **** 
1022:../Dave/Generated/CMSIS_DSP/TransformFunctions/arm_cfft_radix4_q31.c ****         /* yc' = (ya-yb+yc-yd)co2 + (xa-xb+xc-xd)(si2) */
1023:../Dave/Generated/CMSIS_DSP/TransformFunctions/arm_cfft_radix4_q31.c ****         pSrc[(2u * i1) + 1u] =
1024:../Dave/Generated/CMSIS_DSP/TransformFunctions/arm_cfft_radix4_q31.c ****           (((int32_t) (((q63_t) s1 * co2) >> 32u)) +
1025:../Dave/Generated/CMSIS_DSP/TransformFunctions/arm_cfft_radix4_q31.c ****            ((int32_t) (((q63_t) r1 * si2) >> 32u))) >> 1u;
1026:../Dave/Generated/CMSIS_DSP/TransformFunctions/arm_cfft_radix4_q31.c **** 
1027:../Dave/Generated/CMSIS_DSP/TransformFunctions/arm_cfft_radix4_q31.c ****         /* (xa - xc) - (yb - yd) */
1028:../Dave/Generated/CMSIS_DSP/TransformFunctions/arm_cfft_radix4_q31.c ****         r1 = r2 - t1;
1029:../Dave/Generated/CMSIS_DSP/TransformFunctions/arm_cfft_radix4_q31.c ****         /* (xa - xc) + (yb - yd) */
1030:../Dave/Generated/CMSIS_DSP/TransformFunctions/arm_cfft_radix4_q31.c ****         r2 = r2 + t1;
1031:../Dave/Generated/CMSIS_DSP/TransformFunctions/arm_cfft_radix4_q31.c **** 
1032:../Dave/Generated/CMSIS_DSP/TransformFunctions/arm_cfft_radix4_q31.c ****         /* (ya - yc) +  (xb - xd) */
1033:../Dave/Generated/CMSIS_DSP/TransformFunctions/arm_cfft_radix4_q31.c ****         s1 = s2 + t2;
1034:../Dave/Generated/CMSIS_DSP/TransformFunctions/arm_cfft_radix4_q31.c ****         /* (ya - yc) -  (xb - xd) */
1035:../Dave/Generated/CMSIS_DSP/TransformFunctions/arm_cfft_radix4_q31.c ****         s2 = s2 - t2;
1036:../Dave/Generated/CMSIS_DSP/TransformFunctions/arm_cfft_radix4_q31.c **** 
1037:../Dave/Generated/CMSIS_DSP/TransformFunctions/arm_cfft_radix4_q31.c ****         /* xb' = (xa+yb-xc-yd)co1 - (ya-xb-yc+xd)(si1) */
1038:../Dave/Generated/CMSIS_DSP/TransformFunctions/arm_cfft_radix4_q31.c ****         pSrc[2u * i2] = (((int32_t) (((q63_t) r1 * co1) >> 32)) -
1039:../Dave/Generated/CMSIS_DSP/TransformFunctions/arm_cfft_radix4_q31.c ****                          ((int32_t) (((q63_t) s1 * si1) >> 32))) >> 1u;
1040:../Dave/Generated/CMSIS_DSP/TransformFunctions/arm_cfft_radix4_q31.c **** 
1041:../Dave/Generated/CMSIS_DSP/TransformFunctions/arm_cfft_radix4_q31.c ****         /* yb' = (ya-xb-yc+xd)co1 + (xa+yb-xc-yd)(si1) */
1042:../Dave/Generated/CMSIS_DSP/TransformFunctions/arm_cfft_radix4_q31.c ****         pSrc[(2u * i2) + 1u] = (((int32_t) (((q63_t) s1 * co1) >> 32)) +
1043:../Dave/Generated/CMSIS_DSP/TransformFunctions/arm_cfft_radix4_q31.c ****                                 ((int32_t) (((q63_t) r1 * si1) >> 32))) >> 1u;
1044:../Dave/Generated/CMSIS_DSP/TransformFunctions/arm_cfft_radix4_q31.c **** 
1045:../Dave/Generated/CMSIS_DSP/TransformFunctions/arm_cfft_radix4_q31.c ****         /* xd' = (xa-yb-xc+yd)co3 - (ya+xb-yc-xd)(si3) */
1046:../Dave/Generated/CMSIS_DSP/TransformFunctions/arm_cfft_radix4_q31.c ****         pSrc[(2u * i3)] = (((int32_t) (((q63_t) r2 * co3) >> 32)) -
1047:../Dave/Generated/CMSIS_DSP/TransformFunctions/arm_cfft_radix4_q31.c ****                            ((int32_t) (((q63_t) s2 * si3) >> 32))) >> 1u;
1048:../Dave/Generated/CMSIS_DSP/TransformFunctions/arm_cfft_radix4_q31.c **** 
1049:../Dave/Generated/CMSIS_DSP/TransformFunctions/arm_cfft_radix4_q31.c ****         /* yd' = (ya+xb-yc-xd)co3 + (xa-yb-xc+yd)(si3) */
1050:../Dave/Generated/CMSIS_DSP/TransformFunctions/arm_cfft_radix4_q31.c ****         pSrc[(2u * i3) + 1u] = (((int32_t) (((q63_t) s2 * co3) >> 32)) +
1051:../Dave/Generated/CMSIS_DSP/TransformFunctions/arm_cfft_radix4_q31.c ****                                 ((int32_t) (((q63_t) r2 * si3) >> 32))) >> 1u;
1052:../Dave/Generated/CMSIS_DSP/TransformFunctions/arm_cfft_radix4_q31.c ****       }
1053:../Dave/Generated/CMSIS_DSP/TransformFunctions/arm_cfft_radix4_q31.c ****     }
1054:../Dave/Generated/CMSIS_DSP/TransformFunctions/arm_cfft_radix4_q31.c ****     twidCoefModifier <<= 2u;
1055:../Dave/Generated/CMSIS_DSP/TransformFunctions/arm_cfft_radix4_q31.c ****   }
1056:../Dave/Generated/CMSIS_DSP/TransformFunctions/arm_cfft_radix4_q31.c **** #else
1057:../Dave/Generated/CMSIS_DSP/TransformFunctions/arm_cfft_radix4_q31.c ****   uint32_t n1, n2, ia1, ia2, ia3, i0, j, k;
1058:../Dave/Generated/CMSIS_DSP/TransformFunctions/arm_cfft_radix4_q31.c ****   q31_t t1, t2, r1, r2, s1, s2, co1, co2, co3, si1, si2, si3;
1059:../Dave/Generated/CMSIS_DSP/TransformFunctions/arm_cfft_radix4_q31.c ****   q31_t xa, xb, xc, xd;
1060:../Dave/Generated/CMSIS_DSP/TransformFunctions/arm_cfft_radix4_q31.c ****   q31_t ya, yb, yc, yd;
1061:../Dave/Generated/CMSIS_DSP/TransformFunctions/arm_cfft_radix4_q31.c ****   q31_t xa_out, xb_out, xc_out, xd_out;
1062:../Dave/Generated/CMSIS_DSP/TransformFunctions/arm_cfft_radix4_q31.c ****   q31_t ya_out, yb_out, yc_out, yd_out;
1063:../Dave/Generated/CMSIS_DSP/TransformFunctions/arm_cfft_radix4_q31.c **** 
1064:../Dave/Generated/CMSIS_DSP/TransformFunctions/arm_cfft_radix4_q31.c ****   q31_t *ptr1;
1065:../Dave/Generated/CMSIS_DSP/TransformFunctions/arm_cfft_radix4_q31.c ****   q31_t *pSi0;
1066:../Dave/Generated/CMSIS_DSP/TransformFunctions/arm_cfft_radix4_q31.c ****   q31_t *pSi1;
1067:../Dave/Generated/CMSIS_DSP/TransformFunctions/arm_cfft_radix4_q31.c ****   q31_t *pSi2;
1068:../Dave/Generated/CMSIS_DSP/TransformFunctions/arm_cfft_radix4_q31.c ****   q31_t *pSi3;
1069:../Dave/Generated/CMSIS_DSP/TransformFunctions/arm_cfft_radix4_q31.c ****   q63_t xaya, xbyb, xcyc, xdyd;
1070:../Dave/Generated/CMSIS_DSP/TransformFunctions/arm_cfft_radix4_q31.c **** 
1071:../Dave/Generated/CMSIS_DSP/TransformFunctions/arm_cfft_radix4_q31.c ****   /* input is be 1.31(q31) format for all FFT sizes */
1072:../Dave/Generated/CMSIS_DSP/TransformFunctions/arm_cfft_radix4_q31.c ****   /* Total process is divided into three stages */
1073:../Dave/Generated/CMSIS_DSP/TransformFunctions/arm_cfft_radix4_q31.c ****   /* process first stage, middle stages, & last stage */
1074:../Dave/Generated/CMSIS_DSP/TransformFunctions/arm_cfft_radix4_q31.c **** 
1075:../Dave/Generated/CMSIS_DSP/TransformFunctions/arm_cfft_radix4_q31.c ****   /* Start of first stage process */
1076:../Dave/Generated/CMSIS_DSP/TransformFunctions/arm_cfft_radix4_q31.c **** 
1077:../Dave/Generated/CMSIS_DSP/TransformFunctions/arm_cfft_radix4_q31.c ****   /* Initializations for the first stage */
1078:../Dave/Generated/CMSIS_DSP/TransformFunctions/arm_cfft_radix4_q31.c ****   n2 = fftLen;
 1444              	 .loc 1 1078 0
 1445 0018 D7F8D830 	 ldr r3,[r7,#216]
 1446 001c C7F8A431 	 str r3,[r7,#420]
1079:../Dave/Generated/CMSIS_DSP/TransformFunctions/arm_cfft_radix4_q31.c ****   n1 = n2;
 1447              	 .loc 1 1079 0
 1448 0020 D7F8A431 	 ldr r3,[r7,#420]
 1449 0024 C7F88031 	 str r3,[r7,#384]
1080:../Dave/Generated/CMSIS_DSP/TransformFunctions/arm_cfft_radix4_q31.c ****   /* n2 = fftLen/4 */
1081:../Dave/Generated/CMSIS_DSP/TransformFunctions/arm_cfft_radix4_q31.c ****   n2 >>= 2u;
 1450              	 .loc 1 1081 0
 1451 0028 D7F8A431 	 ldr r3,[r7,#420]
 1452 002c 9B08     	 lsrs r3,r3,#2
 1453 002e C7F8A431 	 str r3,[r7,#420]
1082:../Dave/Generated/CMSIS_DSP/TransformFunctions/arm_cfft_radix4_q31.c **** 
1083:../Dave/Generated/CMSIS_DSP/TransformFunctions/arm_cfft_radix4_q31.c ****   ia1 = 0u;
 1454              	 .loc 1 1083 0
 1455 0032 0023     	 movs r3,#0
 1456 0034 C7F8A031 	 str r3,[r7,#416]
1084:../Dave/Generated/CMSIS_DSP/TransformFunctions/arm_cfft_radix4_q31.c **** 
1085:../Dave/Generated/CMSIS_DSP/TransformFunctions/arm_cfft_radix4_q31.c ****   j = n2;
 1457              	 .loc 1 1085 0
 1458 0038 D7F8A431 	 ldr r3,[r7,#420]
 1459 003c C7F89831 	 str r3,[r7,#408]
1086:../Dave/Generated/CMSIS_DSP/TransformFunctions/arm_cfft_radix4_q31.c ****   
1087:../Dave/Generated/CMSIS_DSP/TransformFunctions/arm_cfft_radix4_q31.c ****   pSi0 = pSrc;
 1460              	 .loc 1 1087 0
 1461 0040 D7F8DC30 	 ldr r3,[r7,#220]
 1462 0044 C7F89031 	 str r3,[r7,#400]
1088:../Dave/Generated/CMSIS_DSP/TransformFunctions/arm_cfft_radix4_q31.c ****   pSi1 = pSi0 + 2 * n2;
 1463              	 .loc 1 1088 0
 1464 0048 D7F8A431 	 ldr r3,[r7,#420]
 1465 004c DA00     	 lsls r2,r3,#3
 1466 004e D7F89031 	 ldr r3,[r7,#400]
 1467 0052 1344     	 add r3,r3,r2
 1468 0054 C7F88C31 	 str r3,[r7,#396]
1089:../Dave/Generated/CMSIS_DSP/TransformFunctions/arm_cfft_radix4_q31.c ****   pSi2 = pSi1 + 2 * n2;
 1469              	 .loc 1 1089 0
 1470 0058 D7F8A431 	 ldr r3,[r7,#420]
 1471 005c DA00     	 lsls r2,r3,#3
 1472 005e D7F88C31 	 ldr r3,[r7,#396]
 1473 0062 1344     	 add r3,r3,r2
 1474 0064 C7F88831 	 str r3,[r7,#392]
1090:../Dave/Generated/CMSIS_DSP/TransformFunctions/arm_cfft_radix4_q31.c ****   pSi3 = pSi2 + 2 * n2;
 1475              	 .loc 1 1090 0
 1476 0068 D7F8A431 	 ldr r3,[r7,#420]
 1477 006c DA00     	 lsls r2,r3,#3
 1478 006e D7F88831 	 ldr r3,[r7,#392]
 1479 0072 1344     	 add r3,r3,r2
 1480 0074 C7F88431 	 str r3,[r7,#388]
 1481              	.L15:
1091:../Dave/Generated/CMSIS_DSP/TransformFunctions/arm_cfft_radix4_q31.c **** 
1092:../Dave/Generated/CMSIS_DSP/TransformFunctions/arm_cfft_radix4_q31.c ****   do
1093:../Dave/Generated/CMSIS_DSP/TransformFunctions/arm_cfft_radix4_q31.c ****   {
1094:../Dave/Generated/CMSIS_DSP/TransformFunctions/arm_cfft_radix4_q31.c ****     /*  Butterfly implementation */
1095:../Dave/Generated/CMSIS_DSP/TransformFunctions/arm_cfft_radix4_q31.c ****     /* xa + xc */
1096:../Dave/Generated/CMSIS_DSP/TransformFunctions/arm_cfft_radix4_q31.c ****     r1 = (pSi0[0] >> 4u) + (pSi2[0] >> 4u);
 1482              	 .loc 1 1096 0 discriminator 1
 1483 0078 D7F89031 	 ldr r3,[r7,#400]
 1484 007c 1B68     	 ldr r3,[r3]
 1485 007e 1A11     	 asrs r2,r3,#4
 1486 0080 D7F88831 	 ldr r3,[r7,#392]
 1487 0084 1B68     	 ldr r3,[r3]
 1488 0086 1B11     	 asrs r3,r3,#4
 1489 0088 1344     	 add r3,r3,r2
 1490 008a C7F87C31 	 str r3,[r7,#380]
1097:../Dave/Generated/CMSIS_DSP/TransformFunctions/arm_cfft_radix4_q31.c ****     /* xa - xc */
1098:../Dave/Generated/CMSIS_DSP/TransformFunctions/arm_cfft_radix4_q31.c ****     r2 = (pSi0[0] >> 4u) - (pSi2[0] >> 4u);
 1491              	 .loc 1 1098 0 discriminator 1
 1492 008e D7F89031 	 ldr r3,[r7,#400]
 1493 0092 1B68     	 ldr r3,[r3]
 1494 0094 1A11     	 asrs r2,r3,#4
 1495 0096 D7F88831 	 ldr r3,[r7,#392]
 1496 009a 1B68     	 ldr r3,[r3]
 1497 009c 1B11     	 asrs r3,r3,#4
 1498 009e D31A     	 subs r3,r2,r3
 1499 00a0 C7F87831 	 str r3,[r7,#376]
1099:../Dave/Generated/CMSIS_DSP/TransformFunctions/arm_cfft_radix4_q31.c **** 
1100:../Dave/Generated/CMSIS_DSP/TransformFunctions/arm_cfft_radix4_q31.c ****     /* xb + xd */
1101:../Dave/Generated/CMSIS_DSP/TransformFunctions/arm_cfft_radix4_q31.c ****     t1 = (pSi1[0] >> 4u) + (pSi3[0] >> 4u);
 1500              	 .loc 1 1101 0 discriminator 1
 1501 00a4 D7F88C31 	 ldr r3,[r7,#396]
 1502 00a8 1B68     	 ldr r3,[r3]
 1503 00aa 1A11     	 asrs r2,r3,#4
 1504 00ac D7F88431 	 ldr r3,[r7,#388]
 1505 00b0 1B68     	 ldr r3,[r3]
 1506 00b2 1B11     	 asrs r3,r3,#4
 1507 00b4 1344     	 add r3,r3,r2
 1508 00b6 C7F87431 	 str r3,[r7,#372]
1102:../Dave/Generated/CMSIS_DSP/TransformFunctions/arm_cfft_radix4_q31.c **** 
1103:../Dave/Generated/CMSIS_DSP/TransformFunctions/arm_cfft_radix4_q31.c ****     /* ya + yc */
1104:../Dave/Generated/CMSIS_DSP/TransformFunctions/arm_cfft_radix4_q31.c ****     s1 = (pSi0[1] >> 4u) + (pSi2[1] >> 4u);
 1509              	 .loc 1 1104 0 discriminator 1
 1510 00ba D7F89031 	 ldr r3,[r7,#400]
 1511 00be 0433     	 adds r3,r3,#4
 1512 00c0 1B68     	 ldr r3,[r3]
 1513 00c2 1A11     	 asrs r2,r3,#4
 1514 00c4 D7F88831 	 ldr r3,[r7,#392]
 1515 00c8 0433     	 adds r3,r3,#4
 1516 00ca 1B68     	 ldr r3,[r3]
 1517 00cc 1B11     	 asrs r3,r3,#4
 1518 00ce 1344     	 add r3,r3,r2
 1519 00d0 C7F87031 	 str r3,[r7,#368]
1105:../Dave/Generated/CMSIS_DSP/TransformFunctions/arm_cfft_radix4_q31.c ****     /* ya - yc */
1106:../Dave/Generated/CMSIS_DSP/TransformFunctions/arm_cfft_radix4_q31.c ****     s2 = (pSi0[1] >> 4u) - (pSi2[1] >> 4u);
 1520              	 .loc 1 1106 0 discriminator 1
 1521 00d4 D7F89031 	 ldr r3,[r7,#400]
 1522 00d8 0433     	 adds r3,r3,#4
 1523 00da 1B68     	 ldr r3,[r3]
 1524 00dc 1A11     	 asrs r2,r3,#4
 1525 00de D7F88831 	 ldr r3,[r7,#392]
 1526 00e2 0433     	 adds r3,r3,#4
 1527 00e4 1B68     	 ldr r3,[r3]
 1528 00e6 1B11     	 asrs r3,r3,#4
 1529 00e8 D31A     	 subs r3,r2,r3
 1530 00ea C7F86C31 	 str r3,[r7,#364]
1107:../Dave/Generated/CMSIS_DSP/TransformFunctions/arm_cfft_radix4_q31.c **** 
1108:../Dave/Generated/CMSIS_DSP/TransformFunctions/arm_cfft_radix4_q31.c ****     /* xa' = xa + xb + xc + xd */
1109:../Dave/Generated/CMSIS_DSP/TransformFunctions/arm_cfft_radix4_q31.c ****     *pSi0++ = (r1 + t1);
 1531              	 .loc 1 1109 0 discriminator 1
 1532 00ee D7F89011 	 ldr r1,[r7,#400]
 1533 00f2 0B1D     	 adds r3,r1,#4
 1534 00f4 C7F89031 	 str r3,[r7,#400]
 1535 00f8 D7F87C21 	 ldr r2,[r7,#380]
 1536 00fc D7F87431 	 ldr r3,[r7,#372]
 1537 0100 1344     	 add r3,r3,r2
 1538 0102 0B60     	 str r3,[r1]
1110:../Dave/Generated/CMSIS_DSP/TransformFunctions/arm_cfft_radix4_q31.c ****     /* (xa + xc) - (xb + xd) */
1111:../Dave/Generated/CMSIS_DSP/TransformFunctions/arm_cfft_radix4_q31.c ****     r1 = r1 - t1;
 1539              	 .loc 1 1111 0 discriminator 1
 1540 0104 D7F87C21 	 ldr r2,[r7,#380]
 1541 0108 D7F87431 	 ldr r3,[r7,#372]
 1542 010c D31A     	 subs r3,r2,r3
 1543 010e C7F87C31 	 str r3,[r7,#380]
1112:../Dave/Generated/CMSIS_DSP/TransformFunctions/arm_cfft_radix4_q31.c ****     /* yb + yd */
1113:../Dave/Generated/CMSIS_DSP/TransformFunctions/arm_cfft_radix4_q31.c ****     t2 = (pSi1[1] >> 4u) + (pSi3[1] >> 4u);
 1544              	 .loc 1 1113 0 discriminator 1
 1545 0112 D7F88C31 	 ldr r3,[r7,#396]
 1546 0116 0433     	 adds r3,r3,#4
 1547 0118 1B68     	 ldr r3,[r3]
 1548 011a 1A11     	 asrs r2,r3,#4
 1549 011c D7F88431 	 ldr r3,[r7,#388]
 1550 0120 0433     	 adds r3,r3,#4
 1551 0122 1B68     	 ldr r3,[r3]
 1552 0124 1B11     	 asrs r3,r3,#4
 1553 0126 1344     	 add r3,r3,r2
 1554 0128 C7F86831 	 str r3,[r7,#360]
1114:../Dave/Generated/CMSIS_DSP/TransformFunctions/arm_cfft_radix4_q31.c ****     /* ya' = ya + yb + yc + yd */
1115:../Dave/Generated/CMSIS_DSP/TransformFunctions/arm_cfft_radix4_q31.c ****     *pSi0++ = (s1 + t2);
 1555              	 .loc 1 1115 0 discriminator 1
 1556 012c D7F89011 	 ldr r1,[r7,#400]
 1557 0130 0B1D     	 adds r3,r1,#4
 1558 0132 C7F89031 	 str r3,[r7,#400]
 1559 0136 D7F87021 	 ldr r2,[r7,#368]
 1560 013a D7F86831 	 ldr r3,[r7,#360]
 1561 013e 1344     	 add r3,r3,r2
 1562 0140 0B60     	 str r3,[r1]
1116:../Dave/Generated/CMSIS_DSP/TransformFunctions/arm_cfft_radix4_q31.c **** 
1117:../Dave/Generated/CMSIS_DSP/TransformFunctions/arm_cfft_radix4_q31.c ****     /* (ya + yc) - (yb + yd) */
1118:../Dave/Generated/CMSIS_DSP/TransformFunctions/arm_cfft_radix4_q31.c ****     s1 = s1 - t2;
 1563              	 .loc 1 1118 0 discriminator 1
 1564 0142 D7F87021 	 ldr r2,[r7,#368]
 1565 0146 D7F86831 	 ldr r3,[r7,#360]
 1566 014a D31A     	 subs r3,r2,r3
 1567 014c C7F87031 	 str r3,[r7,#368]
1119:../Dave/Generated/CMSIS_DSP/TransformFunctions/arm_cfft_radix4_q31.c **** 
1120:../Dave/Generated/CMSIS_DSP/TransformFunctions/arm_cfft_radix4_q31.c ****     /* yb - yd */
1121:../Dave/Generated/CMSIS_DSP/TransformFunctions/arm_cfft_radix4_q31.c ****     t1 = (pSi1[1] >> 4u) - (pSi3[1] >> 4u);
 1568              	 .loc 1 1121 0 discriminator 1
 1569 0150 D7F88C31 	 ldr r3,[r7,#396]
 1570 0154 0433     	 adds r3,r3,#4
 1571 0156 1B68     	 ldr r3,[r3]
 1572 0158 1A11     	 asrs r2,r3,#4
 1573 015a D7F88431 	 ldr r3,[r7,#388]
 1574 015e 0433     	 adds r3,r3,#4
 1575 0160 1B68     	 ldr r3,[r3]
 1576 0162 1B11     	 asrs r3,r3,#4
 1577 0164 D31A     	 subs r3,r2,r3
 1578 0166 C7F87431 	 str r3,[r7,#372]
1122:../Dave/Generated/CMSIS_DSP/TransformFunctions/arm_cfft_radix4_q31.c ****     /* xb - xd */
1123:../Dave/Generated/CMSIS_DSP/TransformFunctions/arm_cfft_radix4_q31.c ****     t2 = (pSi1[0] >> 4u) - (pSi3[0] >> 4u);
 1579              	 .loc 1 1123 0 discriminator 1
 1580 016a D7F88C31 	 ldr r3,[r7,#396]
 1581 016e 1B68     	 ldr r3,[r3]
 1582 0170 1A11     	 asrs r2,r3,#4
 1583 0172 D7F88431 	 ldr r3,[r7,#388]
 1584 0176 1B68     	 ldr r3,[r3]
 1585 0178 1B11     	 asrs r3,r3,#4
 1586 017a D31A     	 subs r3,r2,r3
 1587 017c C7F86831 	 str r3,[r7,#360]
1124:../Dave/Generated/CMSIS_DSP/TransformFunctions/arm_cfft_radix4_q31.c **** 
1125:../Dave/Generated/CMSIS_DSP/TransformFunctions/arm_cfft_radix4_q31.c ****     /*  index calculation for the coefficients */
1126:../Dave/Generated/CMSIS_DSP/TransformFunctions/arm_cfft_radix4_q31.c ****     ia2 = 2u * ia1;
 1588              	 .loc 1 1126 0 discriminator 1
 1589 0180 D7F8A031 	 ldr r3,[r7,#416]
 1590 0184 5B00     	 lsls r3,r3,#1
 1591 0186 C7F86431 	 str r3,[r7,#356]
1127:../Dave/Generated/CMSIS_DSP/TransformFunctions/arm_cfft_radix4_q31.c ****     co2 = pCoef[ia2 * 2u];
 1592              	 .loc 1 1127 0 discriminator 1
 1593 018a D7F86431 	 ldr r3,[r7,#356]
 1594 018e DA00     	 lsls r2,r3,#3
 1595 0190 D7F8D430 	 ldr r3,[r7,#212]
 1596 0194 1344     	 add r3,r3,r2
 1597 0196 1B68     	 ldr r3,[r3]
 1598 0198 C7F86031 	 str r3,[r7,#352]
1128:../Dave/Generated/CMSIS_DSP/TransformFunctions/arm_cfft_radix4_q31.c ****     si2 = pCoef[(ia2 * 2u) + 1u];
 1599              	 .loc 1 1128 0 discriminator 1
 1600 019c D7F86431 	 ldr r3,[r7,#356]
 1601 01a0 DB00     	 lsls r3,r3,#3
 1602 01a2 1A1D     	 adds r2,r3,#4
 1603 01a4 D7F8D430 	 ldr r3,[r7,#212]
 1604 01a8 1344     	 add r3,r3,r2
 1605 01aa 1B68     	 ldr r3,[r3]
 1606 01ac C7F85C31 	 str r3,[r7,#348]
1129:../Dave/Generated/CMSIS_DSP/TransformFunctions/arm_cfft_radix4_q31.c **** 
1130:../Dave/Generated/CMSIS_DSP/TransformFunctions/arm_cfft_radix4_q31.c ****     /* xc' = (xa-xb+xc-xd)co2 - (ya-yb+yc-yd)(si2) */
1131:../Dave/Generated/CMSIS_DSP/TransformFunctions/arm_cfft_radix4_q31.c ****     *pSi1++ = (((int32_t) (((q63_t) r1 * co2) >> 32)) -
 1607              	 .loc 1 1131 0 discriminator 1
 1608 01b0 D7F88C61 	 ldr r6,[r7,#396]
 1609 01b4 331D     	 adds r3,r6,#4
 1610 01b6 C7F88C31 	 str r3,[r7,#396]
 1611 01ba D7F87C31 	 ldr r3,[r7,#380]
 1612 01be 1846     	 mov r0,r3
 1613 01c0 4FEAE071 	 asr r1,r0,#31
 1614 01c4 D7F86031 	 ldr r3,[r7,#352]
 1615 01c8 1A46     	 mov r2,r3
 1616 01ca 4FEAE273 	 asr r3,r2,#31
 1617 01ce 02FB01F5 	 mul r5,r2,r1
 1618 01d2 00FB03F4 	 mul r4,r0,r3
 1619 01d6 2C44     	 add r4,r4,r5
 1620 01d8 A0FB0223 	 umull r2,r3,r0,r2
 1621 01dc E118     	 adds r1,r4,r3
 1622 01de 0B46     	 mov r3,r1
 1623 01e0 1900     	 movs r1,r3
 1624 01e2 C7F8C810 	 str r1,[r7,#200]
 1625 01e6 DB17     	 asrs r3,r3,#31
 1626 01e8 C7F8CC30 	 str r3,[r7,#204]
 1627 01ec D7F8C8E0 	 ldr lr,[r7,#200]
1132:../Dave/Generated/CMSIS_DSP/TransformFunctions/arm_cfft_radix4_q31.c ****                      ((int32_t) (((q63_t) s1 * si2) >> 32))) << 1u;
 1628              	 .loc 1 1132 0 discriminator 1
 1629 01f0 D7F87031 	 ldr r3,[r7,#368]
 1630 01f4 1846     	 mov r0,r3
 1631 01f6 4FEAE071 	 asr r1,r0,#31
 1632 01fa D7F85C31 	 ldr r3,[r7,#348]
 1633 01fe 1A46     	 mov r2,r3
 1634 0200 4FEAE273 	 asr r3,r2,#31
 1635 0204 02FB01F5 	 mul r5,r2,r1
 1636 0208 00FB03F4 	 mul r4,r0,r3
 1637 020c 2C44     	 add r4,r4,r5
 1638 020e A0FB0223 	 umull r2,r3,r0,r2
 1639 0212 E118     	 adds r1,r4,r3
 1640 0214 0B46     	 mov r3,r1
 1641 0216 1900     	 movs r1,r3
 1642 0218 C7F8C010 	 str r1,[r7,#192]
 1643 021c DB17     	 asrs r3,r3,#31
 1644 021e C7F8C430 	 str r3,[r7,#196]
 1645 0222 D7F8C030 	 ldr r3,[r7,#192]
1131:../Dave/Generated/CMSIS_DSP/TransformFunctions/arm_cfft_radix4_q31.c ****                      ((int32_t) (((q63_t) s1 * si2) >> 32))) << 1u;
 1646              	 .loc 1 1131 0 discriminator 1
 1647 0226 C3EB0E03 	 rsb r3,r3,lr
 1648              	 .loc 1 1132 0 discriminator 1
 1649 022a 5B00     	 lsls r3,r3,#1
1131:../Dave/Generated/CMSIS_DSP/TransformFunctions/arm_cfft_radix4_q31.c ****                      ((int32_t) (((q63_t) s1 * si2) >> 32))) << 1u;
 1650              	 .loc 1 1131 0 discriminator 1
 1651 022c 3360     	 str r3,[r6]
1133:../Dave/Generated/CMSIS_DSP/TransformFunctions/arm_cfft_radix4_q31.c **** 
1134:../Dave/Generated/CMSIS_DSP/TransformFunctions/arm_cfft_radix4_q31.c ****     /* yc' = (ya-yb+yc-yd)co2 + (xa-xb+xc-xd)(si2) */
1135:../Dave/Generated/CMSIS_DSP/TransformFunctions/arm_cfft_radix4_q31.c ****     *pSi1++ = (((int32_t) (((q63_t) s1 * co2) >> 32)) +
 1652              	 .loc 1 1135 0 discriminator 1
 1653 022e D7F88C61 	 ldr r6,[r7,#396]
 1654 0232 331D     	 adds r3,r6,#4
 1655 0234 C7F88C31 	 str r3,[r7,#396]
 1656 0238 D7F87031 	 ldr r3,[r7,#368]
 1657 023c 1846     	 mov r0,r3
 1658 023e 4FEAE071 	 asr r1,r0,#31
 1659 0242 D7F86031 	 ldr r3,[r7,#352]
 1660 0246 1A46     	 mov r2,r3
 1661 0248 4FEAE273 	 asr r3,r2,#31
 1662 024c 02FB01F5 	 mul r5,r2,r1
 1663 0250 00FB03F4 	 mul r4,r0,r3
 1664 0254 2C44     	 add r4,r4,r5
 1665 0256 A0FB0223 	 umull r2,r3,r0,r2
 1666 025a E118     	 adds r1,r4,r3
 1667 025c 0B46     	 mov r3,r1
 1668 025e 1900     	 movs r1,r3
 1669 0260 C7F8B810 	 str r1,[r7,#184]
 1670 0264 DB17     	 asrs r3,r3,#31
 1671 0266 C7F8BC30 	 str r3,[r7,#188]
 1672 026a D7F8B8E0 	 ldr lr,[r7,#184]
1136:../Dave/Generated/CMSIS_DSP/TransformFunctions/arm_cfft_radix4_q31.c ****                           ((int32_t) (((q63_t) r1 * si2) >> 32))) << 1u;
 1673              	 .loc 1 1136 0 discriminator 1
 1674 026e D7F87C31 	 ldr r3,[r7,#380]
 1675 0272 1846     	 mov r0,r3
 1676 0274 4FEAE071 	 asr r1,r0,#31
 1677 0278 D7F85C31 	 ldr r3,[r7,#348]
 1678 027c 1A46     	 mov r2,r3
 1679 027e 4FEAE273 	 asr r3,r2,#31
 1680 0282 02FB01F5 	 mul r5,r2,r1
 1681 0286 00FB03F4 	 mul r4,r0,r3
 1682 028a 2C44     	 add r4,r4,r5
 1683 028c A0FB0223 	 umull r2,r3,r0,r2
 1684 0290 E118     	 adds r1,r4,r3
 1685 0292 0B46     	 mov r3,r1
 1686 0294 1900     	 movs r1,r3
 1687 0296 C7F8B010 	 str r1,[r7,#176]
 1688 029a DB17     	 asrs r3,r3,#31
 1689 029c C7F8B430 	 str r3,[r7,#180]
 1690 02a0 D7F8B030 	 ldr r3,[r7,#176]
1135:../Dave/Generated/CMSIS_DSP/TransformFunctions/arm_cfft_radix4_q31.c ****                           ((int32_t) (((q63_t) r1 * si2) >> 32))) << 1u;
 1691              	 .loc 1 1135 0 discriminator 1
 1692 02a4 7344     	 add r3,r3,lr
 1693              	 .loc 1 1136 0 discriminator 1
 1694 02a6 5B00     	 lsls r3,r3,#1
1135:../Dave/Generated/CMSIS_DSP/TransformFunctions/arm_cfft_radix4_q31.c ****                           ((int32_t) (((q63_t) r1 * si2) >> 32))) << 1u;
 1695              	 .loc 1 1135 0 discriminator 1
 1696 02a8 3360     	 str r3,[r6]
1137:../Dave/Generated/CMSIS_DSP/TransformFunctions/arm_cfft_radix4_q31.c **** 
1138:../Dave/Generated/CMSIS_DSP/TransformFunctions/arm_cfft_radix4_q31.c ****     /* (xa - xc) - (yb - yd) */
1139:../Dave/Generated/CMSIS_DSP/TransformFunctions/arm_cfft_radix4_q31.c ****     r1 = r2 - t1;
 1697              	 .loc 1 1139 0 discriminator 1
 1698 02aa D7F87821 	 ldr r2,[r7,#376]
 1699 02ae D7F87431 	 ldr r3,[r7,#372]
 1700 02b2 D31A     	 subs r3,r2,r3
 1701 02b4 C7F87C31 	 str r3,[r7,#380]
1140:../Dave/Generated/CMSIS_DSP/TransformFunctions/arm_cfft_radix4_q31.c ****     /* (xa - xc) + (yb - yd) */
1141:../Dave/Generated/CMSIS_DSP/TransformFunctions/arm_cfft_radix4_q31.c ****     r2 = r2 + t1;
 1702              	 .loc 1 1141 0 discriminator 1
 1703 02b8 D7F87821 	 ldr r2,[r7,#376]
 1704 02bc D7F87431 	 ldr r3,[r7,#372]
 1705 02c0 1344     	 add r3,r3,r2
 1706 02c2 C7F87831 	 str r3,[r7,#376]
1142:../Dave/Generated/CMSIS_DSP/TransformFunctions/arm_cfft_radix4_q31.c **** 
1143:../Dave/Generated/CMSIS_DSP/TransformFunctions/arm_cfft_radix4_q31.c ****     /* (ya - yc) + (xb - xd) */
1144:../Dave/Generated/CMSIS_DSP/TransformFunctions/arm_cfft_radix4_q31.c ****     s1 = s2 + t2;
 1707              	 .loc 1 1144 0 discriminator 1
 1708 02c6 D7F86C21 	 ldr r2,[r7,#364]
 1709 02ca D7F86831 	 ldr r3,[r7,#360]
 1710 02ce 1344     	 add r3,r3,r2
 1711 02d0 C7F87031 	 str r3,[r7,#368]
1145:../Dave/Generated/CMSIS_DSP/TransformFunctions/arm_cfft_radix4_q31.c ****     /* (ya - yc) - (xb - xd) */
1146:../Dave/Generated/CMSIS_DSP/TransformFunctions/arm_cfft_radix4_q31.c ****     s2 = s2 - t2;
 1712              	 .loc 1 1146 0 discriminator 1
 1713 02d4 D7F86C21 	 ldr r2,[r7,#364]
 1714 02d8 D7F86831 	 ldr r3,[r7,#360]
 1715 02dc D31A     	 subs r3,r2,r3
 1716 02de C7F86C31 	 str r3,[r7,#364]
1147:../Dave/Generated/CMSIS_DSP/TransformFunctions/arm_cfft_radix4_q31.c **** 
1148:../Dave/Generated/CMSIS_DSP/TransformFunctions/arm_cfft_radix4_q31.c ****     co1 = pCoef[ia1 * 2u];
 1717              	 .loc 1 1148 0 discriminator 1
 1718 02e2 D7F8A031 	 ldr r3,[r7,#416]
 1719 02e6 DA00     	 lsls r2,r3,#3
 1720 02e8 D7F8D430 	 ldr r3,[r7,#212]
 1721 02ec 1344     	 add r3,r3,r2
 1722 02ee 1B68     	 ldr r3,[r3]
 1723 02f0 C7F85831 	 str r3,[r7,#344]
1149:../Dave/Generated/CMSIS_DSP/TransformFunctions/arm_cfft_radix4_q31.c ****     si1 = pCoef[(ia1 * 2u) + 1u];
 1724              	 .loc 1 1149 0 discriminator 1
 1725 02f4 D7F8A031 	 ldr r3,[r7,#416]
 1726 02f8 DB00     	 lsls r3,r3,#3
 1727 02fa 1A1D     	 adds r2,r3,#4
 1728 02fc D7F8D430 	 ldr r3,[r7,#212]
 1729 0300 1344     	 add r3,r3,r2
 1730 0302 1B68     	 ldr r3,[r3]
 1731 0304 C7F85431 	 str r3,[r7,#340]
1150:../Dave/Generated/CMSIS_DSP/TransformFunctions/arm_cfft_radix4_q31.c **** 
1151:../Dave/Generated/CMSIS_DSP/TransformFunctions/arm_cfft_radix4_q31.c ****     /* xb' = (xa+yb-xc-yd)co1 - (ya-xb-yc+xd)(si1) */
1152:../Dave/Generated/CMSIS_DSP/TransformFunctions/arm_cfft_radix4_q31.c ****     *pSi2++ = (((int32_t) (((q63_t) r1 * co1) >> 32)) -
 1732              	 .loc 1 1152 0 discriminator 1
 1733 0308 D7F88861 	 ldr r6,[r7,#392]
 1734 030c 331D     	 adds r3,r6,#4
 1735 030e C7F88831 	 str r3,[r7,#392]
 1736 0312 D7F87C31 	 ldr r3,[r7,#380]
 1737 0316 1846     	 mov r0,r3
 1738 0318 4FEAE071 	 asr r1,r0,#31
 1739 031c D7F85831 	 ldr r3,[r7,#344]
 1740 0320 1A46     	 mov r2,r3
 1741 0322 4FEAE273 	 asr r3,r2,#31
 1742 0326 02FB01F5 	 mul r5,r2,r1
 1743 032a 00FB03F4 	 mul r4,r0,r3
 1744 032e 2C44     	 add r4,r4,r5
 1745 0330 A0FB0223 	 umull r2,r3,r0,r2
 1746 0334 E118     	 adds r1,r4,r3
 1747 0336 0B46     	 mov r3,r1
 1748 0338 1900     	 movs r1,r3
 1749 033a C7F8A810 	 str r1,[r7,#168]
 1750 033e DB17     	 asrs r3,r3,#31
 1751 0340 C7F8AC30 	 str r3,[r7,#172]
 1752 0344 D7F8A8E0 	 ldr lr,[r7,#168]
1153:../Dave/Generated/CMSIS_DSP/TransformFunctions/arm_cfft_radix4_q31.c ****                      ((int32_t) (((q63_t) s1 * si1) >> 32))) << 1u;
 1753              	 .loc 1 1153 0 discriminator 1
 1754 0348 D7F87031 	 ldr r3,[r7,#368]
 1755 034c 1846     	 mov r0,r3
 1756 034e 4FEAE071 	 asr r1,r0,#31
 1757 0352 D7F85431 	 ldr r3,[r7,#340]
 1758 0356 1A46     	 mov r2,r3
 1759 0358 4FEAE273 	 asr r3,r2,#31
 1760 035c 02FB01F5 	 mul r5,r2,r1
 1761 0360 00FB03F4 	 mul r4,r0,r3
 1762 0364 2C44     	 add r4,r4,r5
 1763 0366 A0FB0223 	 umull r2,r3,r0,r2
 1764 036a E118     	 adds r1,r4,r3
 1765 036c 0B46     	 mov r3,r1
 1766 036e 1900     	 movs r1,r3
 1767 0370 C7F8A010 	 str r1,[r7,#160]
 1768 0374 DB17     	 asrs r3,r3,#31
 1769 0376 C7F8A430 	 str r3,[r7,#164]
 1770 037a D7F8A030 	 ldr r3,[r7,#160]
1152:../Dave/Generated/CMSIS_DSP/TransformFunctions/arm_cfft_radix4_q31.c ****                      ((int32_t) (((q63_t) s1 * si1) >> 32))) << 1u;
 1771              	 .loc 1 1152 0 discriminator 1
 1772 037e C3EB0E03 	 rsb r3,r3,lr
 1773              	 .loc 1 1153 0 discriminator 1
 1774 0382 5B00     	 lsls r3,r3,#1
1152:../Dave/Generated/CMSIS_DSP/TransformFunctions/arm_cfft_radix4_q31.c ****                      ((int32_t) (((q63_t) s1 * si1) >> 32))) << 1u;
 1775              	 .loc 1 1152 0 discriminator 1
 1776 0384 3360     	 str r3,[r6]
1154:../Dave/Generated/CMSIS_DSP/TransformFunctions/arm_cfft_radix4_q31.c **** 
1155:../Dave/Generated/CMSIS_DSP/TransformFunctions/arm_cfft_radix4_q31.c ****     /* yb' = (ya-xb-yc+xd)co1 + (xa+yb-xc-yd)(si1) */
1156:../Dave/Generated/CMSIS_DSP/TransformFunctions/arm_cfft_radix4_q31.c ****     *pSi2++ = (((int32_t) (((q63_t) s1 * co1) >> 32)) +
 1777              	 .loc 1 1156 0 discriminator 1
 1778 0386 D7F88861 	 ldr r6,[r7,#392]
 1779 038a 331D     	 adds r3,r6,#4
 1780 038c C7F88831 	 str r3,[r7,#392]
 1781 0390 D7F87031 	 ldr r3,[r7,#368]
 1782 0394 1846     	 mov r0,r3
 1783 0396 4FEAE071 	 asr r1,r0,#31
 1784 039a D7F85831 	 ldr r3,[r7,#344]
 1785 039e 1A46     	 mov r2,r3
 1786 03a0 4FEAE273 	 asr r3,r2,#31
 1787 03a4 02FB01F5 	 mul r5,r2,r1
 1788 03a8 00FB03F4 	 mul r4,r0,r3
 1789 03ac 2C44     	 add r4,r4,r5
 1790 03ae A0FB0223 	 umull r2,r3,r0,r2
 1791 03b2 E118     	 adds r1,r4,r3
 1792 03b4 0B46     	 mov r3,r1
 1793 03b6 1900     	 movs r1,r3
 1794 03b8 C7F89810 	 str r1,[r7,#152]
 1795 03bc DB17     	 asrs r3,r3,#31
 1796 03be C7F89C30 	 str r3,[r7,#156]
 1797 03c2 D7F898E0 	 ldr lr,[r7,#152]
1157:../Dave/Generated/CMSIS_DSP/TransformFunctions/arm_cfft_radix4_q31.c ****                             ((int32_t) (((q63_t) r1 * si1) >> 32))) << 1u;
 1798              	 .loc 1 1157 0 discriminator 1
 1799 03c6 D7F87C31 	 ldr r3,[r7,#380]
 1800 03ca 1846     	 mov r0,r3
 1801 03cc 4FEAE071 	 asr r1,r0,#31
 1802 03d0 D7F85431 	 ldr r3,[r7,#340]
 1803 03d4 1A46     	 mov r2,r3
 1804 03d6 4FEAE273 	 asr r3,r2,#31
 1805 03da 02FB01F5 	 mul r5,r2,r1
 1806 03de 00FB03F4 	 mul r4,r0,r3
 1807 03e2 2C44     	 add r4,r4,r5
 1808 03e4 A0FB0223 	 umull r2,r3,r0,r2
 1809 03e8 E118     	 adds r1,r4,r3
 1810 03ea 0B46     	 mov r3,r1
 1811 03ec 1900     	 movs r1,r3
 1812 03ee C7F89010 	 str r1,[r7,#144]
 1813 03f2 DB17     	 asrs r3,r3,#31
 1814 03f4 C7F89430 	 str r3,[r7,#148]
 1815 03f8 D7F89030 	 ldr r3,[r7,#144]
1156:../Dave/Generated/CMSIS_DSP/TransformFunctions/arm_cfft_radix4_q31.c ****                             ((int32_t) (((q63_t) r1 * si1) >> 32))) << 1u;
 1816              	 .loc 1 1156 0 discriminator 1
 1817 03fc 7344     	 add r3,r3,lr
 1818              	 .loc 1 1157 0 discriminator 1
 1819 03fe 5B00     	 lsls r3,r3,#1
1156:../Dave/Generated/CMSIS_DSP/TransformFunctions/arm_cfft_radix4_q31.c ****                             ((int32_t) (((q63_t) r1 * si1) >> 32))) << 1u;
 1820              	 .loc 1 1156 0 discriminator 1
 1821 0400 3360     	 str r3,[r6]
1158:../Dave/Generated/CMSIS_DSP/TransformFunctions/arm_cfft_radix4_q31.c **** 
1159:../Dave/Generated/CMSIS_DSP/TransformFunctions/arm_cfft_radix4_q31.c ****     /*  index calculation for the coefficients */
1160:../Dave/Generated/CMSIS_DSP/TransformFunctions/arm_cfft_radix4_q31.c ****     ia3 = 3u * ia1;
 1822              	 .loc 1 1160 0 discriminator 1
 1823 0402 D7F8A021 	 ldr r2,[r7,#416]
 1824 0406 1346     	 mov r3,r2
 1825 0408 5B00     	 lsls r3,r3,#1
 1826 040a 1344     	 add r3,r3,r2
 1827 040c C7F85031 	 str r3,[r7,#336]
1161:../Dave/Generated/CMSIS_DSP/TransformFunctions/arm_cfft_radix4_q31.c ****     co3 = pCoef[ia3 * 2u];
 1828              	 .loc 1 1161 0 discriminator 1
 1829 0410 D7F85031 	 ldr r3,[r7,#336]
 1830 0414 DA00     	 lsls r2,r3,#3
 1831 0416 D7F8D430 	 ldr r3,[r7,#212]
 1832 041a 1344     	 add r3,r3,r2
 1833 041c 1B68     	 ldr r3,[r3]
 1834 041e C7F84C31 	 str r3,[r7,#332]
1162:../Dave/Generated/CMSIS_DSP/TransformFunctions/arm_cfft_radix4_q31.c ****     si3 = pCoef[(ia3 * 2u) + 1u];
 1835              	 .loc 1 1162 0 discriminator 1
 1836 0422 D7F85031 	 ldr r3,[r7,#336]
 1837 0426 DB00     	 lsls r3,r3,#3
 1838 0428 1A1D     	 adds r2,r3,#4
 1839 042a D7F8D430 	 ldr r3,[r7,#212]
 1840 042e 1344     	 add r3,r3,r2
 1841 0430 1B68     	 ldr r3,[r3]
 1842 0432 C7F84831 	 str r3,[r7,#328]
1163:../Dave/Generated/CMSIS_DSP/TransformFunctions/arm_cfft_radix4_q31.c **** 
1164:../Dave/Generated/CMSIS_DSP/TransformFunctions/arm_cfft_radix4_q31.c ****     /* xd' = (xa-yb-xc+yd)co3 - (ya+xb-yc-xd)(si3) */
1165:../Dave/Generated/CMSIS_DSP/TransformFunctions/arm_cfft_radix4_q31.c ****     *pSi3++ = (((int32_t) (((q63_t) r2 * co3) >> 32)) -
 1843              	 .loc 1 1165 0 discriminator 1
 1844 0436 D7F88461 	 ldr r6,[r7,#388]
 1845 043a 331D     	 adds r3,r6,#4
 1846 043c C7F88431 	 str r3,[r7,#388]
 1847 0440 D7F87831 	 ldr r3,[r7,#376]
 1848 0444 1846     	 mov r0,r3
 1849 0446 4FEAE071 	 asr r1,r0,#31
 1850 044a D7F84C31 	 ldr r3,[r7,#332]
 1851 044e 1A46     	 mov r2,r3
 1852 0450 4FEAE273 	 asr r3,r2,#31
 1853 0454 02FB01F5 	 mul r5,r2,r1
 1854 0458 00FB03F4 	 mul r4,r0,r3
 1855 045c 2C44     	 add r4,r4,r5
 1856 045e A0FB0223 	 umull r2,r3,r0,r2
 1857 0462 E118     	 adds r1,r4,r3
 1858 0464 0B46     	 mov r3,r1
 1859 0466 1900     	 movs r1,r3
 1860 0468 C7F88810 	 str r1,[r7,#136]
 1861 046c DB17     	 asrs r3,r3,#31
 1862 046e C7F88C30 	 str r3,[r7,#140]
 1863 0472 D7F888E0 	 ldr lr,[r7,#136]
1166:../Dave/Generated/CMSIS_DSP/TransformFunctions/arm_cfft_radix4_q31.c ****                      ((int32_t) (((q63_t) s2 * si3) >> 32))) << 1u;
 1864              	 .loc 1 1166 0 discriminator 1
 1865 0476 D7F86C31 	 ldr r3,[r7,#364]
 1866 047a 1846     	 mov r0,r3
 1867 047c 4FEAE071 	 asr r1,r0,#31
 1868 0480 D7F84831 	 ldr r3,[r7,#328]
 1869 0484 1A46     	 mov r2,r3
 1870 0486 4FEAE273 	 asr r3,r2,#31
 1871 048a 02FB01F5 	 mul r5,r2,r1
 1872 048e 00FB03F4 	 mul r4,r0,r3
 1873 0492 2C44     	 add r4,r4,r5
 1874 0494 A0FB0223 	 umull r2,r3,r0,r2
 1875 0498 E118     	 adds r1,r4,r3
 1876 049a 0B46     	 mov r3,r1
 1877 049c 1900     	 movs r1,r3
 1878 049e C7F88010 	 str r1,[r7,#128]
 1879 04a2 DB17     	 asrs r3,r3,#31
 1880 04a4 C7F88430 	 str r3,[r7,#132]
 1881 04a8 D7F88030 	 ldr r3,[r7,#128]
1165:../Dave/Generated/CMSIS_DSP/TransformFunctions/arm_cfft_radix4_q31.c ****                      ((int32_t) (((q63_t) s2 * si3) >> 32))) << 1u;
 1882              	 .loc 1 1165 0 discriminator 1
 1883 04ac C3EB0E03 	 rsb r3,r3,lr
 1884              	 .loc 1 1166 0 discriminator 1
 1885 04b0 5B00     	 lsls r3,r3,#1
1165:../Dave/Generated/CMSIS_DSP/TransformFunctions/arm_cfft_radix4_q31.c ****                      ((int32_t) (((q63_t) s2 * si3) >> 32))) << 1u;
 1886              	 .loc 1 1165 0 discriminator 1
 1887 04b2 3360     	 str r3,[r6]
1167:../Dave/Generated/CMSIS_DSP/TransformFunctions/arm_cfft_radix4_q31.c **** 
1168:../Dave/Generated/CMSIS_DSP/TransformFunctions/arm_cfft_radix4_q31.c ****     /* yd' = (ya+xb-yc-xd)co3 + (xa-yb-xc+yd)(si3) */
1169:../Dave/Generated/CMSIS_DSP/TransformFunctions/arm_cfft_radix4_q31.c ****     *pSi3++ = (((int32_t) (((q63_t) s2 * co3) >> 32)) +
 1888              	 .loc 1 1169 0 discriminator 1
 1889 04b4 D7F88461 	 ldr r6,[r7,#388]
 1890 04b8 331D     	 adds r3,r6,#4
 1891 04ba C7F88431 	 str r3,[r7,#388]
 1892 04be D7F86C31 	 ldr r3,[r7,#364]
 1893 04c2 1846     	 mov r0,r3
 1894 04c4 4FEAE071 	 asr r1,r0,#31
 1895 04c8 D7F84C31 	 ldr r3,[r7,#332]
 1896 04cc 1A46     	 mov r2,r3
 1897 04ce 4FEAE273 	 asr r3,r2,#31
 1898 04d2 02FB01F5 	 mul r5,r2,r1
 1899 04d6 00FB03F4 	 mul r4,r0,r3
 1900 04da 2C44     	 add r4,r4,r5
 1901 04dc A0FB0223 	 umull r2,r3,r0,r2
 1902 04e0 E118     	 adds r1,r4,r3
 1903 04e2 0B46     	 mov r3,r1
 1904 04e4 9A46     	 mov r10,r3
 1905 04e6 4FEAE37B 	 asr fp,r3,#31
 1906 04ea D646     	 mov lr,r10
1170:../Dave/Generated/CMSIS_DSP/TransformFunctions/arm_cfft_radix4_q31.c ****                             ((int32_t) (((q63_t) r2 * si3) >> 32))) << 1u;
 1907              	 .loc 1 1170 0 discriminator 1
 1908 04ec D7F87831 	 ldr r3,[r7,#376]
 1909 04f0 1846     	 mov r0,r3
 1910 04f2 4FEAE071 	 asr r1,r0,#31
 1911 04f6 D7F84831 	 ldr r3,[r7,#328]
 1912 04fa 1A46     	 mov r2,r3
 1913 04fc 4FEAE273 	 asr r3,r2,#31
 1914 0500 02FB01F5 	 mul r5,r2,r1
 1915 0504 00FB03F4 	 mul r4,r0,r3
 1916 0508 2C44     	 add r4,r4,r5
 1917 050a A0FB0223 	 umull r2,r3,r0,r2
 1918 050e E118     	 adds r1,r4,r3
 1919 0510 0B46     	 mov r3,r1
 1920 0512 9846     	 mov r8,r3
 1921 0514 4FEAE379 	 asr r9,r3,#31
 1922 0518 4346     	 mov r3,r8
1169:../Dave/Generated/CMSIS_DSP/TransformFunctions/arm_cfft_radix4_q31.c ****                             ((int32_t) (((q63_t) r2 * si3) >> 32))) << 1u;
 1923              	 .loc 1 1169 0 discriminator 1
 1924 051a 7344     	 add r3,r3,lr
 1925              	 .loc 1 1170 0 discriminator 1
 1926 051c 5B00     	 lsls r3,r3,#1
1169:../Dave/Generated/CMSIS_DSP/TransformFunctions/arm_cfft_radix4_q31.c ****                             ((int32_t) (((q63_t) r2 * si3) >> 32))) << 1u;
 1927              	 .loc 1 1169 0 discriminator 1
 1928 051e 3360     	 str r3,[r6]
1171:../Dave/Generated/CMSIS_DSP/TransformFunctions/arm_cfft_radix4_q31.c **** 
1172:../Dave/Generated/CMSIS_DSP/TransformFunctions/arm_cfft_radix4_q31.c ****     /*  Twiddle coefficients index modifier */
1173:../Dave/Generated/CMSIS_DSP/TransformFunctions/arm_cfft_radix4_q31.c ****     ia1 = ia1 + twidCoefModifier;
 1929              	 .loc 1 1173 0 discriminator 1
 1930 0520 D7F8A021 	 ldr r2,[r7,#416]
 1931 0524 D7F8D030 	 ldr r3,[r7,#208]
 1932 0528 1344     	 add r3,r3,r2
 1933 052a C7F8A031 	 str r3,[r7,#416]
1174:../Dave/Generated/CMSIS_DSP/TransformFunctions/arm_cfft_radix4_q31.c **** 
1175:../Dave/Generated/CMSIS_DSP/TransformFunctions/arm_cfft_radix4_q31.c ****   } while(--j);
 1934              	 .loc 1 1175 0 discriminator 1
 1935 052e D7F89831 	 ldr r3,[r7,#408]
 1936 0532 013B     	 subs r3,r3,#1
 1937 0534 C7F89831 	 str r3,[r7,#408]
 1938 0538 D7F89831 	 ldr r3,[r7,#408]
 1939 053c 002B     	 cmp r3,#0
 1940 053e 7FF49BAD 	 bne .L15
1176:../Dave/Generated/CMSIS_DSP/TransformFunctions/arm_cfft_radix4_q31.c **** 
1177:../Dave/Generated/CMSIS_DSP/TransformFunctions/arm_cfft_radix4_q31.c ****   /* data is in 5.27(q27) format */
1178:../Dave/Generated/CMSIS_DSP/TransformFunctions/arm_cfft_radix4_q31.c ****   /* each stage provides two down scaling of the input */
1179:../Dave/Generated/CMSIS_DSP/TransformFunctions/arm_cfft_radix4_q31.c **** 
1180:../Dave/Generated/CMSIS_DSP/TransformFunctions/arm_cfft_radix4_q31.c **** 
1181:../Dave/Generated/CMSIS_DSP/TransformFunctions/arm_cfft_radix4_q31.c ****   /* Start of Middle stages process */
1182:../Dave/Generated/CMSIS_DSP/TransformFunctions/arm_cfft_radix4_q31.c **** 
1183:../Dave/Generated/CMSIS_DSP/TransformFunctions/arm_cfft_radix4_q31.c ****   twidCoefModifier <<= 2u;
 1941              	 .loc 1 1183 0
 1942 0542 D7F8D030 	 ldr r3,[r7,#208]
 1943 0546 9B00     	 lsls r3,r3,#2
 1944 0548 C7F8D030 	 str r3,[r7,#208]
1184:../Dave/Generated/CMSIS_DSP/TransformFunctions/arm_cfft_radix4_q31.c **** 
1185:../Dave/Generated/CMSIS_DSP/TransformFunctions/arm_cfft_radix4_q31.c ****   /*  Calculation of second stage to excluding last stage */
1186:../Dave/Generated/CMSIS_DSP/TransformFunctions/arm_cfft_radix4_q31.c ****   for (k = fftLen / 4u; k > 4u; k >>= 2u)
 1945              	 .loc 1 1186 0
 1946 054c D7F8D830 	 ldr r3,[r7,#216]
 1947 0550 9B08     	 lsrs r3,r3,#2
 1948 0552 C7F89431 	 str r3,[r7,#404]
 1949 0556 9BE2     	 b .L16
 1950              	.L21:
1187:../Dave/Generated/CMSIS_DSP/TransformFunctions/arm_cfft_radix4_q31.c ****   {
1188:../Dave/Generated/CMSIS_DSP/TransformFunctions/arm_cfft_radix4_q31.c ****     /*  Initializations for the first stage */
1189:../Dave/Generated/CMSIS_DSP/TransformFunctions/arm_cfft_radix4_q31.c ****     n1 = n2;
 1951              	 .loc 1 1189 0
 1952 0558 D7F8A431 	 ldr r3,[r7,#420]
 1953 055c C7F88031 	 str r3,[r7,#384]
1190:../Dave/Generated/CMSIS_DSP/TransformFunctions/arm_cfft_radix4_q31.c ****     n2 >>= 2u;
 1954              	 .loc 1 1190 0
 1955 0560 D7F8A431 	 ldr r3,[r7,#420]
 1956 0564 9B08     	 lsrs r3,r3,#2
 1957 0566 C7F8A431 	 str r3,[r7,#420]
1191:../Dave/Generated/CMSIS_DSP/TransformFunctions/arm_cfft_radix4_q31.c ****     ia1 = 0u;
 1958              	 .loc 1 1191 0
 1959 056a 0023     	 movs r3,#0
 1960 056c C7F8A031 	 str r3,[r7,#416]
1192:../Dave/Generated/CMSIS_DSP/TransformFunctions/arm_cfft_radix4_q31.c **** 
1193:../Dave/Generated/CMSIS_DSP/TransformFunctions/arm_cfft_radix4_q31.c ****     for (j = 0; j <= (n2 - 1u); j++)
 1961              	 .loc 1 1193 0
 1962 0570 0023     	 movs r3,#0
 1963 0572 C7F89831 	 str r3,[r7,#408]
 1964 0576 79E2     	 b .L17
 1965              	.L20:
1194:../Dave/Generated/CMSIS_DSP/TransformFunctions/arm_cfft_radix4_q31.c ****     {
1195:../Dave/Generated/CMSIS_DSP/TransformFunctions/arm_cfft_radix4_q31.c ****       /*  index calculation for the coefficients */
1196:../Dave/Generated/CMSIS_DSP/TransformFunctions/arm_cfft_radix4_q31.c ****       ia2 = ia1 + ia1;
 1966              	 .loc 1 1196 0
 1967 0578 D7F8A021 	 ldr r2,[r7,#416]
 1968 057c D7F8A031 	 ldr r3,[r7,#416]
 1969 0580 1344     	 add r3,r3,r2
 1970 0582 C7F86431 	 str r3,[r7,#356]
1197:../Dave/Generated/CMSIS_DSP/TransformFunctions/arm_cfft_radix4_q31.c ****       ia3 = ia2 + ia1;
 1971              	 .loc 1 1197 0
 1972 0586 D7F86421 	 ldr r2,[r7,#356]
 1973 058a D7F8A031 	 ldr r3,[r7,#416]
 1974 058e 1344     	 add r3,r3,r2
 1975 0590 C7F85031 	 str r3,[r7,#336]
1198:../Dave/Generated/CMSIS_DSP/TransformFunctions/arm_cfft_radix4_q31.c ****       co1 = pCoef[ia1 * 2u];
 1976              	 .loc 1 1198 0
 1977 0594 D7F8A031 	 ldr r3,[r7,#416]
 1978 0598 DA00     	 lsls r2,r3,#3
 1979 059a D7F8D430 	 ldr r3,[r7,#212]
 1980 059e 1344     	 add r3,r3,r2
 1981 05a0 1B68     	 ldr r3,[r3]
 1982 05a2 C7F85831 	 str r3,[r7,#344]
1199:../Dave/Generated/CMSIS_DSP/TransformFunctions/arm_cfft_radix4_q31.c ****       si1 = pCoef[(ia1 * 2u) + 1u];
 1983              	 .loc 1 1199 0
 1984 05a6 D7F8A031 	 ldr r3,[r7,#416]
 1985 05aa DB00     	 lsls r3,r3,#3
 1986 05ac 1A1D     	 adds r2,r3,#4
 1987 05ae D7F8D430 	 ldr r3,[r7,#212]
 1988 05b2 1344     	 add r3,r3,r2
 1989 05b4 1B68     	 ldr r3,[r3]
 1990 05b6 C7F85431 	 str r3,[r7,#340]
1200:../Dave/Generated/CMSIS_DSP/TransformFunctions/arm_cfft_radix4_q31.c ****       co2 = pCoef[ia2 * 2u];
 1991              	 .loc 1 1200 0
 1992 05ba D7F86431 	 ldr r3,[r7,#356]
 1993 05be DA00     	 lsls r2,r3,#3
 1994 05c0 D7F8D430 	 ldr r3,[r7,#212]
 1995 05c4 1344     	 add r3,r3,r2
 1996 05c6 1B68     	 ldr r3,[r3]
 1997 05c8 C7F86031 	 str r3,[r7,#352]
1201:../Dave/Generated/CMSIS_DSP/TransformFunctions/arm_cfft_radix4_q31.c ****       si2 = pCoef[(ia2 * 2u) + 1u];
 1998              	 .loc 1 1201 0
 1999 05cc D7F86431 	 ldr r3,[r7,#356]
 2000 05d0 DB00     	 lsls r3,r3,#3
 2001 05d2 1A1D     	 adds r2,r3,#4
 2002 05d4 D7F8D430 	 ldr r3,[r7,#212]
 2003 05d8 1344     	 add r3,r3,r2
 2004 05da 1B68     	 ldr r3,[r3]
 2005 05dc C7F85C31 	 str r3,[r7,#348]
1202:../Dave/Generated/CMSIS_DSP/TransformFunctions/arm_cfft_radix4_q31.c ****       co3 = pCoef[ia3 * 2u];
 2006              	 .loc 1 1202 0
 2007 05e0 D7F85031 	 ldr r3,[r7,#336]
 2008 05e4 DA00     	 lsls r2,r3,#3
 2009 05e6 D7F8D430 	 ldr r3,[r7,#212]
 2010 05ea 1344     	 add r3,r3,r2
 2011 05ec 1B68     	 ldr r3,[r3]
 2012 05ee C7F84C31 	 str r3,[r7,#332]
1203:../Dave/Generated/CMSIS_DSP/TransformFunctions/arm_cfft_radix4_q31.c ****       si3 = pCoef[(ia3 * 2u) + 1u];
 2013              	 .loc 1 1203 0
 2014 05f2 D7F85031 	 ldr r3,[r7,#336]
 2015 05f6 DB00     	 lsls r3,r3,#3
 2016 05f8 1A1D     	 adds r2,r3,#4
 2017 05fa D7F8D430 	 ldr r3,[r7,#212]
 2018 05fe 1344     	 add r3,r3,r2
 2019 0600 1B68     	 ldr r3,[r3]
 2020 0602 C7F84831 	 str r3,[r7,#328]
1204:../Dave/Generated/CMSIS_DSP/TransformFunctions/arm_cfft_radix4_q31.c ****       /*  Twiddle coefficients index modifier */
1205:../Dave/Generated/CMSIS_DSP/TransformFunctions/arm_cfft_radix4_q31.c ****       ia1 = ia1 + twidCoefModifier;
 2021              	 .loc 1 1205 0
 2022 0606 D7F8A021 	 ldr r2,[r7,#416]
 2023 060a D7F8D030 	 ldr r3,[r7,#208]
 2024 060e 1344     	 add r3,r3,r2
 2025 0610 C7F8A031 	 str r3,[r7,#416]
1206:../Dave/Generated/CMSIS_DSP/TransformFunctions/arm_cfft_radix4_q31.c ****       
1207:../Dave/Generated/CMSIS_DSP/TransformFunctions/arm_cfft_radix4_q31.c ****       pSi0 = pSrc + 2 * j;
 2026              	 .loc 1 1207 0
 2027 0614 D7F89831 	 ldr r3,[r7,#408]
 2028 0618 DA00     	 lsls r2,r3,#3
 2029 061a D7F8DC30 	 ldr r3,[r7,#220]
 2030 061e 1344     	 add r3,r3,r2
 2031 0620 C7F89031 	 str r3,[r7,#400]
1208:../Dave/Generated/CMSIS_DSP/TransformFunctions/arm_cfft_radix4_q31.c ****       pSi1 = pSi0 + 2 * n2;
 2032              	 .loc 1 1208 0
 2033 0624 D7F8A431 	 ldr r3,[r7,#420]
 2034 0628 DA00     	 lsls r2,r3,#3
 2035 062a D7F89031 	 ldr r3,[r7,#400]
 2036 062e 1344     	 add r3,r3,r2
 2037 0630 C7F88C31 	 str r3,[r7,#396]
1209:../Dave/Generated/CMSIS_DSP/TransformFunctions/arm_cfft_radix4_q31.c ****       pSi2 = pSi1 + 2 * n2;
 2038              	 .loc 1 1209 0
 2039 0634 D7F8A431 	 ldr r3,[r7,#420]
 2040 0638 DA00     	 lsls r2,r3,#3
 2041 063a D7F88C31 	 ldr r3,[r7,#396]
 2042 063e 1344     	 add r3,r3,r2
 2043 0640 C7F88831 	 str r3,[r7,#392]
1210:../Dave/Generated/CMSIS_DSP/TransformFunctions/arm_cfft_radix4_q31.c ****       pSi3 = pSi2 + 2 * n2;
 2044              	 .loc 1 1210 0
 2045 0644 D7F8A431 	 ldr r3,[r7,#420]
 2046 0648 DA00     	 lsls r2,r3,#3
 2047 064a D7F88831 	 ldr r3,[r7,#392]
 2048 064e 1344     	 add r3,r3,r2
 2049 0650 C7F88431 	 str r3,[r7,#388]
1211:../Dave/Generated/CMSIS_DSP/TransformFunctions/arm_cfft_radix4_q31.c **** 
1212:../Dave/Generated/CMSIS_DSP/TransformFunctions/arm_cfft_radix4_q31.c ****       for (i0 = j; i0 < fftLen; i0 += n1)
 2050              	 .loc 1 1212 0
 2051 0654 D7F89831 	 ldr r3,[r7,#408]
 2052 0658 C7F89C31 	 str r3,[r7,#412]
 2053 065c FAE1     	 b .L18
 2054              	.L19:
1213:../Dave/Generated/CMSIS_DSP/TransformFunctions/arm_cfft_radix4_q31.c ****       {
1214:../Dave/Generated/CMSIS_DSP/TransformFunctions/arm_cfft_radix4_q31.c ****         /*  Butterfly implementation */
1215:../Dave/Generated/CMSIS_DSP/TransformFunctions/arm_cfft_radix4_q31.c ****         /* xa + xc */
1216:../Dave/Generated/CMSIS_DSP/TransformFunctions/arm_cfft_radix4_q31.c ****         r1 = pSi0[0] + pSi2[0];
 2055              	 .loc 1 1216 0 discriminator 3
 2056 065e D7F89031 	 ldr r3,[r7,#400]
 2057 0662 1A68     	 ldr r2,[r3]
 2058 0664 D7F88831 	 ldr r3,[r7,#392]
 2059 0668 1B68     	 ldr r3,[r3]
 2060 066a 1344     	 add r3,r3,r2
 2061 066c C7F87C31 	 str r3,[r7,#380]
1217:../Dave/Generated/CMSIS_DSP/TransformFunctions/arm_cfft_radix4_q31.c **** 
1218:../Dave/Generated/CMSIS_DSP/TransformFunctions/arm_cfft_radix4_q31.c ****         /* xa - xc */
1219:../Dave/Generated/CMSIS_DSP/TransformFunctions/arm_cfft_radix4_q31.c ****         r2 = pSi0[0] - pSi2[0];
 2062              	 .loc 1 1219 0 discriminator 3
 2063 0670 D7F89031 	 ldr r3,[r7,#400]
 2064 0674 1A68     	 ldr r2,[r3]
 2065 0676 D7F88831 	 ldr r3,[r7,#392]
 2066 067a 1B68     	 ldr r3,[r3]
 2067 067c D31A     	 subs r3,r2,r3
 2068 067e C7F87831 	 str r3,[r7,#376]
1220:../Dave/Generated/CMSIS_DSP/TransformFunctions/arm_cfft_radix4_q31.c **** 
1221:../Dave/Generated/CMSIS_DSP/TransformFunctions/arm_cfft_radix4_q31.c **** 
1222:../Dave/Generated/CMSIS_DSP/TransformFunctions/arm_cfft_radix4_q31.c ****         /* ya + yc */
1223:../Dave/Generated/CMSIS_DSP/TransformFunctions/arm_cfft_radix4_q31.c ****         s1 = pSi0[1] + pSi2[1];
 2069              	 .loc 1 1223 0 discriminator 3
 2070 0682 D7F89031 	 ldr r3,[r7,#400]
 2071 0686 0433     	 adds r3,r3,#4
 2072 0688 1A68     	 ldr r2,[r3]
 2073 068a D7F88831 	 ldr r3,[r7,#392]
 2074 068e 0433     	 adds r3,r3,#4
 2075 0690 1B68     	 ldr r3,[r3]
 2076 0692 1344     	 add r3,r3,r2
 2077 0694 C7F87031 	 str r3,[r7,#368]
1224:../Dave/Generated/CMSIS_DSP/TransformFunctions/arm_cfft_radix4_q31.c **** 
1225:../Dave/Generated/CMSIS_DSP/TransformFunctions/arm_cfft_radix4_q31.c ****         /* ya - yc */
1226:../Dave/Generated/CMSIS_DSP/TransformFunctions/arm_cfft_radix4_q31.c ****         s2 = pSi0[1] - pSi2[1];
 2078              	 .loc 1 1226 0 discriminator 3
 2079 0698 D7F89031 	 ldr r3,[r7,#400]
 2080 069c 0433     	 adds r3,r3,#4
 2081 069e 1A68     	 ldr r2,[r3]
 2082 06a0 D7F88831 	 ldr r3,[r7,#392]
 2083 06a4 0433     	 adds r3,r3,#4
 2084 06a6 1B68     	 ldr r3,[r3]
 2085 06a8 D31A     	 subs r3,r2,r3
 2086 06aa C7F86C31 	 str r3,[r7,#364]
1227:../Dave/Generated/CMSIS_DSP/TransformFunctions/arm_cfft_radix4_q31.c **** 
1228:../Dave/Generated/CMSIS_DSP/TransformFunctions/arm_cfft_radix4_q31.c **** 
1229:../Dave/Generated/CMSIS_DSP/TransformFunctions/arm_cfft_radix4_q31.c ****         /* xb + xd */
1230:../Dave/Generated/CMSIS_DSP/TransformFunctions/arm_cfft_radix4_q31.c ****         t1 = pSi1[0] + pSi3[0];
 2087              	 .loc 1 1230 0 discriminator 3
 2088 06ae D7F88C31 	 ldr r3,[r7,#396]
 2089 06b2 1A68     	 ldr r2,[r3]
 2090 06b4 D7F88431 	 ldr r3,[r7,#388]
 2091 06b8 1B68     	 ldr r3,[r3]
 2092 06ba 1344     	 add r3,r3,r2
 2093 06bc C7F87431 	 str r3,[r7,#372]
1231:../Dave/Generated/CMSIS_DSP/TransformFunctions/arm_cfft_radix4_q31.c **** 
1232:../Dave/Generated/CMSIS_DSP/TransformFunctions/arm_cfft_radix4_q31.c **** 
1233:../Dave/Generated/CMSIS_DSP/TransformFunctions/arm_cfft_radix4_q31.c ****         /* xa' = xa + xb + xc + xd */
1234:../Dave/Generated/CMSIS_DSP/TransformFunctions/arm_cfft_radix4_q31.c ****         pSi0[0] = (r1 + t1) >> 2u;
 2094              	 .loc 1 1234 0 discriminator 3
 2095 06c0 D7F87C21 	 ldr r2,[r7,#380]
 2096 06c4 D7F87431 	 ldr r3,[r7,#372]
 2097 06c8 1344     	 add r3,r3,r2
 2098 06ca 9A10     	 asrs r2,r3,#2
 2099 06cc D7F89031 	 ldr r3,[r7,#400]
 2100 06d0 1A60     	 str r2,[r3]
1235:../Dave/Generated/CMSIS_DSP/TransformFunctions/arm_cfft_radix4_q31.c ****         /* xa + xc -(xb + xd) */
1236:../Dave/Generated/CMSIS_DSP/TransformFunctions/arm_cfft_radix4_q31.c ****         r1 = r1 - t1;
 2101              	 .loc 1 1236 0 discriminator 3
 2102 06d2 D7F87C21 	 ldr r2,[r7,#380]
 2103 06d6 D7F87431 	 ldr r3,[r7,#372]
 2104 06da D31A     	 subs r3,r2,r3
 2105 06dc C7F87C31 	 str r3,[r7,#380]
1237:../Dave/Generated/CMSIS_DSP/TransformFunctions/arm_cfft_radix4_q31.c ****         /* yb + yd */
1238:../Dave/Generated/CMSIS_DSP/TransformFunctions/arm_cfft_radix4_q31.c ****         t2 = pSi1[1] + pSi3[1];
 2106              	 .loc 1 1238 0 discriminator 3
 2107 06e0 D7F88C31 	 ldr r3,[r7,#396]
 2108 06e4 0433     	 adds r3,r3,#4
 2109 06e6 1A68     	 ldr r2,[r3]
 2110 06e8 D7F88431 	 ldr r3,[r7,#388]
 2111 06ec 0433     	 adds r3,r3,#4
 2112 06ee 1B68     	 ldr r3,[r3]
 2113 06f0 1344     	 add r3,r3,r2
 2114 06f2 C7F86831 	 str r3,[r7,#360]
1239:../Dave/Generated/CMSIS_DSP/TransformFunctions/arm_cfft_radix4_q31.c **** 
1240:../Dave/Generated/CMSIS_DSP/TransformFunctions/arm_cfft_radix4_q31.c ****         /* ya' = ya + yb + yc + yd */
1241:../Dave/Generated/CMSIS_DSP/TransformFunctions/arm_cfft_radix4_q31.c ****         pSi0[1] = (s1 + t2) >> 2u;
 2115              	 .loc 1 1241 0 discriminator 3
 2116 06f6 D7F89031 	 ldr r3,[r7,#400]
 2117 06fa 191D     	 adds r1,r3,#4
 2118 06fc D7F87021 	 ldr r2,[r7,#368]
 2119 0700 D7F86831 	 ldr r3,[r7,#360]
 2120 0704 1344     	 add r3,r3,r2
 2121 0706 9B10     	 asrs r3,r3,#2
 2122 0708 0B60     	 str r3,[r1]
1242:../Dave/Generated/CMSIS_DSP/TransformFunctions/arm_cfft_radix4_q31.c ****         pSi0 += 2 * n1;
 2123              	 .loc 1 1242 0 discriminator 3
 2124 070a D7F88031 	 ldr r3,[r7,#384]
 2125 070e DA00     	 lsls r2,r3,#3
 2126 0710 D7F89031 	 ldr r3,[r7,#400]
 2127 0714 1344     	 add r3,r3,r2
 2128 0716 C7F89031 	 str r3,[r7,#400]
1243:../Dave/Generated/CMSIS_DSP/TransformFunctions/arm_cfft_radix4_q31.c **** 
1244:../Dave/Generated/CMSIS_DSP/TransformFunctions/arm_cfft_radix4_q31.c ****         /* (ya + yc) - (yb + yd) */
1245:../Dave/Generated/CMSIS_DSP/TransformFunctions/arm_cfft_radix4_q31.c ****         s1 = s1 - t2;
 2129              	 .loc 1 1245 0 discriminator 3
 2130 071a D7F87021 	 ldr r2,[r7,#368]
 2131 071e D7F86831 	 ldr r3,[r7,#360]
 2132 0722 D31A     	 subs r3,r2,r3
 2133 0724 C7F87031 	 str r3,[r7,#368]
1246:../Dave/Generated/CMSIS_DSP/TransformFunctions/arm_cfft_radix4_q31.c **** 
1247:../Dave/Generated/CMSIS_DSP/TransformFunctions/arm_cfft_radix4_q31.c ****         /* (yb - yd) */
1248:../Dave/Generated/CMSIS_DSP/TransformFunctions/arm_cfft_radix4_q31.c ****         t1 = pSi1[1] - pSi3[1];
 2134              	 .loc 1 1248 0 discriminator 3
 2135 0728 D7F88C31 	 ldr r3,[r7,#396]
 2136 072c 0433     	 adds r3,r3,#4
 2137 072e 1A68     	 ldr r2,[r3]
 2138 0730 D7F88431 	 ldr r3,[r7,#388]
 2139 0734 0433     	 adds r3,r3,#4
 2140 0736 1B68     	 ldr r3,[r3]
 2141 0738 D31A     	 subs r3,r2,r3
 2142 073a C7F87431 	 str r3,[r7,#372]
1249:../Dave/Generated/CMSIS_DSP/TransformFunctions/arm_cfft_radix4_q31.c **** 
1250:../Dave/Generated/CMSIS_DSP/TransformFunctions/arm_cfft_radix4_q31.c ****         /* (xb - xd) */
1251:../Dave/Generated/CMSIS_DSP/TransformFunctions/arm_cfft_radix4_q31.c ****         t2 = pSi1[0] - pSi3[0];
 2143              	 .loc 1 1251 0 discriminator 3
 2144 073e D7F88C31 	 ldr r3,[r7,#396]
 2145 0742 1A68     	 ldr r2,[r3]
 2146 0744 D7F88431 	 ldr r3,[r7,#388]
 2147 0748 1B68     	 ldr r3,[r3]
 2148 074a D31A     	 subs r3,r2,r3
 2149 074c C7F86831 	 str r3,[r7,#360]
1252:../Dave/Generated/CMSIS_DSP/TransformFunctions/arm_cfft_radix4_q31.c **** 
1253:../Dave/Generated/CMSIS_DSP/TransformFunctions/arm_cfft_radix4_q31.c **** 
1254:../Dave/Generated/CMSIS_DSP/TransformFunctions/arm_cfft_radix4_q31.c ****         /* xc' = (xa-xb+xc-xd)co2 - (ya-yb+yc-yd)(si2) */
1255:../Dave/Generated/CMSIS_DSP/TransformFunctions/arm_cfft_radix4_q31.c ****         pSi1[0] = (((int32_t) (((q63_t) r1 * co2) >> 32u)) -
 2150              	 .loc 1 1255 0 discriminator 3
 2151 0750 D7F87C31 	 ldr r3,[r7,#380]
 2152 0754 1846     	 mov r0,r3
 2153 0756 4FEAE071 	 asr r1,r0,#31
 2154 075a D7F86031 	 ldr r3,[r7,#352]
 2155 075e 1A46     	 mov r2,r3
 2156 0760 4FEAE273 	 asr r3,r2,#31
 2157 0764 02FB01F5 	 mul r5,r2,r1
 2158 0768 00FB03F4 	 mul r4,r0,r3
 2159 076c 2C44     	 add r4,r4,r5
 2160 076e A0FB0223 	 umull r2,r3,r0,r2
 2161 0772 E118     	 adds r1,r4,r3
 2162 0774 0B46     	 mov r3,r1
 2163 0776 1900     	 movs r1,r3
 2164 0778 B967     	 str r1,[r7,#120]
 2165 077a DB17     	 asrs r3,r3,#31
 2166 077c FB67     	 str r3,[r7,#124]
 2167 077e BE6F     	 ldr r6,[r7,#120]
1256:../Dave/Generated/CMSIS_DSP/TransformFunctions/arm_cfft_radix4_q31.c ****                          ((int32_t) (((q63_t) s1 * si2) >> 32u))) >> 1u;
 2168              	 .loc 1 1256 0 discriminator 3
 2169 0780 D7F87031 	 ldr r3,[r7,#368]
 2170 0784 1846     	 mov r0,r3
 2171 0786 4FEAE071 	 asr r1,r0,#31
 2172 078a D7F85C31 	 ldr r3,[r7,#348]
 2173 078e 1A46     	 mov r2,r3
 2174 0790 4FEAE273 	 asr r3,r2,#31
 2175 0794 02FB01F5 	 mul r5,r2,r1
 2176 0798 00FB03F4 	 mul r4,r0,r3
 2177 079c 2C44     	 add r4,r4,r5
 2178 079e A0FB0223 	 umull r2,r3,r0,r2
 2179 07a2 E118     	 adds r1,r4,r3
 2180 07a4 0B46     	 mov r3,r1
 2181 07a6 1900     	 movs r1,r3
 2182 07a8 3967     	 str r1,[r7,#112]
 2183 07aa DB17     	 asrs r3,r3,#31
 2184 07ac 7B67     	 str r3,[r7,#116]
 2185 07ae 3B6F     	 ldr r3,[r7,#112]
1255:../Dave/Generated/CMSIS_DSP/TransformFunctions/arm_cfft_radix4_q31.c ****                          ((int32_t) (((q63_t) s1 * si2) >> 32u))) >> 1u;
 2186              	 .loc 1 1255 0 discriminator 3
 2187 07b0 F31A     	 subs r3,r6,r3
 2188              	 .loc 1 1256 0 discriminator 3
 2189 07b2 5A10     	 asrs r2,r3,#1
1255:../Dave/Generated/CMSIS_DSP/TransformFunctions/arm_cfft_radix4_q31.c ****                          ((int32_t) (((q63_t) s1 * si2) >> 32u))) >> 1u;
 2190              	 .loc 1 1255 0 discriminator 3
 2191 07b4 D7F88C31 	 ldr r3,[r7,#396]
 2192 07b8 1A60     	 str r2,[r3]
1257:../Dave/Generated/CMSIS_DSP/TransformFunctions/arm_cfft_radix4_q31.c **** 
1258:../Dave/Generated/CMSIS_DSP/TransformFunctions/arm_cfft_radix4_q31.c ****         /* yc' = (ya-yb+yc-yd)co2 + (xa-xb+xc-xd)(si2) */
1259:../Dave/Generated/CMSIS_DSP/TransformFunctions/arm_cfft_radix4_q31.c ****         pSi1[1] =
 2193              	 .loc 1 1259 0 discriminator 3
 2194 07ba D7F88C31 	 ldr r3,[r7,#396]
 2195 07be 03F1040E 	 add lr,r3,#4
1260:../Dave/Generated/CMSIS_DSP/TransformFunctions/arm_cfft_radix4_q31.c **** 
1261:../Dave/Generated/CMSIS_DSP/TransformFunctions/arm_cfft_radix4_q31.c ****           (((int32_t) (((q63_t) s1 * co2) >> 32u)) +
 2196              	 .loc 1 1261 0 discriminator 3
 2197 07c2 D7F87031 	 ldr r3,[r7,#368]
 2198 07c6 1846     	 mov r0,r3
 2199 07c8 4FEAE071 	 asr r1,r0,#31
 2200 07cc D7F86031 	 ldr r3,[r7,#352]
 2201 07d0 1A46     	 mov r2,r3
 2202 07d2 4FEAE273 	 asr r3,r2,#31
 2203 07d6 02FB01F5 	 mul r5,r2,r1
 2204 07da 00FB03F4 	 mul r4,r0,r3
 2205 07de 2C44     	 add r4,r4,r5
 2206 07e0 A0FB0223 	 umull r2,r3,r0,r2
 2207 07e4 E118     	 adds r1,r4,r3
 2208 07e6 0B46     	 mov r3,r1
 2209 07e8 1900     	 movs r1,r3
 2210 07ea B966     	 str r1,[r7,#104]
 2211 07ec DB17     	 asrs r3,r3,#31
 2212 07ee FB66     	 str r3,[r7,#108]
 2213 07f0 BE6E     	 ldr r6,[r7,#104]
1262:../Dave/Generated/CMSIS_DSP/TransformFunctions/arm_cfft_radix4_q31.c ****            ((int32_t) (((q63_t) r1 * si2) >> 32u))) >> 1u;
 2214              	 .loc 1 1262 0 discriminator 3
 2215 07f2 D7F87C31 	 ldr r3,[r7,#380]
 2216 07f6 1846     	 mov r0,r3
 2217 07f8 4FEAE071 	 asr r1,r0,#31
 2218 07fc D7F85C31 	 ldr r3,[r7,#348]
 2219 0800 1A46     	 mov r2,r3
 2220 0802 4FEAE273 	 asr r3,r2,#31
 2221 0806 02FB01F5 	 mul r5,r2,r1
 2222 080a 00FB03F4 	 mul r4,r0,r3
 2223 080e 2C44     	 add r4,r4,r5
 2224 0810 A0FB0223 	 umull r2,r3,r0,r2
 2225 0814 E118     	 adds r1,r4,r3
 2226 0816 0B46     	 mov r3,r1
 2227 0818 1900     	 movs r1,r3
 2228 081a 3966     	 str r1,[r7,#96]
 2229 081c DB17     	 asrs r3,r3,#31
 2230 081e 7B66     	 str r3,[r7,#100]
 2231 0820 3B6E     	 ldr r3,[r7,#96]
1261:../Dave/Generated/CMSIS_DSP/TransformFunctions/arm_cfft_radix4_q31.c ****            ((int32_t) (((q63_t) r1 * si2) >> 32u))) >> 1u;
 2232              	 .loc 1 1261 0 discriminator 3
 2233 0822 3344     	 add r3,r3,r6
 2234              	 .loc 1 1262 0 discriminator 3
 2235 0824 5B10     	 asrs r3,r3,#1
1259:../Dave/Generated/CMSIS_DSP/TransformFunctions/arm_cfft_radix4_q31.c **** 
 2236              	 .loc 1 1259 0 discriminator 3
 2237 0826 CEF80030 	 str r3,[lr]
1263:../Dave/Generated/CMSIS_DSP/TransformFunctions/arm_cfft_radix4_q31.c ****         pSi1 += 2 * n1;
 2238              	 .loc 1 1263 0 discriminator 3
 2239 082a D7F88031 	 ldr r3,[r7,#384]
 2240 082e DA00     	 lsls r2,r3,#3
 2241 0830 D7F88C31 	 ldr r3,[r7,#396]
 2242 0834 1344     	 add r3,r3,r2
 2243 0836 C7F88C31 	 str r3,[r7,#396]
1264:../Dave/Generated/CMSIS_DSP/TransformFunctions/arm_cfft_radix4_q31.c **** 
1265:../Dave/Generated/CMSIS_DSP/TransformFunctions/arm_cfft_radix4_q31.c ****         /* (xa - xc) - (yb - yd) */
1266:../Dave/Generated/CMSIS_DSP/TransformFunctions/arm_cfft_radix4_q31.c ****         r1 = r2 - t1;
 2244              	 .loc 1 1266 0 discriminator 3
 2245 083a D7F87821 	 ldr r2,[r7,#376]
 2246 083e D7F87431 	 ldr r3,[r7,#372]
 2247 0842 D31A     	 subs r3,r2,r3
 2248 0844 C7F87C31 	 str r3,[r7,#380]
1267:../Dave/Generated/CMSIS_DSP/TransformFunctions/arm_cfft_radix4_q31.c ****         /* (xa - xc) + (yb - yd) */
1268:../Dave/Generated/CMSIS_DSP/TransformFunctions/arm_cfft_radix4_q31.c ****         r2 = r2 + t1;
 2249              	 .loc 1 1268 0 discriminator 3
 2250 0848 D7F87821 	 ldr r2,[r7,#376]
 2251 084c D7F87431 	 ldr r3,[r7,#372]
 2252 0850 1344     	 add r3,r3,r2
 2253 0852 C7F87831 	 str r3,[r7,#376]
1269:../Dave/Generated/CMSIS_DSP/TransformFunctions/arm_cfft_radix4_q31.c **** 
1270:../Dave/Generated/CMSIS_DSP/TransformFunctions/arm_cfft_radix4_q31.c ****         /* (ya - yc) +  (xb - xd) */
1271:../Dave/Generated/CMSIS_DSP/TransformFunctions/arm_cfft_radix4_q31.c ****         s1 = s2 + t2;
 2254              	 .loc 1 1271 0 discriminator 3
 2255 0856 D7F86C21 	 ldr r2,[r7,#364]
 2256 085a D7F86831 	 ldr r3,[r7,#360]
 2257 085e 1344     	 add r3,r3,r2
 2258 0860 C7F87031 	 str r3,[r7,#368]
1272:../Dave/Generated/CMSIS_DSP/TransformFunctions/arm_cfft_radix4_q31.c ****         /* (ya - yc) -  (xb - xd) */
1273:../Dave/Generated/CMSIS_DSP/TransformFunctions/arm_cfft_radix4_q31.c ****         s2 = s2 - t2;
 2259              	 .loc 1 1273 0 discriminator 3
 2260 0864 D7F86C21 	 ldr r2,[r7,#364]
 2261 0868 D7F86831 	 ldr r3,[r7,#360]
 2262 086c D31A     	 subs r3,r2,r3
 2263 086e C7F86C31 	 str r3,[r7,#364]
1274:../Dave/Generated/CMSIS_DSP/TransformFunctions/arm_cfft_radix4_q31.c **** 
1275:../Dave/Generated/CMSIS_DSP/TransformFunctions/arm_cfft_radix4_q31.c ****         /* xb' = (xa+yb-xc-yd)co1 - (ya-xb-yc+xd)(si1) */
1276:../Dave/Generated/CMSIS_DSP/TransformFunctions/arm_cfft_radix4_q31.c ****         pSi2[0] = (((int32_t) (((q63_t) r1 * co1) >> 32)) -
 2264              	 .loc 1 1276 0 discriminator 3
 2265 0872 D7F87C31 	 ldr r3,[r7,#380]
 2266 0876 1846     	 mov r0,r3
 2267 0878 4FEAE071 	 asr r1,r0,#31
 2268 087c D7F85831 	 ldr r3,[r7,#344]
 2269 0880 1A46     	 mov r2,r3
 2270 0882 4FEAE273 	 asr r3,r2,#31
 2271 0886 02FB01F5 	 mul r5,r2,r1
 2272 088a 00FB03F4 	 mul r4,r0,r3
 2273 088e 2C44     	 add r4,r4,r5
 2274 0890 A0FB0223 	 umull r2,r3,r0,r2
 2275 0894 E118     	 adds r1,r4,r3
 2276 0896 0B46     	 mov r3,r1
 2277 0898 1900     	 movs r1,r3
 2278 089a B965     	 str r1,[r7,#88]
 2279 089c DB17     	 asrs r3,r3,#31
 2280 089e FB65     	 str r3,[r7,#92]
 2281 08a0 BE6D     	 ldr r6,[r7,#88]
1277:../Dave/Generated/CMSIS_DSP/TransformFunctions/arm_cfft_radix4_q31.c ****                          ((int32_t) (((q63_t) s1 * si1) >> 32))) >> 1u;
 2282              	 .loc 1 1277 0 discriminator 3
 2283 08a2 D7F87031 	 ldr r3,[r7,#368]
 2284 08a6 1846     	 mov r0,r3
 2285 08a8 4FEAE071 	 asr r1,r0,#31
 2286 08ac D7F85431 	 ldr r3,[r7,#340]
 2287 08b0 1A46     	 mov r2,r3
 2288 08b2 4FEAE273 	 asr r3,r2,#31
 2289 08b6 02FB01F5 	 mul r5,r2,r1
 2290 08ba 00FB03F4 	 mul r4,r0,r3
 2291 08be 2C44     	 add r4,r4,r5
 2292 08c0 A0FB0223 	 umull r2,r3,r0,r2
 2293 08c4 E118     	 adds r1,r4,r3
 2294 08c6 0B46     	 mov r3,r1
 2295 08c8 1900     	 movs r1,r3
 2296 08ca 3965     	 str r1,[r7,#80]
 2297 08cc DB17     	 asrs r3,r3,#31
 2298 08ce 7B65     	 str r3,[r7,#84]
 2299 08d0 3B6D     	 ldr r3,[r7,#80]
1276:../Dave/Generated/CMSIS_DSP/TransformFunctions/arm_cfft_radix4_q31.c ****                          ((int32_t) (((q63_t) s1 * si1) >> 32))) >> 1u;
 2300              	 .loc 1 1276 0 discriminator 3
 2301 08d2 F31A     	 subs r3,r6,r3
 2302              	 .loc 1 1277 0 discriminator 3
 2303 08d4 5A10     	 asrs r2,r3,#1
1276:../Dave/Generated/CMSIS_DSP/TransformFunctions/arm_cfft_radix4_q31.c ****                          ((int32_t) (((q63_t) s1 * si1) >> 32))) >> 1u;
 2304              	 .loc 1 1276 0 discriminator 3
 2305 08d6 D7F88831 	 ldr r3,[r7,#392]
 2306 08da 1A60     	 str r2,[r3]
1278:../Dave/Generated/CMSIS_DSP/TransformFunctions/arm_cfft_radix4_q31.c **** 
1279:../Dave/Generated/CMSIS_DSP/TransformFunctions/arm_cfft_radix4_q31.c ****         /* yb' = (ya-xb-yc+xd)co1 + (xa+yb-xc-yd)(si1) */
1280:../Dave/Generated/CMSIS_DSP/TransformFunctions/arm_cfft_radix4_q31.c ****         pSi2[1] = (((int32_t) (((q63_t) s1 * co1) >> 32)) +
 2307              	 .loc 1 1280 0 discriminator 3
 2308 08dc D7F88831 	 ldr r3,[r7,#392]
 2309 08e0 03F1040E 	 add lr,r3,#4
 2310 08e4 D7F87031 	 ldr r3,[r7,#368]
 2311 08e8 1846     	 mov r0,r3
 2312 08ea 4FEAE071 	 asr r1,r0,#31
 2313 08ee D7F85831 	 ldr r3,[r7,#344]
 2314 08f2 1A46     	 mov r2,r3
 2315 08f4 4FEAE273 	 asr r3,r2,#31
 2316 08f8 02FB01F5 	 mul r5,r2,r1
 2317 08fc 00FB03F4 	 mul r4,r0,r3
 2318 0900 2C44     	 add r4,r4,r5
 2319 0902 A0FB0223 	 umull r2,r3,r0,r2
 2320 0906 E118     	 adds r1,r4,r3
 2321 0908 0B46     	 mov r3,r1
 2322 090a 1900     	 movs r1,r3
 2323 090c B964     	 str r1,[r7,#72]
 2324 090e DB17     	 asrs r3,r3,#31
 2325 0910 FB64     	 str r3,[r7,#76]
 2326 0912 BE6C     	 ldr r6,[r7,#72]
1281:../Dave/Generated/CMSIS_DSP/TransformFunctions/arm_cfft_radix4_q31.c ****                                 ((int32_t) (((q63_t) r1 * si1) >> 32))) >> 1u;
 2327              	 .loc 1 1281 0 discriminator 3
 2328 0914 D7F87C31 	 ldr r3,[r7,#380]
 2329 0918 1846     	 mov r0,r3
 2330 091a 4FEAE071 	 asr r1,r0,#31
 2331 091e D7F85431 	 ldr r3,[r7,#340]
 2332 0922 1A46     	 mov r2,r3
 2333 0924 4FEAE273 	 asr r3,r2,#31
 2334 0928 02FB01F5 	 mul r5,r2,r1
 2335 092c 00FB03F4 	 mul r4,r0,r3
 2336 0930 2C44     	 add r4,r4,r5
 2337 0932 A0FB0223 	 umull r2,r3,r0,r2
 2338 0936 E118     	 adds r1,r4,r3
 2339 0938 0B46     	 mov r3,r1
 2340 093a 1900     	 movs r1,r3
 2341 093c 3964     	 str r1,[r7,#64]
 2342 093e DB17     	 asrs r3,r3,#31
 2343 0940 7B64     	 str r3,[r7,#68]
 2344 0942 3B6C     	 ldr r3,[r7,#64]
1280:../Dave/Generated/CMSIS_DSP/TransformFunctions/arm_cfft_radix4_q31.c ****                                 ((int32_t) (((q63_t) r1 * si1) >> 32))) >> 1u;
 2345              	 .loc 1 1280 0 discriminator 3
 2346 0944 3344     	 add r3,r3,r6
 2347              	 .loc 1 1281 0 discriminator 3
 2348 0946 5B10     	 asrs r3,r3,#1
1280:../Dave/Generated/CMSIS_DSP/TransformFunctions/arm_cfft_radix4_q31.c ****                                 ((int32_t) (((q63_t) r1 * si1) >> 32))) >> 1u;
 2349              	 .loc 1 1280 0 discriminator 3
 2350 0948 CEF80030 	 str r3,[lr]
1282:../Dave/Generated/CMSIS_DSP/TransformFunctions/arm_cfft_radix4_q31.c ****         pSi2 += 2 * n1;
 2351              	 .loc 1 1282 0 discriminator 3
 2352 094c D7F88031 	 ldr r3,[r7,#384]
 2353 0950 DA00     	 lsls r2,r3,#3
 2354 0952 D7F88831 	 ldr r3,[r7,#392]
 2355 0956 1344     	 add r3,r3,r2
 2356 0958 C7F88831 	 str r3,[r7,#392]
1283:../Dave/Generated/CMSIS_DSP/TransformFunctions/arm_cfft_radix4_q31.c **** 
1284:../Dave/Generated/CMSIS_DSP/TransformFunctions/arm_cfft_radix4_q31.c ****         /* xd' = (xa-yb-xc+yd)co3 - (ya+xb-yc-xd)(si3) */
1285:../Dave/Generated/CMSIS_DSP/TransformFunctions/arm_cfft_radix4_q31.c ****         pSi3[0] = (((int32_t) (((q63_t) r2 * co3) >> 32)) -
 2357              	 .loc 1 1285 0 discriminator 3
 2358 095c D7F87831 	 ldr r3,[r7,#376]
 2359 0960 1846     	 mov r0,r3
 2360 0962 4FEAE071 	 asr r1,r0,#31
 2361 0966 D7F84C31 	 ldr r3,[r7,#332]
 2362 096a 1A46     	 mov r2,r3
 2363 096c 4FEAE273 	 asr r3,r2,#31
 2364 0970 02FB01F5 	 mul r5,r2,r1
 2365 0974 00FB03F4 	 mul r4,r0,r3
 2366 0978 2C44     	 add r4,r4,r5
 2367 097a A0FB0223 	 umull r2,r3,r0,r2
 2368 097e E118     	 adds r1,r4,r3
 2369 0980 0B46     	 mov r3,r1
 2370 0982 1900     	 movs r1,r3
 2371 0984 B963     	 str r1,[r7,#56]
 2372 0986 DB17     	 asrs r3,r3,#31
 2373 0988 FB63     	 str r3,[r7,#60]
 2374 098a BE6B     	 ldr r6,[r7,#56]
1286:../Dave/Generated/CMSIS_DSP/TransformFunctions/arm_cfft_radix4_q31.c ****                            ((int32_t) (((q63_t) s2 * si3) >> 32))) >> 1u;
 2375              	 .loc 1 1286 0 discriminator 3
 2376 098c D7F86C31 	 ldr r3,[r7,#364]
 2377 0990 1846     	 mov r0,r3
 2378 0992 4FEAE071 	 asr r1,r0,#31
 2379 0996 D7F84831 	 ldr r3,[r7,#328]
 2380 099a 1A46     	 mov r2,r3
 2381 099c 4FEAE273 	 asr r3,r2,#31
 2382 09a0 02FB01F5 	 mul r5,r2,r1
 2383 09a4 00FB03F4 	 mul r4,r0,r3
 2384 09a8 2C44     	 add r4,r4,r5
 2385 09aa A0FB0223 	 umull r2,r3,r0,r2
 2386 09ae E118     	 adds r1,r4,r3
 2387 09b0 0B46     	 mov r3,r1
 2388 09b2 1900     	 movs r1,r3
 2389 09b4 3963     	 str r1,[r7,#48]
 2390 09b6 DB17     	 asrs r3,r3,#31
 2391 09b8 7B63     	 str r3,[r7,#52]
 2392 09ba 3B6B     	 ldr r3,[r7,#48]
1285:../Dave/Generated/CMSIS_DSP/TransformFunctions/arm_cfft_radix4_q31.c ****                            ((int32_t) (((q63_t) s2 * si3) >> 32))) >> 1u;
 2393              	 .loc 1 1285 0 discriminator 3
 2394 09bc F31A     	 subs r3,r6,r3
 2395              	 .loc 1 1286 0 discriminator 3
 2396 09be 5A10     	 asrs r2,r3,#1
1285:../Dave/Generated/CMSIS_DSP/TransformFunctions/arm_cfft_radix4_q31.c ****                            ((int32_t) (((q63_t) s2 * si3) >> 32))) >> 1u;
 2397              	 .loc 1 1285 0 discriminator 3
 2398 09c0 D7F88431 	 ldr r3,[r7,#388]
 2399 09c4 1A60     	 str r2,[r3]
1287:../Dave/Generated/CMSIS_DSP/TransformFunctions/arm_cfft_radix4_q31.c **** 
1288:../Dave/Generated/CMSIS_DSP/TransformFunctions/arm_cfft_radix4_q31.c ****         /* yd' = (ya+xb-yc-xd)co3 + (xa-yb-xc+yd)(si3) */
1289:../Dave/Generated/CMSIS_DSP/TransformFunctions/arm_cfft_radix4_q31.c ****         pSi3[1] = (((int32_t) (((q63_t) s2 * co3) >> 32)) +
 2400              	 .loc 1 1289 0 discriminator 3
 2401 09c6 D7F88431 	 ldr r3,[r7,#388]
 2402 09ca 03F1040E 	 add lr,r3,#4
 2403 09ce D7F86C31 	 ldr r3,[r7,#364]
 2404 09d2 1846     	 mov r0,r3
 2405 09d4 4FEAE071 	 asr r1,r0,#31
 2406 09d8 D7F84C31 	 ldr r3,[r7,#332]
 2407 09dc 1A46     	 mov r2,r3
 2408 09de 4FEAE273 	 asr r3,r2,#31
 2409 09e2 02FB01F5 	 mul r5,r2,r1
 2410 09e6 00FB03F4 	 mul r4,r0,r3
 2411 09ea 2C44     	 add r4,r4,r5
 2412 09ec A0FB0223 	 umull r2,r3,r0,r2
 2413 09f0 E118     	 adds r1,r4,r3
 2414 09f2 0B46     	 mov r3,r1
 2415 09f4 1900     	 movs r1,r3
 2416 09f6 B962     	 str r1,[r7,#40]
 2417 09f8 DB17     	 asrs r3,r3,#31
 2418 09fa FB62     	 str r3,[r7,#44]
 2419 09fc BE6A     	 ldr r6,[r7,#40]
1290:../Dave/Generated/CMSIS_DSP/TransformFunctions/arm_cfft_radix4_q31.c ****                                 ((int32_t) (((q63_t) r2 * si3) >> 32))) >> 1u;
 2420              	 .loc 1 1290 0 discriminator 3
 2421 09fe D7F87831 	 ldr r3,[r7,#376]
 2422 0a02 1846     	 mov r0,r3
 2423 0a04 4FEAE071 	 asr r1,r0,#31
 2424 0a08 D7F84831 	 ldr r3,[r7,#328]
 2425 0a0c 1A46     	 mov r2,r3
 2426 0a0e 4FEAE273 	 asr r3,r2,#31
 2427 0a12 02FB01F5 	 mul r5,r2,r1
 2428 0a16 00FB03F4 	 mul r4,r0,r3
 2429 0a1a 2C44     	 add r4,r4,r5
 2430 0a1c A0FB0223 	 umull r2,r3,r0,r2
 2431 0a20 E118     	 adds r1,r4,r3
 2432 0a22 0B46     	 mov r3,r1
 2433 0a24 1900     	 movs r1,r3
 2434 0a26 3962     	 str r1,[r7,#32]
 2435 0a28 DB17     	 asrs r3,r3,#31
 2436 0a2a 7B62     	 str r3,[r7,#36]
 2437 0a2c 3B6A     	 ldr r3,[r7,#32]
1289:../Dave/Generated/CMSIS_DSP/TransformFunctions/arm_cfft_radix4_q31.c ****                                 ((int32_t) (((q63_t) r2 * si3) >> 32))) >> 1u;
 2438              	 .loc 1 1289 0 discriminator 3
 2439 0a2e 3344     	 add r3,r3,r6
 2440              	 .loc 1 1290 0 discriminator 3
 2441 0a30 5B10     	 asrs r3,r3,#1
1289:../Dave/Generated/CMSIS_DSP/TransformFunctions/arm_cfft_radix4_q31.c ****                                 ((int32_t) (((q63_t) r2 * si3) >> 32))) >> 1u;
 2442              	 .loc 1 1289 0 discriminator 3
 2443 0a32 CEF80030 	 str r3,[lr]
1291:../Dave/Generated/CMSIS_DSP/TransformFunctions/arm_cfft_radix4_q31.c ****         pSi3 += 2 * n1;
 2444              	 .loc 1 1291 0 discriminator 3
 2445 0a36 D7F88031 	 ldr r3,[r7,#384]
 2446 0a3a DA00     	 lsls r2,r3,#3
 2447 0a3c D7F88431 	 ldr r3,[r7,#388]
 2448 0a40 1344     	 add r3,r3,r2
 2449 0a42 C7F88431 	 str r3,[r7,#388]
1212:../Dave/Generated/CMSIS_DSP/TransformFunctions/arm_cfft_radix4_q31.c ****       {
 2450              	 .loc 1 1212 0 discriminator 3
 2451 0a46 D7F89C21 	 ldr r2,[r7,#412]
 2452 0a4a D7F88031 	 ldr r3,[r7,#384]
 2453 0a4e 1344     	 add r3,r3,r2
 2454 0a50 C7F89C31 	 str r3,[r7,#412]
 2455              	.L18:
1212:../Dave/Generated/CMSIS_DSP/TransformFunctions/arm_cfft_radix4_q31.c ****       {
 2456              	 .loc 1 1212 0 is_stmt 0 discriminator 1
 2457 0a54 D7F89C21 	 ldr r2,[r7,#412]
 2458 0a58 D7F8D830 	 ldr r3,[r7,#216]
 2459 0a5c 9A42     	 cmp r2,r3
 2460 0a5e FFF4FEAD 	 bcc .L19
1193:../Dave/Generated/CMSIS_DSP/TransformFunctions/arm_cfft_radix4_q31.c ****     {
 2461              	 .loc 1 1193 0 is_stmt 1 discriminator 2
 2462 0a62 D7F89831 	 ldr r3,[r7,#408]
 2463 0a66 0133     	 adds r3,r3,#1
 2464 0a68 C7F89831 	 str r3,[r7,#408]
 2465              	.L17:
1193:../Dave/Generated/CMSIS_DSP/TransformFunctions/arm_cfft_radix4_q31.c ****     {
 2466              	 .loc 1 1193 0 is_stmt 0 discriminator 1
 2467 0a6c D7F8A431 	 ldr r3,[r7,#420]
 2468 0a70 5A1E     	 subs r2,r3,#1
 2469 0a72 D7F89831 	 ldr r3,[r7,#408]
 2470 0a76 9A42     	 cmp r2,r3
 2471 0a78 BFF47EAD 	 bcs .L20
1292:../Dave/Generated/CMSIS_DSP/TransformFunctions/arm_cfft_radix4_q31.c ****       }
1293:../Dave/Generated/CMSIS_DSP/TransformFunctions/arm_cfft_radix4_q31.c ****     }
1294:../Dave/Generated/CMSIS_DSP/TransformFunctions/arm_cfft_radix4_q31.c ****     twidCoefModifier <<= 2u;
 2472              	 .loc 1 1294 0 is_stmt 1 discriminator 2
 2473 0a7c D7F8D030 	 ldr r3,[r7,#208]
 2474 0a80 9B00     	 lsls r3,r3,#2
 2475 0a82 C7F8D030 	 str r3,[r7,#208]
1186:../Dave/Generated/CMSIS_DSP/TransformFunctions/arm_cfft_radix4_q31.c ****   {
 2476              	 .loc 1 1186 0 discriminator 2
 2477 0a86 D7F89431 	 ldr r3,[r7,#404]
 2478 0a8a 9B08     	 lsrs r3,r3,#2
 2479 0a8c C7F89431 	 str r3,[r7,#404]
 2480              	.L16:
1186:../Dave/Generated/CMSIS_DSP/TransformFunctions/arm_cfft_radix4_q31.c ****   {
 2481              	 .loc 1 1186 0 is_stmt 0 discriminator 1
 2482 0a90 D7F89431 	 ldr r3,[r7,#404]
 2483 0a94 042B     	 cmp r3,#4
 2484 0a96 3FF65FAD 	 bhi .L21
1295:../Dave/Generated/CMSIS_DSP/TransformFunctions/arm_cfft_radix4_q31.c ****   }
1296:../Dave/Generated/CMSIS_DSP/TransformFunctions/arm_cfft_radix4_q31.c **** #endif
1297:../Dave/Generated/CMSIS_DSP/TransformFunctions/arm_cfft_radix4_q31.c **** 
1298:../Dave/Generated/CMSIS_DSP/TransformFunctions/arm_cfft_radix4_q31.c ****   /* End of Middle stages process */
1299:../Dave/Generated/CMSIS_DSP/TransformFunctions/arm_cfft_radix4_q31.c **** 
1300:../Dave/Generated/CMSIS_DSP/TransformFunctions/arm_cfft_radix4_q31.c ****   /* data is in 11.21(q21) format for the 1024 point as there are 3 middle stages */
1301:../Dave/Generated/CMSIS_DSP/TransformFunctions/arm_cfft_radix4_q31.c ****   /* data is in 9.23(q23) format for the 256 point as there are 2 middle stages */
1302:../Dave/Generated/CMSIS_DSP/TransformFunctions/arm_cfft_radix4_q31.c ****   /* data is in 7.25(q25) format for the 64 point as there are 1 middle stage */
1303:../Dave/Generated/CMSIS_DSP/TransformFunctions/arm_cfft_radix4_q31.c ****   /* data is in 5.27(q27) format for the 16 point as there are no middle stages */
1304:../Dave/Generated/CMSIS_DSP/TransformFunctions/arm_cfft_radix4_q31.c **** 
1305:../Dave/Generated/CMSIS_DSP/TransformFunctions/arm_cfft_radix4_q31.c **** 
1306:../Dave/Generated/CMSIS_DSP/TransformFunctions/arm_cfft_radix4_q31.c ****   /* Start of last stage process */
1307:../Dave/Generated/CMSIS_DSP/TransformFunctions/arm_cfft_radix4_q31.c **** 
1308:../Dave/Generated/CMSIS_DSP/TransformFunctions/arm_cfft_radix4_q31.c **** 
1309:../Dave/Generated/CMSIS_DSP/TransformFunctions/arm_cfft_radix4_q31.c ****   /*  Initializations for the last stage */
1310:../Dave/Generated/CMSIS_DSP/TransformFunctions/arm_cfft_radix4_q31.c ****   j = fftLen >> 2;
 2485              	 .loc 1 1310 0 is_stmt 1
 2486 0a9a D7F8D830 	 ldr r3,[r7,#216]
 2487 0a9e 9B08     	 lsrs r3,r3,#2
 2488 0aa0 C7F89831 	 str r3,[r7,#408]
1311:../Dave/Generated/CMSIS_DSP/TransformFunctions/arm_cfft_radix4_q31.c ****   ptr1 = &pSrc[0];
 2489              	 .loc 1 1311 0
 2490 0aa4 D7F8DC30 	 ldr r3,[r7,#220]
 2491 0aa8 C7F8E430 	 str r3,[r7,#228]
 2492              	.L22:
1312:../Dave/Generated/CMSIS_DSP/TransformFunctions/arm_cfft_radix4_q31.c **** 
1313:../Dave/Generated/CMSIS_DSP/TransformFunctions/arm_cfft_radix4_q31.c ****   /*  Calculations of last stage */
1314:../Dave/Generated/CMSIS_DSP/TransformFunctions/arm_cfft_radix4_q31.c ****   do
1315:../Dave/Generated/CMSIS_DSP/TransformFunctions/arm_cfft_radix4_q31.c ****   {
1316:../Dave/Generated/CMSIS_DSP/TransformFunctions/arm_cfft_radix4_q31.c **** #ifndef ARM_MATH_BIG_ENDIAN
1317:../Dave/Generated/CMSIS_DSP/TransformFunctions/arm_cfft_radix4_q31.c ****     /* Read xa (real), ya(imag) input */
1318:../Dave/Generated/CMSIS_DSP/TransformFunctions/arm_cfft_radix4_q31.c ****     xaya = *__SIMD64(ptr1)++;
 2493              	 .loc 1 1318 0 discriminator 1
 2494 0aac 07F1E402 	 add r2,r7,#228
 2495 0ab0 1368     	 ldr r3,[r2]
 2496 0ab2 03F10801 	 add r1,r3,#8
 2497 0ab6 1160     	 str r1,[r2]
 2498 0ab8 D3E90023 	 ldrd r2,[r3]
 2499 0abc 07F5A071 	 add r1,r7,#320
 2500 0ac0 C1E90023 	 strd r2,[r1]
1319:../Dave/Generated/CMSIS_DSP/TransformFunctions/arm_cfft_radix4_q31.c ****     xa = (q31_t) xaya;
 2501              	 .loc 1 1319 0 discriminator 1
 2502 0ac4 D7F84031 	 ldr r3,[r7,#320]
 2503 0ac8 C7F83C31 	 str r3,[r7,#316]
1320:../Dave/Generated/CMSIS_DSP/TransformFunctions/arm_cfft_radix4_q31.c ****     ya = (q31_t) (xaya >> 32);
 2504              	 .loc 1 1320 0 discriminator 1
 2505 0acc 07F5A073 	 add r3,r7,#320
 2506 0ad0 D3E90023 	 ldrd r2,[r3]
 2507 0ad4 1900     	 movs r1,r3
 2508 0ad6 B961     	 str r1,[r7,#24]
 2509 0ad8 DB17     	 asrs r3,r3,#31
 2510 0ada FB61     	 str r3,[r7,#28]
 2511 0adc BB69     	 ldr r3,[r7,#24]
 2512 0ade C7F83831 	 str r3,[r7,#312]
1321:../Dave/Generated/CMSIS_DSP/TransformFunctions/arm_cfft_radix4_q31.c **** 
1322:../Dave/Generated/CMSIS_DSP/TransformFunctions/arm_cfft_radix4_q31.c ****     /* Read xb (real), yb(imag) input */
1323:../Dave/Generated/CMSIS_DSP/TransformFunctions/arm_cfft_radix4_q31.c ****     xbyb = *__SIMD64(ptr1)++;
 2513              	 .loc 1 1323 0 discriminator 1
 2514 0ae2 07F1E402 	 add r2,r7,#228
 2515 0ae6 1368     	 ldr r3,[r2]
 2516 0ae8 03F10801 	 add r1,r3,#8
 2517 0aec 1160     	 str r1,[r2]
 2518 0aee D3E90023 	 ldrd r2,[r3]
 2519 0af2 07F59871 	 add r1,r7,#304
 2520 0af6 C1E90023 	 strd r2,[r1]
1324:../Dave/Generated/CMSIS_DSP/TransformFunctions/arm_cfft_radix4_q31.c ****     xb = (q31_t) xbyb;
 2521              	 .loc 1 1324 0 discriminator 1
 2522 0afa D7F83031 	 ldr r3,[r7,#304]
 2523 0afe C7F82C31 	 str r3,[r7,#300]
1325:../Dave/Generated/CMSIS_DSP/TransformFunctions/arm_cfft_radix4_q31.c ****     yb = (q31_t) (xbyb >> 32);
 2524              	 .loc 1 1325 0 discriminator 1
 2525 0b02 07F59873 	 add r3,r7,#304
 2526 0b06 D3E90023 	 ldrd r2,[r3]
 2527 0b0a 1900     	 movs r1,r3
 2528 0b0c 3961     	 str r1,[r7,#16]
 2529 0b0e DB17     	 asrs r3,r3,#31
 2530 0b10 7B61     	 str r3,[r7,#20]
 2531 0b12 3B69     	 ldr r3,[r7,#16]
 2532 0b14 C7F82831 	 str r3,[r7,#296]
1326:../Dave/Generated/CMSIS_DSP/TransformFunctions/arm_cfft_radix4_q31.c **** 
1327:../Dave/Generated/CMSIS_DSP/TransformFunctions/arm_cfft_radix4_q31.c ****     /* Read xc (real), yc(imag) input */
1328:../Dave/Generated/CMSIS_DSP/TransformFunctions/arm_cfft_radix4_q31.c ****     xcyc = *__SIMD64(ptr1)++;
 2533              	 .loc 1 1328 0 discriminator 1
 2534 0b18 07F1E402 	 add r2,r7,#228
 2535 0b1c 1368     	 ldr r3,[r2]
 2536 0b1e 03F10801 	 add r1,r3,#8
 2537 0b22 1160     	 str r1,[r2]
 2538 0b24 D3E90023 	 ldrd r2,[r3]
 2539 0b28 07F59071 	 add r1,r7,#288
 2540 0b2c C1E90023 	 strd r2,[r1]
1329:../Dave/Generated/CMSIS_DSP/TransformFunctions/arm_cfft_radix4_q31.c ****     xc = (q31_t) xcyc;
 2541              	 .loc 1 1329 0 discriminator 1
 2542 0b30 D7F82031 	 ldr r3,[r7,#288]
 2543 0b34 C7F81C31 	 str r3,[r7,#284]
1330:../Dave/Generated/CMSIS_DSP/TransformFunctions/arm_cfft_radix4_q31.c ****     yc = (q31_t) (xcyc >> 32);
 2544              	 .loc 1 1330 0 discriminator 1
 2545 0b38 07F59073 	 add r3,r7,#288
 2546 0b3c D3E90023 	 ldrd r2,[r3]
 2547 0b40 1900     	 movs r1,r3
 2548 0b42 B960     	 str r1,[r7,#8]
 2549 0b44 DB17     	 asrs r3,r3,#31
 2550 0b46 FB60     	 str r3,[r7,#12]
 2551 0b48 BB68     	 ldr r3,[r7,#8]
 2552 0b4a C7F81831 	 str r3,[r7,#280]
1331:../Dave/Generated/CMSIS_DSP/TransformFunctions/arm_cfft_radix4_q31.c **** 
1332:../Dave/Generated/CMSIS_DSP/TransformFunctions/arm_cfft_radix4_q31.c ****     /* Read xc (real), yc(imag) input */
1333:../Dave/Generated/CMSIS_DSP/TransformFunctions/arm_cfft_radix4_q31.c ****     xdyd = *__SIMD64(ptr1)++;
 2553              	 .loc 1 1333 0 discriminator 1
 2554 0b4e 07F1E402 	 add r2,r7,#228
 2555 0b52 1368     	 ldr r3,[r2]
 2556 0b54 03F10801 	 add r1,r3,#8
 2557 0b58 1160     	 str r1,[r2]
 2558 0b5a D3E90023 	 ldrd r2,[r3]
 2559 0b5e 07F58871 	 add r1,r7,#272
 2560 0b62 C1E90023 	 strd r2,[r1]
1334:../Dave/Generated/CMSIS_DSP/TransformFunctions/arm_cfft_radix4_q31.c ****     xd = (q31_t) xdyd;
 2561              	 .loc 1 1334 0 discriminator 1
 2562 0b66 D7F81031 	 ldr r3,[r7,#272]
 2563 0b6a C7F80C31 	 str r3,[r7,#268]
1335:../Dave/Generated/CMSIS_DSP/TransformFunctions/arm_cfft_radix4_q31.c ****     yd = (q31_t) (xdyd >> 32);
 2564              	 .loc 1 1335 0 discriminator 1
 2565 0b6e 07F58873 	 add r3,r7,#272
 2566 0b72 D3E90023 	 ldrd r2,[r3]
 2567 0b76 1900     	 movs r1,r3
 2568 0b78 3960     	 str r1,[r7]
 2569 0b7a DB17     	 asrs r3,r3,#31
 2570 0b7c 7B60     	 str r3,[r7,#4]
 2571 0b7e 3B68     	 ldr r3,[r7]
 2572 0b80 C7F80831 	 str r3,[r7,#264]
1336:../Dave/Generated/CMSIS_DSP/TransformFunctions/arm_cfft_radix4_q31.c **** 
1337:../Dave/Generated/CMSIS_DSP/TransformFunctions/arm_cfft_radix4_q31.c **** #else
1338:../Dave/Generated/CMSIS_DSP/TransformFunctions/arm_cfft_radix4_q31.c **** 
1339:../Dave/Generated/CMSIS_DSP/TransformFunctions/arm_cfft_radix4_q31.c ****     /* Read xa (real), ya(imag) input */
1340:../Dave/Generated/CMSIS_DSP/TransformFunctions/arm_cfft_radix4_q31.c ****     xaya = *__SIMD64(ptr1)++;
1341:../Dave/Generated/CMSIS_DSP/TransformFunctions/arm_cfft_radix4_q31.c ****     ya = (q31_t) xaya;
1342:../Dave/Generated/CMSIS_DSP/TransformFunctions/arm_cfft_radix4_q31.c ****     xa = (q31_t) (xaya >> 32);
1343:../Dave/Generated/CMSIS_DSP/TransformFunctions/arm_cfft_radix4_q31.c **** 
1344:../Dave/Generated/CMSIS_DSP/TransformFunctions/arm_cfft_radix4_q31.c ****     /* Read xb (real), yb(imag) input */
1345:../Dave/Generated/CMSIS_DSP/TransformFunctions/arm_cfft_radix4_q31.c ****     xbyb = *__SIMD64(ptr1)++;
