   1              	 .syntax unified
   2              	 .cpu cortex-m4
   3              	 .eabi_attribute 27,3
   4              	 .fpu fpv4-sp-d16
   5              	 .eabi_attribute 20,1
   6              	 .eabi_attribute 21,1
   7              	 .eabi_attribute 23,3
   8              	 .eabi_attribute 24,1
   9              	 .eabi_attribute 25,1
  10              	 .eabi_attribute 26,1
  11              	 .eabi_attribute 30,6
  12              	 .eabi_attribute 34,1
  13              	 .eabi_attribute 18,4
  14              	 .thumb
  15              	 .file "arm_float_to_q31.c"
  16              	 .text
  17              	.Ltext0:
  18              	 .cfi_sections .debug_frame
  19              	 .section .text.clip_q63_to_q31,"ax",%progbits
  20              	 .align 2
  21              	 .thumb
  22              	 .thumb_func
  24              	clip_q63_to_q31:
  25              	.LFB106:
  26              	 .file 1 "C:/Workspaces/DAVE-4.3/WS_2016_09_02/Flightcontroller_PWM_CopterRocks_Working/Dave/Generated/CMSIS_DSP/arm_math.h"
   1:C:/Workspaces/DAVE-4.3/WS_2016_09_02/Flightcontroller_PWM_CopterRocks_Working/Dave/Generated/CMSIS_DSP\arm_math.h **** /* ----------------------------------------------------------------------
   2:C:/Workspaces/DAVE-4.3/WS_2016_09_02/Flightcontroller_PWM_CopterRocks_Working/Dave/Generated/CMSIS_DSP\arm_math.h **** * Copyright (C) 2010-2015 ARM Limited. All rights reserved.
   3:C:/Workspaces/DAVE-4.3/WS_2016_09_02/Flightcontroller_PWM_CopterRocks_Working/Dave/Generated/CMSIS_DSP\arm_math.h **** *
   4:C:/Workspaces/DAVE-4.3/WS_2016_09_02/Flightcontroller_PWM_CopterRocks_Working/Dave/Generated/CMSIS_DSP\arm_math.h **** * $Date:        20. October 2015
   5:C:/Workspaces/DAVE-4.3/WS_2016_09_02/Flightcontroller_PWM_CopterRocks_Working/Dave/Generated/CMSIS_DSP\arm_math.h **** * $Revision:    V1.4.5 b
   6:C:/Workspaces/DAVE-4.3/WS_2016_09_02/Flightcontroller_PWM_CopterRocks_Working/Dave/Generated/CMSIS_DSP\arm_math.h **** *
   7:C:/Workspaces/DAVE-4.3/WS_2016_09_02/Flightcontroller_PWM_CopterRocks_Working/Dave/Generated/CMSIS_DSP\arm_math.h **** * Project:      CMSIS DSP Library
   8:C:/Workspaces/DAVE-4.3/WS_2016_09_02/Flightcontroller_PWM_CopterRocks_Working/Dave/Generated/CMSIS_DSP\arm_math.h **** * Title:        arm_math.h
   9:C:/Workspaces/DAVE-4.3/WS_2016_09_02/Flightcontroller_PWM_CopterRocks_Working/Dave/Generated/CMSIS_DSP\arm_math.h **** *
  10:C:/Workspaces/DAVE-4.3/WS_2016_09_02/Flightcontroller_PWM_CopterRocks_Working/Dave/Generated/CMSIS_DSP\arm_math.h **** * Description:  Public header file for CMSIS DSP Library
  11:C:/Workspaces/DAVE-4.3/WS_2016_09_02/Flightcontroller_PWM_CopterRocks_Working/Dave/Generated/CMSIS_DSP\arm_math.h **** *
  12:C:/Workspaces/DAVE-4.3/WS_2016_09_02/Flightcontroller_PWM_CopterRocks_Working/Dave/Generated/CMSIS_DSP\arm_math.h **** * Target Processor: Cortex-M7/Cortex-M4/Cortex-M3/Cortex-M0
  13:C:/Workspaces/DAVE-4.3/WS_2016_09_02/Flightcontroller_PWM_CopterRocks_Working/Dave/Generated/CMSIS_DSP\arm_math.h **** *
  14:C:/Workspaces/DAVE-4.3/WS_2016_09_02/Flightcontroller_PWM_CopterRocks_Working/Dave/Generated/CMSIS_DSP\arm_math.h **** * Redistribution and use in source and binary forms, with or without
  15:C:/Workspaces/DAVE-4.3/WS_2016_09_02/Flightcontroller_PWM_CopterRocks_Working/Dave/Generated/CMSIS_DSP\arm_math.h **** * modification, are permitted provided that the following conditions
  16:C:/Workspaces/DAVE-4.3/WS_2016_09_02/Flightcontroller_PWM_CopterRocks_Working/Dave/Generated/CMSIS_DSP\arm_math.h **** * are met:
  17:C:/Workspaces/DAVE-4.3/WS_2016_09_02/Flightcontroller_PWM_CopterRocks_Working/Dave/Generated/CMSIS_DSP\arm_math.h **** *   - Redistributions of source code must retain the above copyright
  18:C:/Workspaces/DAVE-4.3/WS_2016_09_02/Flightcontroller_PWM_CopterRocks_Working/Dave/Generated/CMSIS_DSP\arm_math.h **** *     notice, this list of conditions and the following disclaimer.
  19:C:/Workspaces/DAVE-4.3/WS_2016_09_02/Flightcontroller_PWM_CopterRocks_Working/Dave/Generated/CMSIS_DSP\arm_math.h **** *   - Redistributions in binary form must reproduce the above copyright
  20:C:/Workspaces/DAVE-4.3/WS_2016_09_02/Flightcontroller_PWM_CopterRocks_Working/Dave/Generated/CMSIS_DSP\arm_math.h **** *     notice, this list of conditions and the following disclaimer in
  21:C:/Workspaces/DAVE-4.3/WS_2016_09_02/Flightcontroller_PWM_CopterRocks_Working/Dave/Generated/CMSIS_DSP\arm_math.h **** *     the documentation and/or other materials provided with the
  22:C:/Workspaces/DAVE-4.3/WS_2016_09_02/Flightcontroller_PWM_CopterRocks_Working/Dave/Generated/CMSIS_DSP\arm_math.h **** *     distribution.
  23:C:/Workspaces/DAVE-4.3/WS_2016_09_02/Flightcontroller_PWM_CopterRocks_Working/Dave/Generated/CMSIS_DSP\arm_math.h **** *   - Neither the name of ARM LIMITED nor the names of its contributors
  24:C:/Workspaces/DAVE-4.3/WS_2016_09_02/Flightcontroller_PWM_CopterRocks_Working/Dave/Generated/CMSIS_DSP\arm_math.h **** *     may be used to endorse or promote products derived from this
  25:C:/Workspaces/DAVE-4.3/WS_2016_09_02/Flightcontroller_PWM_CopterRocks_Working/Dave/Generated/CMSIS_DSP\arm_math.h **** *     software without specific prior written permission.
  26:C:/Workspaces/DAVE-4.3/WS_2016_09_02/Flightcontroller_PWM_CopterRocks_Working/Dave/Generated/CMSIS_DSP\arm_math.h **** *
  27:C:/Workspaces/DAVE-4.3/WS_2016_09_02/Flightcontroller_PWM_CopterRocks_Working/Dave/Generated/CMSIS_DSP\arm_math.h **** * THIS SOFTWARE IS PROVIDED BY THE COPYRIGHT HOLDERS AND CONTRIBUTORS
  28:C:/Workspaces/DAVE-4.3/WS_2016_09_02/Flightcontroller_PWM_CopterRocks_Working/Dave/Generated/CMSIS_DSP\arm_math.h **** * "AS IS" AND ANY EXPRESS OR IMPLIED WARRANTIES, INCLUDING, BUT NOT
  29:C:/Workspaces/DAVE-4.3/WS_2016_09_02/Flightcontroller_PWM_CopterRocks_Working/Dave/Generated/CMSIS_DSP\arm_math.h **** * LIMITED TO, THE IMPLIED WARRANTIES OF MERCHANTABILITY AND FITNESS
  30:C:/Workspaces/DAVE-4.3/WS_2016_09_02/Flightcontroller_PWM_CopterRocks_Working/Dave/Generated/CMSIS_DSP\arm_math.h **** * FOR A PARTICULAR PURPOSE ARE DISCLAIMED. IN NO EVENT SHALL THE
  31:C:/Workspaces/DAVE-4.3/WS_2016_09_02/Flightcontroller_PWM_CopterRocks_Working/Dave/Generated/CMSIS_DSP\arm_math.h **** * COPYRIGHT OWNER OR CONTRIBUTORS BE LIABLE FOR ANY DIRECT, INDIRECT,
  32:C:/Workspaces/DAVE-4.3/WS_2016_09_02/Flightcontroller_PWM_CopterRocks_Working/Dave/Generated/CMSIS_DSP\arm_math.h **** * INCIDENTAL, SPECIAL, EXEMPLARY, OR CONSEQUENTIAL DAMAGES (INCLUDING,
  33:C:/Workspaces/DAVE-4.3/WS_2016_09_02/Flightcontroller_PWM_CopterRocks_Working/Dave/Generated/CMSIS_DSP\arm_math.h **** * BUT NOT LIMITED TO, PROCUREMENT OF SUBSTITUTE GOODS OR SERVICES;
  34:C:/Workspaces/DAVE-4.3/WS_2016_09_02/Flightcontroller_PWM_CopterRocks_Working/Dave/Generated/CMSIS_DSP\arm_math.h **** * LOSS OF USE, DATA, OR PROFITS; OR BUSINESS INTERRUPTION) HOWEVER
  35:C:/Workspaces/DAVE-4.3/WS_2016_09_02/Flightcontroller_PWM_CopterRocks_Working/Dave/Generated/CMSIS_DSP\arm_math.h **** * CAUSED AND ON ANY THEORY OF LIABILITY, WHETHER IN CONTRACT, STRICT
  36:C:/Workspaces/DAVE-4.3/WS_2016_09_02/Flightcontroller_PWM_CopterRocks_Working/Dave/Generated/CMSIS_DSP\arm_math.h **** * LIABILITY, OR TORT (INCLUDING NEGLIGENCE OR OTHERWISE) ARISING IN
  37:C:/Workspaces/DAVE-4.3/WS_2016_09_02/Flightcontroller_PWM_CopterRocks_Working/Dave/Generated/CMSIS_DSP\arm_math.h **** * ANY WAY OUT OF THE USE OF THIS SOFTWARE, EVEN IF ADVISED OF THE
  38:C:/Workspaces/DAVE-4.3/WS_2016_09_02/Flightcontroller_PWM_CopterRocks_Working/Dave/Generated/CMSIS_DSP\arm_math.h **** * POSSIBILITY OF SUCH DAMAGE.
  39:C:/Workspaces/DAVE-4.3/WS_2016_09_02/Flightcontroller_PWM_CopterRocks_Working/Dave/Generated/CMSIS_DSP\arm_math.h ****  * -------------------------------------------------------------------- */
  40:C:/Workspaces/DAVE-4.3/WS_2016_09_02/Flightcontroller_PWM_CopterRocks_Working/Dave/Generated/CMSIS_DSP\arm_math.h **** 
  41:C:/Workspaces/DAVE-4.3/WS_2016_09_02/Flightcontroller_PWM_CopterRocks_Working/Dave/Generated/CMSIS_DSP\arm_math.h **** /**
  42:C:/Workspaces/DAVE-4.3/WS_2016_09_02/Flightcontroller_PWM_CopterRocks_Working/Dave/Generated/CMSIS_DSP\arm_math.h ****    \mainpage CMSIS DSP Software Library
  43:C:/Workspaces/DAVE-4.3/WS_2016_09_02/Flightcontroller_PWM_CopterRocks_Working/Dave/Generated/CMSIS_DSP\arm_math.h ****    *
  44:C:/Workspaces/DAVE-4.3/WS_2016_09_02/Flightcontroller_PWM_CopterRocks_Working/Dave/Generated/CMSIS_DSP\arm_math.h ****    * Introduction
  45:C:/Workspaces/DAVE-4.3/WS_2016_09_02/Flightcontroller_PWM_CopterRocks_Working/Dave/Generated/CMSIS_DSP\arm_math.h ****    * ------------
  46:C:/Workspaces/DAVE-4.3/WS_2016_09_02/Flightcontroller_PWM_CopterRocks_Working/Dave/Generated/CMSIS_DSP\arm_math.h ****    *
  47:C:/Workspaces/DAVE-4.3/WS_2016_09_02/Flightcontroller_PWM_CopterRocks_Working/Dave/Generated/CMSIS_DSP\arm_math.h ****    * This user manual describes the CMSIS DSP software library,
  48:C:/Workspaces/DAVE-4.3/WS_2016_09_02/Flightcontroller_PWM_CopterRocks_Working/Dave/Generated/CMSIS_DSP\arm_math.h ****    * a suite of common signal processing functions for use on Cortex-M processor based devices.
  49:C:/Workspaces/DAVE-4.3/WS_2016_09_02/Flightcontroller_PWM_CopterRocks_Working/Dave/Generated/CMSIS_DSP\arm_math.h ****    *
  50:C:/Workspaces/DAVE-4.3/WS_2016_09_02/Flightcontroller_PWM_CopterRocks_Working/Dave/Generated/CMSIS_DSP\arm_math.h ****    * The library is divided into a number of functions each covering a specific category:
  51:C:/Workspaces/DAVE-4.3/WS_2016_09_02/Flightcontroller_PWM_CopterRocks_Working/Dave/Generated/CMSIS_DSP\arm_math.h ****    * - Basic math functions
  52:C:/Workspaces/DAVE-4.3/WS_2016_09_02/Flightcontroller_PWM_CopterRocks_Working/Dave/Generated/CMSIS_DSP\arm_math.h ****    * - Fast math functions
  53:C:/Workspaces/DAVE-4.3/WS_2016_09_02/Flightcontroller_PWM_CopterRocks_Working/Dave/Generated/CMSIS_DSP\arm_math.h ****    * - Complex math functions
  54:C:/Workspaces/DAVE-4.3/WS_2016_09_02/Flightcontroller_PWM_CopterRocks_Working/Dave/Generated/CMSIS_DSP\arm_math.h ****    * - Filters
  55:C:/Workspaces/DAVE-4.3/WS_2016_09_02/Flightcontroller_PWM_CopterRocks_Working/Dave/Generated/CMSIS_DSP\arm_math.h ****    * - Matrix functions
  56:C:/Workspaces/DAVE-4.3/WS_2016_09_02/Flightcontroller_PWM_CopterRocks_Working/Dave/Generated/CMSIS_DSP\arm_math.h ****    * - Transforms
  57:C:/Workspaces/DAVE-4.3/WS_2016_09_02/Flightcontroller_PWM_CopterRocks_Working/Dave/Generated/CMSIS_DSP\arm_math.h ****    * - Motor control functions
  58:C:/Workspaces/DAVE-4.3/WS_2016_09_02/Flightcontroller_PWM_CopterRocks_Working/Dave/Generated/CMSIS_DSP\arm_math.h ****    * - Statistical functions
  59:C:/Workspaces/DAVE-4.3/WS_2016_09_02/Flightcontroller_PWM_CopterRocks_Working/Dave/Generated/CMSIS_DSP\arm_math.h ****    * - Support functions
  60:C:/Workspaces/DAVE-4.3/WS_2016_09_02/Flightcontroller_PWM_CopterRocks_Working/Dave/Generated/CMSIS_DSP\arm_math.h ****    * - Interpolation functions
  61:C:/Workspaces/DAVE-4.3/WS_2016_09_02/Flightcontroller_PWM_CopterRocks_Working/Dave/Generated/CMSIS_DSP\arm_math.h ****    *
  62:C:/Workspaces/DAVE-4.3/WS_2016_09_02/Flightcontroller_PWM_CopterRocks_Working/Dave/Generated/CMSIS_DSP\arm_math.h ****    * The library has separate functions for operating on 8-bit integers, 16-bit integers,
  63:C:/Workspaces/DAVE-4.3/WS_2016_09_02/Flightcontroller_PWM_CopterRocks_Working/Dave/Generated/CMSIS_DSP\arm_math.h ****    * 32-bit integer and 32-bit floating-point values.
  64:C:/Workspaces/DAVE-4.3/WS_2016_09_02/Flightcontroller_PWM_CopterRocks_Working/Dave/Generated/CMSIS_DSP\arm_math.h ****    *
  65:C:/Workspaces/DAVE-4.3/WS_2016_09_02/Flightcontroller_PWM_CopterRocks_Working/Dave/Generated/CMSIS_DSP\arm_math.h ****    * Using the Library
  66:C:/Workspaces/DAVE-4.3/WS_2016_09_02/Flightcontroller_PWM_CopterRocks_Working/Dave/Generated/CMSIS_DSP\arm_math.h ****    * ------------
  67:C:/Workspaces/DAVE-4.3/WS_2016_09_02/Flightcontroller_PWM_CopterRocks_Working/Dave/Generated/CMSIS_DSP\arm_math.h ****    *
  68:C:/Workspaces/DAVE-4.3/WS_2016_09_02/Flightcontroller_PWM_CopterRocks_Working/Dave/Generated/CMSIS_DSP\arm_math.h ****    * The library installer contains prebuilt versions of the libraries in the <code>Lib</code> fold
  69:C:/Workspaces/DAVE-4.3/WS_2016_09_02/Flightcontroller_PWM_CopterRocks_Working/Dave/Generated/CMSIS_DSP\arm_math.h ****    * - arm_cortexM7lfdp_math.lib (Little endian and Double Precision Floating Point Unit on Cortex-
  70:C:/Workspaces/DAVE-4.3/WS_2016_09_02/Flightcontroller_PWM_CopterRocks_Working/Dave/Generated/CMSIS_DSP\arm_math.h ****    * - arm_cortexM7bfdp_math.lib (Big endian and Double Precision Floating Point Unit on Cortex-M7)
  71:C:/Workspaces/DAVE-4.3/WS_2016_09_02/Flightcontroller_PWM_CopterRocks_Working/Dave/Generated/CMSIS_DSP\arm_math.h ****    * - arm_cortexM7lfsp_math.lib (Little endian and Single Precision Floating Point Unit on Cortex-
  72:C:/Workspaces/DAVE-4.3/WS_2016_09_02/Flightcontroller_PWM_CopterRocks_Working/Dave/Generated/CMSIS_DSP\arm_math.h ****    * - arm_cortexM7bfsp_math.lib (Big endian and Single Precision Floating Point Unit on Cortex-M7)
  73:C:/Workspaces/DAVE-4.3/WS_2016_09_02/Flightcontroller_PWM_CopterRocks_Working/Dave/Generated/CMSIS_DSP\arm_math.h ****    * - arm_cortexM7l_math.lib (Little endian on Cortex-M7)
  74:C:/Workspaces/DAVE-4.3/WS_2016_09_02/Flightcontroller_PWM_CopterRocks_Working/Dave/Generated/CMSIS_DSP\arm_math.h ****    * - arm_cortexM7b_math.lib (Big endian on Cortex-M7)
  75:C:/Workspaces/DAVE-4.3/WS_2016_09_02/Flightcontroller_PWM_CopterRocks_Working/Dave/Generated/CMSIS_DSP\arm_math.h ****    * - arm_cortexM4lf_math.lib (Little endian and Floating Point Unit on Cortex-M4)
  76:C:/Workspaces/DAVE-4.3/WS_2016_09_02/Flightcontroller_PWM_CopterRocks_Working/Dave/Generated/CMSIS_DSP\arm_math.h ****    * - arm_cortexM4bf_math.lib (Big endian and Floating Point Unit on Cortex-M4)
  77:C:/Workspaces/DAVE-4.3/WS_2016_09_02/Flightcontroller_PWM_CopterRocks_Working/Dave/Generated/CMSIS_DSP\arm_math.h ****    * - arm_cortexM4l_math.lib (Little endian on Cortex-M4)
  78:C:/Workspaces/DAVE-4.3/WS_2016_09_02/Flightcontroller_PWM_CopterRocks_Working/Dave/Generated/CMSIS_DSP\arm_math.h ****    * - arm_cortexM4b_math.lib (Big endian on Cortex-M4)
  79:C:/Workspaces/DAVE-4.3/WS_2016_09_02/Flightcontroller_PWM_CopterRocks_Working/Dave/Generated/CMSIS_DSP\arm_math.h ****    * - arm_cortexM3l_math.lib (Little endian on Cortex-M3)
  80:C:/Workspaces/DAVE-4.3/WS_2016_09_02/Flightcontroller_PWM_CopterRocks_Working/Dave/Generated/CMSIS_DSP\arm_math.h ****    * - arm_cortexM3b_math.lib (Big endian on Cortex-M3)
  81:C:/Workspaces/DAVE-4.3/WS_2016_09_02/Flightcontroller_PWM_CopterRocks_Working/Dave/Generated/CMSIS_DSP\arm_math.h ****    * - arm_cortexM0l_math.lib (Little endian on Cortex-M0 / CortexM0+)
  82:C:/Workspaces/DAVE-4.3/WS_2016_09_02/Flightcontroller_PWM_CopterRocks_Working/Dave/Generated/CMSIS_DSP\arm_math.h ****    * - arm_cortexM0b_math.lib (Big endian on Cortex-M0 / CortexM0+)
  83:C:/Workspaces/DAVE-4.3/WS_2016_09_02/Flightcontroller_PWM_CopterRocks_Working/Dave/Generated/CMSIS_DSP\arm_math.h ****    *
  84:C:/Workspaces/DAVE-4.3/WS_2016_09_02/Flightcontroller_PWM_CopterRocks_Working/Dave/Generated/CMSIS_DSP\arm_math.h ****    * The library functions are declared in the public file <code>arm_math.h</code> which is placed 
  85:C:/Workspaces/DAVE-4.3/WS_2016_09_02/Flightcontroller_PWM_CopterRocks_Working/Dave/Generated/CMSIS_DSP\arm_math.h ****    * Simply include this file and link the appropriate library in the application and begin calling
  86:C:/Workspaces/DAVE-4.3/WS_2016_09_02/Flightcontroller_PWM_CopterRocks_Working/Dave/Generated/CMSIS_DSP\arm_math.h ****    * public header file <code> arm_math.h</code> for Cortex-M7/M4/M3/M0/M0+ with little endian and 
  87:C:/Workspaces/DAVE-4.3/WS_2016_09_02/Flightcontroller_PWM_CopterRocks_Working/Dave/Generated/CMSIS_DSP\arm_math.h ****    * Define the appropriate pre processor MACRO ARM_MATH_CM7 or ARM_MATH_CM4 or  ARM_MATH_CM3 or
  88:C:/Workspaces/DAVE-4.3/WS_2016_09_02/Flightcontroller_PWM_CopterRocks_Working/Dave/Generated/CMSIS_DSP\arm_math.h ****    * ARM_MATH_CM0 or ARM_MATH_CM0PLUS depending on the target processor in the application.
  89:C:/Workspaces/DAVE-4.3/WS_2016_09_02/Flightcontroller_PWM_CopterRocks_Working/Dave/Generated/CMSIS_DSP\arm_math.h ****    *
  90:C:/Workspaces/DAVE-4.3/WS_2016_09_02/Flightcontroller_PWM_CopterRocks_Working/Dave/Generated/CMSIS_DSP\arm_math.h ****    * Examples
  91:C:/Workspaces/DAVE-4.3/WS_2016_09_02/Flightcontroller_PWM_CopterRocks_Working/Dave/Generated/CMSIS_DSP\arm_math.h ****    * --------
  92:C:/Workspaces/DAVE-4.3/WS_2016_09_02/Flightcontroller_PWM_CopterRocks_Working/Dave/Generated/CMSIS_DSP\arm_math.h ****    *
  93:C:/Workspaces/DAVE-4.3/WS_2016_09_02/Flightcontroller_PWM_CopterRocks_Working/Dave/Generated/CMSIS_DSP\arm_math.h ****    * The library ships with a number of examples which demonstrate how to use the library functions
  94:C:/Workspaces/DAVE-4.3/WS_2016_09_02/Flightcontroller_PWM_CopterRocks_Working/Dave/Generated/CMSIS_DSP\arm_math.h ****    *
  95:C:/Workspaces/DAVE-4.3/WS_2016_09_02/Flightcontroller_PWM_CopterRocks_Working/Dave/Generated/CMSIS_DSP\arm_math.h ****    * Toolchain Support
  96:C:/Workspaces/DAVE-4.3/WS_2016_09_02/Flightcontroller_PWM_CopterRocks_Working/Dave/Generated/CMSIS_DSP\arm_math.h ****    * ------------
  97:C:/Workspaces/DAVE-4.3/WS_2016_09_02/Flightcontroller_PWM_CopterRocks_Working/Dave/Generated/CMSIS_DSP\arm_math.h ****    *
  98:C:/Workspaces/DAVE-4.3/WS_2016_09_02/Flightcontroller_PWM_CopterRocks_Working/Dave/Generated/CMSIS_DSP\arm_math.h ****    * The library has been developed and tested with MDK-ARM version 5.14.0.0
  99:C:/Workspaces/DAVE-4.3/WS_2016_09_02/Flightcontroller_PWM_CopterRocks_Working/Dave/Generated/CMSIS_DSP\arm_math.h ****    * The library is being tested in GCC and IAR toolchains and updates on this activity will be mad
 100:C:/Workspaces/DAVE-4.3/WS_2016_09_02/Flightcontroller_PWM_CopterRocks_Working/Dave/Generated/CMSIS_DSP\arm_math.h ****    *
 101:C:/Workspaces/DAVE-4.3/WS_2016_09_02/Flightcontroller_PWM_CopterRocks_Working/Dave/Generated/CMSIS_DSP\arm_math.h ****    * Building the Library
 102:C:/Workspaces/DAVE-4.3/WS_2016_09_02/Flightcontroller_PWM_CopterRocks_Working/Dave/Generated/CMSIS_DSP\arm_math.h ****    * ------------
 103:C:/Workspaces/DAVE-4.3/WS_2016_09_02/Flightcontroller_PWM_CopterRocks_Working/Dave/Generated/CMSIS_DSP\arm_math.h ****    *
 104:C:/Workspaces/DAVE-4.3/WS_2016_09_02/Flightcontroller_PWM_CopterRocks_Working/Dave/Generated/CMSIS_DSP\arm_math.h ****    * The library installer contains a project file to re build libraries on MDK-ARM Tool chain in t
 105:C:/Workspaces/DAVE-4.3/WS_2016_09_02/Flightcontroller_PWM_CopterRocks_Working/Dave/Generated/CMSIS_DSP\arm_math.h ****    * - arm_cortexM_math.uvprojx
 106:C:/Workspaces/DAVE-4.3/WS_2016_09_02/Flightcontroller_PWM_CopterRocks_Working/Dave/Generated/CMSIS_DSP\arm_math.h ****    *
 107:C:/Workspaces/DAVE-4.3/WS_2016_09_02/Flightcontroller_PWM_CopterRocks_Working/Dave/Generated/CMSIS_DSP\arm_math.h ****    *
 108:C:/Workspaces/DAVE-4.3/WS_2016_09_02/Flightcontroller_PWM_CopterRocks_Working/Dave/Generated/CMSIS_DSP\arm_math.h ****    * The libraries can be built by opening the arm_cortexM_math.uvprojx project in MDK-ARM, selecti
 109:C:/Workspaces/DAVE-4.3/WS_2016_09_02/Flightcontroller_PWM_CopterRocks_Working/Dave/Generated/CMSIS_DSP\arm_math.h ****    *
 110:C:/Workspaces/DAVE-4.3/WS_2016_09_02/Flightcontroller_PWM_CopterRocks_Working/Dave/Generated/CMSIS_DSP\arm_math.h ****    * Pre-processor Macros
 111:C:/Workspaces/DAVE-4.3/WS_2016_09_02/Flightcontroller_PWM_CopterRocks_Working/Dave/Generated/CMSIS_DSP\arm_math.h ****    * ------------
 112:C:/Workspaces/DAVE-4.3/WS_2016_09_02/Flightcontroller_PWM_CopterRocks_Working/Dave/Generated/CMSIS_DSP\arm_math.h ****    *
 113:C:/Workspaces/DAVE-4.3/WS_2016_09_02/Flightcontroller_PWM_CopterRocks_Working/Dave/Generated/CMSIS_DSP\arm_math.h ****    * Each library project have differant pre-processor macros.
 114:C:/Workspaces/DAVE-4.3/WS_2016_09_02/Flightcontroller_PWM_CopterRocks_Working/Dave/Generated/CMSIS_DSP\arm_math.h ****    *
 115:C:/Workspaces/DAVE-4.3/WS_2016_09_02/Flightcontroller_PWM_CopterRocks_Working/Dave/Generated/CMSIS_DSP\arm_math.h ****    * - UNALIGNED_SUPPORT_DISABLE:
 116:C:/Workspaces/DAVE-4.3/WS_2016_09_02/Flightcontroller_PWM_CopterRocks_Working/Dave/Generated/CMSIS_DSP\arm_math.h ****    *
 117:C:/Workspaces/DAVE-4.3/WS_2016_09_02/Flightcontroller_PWM_CopterRocks_Working/Dave/Generated/CMSIS_DSP\arm_math.h ****    * Define macro UNALIGNED_SUPPORT_DISABLE, If the silicon does not support unaligned memory acces
 118:C:/Workspaces/DAVE-4.3/WS_2016_09_02/Flightcontroller_PWM_CopterRocks_Working/Dave/Generated/CMSIS_DSP\arm_math.h ****    *
 119:C:/Workspaces/DAVE-4.3/WS_2016_09_02/Flightcontroller_PWM_CopterRocks_Working/Dave/Generated/CMSIS_DSP\arm_math.h ****    * - ARM_MATH_BIG_ENDIAN:
 120:C:/Workspaces/DAVE-4.3/WS_2016_09_02/Flightcontroller_PWM_CopterRocks_Working/Dave/Generated/CMSIS_DSP\arm_math.h ****    *
 121:C:/Workspaces/DAVE-4.3/WS_2016_09_02/Flightcontroller_PWM_CopterRocks_Working/Dave/Generated/CMSIS_DSP\arm_math.h ****    * Define macro ARM_MATH_BIG_ENDIAN to build the library for big endian targets. By default libra
 122:C:/Workspaces/DAVE-4.3/WS_2016_09_02/Flightcontroller_PWM_CopterRocks_Working/Dave/Generated/CMSIS_DSP\arm_math.h ****    *
 123:C:/Workspaces/DAVE-4.3/WS_2016_09_02/Flightcontroller_PWM_CopterRocks_Working/Dave/Generated/CMSIS_DSP\arm_math.h ****    * - ARM_MATH_MATRIX_CHECK:
 124:C:/Workspaces/DAVE-4.3/WS_2016_09_02/Flightcontroller_PWM_CopterRocks_Working/Dave/Generated/CMSIS_DSP\arm_math.h ****    *
 125:C:/Workspaces/DAVE-4.3/WS_2016_09_02/Flightcontroller_PWM_CopterRocks_Working/Dave/Generated/CMSIS_DSP\arm_math.h ****    * Define macro ARM_MATH_MATRIX_CHECK for checking on the input and output sizes of matrices
 126:C:/Workspaces/DAVE-4.3/WS_2016_09_02/Flightcontroller_PWM_CopterRocks_Working/Dave/Generated/CMSIS_DSP\arm_math.h ****    *
 127:C:/Workspaces/DAVE-4.3/WS_2016_09_02/Flightcontroller_PWM_CopterRocks_Working/Dave/Generated/CMSIS_DSP\arm_math.h ****    * - ARM_MATH_ROUNDING:
 128:C:/Workspaces/DAVE-4.3/WS_2016_09_02/Flightcontroller_PWM_CopterRocks_Working/Dave/Generated/CMSIS_DSP\arm_math.h ****    *
 129:C:/Workspaces/DAVE-4.3/WS_2016_09_02/Flightcontroller_PWM_CopterRocks_Working/Dave/Generated/CMSIS_DSP\arm_math.h ****    * Define macro ARM_MATH_ROUNDING for rounding on support functions
 130:C:/Workspaces/DAVE-4.3/WS_2016_09_02/Flightcontroller_PWM_CopterRocks_Working/Dave/Generated/CMSIS_DSP\arm_math.h ****    *
 131:C:/Workspaces/DAVE-4.3/WS_2016_09_02/Flightcontroller_PWM_CopterRocks_Working/Dave/Generated/CMSIS_DSP\arm_math.h ****    * - ARM_MATH_CMx:
 132:C:/Workspaces/DAVE-4.3/WS_2016_09_02/Flightcontroller_PWM_CopterRocks_Working/Dave/Generated/CMSIS_DSP\arm_math.h ****    *
 133:C:/Workspaces/DAVE-4.3/WS_2016_09_02/Flightcontroller_PWM_CopterRocks_Working/Dave/Generated/CMSIS_DSP\arm_math.h ****    * Define macro ARM_MATH_CM4 for building the library on Cortex-M4 target, ARM_MATH_CM3 for build
 134:C:/Workspaces/DAVE-4.3/WS_2016_09_02/Flightcontroller_PWM_CopterRocks_Working/Dave/Generated/CMSIS_DSP\arm_math.h ****    * and ARM_MATH_CM0 for building library on Cortex-M0 target, ARM_MATH_CM0PLUS for building libra
 135:C:/Workspaces/DAVE-4.3/WS_2016_09_02/Flightcontroller_PWM_CopterRocks_Working/Dave/Generated/CMSIS_DSP\arm_math.h ****    * ARM_MATH_CM7 for building the library on cortex-M7.
 136:C:/Workspaces/DAVE-4.3/WS_2016_09_02/Flightcontroller_PWM_CopterRocks_Working/Dave/Generated/CMSIS_DSP\arm_math.h ****    *
 137:C:/Workspaces/DAVE-4.3/WS_2016_09_02/Flightcontroller_PWM_CopterRocks_Working/Dave/Generated/CMSIS_DSP\arm_math.h ****    * - __FPU_PRESENT:
 138:C:/Workspaces/DAVE-4.3/WS_2016_09_02/Flightcontroller_PWM_CopterRocks_Working/Dave/Generated/CMSIS_DSP\arm_math.h ****    *
 139:C:/Workspaces/DAVE-4.3/WS_2016_09_02/Flightcontroller_PWM_CopterRocks_Working/Dave/Generated/CMSIS_DSP\arm_math.h ****    * Initialize macro __FPU_PRESENT = 1 when building on FPU supported Targets. Enable this macro f
 140:C:/Workspaces/DAVE-4.3/WS_2016_09_02/Flightcontroller_PWM_CopterRocks_Working/Dave/Generated/CMSIS_DSP\arm_math.h ****    *
 141:C:/Workspaces/DAVE-4.3/WS_2016_09_02/Flightcontroller_PWM_CopterRocks_Working/Dave/Generated/CMSIS_DSP\arm_math.h ****    * <hr>
 142:C:/Workspaces/DAVE-4.3/WS_2016_09_02/Flightcontroller_PWM_CopterRocks_Working/Dave/Generated/CMSIS_DSP\arm_math.h ****    * CMSIS-DSP in ARM::CMSIS Pack
 143:C:/Workspaces/DAVE-4.3/WS_2016_09_02/Flightcontroller_PWM_CopterRocks_Working/Dave/Generated/CMSIS_DSP\arm_math.h ****    * -----------------------------
 144:C:/Workspaces/DAVE-4.3/WS_2016_09_02/Flightcontroller_PWM_CopterRocks_Working/Dave/Generated/CMSIS_DSP\arm_math.h ****    *
 145:C:/Workspaces/DAVE-4.3/WS_2016_09_02/Flightcontroller_PWM_CopterRocks_Working/Dave/Generated/CMSIS_DSP\arm_math.h ****    * The following files relevant to CMSIS-DSP are present in the <b>ARM::CMSIS</b> Pack directorie
 146:C:/Workspaces/DAVE-4.3/WS_2016_09_02/Flightcontroller_PWM_CopterRocks_Working/Dave/Generated/CMSIS_DSP\arm_math.h ****    * |File/Folder                   |Content                                                       
 147:C:/Workspaces/DAVE-4.3/WS_2016_09_02/Flightcontroller_PWM_CopterRocks_Working/Dave/Generated/CMSIS_DSP\arm_math.h ****    * |------------------------------|--------------------------------------------------------------
 148:C:/Workspaces/DAVE-4.3/WS_2016_09_02/Flightcontroller_PWM_CopterRocks_Working/Dave/Generated/CMSIS_DSP\arm_math.h ****    * |\b CMSIS\\Documentation\\DSP  | This documentation                                           
 149:C:/Workspaces/DAVE-4.3/WS_2016_09_02/Flightcontroller_PWM_CopterRocks_Working/Dave/Generated/CMSIS_DSP\arm_math.h ****    * |\b CMSIS\\DSP_Lib             | Software license agreement (license.txt)                     
 150:C:/Workspaces/DAVE-4.3/WS_2016_09_02/Flightcontroller_PWM_CopterRocks_Working/Dave/Generated/CMSIS_DSP\arm_math.h ****    * |\b CMSIS\\DSP_Lib\\Examples   | Example projects demonstrating the usage of the library funct
 151:C:/Workspaces/DAVE-4.3/WS_2016_09_02/Flightcontroller_PWM_CopterRocks_Working/Dave/Generated/CMSIS_DSP\arm_math.h ****    * |\b CMSIS\\DSP_Lib\\Source     | Source files for rebuilding the library                      
 152:C:/Workspaces/DAVE-4.3/WS_2016_09_02/Flightcontroller_PWM_CopterRocks_Working/Dave/Generated/CMSIS_DSP\arm_math.h ****    *
 153:C:/Workspaces/DAVE-4.3/WS_2016_09_02/Flightcontroller_PWM_CopterRocks_Working/Dave/Generated/CMSIS_DSP\arm_math.h ****    * <hr>
 154:C:/Workspaces/DAVE-4.3/WS_2016_09_02/Flightcontroller_PWM_CopterRocks_Working/Dave/Generated/CMSIS_DSP\arm_math.h ****    * Revision History of CMSIS-DSP
 155:C:/Workspaces/DAVE-4.3/WS_2016_09_02/Flightcontroller_PWM_CopterRocks_Working/Dave/Generated/CMSIS_DSP\arm_math.h ****    * ------------
 156:C:/Workspaces/DAVE-4.3/WS_2016_09_02/Flightcontroller_PWM_CopterRocks_Working/Dave/Generated/CMSIS_DSP\arm_math.h ****    * Please refer to \ref ChangeLog_pg.
 157:C:/Workspaces/DAVE-4.3/WS_2016_09_02/Flightcontroller_PWM_CopterRocks_Working/Dave/Generated/CMSIS_DSP\arm_math.h ****    *
 158:C:/Workspaces/DAVE-4.3/WS_2016_09_02/Flightcontroller_PWM_CopterRocks_Working/Dave/Generated/CMSIS_DSP\arm_math.h ****    * Copyright Notice
 159:C:/Workspaces/DAVE-4.3/WS_2016_09_02/Flightcontroller_PWM_CopterRocks_Working/Dave/Generated/CMSIS_DSP\arm_math.h ****    * ------------
 160:C:/Workspaces/DAVE-4.3/WS_2016_09_02/Flightcontroller_PWM_CopterRocks_Working/Dave/Generated/CMSIS_DSP\arm_math.h ****    *
 161:C:/Workspaces/DAVE-4.3/WS_2016_09_02/Flightcontroller_PWM_CopterRocks_Working/Dave/Generated/CMSIS_DSP\arm_math.h ****    * Copyright (C) 2010-2015 ARM Limited. All rights reserved.
 162:C:/Workspaces/DAVE-4.3/WS_2016_09_02/Flightcontroller_PWM_CopterRocks_Working/Dave/Generated/CMSIS_DSP\arm_math.h ****    */
 163:C:/Workspaces/DAVE-4.3/WS_2016_09_02/Flightcontroller_PWM_CopterRocks_Working/Dave/Generated/CMSIS_DSP\arm_math.h **** 
 164:C:/Workspaces/DAVE-4.3/WS_2016_09_02/Flightcontroller_PWM_CopterRocks_Working/Dave/Generated/CMSIS_DSP\arm_math.h **** 
 165:C:/Workspaces/DAVE-4.3/WS_2016_09_02/Flightcontroller_PWM_CopterRocks_Working/Dave/Generated/CMSIS_DSP\arm_math.h **** /**
 166:C:/Workspaces/DAVE-4.3/WS_2016_09_02/Flightcontroller_PWM_CopterRocks_Working/Dave/Generated/CMSIS_DSP\arm_math.h ****  * @defgroup groupMath Basic Math Functions
 167:C:/Workspaces/DAVE-4.3/WS_2016_09_02/Flightcontroller_PWM_CopterRocks_Working/Dave/Generated/CMSIS_DSP\arm_math.h ****  */
 168:C:/Workspaces/DAVE-4.3/WS_2016_09_02/Flightcontroller_PWM_CopterRocks_Working/Dave/Generated/CMSIS_DSP\arm_math.h **** 
 169:C:/Workspaces/DAVE-4.3/WS_2016_09_02/Flightcontroller_PWM_CopterRocks_Working/Dave/Generated/CMSIS_DSP\arm_math.h **** /**
 170:C:/Workspaces/DAVE-4.3/WS_2016_09_02/Flightcontroller_PWM_CopterRocks_Working/Dave/Generated/CMSIS_DSP\arm_math.h ****  * @defgroup groupFastMath Fast Math Functions
 171:C:/Workspaces/DAVE-4.3/WS_2016_09_02/Flightcontroller_PWM_CopterRocks_Working/Dave/Generated/CMSIS_DSP\arm_math.h ****  * This set of functions provides a fast approximation to sine, cosine, and square root.
 172:C:/Workspaces/DAVE-4.3/WS_2016_09_02/Flightcontroller_PWM_CopterRocks_Working/Dave/Generated/CMSIS_DSP\arm_math.h ****  * As compared to most of the other functions in the CMSIS math library, the fast math functions
 173:C:/Workspaces/DAVE-4.3/WS_2016_09_02/Flightcontroller_PWM_CopterRocks_Working/Dave/Generated/CMSIS_DSP\arm_math.h ****  * operate on individual values and not arrays.
 174:C:/Workspaces/DAVE-4.3/WS_2016_09_02/Flightcontroller_PWM_CopterRocks_Working/Dave/Generated/CMSIS_DSP\arm_math.h ****  * There are separate functions for Q15, Q31, and floating-point data.
 175:C:/Workspaces/DAVE-4.3/WS_2016_09_02/Flightcontroller_PWM_CopterRocks_Working/Dave/Generated/CMSIS_DSP\arm_math.h ****  *
 176:C:/Workspaces/DAVE-4.3/WS_2016_09_02/Flightcontroller_PWM_CopterRocks_Working/Dave/Generated/CMSIS_DSP\arm_math.h ****  */
 177:C:/Workspaces/DAVE-4.3/WS_2016_09_02/Flightcontroller_PWM_CopterRocks_Working/Dave/Generated/CMSIS_DSP\arm_math.h **** 
 178:C:/Workspaces/DAVE-4.3/WS_2016_09_02/Flightcontroller_PWM_CopterRocks_Working/Dave/Generated/CMSIS_DSP\arm_math.h **** /**
 179:C:/Workspaces/DAVE-4.3/WS_2016_09_02/Flightcontroller_PWM_CopterRocks_Working/Dave/Generated/CMSIS_DSP\arm_math.h ****  * @defgroup groupCmplxMath Complex Math Functions
 180:C:/Workspaces/DAVE-4.3/WS_2016_09_02/Flightcontroller_PWM_CopterRocks_Working/Dave/Generated/CMSIS_DSP\arm_math.h ****  * This set of functions operates on complex data vectors.
 181:C:/Workspaces/DAVE-4.3/WS_2016_09_02/Flightcontroller_PWM_CopterRocks_Working/Dave/Generated/CMSIS_DSP\arm_math.h ****  * The data in the complex arrays is stored in an interleaved fashion
 182:C:/Workspaces/DAVE-4.3/WS_2016_09_02/Flightcontroller_PWM_CopterRocks_Working/Dave/Generated/CMSIS_DSP\arm_math.h ****  * (real, imag, real, imag, ...).
 183:C:/Workspaces/DAVE-4.3/WS_2016_09_02/Flightcontroller_PWM_CopterRocks_Working/Dave/Generated/CMSIS_DSP\arm_math.h ****  * In the API functions, the number of samples in a complex array refers
 184:C:/Workspaces/DAVE-4.3/WS_2016_09_02/Flightcontroller_PWM_CopterRocks_Working/Dave/Generated/CMSIS_DSP\arm_math.h ****  * to the number of complex values; the array contains twice this number of
 185:C:/Workspaces/DAVE-4.3/WS_2016_09_02/Flightcontroller_PWM_CopterRocks_Working/Dave/Generated/CMSIS_DSP\arm_math.h ****  * real values.
 186:C:/Workspaces/DAVE-4.3/WS_2016_09_02/Flightcontroller_PWM_CopterRocks_Working/Dave/Generated/CMSIS_DSP\arm_math.h ****  */
 187:C:/Workspaces/DAVE-4.3/WS_2016_09_02/Flightcontroller_PWM_CopterRocks_Working/Dave/Generated/CMSIS_DSP\arm_math.h **** 
 188:C:/Workspaces/DAVE-4.3/WS_2016_09_02/Flightcontroller_PWM_CopterRocks_Working/Dave/Generated/CMSIS_DSP\arm_math.h **** /**
 189:C:/Workspaces/DAVE-4.3/WS_2016_09_02/Flightcontroller_PWM_CopterRocks_Working/Dave/Generated/CMSIS_DSP\arm_math.h ****  * @defgroup groupFilters Filtering Functions
 190:C:/Workspaces/DAVE-4.3/WS_2016_09_02/Flightcontroller_PWM_CopterRocks_Working/Dave/Generated/CMSIS_DSP\arm_math.h ****  */
 191:C:/Workspaces/DAVE-4.3/WS_2016_09_02/Flightcontroller_PWM_CopterRocks_Working/Dave/Generated/CMSIS_DSP\arm_math.h **** 
 192:C:/Workspaces/DAVE-4.3/WS_2016_09_02/Flightcontroller_PWM_CopterRocks_Working/Dave/Generated/CMSIS_DSP\arm_math.h **** /**
 193:C:/Workspaces/DAVE-4.3/WS_2016_09_02/Flightcontroller_PWM_CopterRocks_Working/Dave/Generated/CMSIS_DSP\arm_math.h ****  * @defgroup groupMatrix Matrix Functions
 194:C:/Workspaces/DAVE-4.3/WS_2016_09_02/Flightcontroller_PWM_CopterRocks_Working/Dave/Generated/CMSIS_DSP\arm_math.h ****  *
 195:C:/Workspaces/DAVE-4.3/WS_2016_09_02/Flightcontroller_PWM_CopterRocks_Working/Dave/Generated/CMSIS_DSP\arm_math.h ****  * This set of functions provides basic matrix math operations.
 196:C:/Workspaces/DAVE-4.3/WS_2016_09_02/Flightcontroller_PWM_CopterRocks_Working/Dave/Generated/CMSIS_DSP\arm_math.h ****  * The functions operate on matrix data structures.  For example,
 197:C:/Workspaces/DAVE-4.3/WS_2016_09_02/Flightcontroller_PWM_CopterRocks_Working/Dave/Generated/CMSIS_DSP\arm_math.h ****  * the type
 198:C:/Workspaces/DAVE-4.3/WS_2016_09_02/Flightcontroller_PWM_CopterRocks_Working/Dave/Generated/CMSIS_DSP\arm_math.h ****  * definition for the floating-point matrix structure is shown
 199:C:/Workspaces/DAVE-4.3/WS_2016_09_02/Flightcontroller_PWM_CopterRocks_Working/Dave/Generated/CMSIS_DSP\arm_math.h ****  * below:
 200:C:/Workspaces/DAVE-4.3/WS_2016_09_02/Flightcontroller_PWM_CopterRocks_Working/Dave/Generated/CMSIS_DSP\arm_math.h ****  * <pre>
 201:C:/Workspaces/DAVE-4.3/WS_2016_09_02/Flightcontroller_PWM_CopterRocks_Working/Dave/Generated/CMSIS_DSP\arm_math.h ****  *     typedef struct
 202:C:/Workspaces/DAVE-4.3/WS_2016_09_02/Flightcontroller_PWM_CopterRocks_Working/Dave/Generated/CMSIS_DSP\arm_math.h ****  *     {
 203:C:/Workspaces/DAVE-4.3/WS_2016_09_02/Flightcontroller_PWM_CopterRocks_Working/Dave/Generated/CMSIS_DSP\arm_math.h ****  *       uint16_t numRows;     // number of rows of the matrix.
 204:C:/Workspaces/DAVE-4.3/WS_2016_09_02/Flightcontroller_PWM_CopterRocks_Working/Dave/Generated/CMSIS_DSP\arm_math.h ****  *       uint16_t numCols;     // number of columns of the matrix.
 205:C:/Workspaces/DAVE-4.3/WS_2016_09_02/Flightcontroller_PWM_CopterRocks_Working/Dave/Generated/CMSIS_DSP\arm_math.h ****  *       float32_t *pData;     // points to the data of the matrix.
 206:C:/Workspaces/DAVE-4.3/WS_2016_09_02/Flightcontroller_PWM_CopterRocks_Working/Dave/Generated/CMSIS_DSP\arm_math.h ****  *     } arm_matrix_instance_f32;
 207:C:/Workspaces/DAVE-4.3/WS_2016_09_02/Flightcontroller_PWM_CopterRocks_Working/Dave/Generated/CMSIS_DSP\arm_math.h ****  * </pre>
 208:C:/Workspaces/DAVE-4.3/WS_2016_09_02/Flightcontroller_PWM_CopterRocks_Working/Dave/Generated/CMSIS_DSP\arm_math.h ****  * There are similar definitions for Q15 and Q31 data types.
 209:C:/Workspaces/DAVE-4.3/WS_2016_09_02/Flightcontroller_PWM_CopterRocks_Working/Dave/Generated/CMSIS_DSP\arm_math.h ****  *
 210:C:/Workspaces/DAVE-4.3/WS_2016_09_02/Flightcontroller_PWM_CopterRocks_Working/Dave/Generated/CMSIS_DSP\arm_math.h ****  * The structure specifies the size of the matrix and then points to
 211:C:/Workspaces/DAVE-4.3/WS_2016_09_02/Flightcontroller_PWM_CopterRocks_Working/Dave/Generated/CMSIS_DSP\arm_math.h ****  * an array of data.  The array is of size <code>numRows X numCols</code>
 212:C:/Workspaces/DAVE-4.3/WS_2016_09_02/Flightcontroller_PWM_CopterRocks_Working/Dave/Generated/CMSIS_DSP\arm_math.h ****  * and the values are arranged in row order.  That is, the
 213:C:/Workspaces/DAVE-4.3/WS_2016_09_02/Flightcontroller_PWM_CopterRocks_Working/Dave/Generated/CMSIS_DSP\arm_math.h ****  * matrix element (i, j) is stored at:
 214:C:/Workspaces/DAVE-4.3/WS_2016_09_02/Flightcontroller_PWM_CopterRocks_Working/Dave/Generated/CMSIS_DSP\arm_math.h ****  * <pre>
 215:C:/Workspaces/DAVE-4.3/WS_2016_09_02/Flightcontroller_PWM_CopterRocks_Working/Dave/Generated/CMSIS_DSP\arm_math.h ****  *     pData[i*numCols + j]
 216:C:/Workspaces/DAVE-4.3/WS_2016_09_02/Flightcontroller_PWM_CopterRocks_Working/Dave/Generated/CMSIS_DSP\arm_math.h ****  * </pre>
 217:C:/Workspaces/DAVE-4.3/WS_2016_09_02/Flightcontroller_PWM_CopterRocks_Working/Dave/Generated/CMSIS_DSP\arm_math.h ****  *
 218:C:/Workspaces/DAVE-4.3/WS_2016_09_02/Flightcontroller_PWM_CopterRocks_Working/Dave/Generated/CMSIS_DSP\arm_math.h ****  * \par Init Functions
 219:C:/Workspaces/DAVE-4.3/WS_2016_09_02/Flightcontroller_PWM_CopterRocks_Working/Dave/Generated/CMSIS_DSP\arm_math.h ****  * There is an associated initialization function for each type of matrix
 220:C:/Workspaces/DAVE-4.3/WS_2016_09_02/Flightcontroller_PWM_CopterRocks_Working/Dave/Generated/CMSIS_DSP\arm_math.h ****  * data structure.
 221:C:/Workspaces/DAVE-4.3/WS_2016_09_02/Flightcontroller_PWM_CopterRocks_Working/Dave/Generated/CMSIS_DSP\arm_math.h ****  * The initialization function sets the values of the internal structure fields.
 222:C:/Workspaces/DAVE-4.3/WS_2016_09_02/Flightcontroller_PWM_CopterRocks_Working/Dave/Generated/CMSIS_DSP\arm_math.h ****  * Refer to the function <code>arm_mat_init_f32()</code>, <code>arm_mat_init_q31()</code>
 223:C:/Workspaces/DAVE-4.3/WS_2016_09_02/Flightcontroller_PWM_CopterRocks_Working/Dave/Generated/CMSIS_DSP\arm_math.h ****  * and <code>arm_mat_init_q15()</code> for floating-point, Q31 and Q15 types,  respectively.
 224:C:/Workspaces/DAVE-4.3/WS_2016_09_02/Flightcontroller_PWM_CopterRocks_Working/Dave/Generated/CMSIS_DSP\arm_math.h ****  *
 225:C:/Workspaces/DAVE-4.3/WS_2016_09_02/Flightcontroller_PWM_CopterRocks_Working/Dave/Generated/CMSIS_DSP\arm_math.h ****  * \par
 226:C:/Workspaces/DAVE-4.3/WS_2016_09_02/Flightcontroller_PWM_CopterRocks_Working/Dave/Generated/CMSIS_DSP\arm_math.h ****  * Use of the initialization function is optional. However, if initialization function is used
 227:C:/Workspaces/DAVE-4.3/WS_2016_09_02/Flightcontroller_PWM_CopterRocks_Working/Dave/Generated/CMSIS_DSP\arm_math.h ****  * then the instance structure cannot be placed into a const data section.
 228:C:/Workspaces/DAVE-4.3/WS_2016_09_02/Flightcontroller_PWM_CopterRocks_Working/Dave/Generated/CMSIS_DSP\arm_math.h ****  * To place the instance structure in a const data
 229:C:/Workspaces/DAVE-4.3/WS_2016_09_02/Flightcontroller_PWM_CopterRocks_Working/Dave/Generated/CMSIS_DSP\arm_math.h ****  * section, manually initialize the data structure.  For example:
 230:C:/Workspaces/DAVE-4.3/WS_2016_09_02/Flightcontroller_PWM_CopterRocks_Working/Dave/Generated/CMSIS_DSP\arm_math.h ****  * <pre>
 231:C:/Workspaces/DAVE-4.3/WS_2016_09_02/Flightcontroller_PWM_CopterRocks_Working/Dave/Generated/CMSIS_DSP\arm_math.h ****  * <code>arm_matrix_instance_f32 S = {nRows, nColumns, pData};</code>
 232:C:/Workspaces/DAVE-4.3/WS_2016_09_02/Flightcontroller_PWM_CopterRocks_Working/Dave/Generated/CMSIS_DSP\arm_math.h ****  * <code>arm_matrix_instance_q31 S = {nRows, nColumns, pData};</code>
 233:C:/Workspaces/DAVE-4.3/WS_2016_09_02/Flightcontroller_PWM_CopterRocks_Working/Dave/Generated/CMSIS_DSP\arm_math.h ****  * <code>arm_matrix_instance_q15 S = {nRows, nColumns, pData};</code>
 234:C:/Workspaces/DAVE-4.3/WS_2016_09_02/Flightcontroller_PWM_CopterRocks_Working/Dave/Generated/CMSIS_DSP\arm_math.h ****  * </pre>
 235:C:/Workspaces/DAVE-4.3/WS_2016_09_02/Flightcontroller_PWM_CopterRocks_Working/Dave/Generated/CMSIS_DSP\arm_math.h ****  * where <code>nRows</code> specifies the number of rows, <code>nColumns</code>
 236:C:/Workspaces/DAVE-4.3/WS_2016_09_02/Flightcontroller_PWM_CopterRocks_Working/Dave/Generated/CMSIS_DSP\arm_math.h ****  * specifies the number of columns, and <code>pData</code> points to the
 237:C:/Workspaces/DAVE-4.3/WS_2016_09_02/Flightcontroller_PWM_CopterRocks_Working/Dave/Generated/CMSIS_DSP\arm_math.h ****  * data array.
 238:C:/Workspaces/DAVE-4.3/WS_2016_09_02/Flightcontroller_PWM_CopterRocks_Working/Dave/Generated/CMSIS_DSP\arm_math.h ****  *
 239:C:/Workspaces/DAVE-4.3/WS_2016_09_02/Flightcontroller_PWM_CopterRocks_Working/Dave/Generated/CMSIS_DSP\arm_math.h ****  * \par Size Checking
 240:C:/Workspaces/DAVE-4.3/WS_2016_09_02/Flightcontroller_PWM_CopterRocks_Working/Dave/Generated/CMSIS_DSP\arm_math.h ****  * By default all of the matrix functions perform size checking on the input and
 241:C:/Workspaces/DAVE-4.3/WS_2016_09_02/Flightcontroller_PWM_CopterRocks_Working/Dave/Generated/CMSIS_DSP\arm_math.h ****  * output matrices.  For example, the matrix addition function verifies that the
 242:C:/Workspaces/DAVE-4.3/WS_2016_09_02/Flightcontroller_PWM_CopterRocks_Working/Dave/Generated/CMSIS_DSP\arm_math.h ****  * two input matrices and the output matrix all have the same number of rows and
 243:C:/Workspaces/DAVE-4.3/WS_2016_09_02/Flightcontroller_PWM_CopterRocks_Working/Dave/Generated/CMSIS_DSP\arm_math.h ****  * columns.  If the size check fails the functions return:
 244:C:/Workspaces/DAVE-4.3/WS_2016_09_02/Flightcontroller_PWM_CopterRocks_Working/Dave/Generated/CMSIS_DSP\arm_math.h ****  * <pre>
 245:C:/Workspaces/DAVE-4.3/WS_2016_09_02/Flightcontroller_PWM_CopterRocks_Working/Dave/Generated/CMSIS_DSP\arm_math.h ****  *     ARM_MATH_SIZE_MISMATCH
 246:C:/Workspaces/DAVE-4.3/WS_2016_09_02/Flightcontroller_PWM_CopterRocks_Working/Dave/Generated/CMSIS_DSP\arm_math.h ****  * </pre>
 247:C:/Workspaces/DAVE-4.3/WS_2016_09_02/Flightcontroller_PWM_CopterRocks_Working/Dave/Generated/CMSIS_DSP\arm_math.h ****  * Otherwise the functions return
 248:C:/Workspaces/DAVE-4.3/WS_2016_09_02/Flightcontroller_PWM_CopterRocks_Working/Dave/Generated/CMSIS_DSP\arm_math.h ****  * <pre>
 249:C:/Workspaces/DAVE-4.3/WS_2016_09_02/Flightcontroller_PWM_CopterRocks_Working/Dave/Generated/CMSIS_DSP\arm_math.h ****  *     ARM_MATH_SUCCESS
 250:C:/Workspaces/DAVE-4.3/WS_2016_09_02/Flightcontroller_PWM_CopterRocks_Working/Dave/Generated/CMSIS_DSP\arm_math.h ****  * </pre>
 251:C:/Workspaces/DAVE-4.3/WS_2016_09_02/Flightcontroller_PWM_CopterRocks_Working/Dave/Generated/CMSIS_DSP\arm_math.h ****  * There is some overhead associated with this matrix size checking.
 252:C:/Workspaces/DAVE-4.3/WS_2016_09_02/Flightcontroller_PWM_CopterRocks_Working/Dave/Generated/CMSIS_DSP\arm_math.h ****  * The matrix size checking is enabled via the \#define
 253:C:/Workspaces/DAVE-4.3/WS_2016_09_02/Flightcontroller_PWM_CopterRocks_Working/Dave/Generated/CMSIS_DSP\arm_math.h ****  * <pre>
 254:C:/Workspaces/DAVE-4.3/WS_2016_09_02/Flightcontroller_PWM_CopterRocks_Working/Dave/Generated/CMSIS_DSP\arm_math.h ****  *     ARM_MATH_MATRIX_CHECK
 255:C:/Workspaces/DAVE-4.3/WS_2016_09_02/Flightcontroller_PWM_CopterRocks_Working/Dave/Generated/CMSIS_DSP\arm_math.h ****  * </pre>
 256:C:/Workspaces/DAVE-4.3/WS_2016_09_02/Flightcontroller_PWM_CopterRocks_Working/Dave/Generated/CMSIS_DSP\arm_math.h ****  * within the library project settings.  By default this macro is defined
 257:C:/Workspaces/DAVE-4.3/WS_2016_09_02/Flightcontroller_PWM_CopterRocks_Working/Dave/Generated/CMSIS_DSP\arm_math.h ****  * and size checking is enabled.  By changing the project settings and
 258:C:/Workspaces/DAVE-4.3/WS_2016_09_02/Flightcontroller_PWM_CopterRocks_Working/Dave/Generated/CMSIS_DSP\arm_math.h ****  * undefining this macro size checking is eliminated and the functions
 259:C:/Workspaces/DAVE-4.3/WS_2016_09_02/Flightcontroller_PWM_CopterRocks_Working/Dave/Generated/CMSIS_DSP\arm_math.h ****  * run a bit faster.  With size checking disabled the functions always
 260:C:/Workspaces/DAVE-4.3/WS_2016_09_02/Flightcontroller_PWM_CopterRocks_Working/Dave/Generated/CMSIS_DSP\arm_math.h ****  * return <code>ARM_MATH_SUCCESS</code>.
 261:C:/Workspaces/DAVE-4.3/WS_2016_09_02/Flightcontroller_PWM_CopterRocks_Working/Dave/Generated/CMSIS_DSP\arm_math.h ****  */
 262:C:/Workspaces/DAVE-4.3/WS_2016_09_02/Flightcontroller_PWM_CopterRocks_Working/Dave/Generated/CMSIS_DSP\arm_math.h **** 
 263:C:/Workspaces/DAVE-4.3/WS_2016_09_02/Flightcontroller_PWM_CopterRocks_Working/Dave/Generated/CMSIS_DSP\arm_math.h **** /**
 264:C:/Workspaces/DAVE-4.3/WS_2016_09_02/Flightcontroller_PWM_CopterRocks_Working/Dave/Generated/CMSIS_DSP\arm_math.h ****  * @defgroup groupTransforms Transform Functions
 265:C:/Workspaces/DAVE-4.3/WS_2016_09_02/Flightcontroller_PWM_CopterRocks_Working/Dave/Generated/CMSIS_DSP\arm_math.h ****  */
 266:C:/Workspaces/DAVE-4.3/WS_2016_09_02/Flightcontroller_PWM_CopterRocks_Working/Dave/Generated/CMSIS_DSP\arm_math.h **** 
 267:C:/Workspaces/DAVE-4.3/WS_2016_09_02/Flightcontroller_PWM_CopterRocks_Working/Dave/Generated/CMSIS_DSP\arm_math.h **** /**
 268:C:/Workspaces/DAVE-4.3/WS_2016_09_02/Flightcontroller_PWM_CopterRocks_Working/Dave/Generated/CMSIS_DSP\arm_math.h ****  * @defgroup groupController Controller Functions
 269:C:/Workspaces/DAVE-4.3/WS_2016_09_02/Flightcontroller_PWM_CopterRocks_Working/Dave/Generated/CMSIS_DSP\arm_math.h ****  */
 270:C:/Workspaces/DAVE-4.3/WS_2016_09_02/Flightcontroller_PWM_CopterRocks_Working/Dave/Generated/CMSIS_DSP\arm_math.h **** 
 271:C:/Workspaces/DAVE-4.3/WS_2016_09_02/Flightcontroller_PWM_CopterRocks_Working/Dave/Generated/CMSIS_DSP\arm_math.h **** /**
 272:C:/Workspaces/DAVE-4.3/WS_2016_09_02/Flightcontroller_PWM_CopterRocks_Working/Dave/Generated/CMSIS_DSP\arm_math.h ****  * @defgroup groupStats Statistics Functions
 273:C:/Workspaces/DAVE-4.3/WS_2016_09_02/Flightcontroller_PWM_CopterRocks_Working/Dave/Generated/CMSIS_DSP\arm_math.h ****  */
 274:C:/Workspaces/DAVE-4.3/WS_2016_09_02/Flightcontroller_PWM_CopterRocks_Working/Dave/Generated/CMSIS_DSP\arm_math.h **** /**
 275:C:/Workspaces/DAVE-4.3/WS_2016_09_02/Flightcontroller_PWM_CopterRocks_Working/Dave/Generated/CMSIS_DSP\arm_math.h ****  * @defgroup groupSupport Support Functions
 276:C:/Workspaces/DAVE-4.3/WS_2016_09_02/Flightcontroller_PWM_CopterRocks_Working/Dave/Generated/CMSIS_DSP\arm_math.h ****  */
 277:C:/Workspaces/DAVE-4.3/WS_2016_09_02/Flightcontroller_PWM_CopterRocks_Working/Dave/Generated/CMSIS_DSP\arm_math.h **** 
 278:C:/Workspaces/DAVE-4.3/WS_2016_09_02/Flightcontroller_PWM_CopterRocks_Working/Dave/Generated/CMSIS_DSP\arm_math.h **** /**
 279:C:/Workspaces/DAVE-4.3/WS_2016_09_02/Flightcontroller_PWM_CopterRocks_Working/Dave/Generated/CMSIS_DSP\arm_math.h ****  * @defgroup groupInterpolation Interpolation Functions
 280:C:/Workspaces/DAVE-4.3/WS_2016_09_02/Flightcontroller_PWM_CopterRocks_Working/Dave/Generated/CMSIS_DSP\arm_math.h ****  * These functions perform 1- and 2-dimensional interpolation of data.
 281:C:/Workspaces/DAVE-4.3/WS_2016_09_02/Flightcontroller_PWM_CopterRocks_Working/Dave/Generated/CMSIS_DSP\arm_math.h ****  * Linear interpolation is used for 1-dimensional data and
 282:C:/Workspaces/DAVE-4.3/WS_2016_09_02/Flightcontroller_PWM_CopterRocks_Working/Dave/Generated/CMSIS_DSP\arm_math.h ****  * bilinear interpolation is used for 2-dimensional data.
 283:C:/Workspaces/DAVE-4.3/WS_2016_09_02/Flightcontroller_PWM_CopterRocks_Working/Dave/Generated/CMSIS_DSP\arm_math.h ****  */
 284:C:/Workspaces/DAVE-4.3/WS_2016_09_02/Flightcontroller_PWM_CopterRocks_Working/Dave/Generated/CMSIS_DSP\arm_math.h **** 
 285:C:/Workspaces/DAVE-4.3/WS_2016_09_02/Flightcontroller_PWM_CopterRocks_Working/Dave/Generated/CMSIS_DSP\arm_math.h **** /**
 286:C:/Workspaces/DAVE-4.3/WS_2016_09_02/Flightcontroller_PWM_CopterRocks_Working/Dave/Generated/CMSIS_DSP\arm_math.h ****  * @defgroup groupExamples Examples
 287:C:/Workspaces/DAVE-4.3/WS_2016_09_02/Flightcontroller_PWM_CopterRocks_Working/Dave/Generated/CMSIS_DSP\arm_math.h ****  */
 288:C:/Workspaces/DAVE-4.3/WS_2016_09_02/Flightcontroller_PWM_CopterRocks_Working/Dave/Generated/CMSIS_DSP\arm_math.h **** #ifndef _ARM_MATH_H
 289:C:/Workspaces/DAVE-4.3/WS_2016_09_02/Flightcontroller_PWM_CopterRocks_Working/Dave/Generated/CMSIS_DSP\arm_math.h **** #define _ARM_MATH_H
 290:C:/Workspaces/DAVE-4.3/WS_2016_09_02/Flightcontroller_PWM_CopterRocks_Working/Dave/Generated/CMSIS_DSP\arm_math.h **** 
 291:C:/Workspaces/DAVE-4.3/WS_2016_09_02/Flightcontroller_PWM_CopterRocks_Working/Dave/Generated/CMSIS_DSP\arm_math.h **** /* ignore some GCC warnings */
 292:C:/Workspaces/DAVE-4.3/WS_2016_09_02/Flightcontroller_PWM_CopterRocks_Working/Dave/Generated/CMSIS_DSP\arm_math.h **** #if defined ( __GNUC__ )
 293:C:/Workspaces/DAVE-4.3/WS_2016_09_02/Flightcontroller_PWM_CopterRocks_Working/Dave/Generated/CMSIS_DSP\arm_math.h **** #pragma GCC diagnostic push
 294:C:/Workspaces/DAVE-4.3/WS_2016_09_02/Flightcontroller_PWM_CopterRocks_Working/Dave/Generated/CMSIS_DSP\arm_math.h **** #pragma GCC diagnostic ignored "-Wsign-conversion"
 295:C:/Workspaces/DAVE-4.3/WS_2016_09_02/Flightcontroller_PWM_CopterRocks_Working/Dave/Generated/CMSIS_DSP\arm_math.h **** #pragma GCC diagnostic ignored "-Wconversion"
 296:C:/Workspaces/DAVE-4.3/WS_2016_09_02/Flightcontroller_PWM_CopterRocks_Working/Dave/Generated/CMSIS_DSP\arm_math.h **** #pragma GCC diagnostic ignored "-Wunused-parameter"
 297:C:/Workspaces/DAVE-4.3/WS_2016_09_02/Flightcontroller_PWM_CopterRocks_Working/Dave/Generated/CMSIS_DSP\arm_math.h **** #endif
 298:C:/Workspaces/DAVE-4.3/WS_2016_09_02/Flightcontroller_PWM_CopterRocks_Working/Dave/Generated/CMSIS_DSP\arm_math.h **** 
 299:C:/Workspaces/DAVE-4.3/WS_2016_09_02/Flightcontroller_PWM_CopterRocks_Working/Dave/Generated/CMSIS_DSP\arm_math.h **** #define __CMSIS_GENERIC         /* disable NVIC and Systick functions */
 300:C:/Workspaces/DAVE-4.3/WS_2016_09_02/Flightcontroller_PWM_CopterRocks_Working/Dave/Generated/CMSIS_DSP\arm_math.h **** 
 301:C:/Workspaces/DAVE-4.3/WS_2016_09_02/Flightcontroller_PWM_CopterRocks_Working/Dave/Generated/CMSIS_DSP\arm_math.h **** #if defined(ARM_MATH_CM7)
 302:C:/Workspaces/DAVE-4.3/WS_2016_09_02/Flightcontroller_PWM_CopterRocks_Working/Dave/Generated/CMSIS_DSP\arm_math.h ****   #include "core_cm7.h"
 303:C:/Workspaces/DAVE-4.3/WS_2016_09_02/Flightcontroller_PWM_CopterRocks_Working/Dave/Generated/CMSIS_DSP\arm_math.h **** #elif defined (ARM_MATH_CM4)
 304:C:/Workspaces/DAVE-4.3/WS_2016_09_02/Flightcontroller_PWM_CopterRocks_Working/Dave/Generated/CMSIS_DSP\arm_math.h ****   #include "core_cm4.h"
 305:C:/Workspaces/DAVE-4.3/WS_2016_09_02/Flightcontroller_PWM_CopterRocks_Working/Dave/Generated/CMSIS_DSP\arm_math.h **** #elif defined (ARM_MATH_CM3)
 306:C:/Workspaces/DAVE-4.3/WS_2016_09_02/Flightcontroller_PWM_CopterRocks_Working/Dave/Generated/CMSIS_DSP\arm_math.h ****   #include "core_cm3.h"
 307:C:/Workspaces/DAVE-4.3/WS_2016_09_02/Flightcontroller_PWM_CopterRocks_Working/Dave/Generated/CMSIS_DSP\arm_math.h **** #elif defined (ARM_MATH_CM0)
 308:C:/Workspaces/DAVE-4.3/WS_2016_09_02/Flightcontroller_PWM_CopterRocks_Working/Dave/Generated/CMSIS_DSP\arm_math.h ****   #include "core_cm0.h"
 309:C:/Workspaces/DAVE-4.3/WS_2016_09_02/Flightcontroller_PWM_CopterRocks_Working/Dave/Generated/CMSIS_DSP\arm_math.h ****   #define ARM_MATH_CM0_FAMILY
 310:C:/Workspaces/DAVE-4.3/WS_2016_09_02/Flightcontroller_PWM_CopterRocks_Working/Dave/Generated/CMSIS_DSP\arm_math.h **** #elif defined (ARM_MATH_CM0PLUS)
 311:C:/Workspaces/DAVE-4.3/WS_2016_09_02/Flightcontroller_PWM_CopterRocks_Working/Dave/Generated/CMSIS_DSP\arm_math.h ****   #include "core_cm0plus.h"
 312:C:/Workspaces/DAVE-4.3/WS_2016_09_02/Flightcontroller_PWM_CopterRocks_Working/Dave/Generated/CMSIS_DSP\arm_math.h ****   #define ARM_MATH_CM0_FAMILY
 313:C:/Workspaces/DAVE-4.3/WS_2016_09_02/Flightcontroller_PWM_CopterRocks_Working/Dave/Generated/CMSIS_DSP\arm_math.h **** #else
 314:C:/Workspaces/DAVE-4.3/WS_2016_09_02/Flightcontroller_PWM_CopterRocks_Working/Dave/Generated/CMSIS_DSP\arm_math.h ****   #error "Define according the used Cortex core ARM_MATH_CM7, ARM_MATH_CM4, ARM_MATH_CM3, ARM_MATH_
 315:C:/Workspaces/DAVE-4.3/WS_2016_09_02/Flightcontroller_PWM_CopterRocks_Working/Dave/Generated/CMSIS_DSP\arm_math.h **** #endif
 316:C:/Workspaces/DAVE-4.3/WS_2016_09_02/Flightcontroller_PWM_CopterRocks_Working/Dave/Generated/CMSIS_DSP\arm_math.h **** 
 317:C:/Workspaces/DAVE-4.3/WS_2016_09_02/Flightcontroller_PWM_CopterRocks_Working/Dave/Generated/CMSIS_DSP\arm_math.h **** #undef  __CMSIS_GENERIC         /* enable NVIC and Systick functions */
 318:C:/Workspaces/DAVE-4.3/WS_2016_09_02/Flightcontroller_PWM_CopterRocks_Working/Dave/Generated/CMSIS_DSP\arm_math.h **** #include "string.h"
 319:C:/Workspaces/DAVE-4.3/WS_2016_09_02/Flightcontroller_PWM_CopterRocks_Working/Dave/Generated/CMSIS_DSP\arm_math.h **** #include "math.h"
 320:C:/Workspaces/DAVE-4.3/WS_2016_09_02/Flightcontroller_PWM_CopterRocks_Working/Dave/Generated/CMSIS_DSP\arm_math.h **** #ifdef   __cplusplus
 321:C:/Workspaces/DAVE-4.3/WS_2016_09_02/Flightcontroller_PWM_CopterRocks_Working/Dave/Generated/CMSIS_DSP\arm_math.h **** extern "C"
 322:C:/Workspaces/DAVE-4.3/WS_2016_09_02/Flightcontroller_PWM_CopterRocks_Working/Dave/Generated/CMSIS_DSP\arm_math.h **** {
 323:C:/Workspaces/DAVE-4.3/WS_2016_09_02/Flightcontroller_PWM_CopterRocks_Working/Dave/Generated/CMSIS_DSP\arm_math.h **** #endif
 324:C:/Workspaces/DAVE-4.3/WS_2016_09_02/Flightcontroller_PWM_CopterRocks_Working/Dave/Generated/CMSIS_DSP\arm_math.h **** 
 325:C:/Workspaces/DAVE-4.3/WS_2016_09_02/Flightcontroller_PWM_CopterRocks_Working/Dave/Generated/CMSIS_DSP\arm_math.h **** 
 326:C:/Workspaces/DAVE-4.3/WS_2016_09_02/Flightcontroller_PWM_CopterRocks_Working/Dave/Generated/CMSIS_DSP\arm_math.h ****   /**
 327:C:/Workspaces/DAVE-4.3/WS_2016_09_02/Flightcontroller_PWM_CopterRocks_Working/Dave/Generated/CMSIS_DSP\arm_math.h ****    * @brief Macros required for reciprocal calculation in Normalized LMS
 328:C:/Workspaces/DAVE-4.3/WS_2016_09_02/Flightcontroller_PWM_CopterRocks_Working/Dave/Generated/CMSIS_DSP\arm_math.h ****    */
 329:C:/Workspaces/DAVE-4.3/WS_2016_09_02/Flightcontroller_PWM_CopterRocks_Working/Dave/Generated/CMSIS_DSP\arm_math.h **** 
 330:C:/Workspaces/DAVE-4.3/WS_2016_09_02/Flightcontroller_PWM_CopterRocks_Working/Dave/Generated/CMSIS_DSP\arm_math.h **** #define DELTA_Q31          (0x100)
 331:C:/Workspaces/DAVE-4.3/WS_2016_09_02/Flightcontroller_PWM_CopterRocks_Working/Dave/Generated/CMSIS_DSP\arm_math.h **** #define DELTA_Q15          0x5
 332:C:/Workspaces/DAVE-4.3/WS_2016_09_02/Flightcontroller_PWM_CopterRocks_Working/Dave/Generated/CMSIS_DSP\arm_math.h **** #define INDEX_MASK         0x0000003F
 333:C:/Workspaces/DAVE-4.3/WS_2016_09_02/Flightcontroller_PWM_CopterRocks_Working/Dave/Generated/CMSIS_DSP\arm_math.h **** #ifndef PI
 334:C:/Workspaces/DAVE-4.3/WS_2016_09_02/Flightcontroller_PWM_CopterRocks_Working/Dave/Generated/CMSIS_DSP\arm_math.h **** #define PI                 3.14159265358979f
 335:C:/Workspaces/DAVE-4.3/WS_2016_09_02/Flightcontroller_PWM_CopterRocks_Working/Dave/Generated/CMSIS_DSP\arm_math.h **** #endif
 336:C:/Workspaces/DAVE-4.3/WS_2016_09_02/Flightcontroller_PWM_CopterRocks_Working/Dave/Generated/CMSIS_DSP\arm_math.h **** 
 337:C:/Workspaces/DAVE-4.3/WS_2016_09_02/Flightcontroller_PWM_CopterRocks_Working/Dave/Generated/CMSIS_DSP\arm_math.h ****   /**
 338:C:/Workspaces/DAVE-4.3/WS_2016_09_02/Flightcontroller_PWM_CopterRocks_Working/Dave/Generated/CMSIS_DSP\arm_math.h ****    * @brief Macros required for SINE and COSINE Fast math approximations
 339:C:/Workspaces/DAVE-4.3/WS_2016_09_02/Flightcontroller_PWM_CopterRocks_Working/Dave/Generated/CMSIS_DSP\arm_math.h ****    */
 340:C:/Workspaces/DAVE-4.3/WS_2016_09_02/Flightcontroller_PWM_CopterRocks_Working/Dave/Generated/CMSIS_DSP\arm_math.h **** 
 341:C:/Workspaces/DAVE-4.3/WS_2016_09_02/Flightcontroller_PWM_CopterRocks_Working/Dave/Generated/CMSIS_DSP\arm_math.h **** #define FAST_MATH_TABLE_SIZE  512
 342:C:/Workspaces/DAVE-4.3/WS_2016_09_02/Flightcontroller_PWM_CopterRocks_Working/Dave/Generated/CMSIS_DSP\arm_math.h **** #define FAST_MATH_Q31_SHIFT   (32 - 10)
 343:C:/Workspaces/DAVE-4.3/WS_2016_09_02/Flightcontroller_PWM_CopterRocks_Working/Dave/Generated/CMSIS_DSP\arm_math.h **** #define FAST_MATH_Q15_SHIFT   (16 - 10)
 344:C:/Workspaces/DAVE-4.3/WS_2016_09_02/Flightcontroller_PWM_CopterRocks_Working/Dave/Generated/CMSIS_DSP\arm_math.h **** #define CONTROLLER_Q31_SHIFT  (32 - 9)
 345:C:/Workspaces/DAVE-4.3/WS_2016_09_02/Flightcontroller_PWM_CopterRocks_Working/Dave/Generated/CMSIS_DSP\arm_math.h **** #define TABLE_SIZE  256
 346:C:/Workspaces/DAVE-4.3/WS_2016_09_02/Flightcontroller_PWM_CopterRocks_Working/Dave/Generated/CMSIS_DSP\arm_math.h **** #define TABLE_SPACING_Q31     0x400000
 347:C:/Workspaces/DAVE-4.3/WS_2016_09_02/Flightcontroller_PWM_CopterRocks_Working/Dave/Generated/CMSIS_DSP\arm_math.h **** #define TABLE_SPACING_Q15     0x80
 348:C:/Workspaces/DAVE-4.3/WS_2016_09_02/Flightcontroller_PWM_CopterRocks_Working/Dave/Generated/CMSIS_DSP\arm_math.h **** 
 349:C:/Workspaces/DAVE-4.3/WS_2016_09_02/Flightcontroller_PWM_CopterRocks_Working/Dave/Generated/CMSIS_DSP\arm_math.h ****   /**
 350:C:/Workspaces/DAVE-4.3/WS_2016_09_02/Flightcontroller_PWM_CopterRocks_Working/Dave/Generated/CMSIS_DSP\arm_math.h ****    * @brief Macros required for SINE and COSINE Controller functions
 351:C:/Workspaces/DAVE-4.3/WS_2016_09_02/Flightcontroller_PWM_CopterRocks_Working/Dave/Generated/CMSIS_DSP\arm_math.h ****    */
 352:C:/Workspaces/DAVE-4.3/WS_2016_09_02/Flightcontroller_PWM_CopterRocks_Working/Dave/Generated/CMSIS_DSP\arm_math.h ****   /* 1.31(q31) Fixed value of 2/360 */
 353:C:/Workspaces/DAVE-4.3/WS_2016_09_02/Flightcontroller_PWM_CopterRocks_Working/Dave/Generated/CMSIS_DSP\arm_math.h ****   /* -1 to +1 is divided into 360 values so total spacing is (2/360) */
 354:C:/Workspaces/DAVE-4.3/WS_2016_09_02/Flightcontroller_PWM_CopterRocks_Working/Dave/Generated/CMSIS_DSP\arm_math.h **** #define INPUT_SPACING         0xB60B61
 355:C:/Workspaces/DAVE-4.3/WS_2016_09_02/Flightcontroller_PWM_CopterRocks_Working/Dave/Generated/CMSIS_DSP\arm_math.h **** 
 356:C:/Workspaces/DAVE-4.3/WS_2016_09_02/Flightcontroller_PWM_CopterRocks_Working/Dave/Generated/CMSIS_DSP\arm_math.h ****   /**
 357:C:/Workspaces/DAVE-4.3/WS_2016_09_02/Flightcontroller_PWM_CopterRocks_Working/Dave/Generated/CMSIS_DSP\arm_math.h ****    * @brief Macro for Unaligned Support
 358:C:/Workspaces/DAVE-4.3/WS_2016_09_02/Flightcontroller_PWM_CopterRocks_Working/Dave/Generated/CMSIS_DSP\arm_math.h ****    */
 359:C:/Workspaces/DAVE-4.3/WS_2016_09_02/Flightcontroller_PWM_CopterRocks_Working/Dave/Generated/CMSIS_DSP\arm_math.h **** #ifndef UNALIGNED_SUPPORT_DISABLE
 360:C:/Workspaces/DAVE-4.3/WS_2016_09_02/Flightcontroller_PWM_CopterRocks_Working/Dave/Generated/CMSIS_DSP\arm_math.h ****     #define ALIGN4
 361:C:/Workspaces/DAVE-4.3/WS_2016_09_02/Flightcontroller_PWM_CopterRocks_Working/Dave/Generated/CMSIS_DSP\arm_math.h **** #else
 362:C:/Workspaces/DAVE-4.3/WS_2016_09_02/Flightcontroller_PWM_CopterRocks_Working/Dave/Generated/CMSIS_DSP\arm_math.h ****   #if defined  (__GNUC__)
 363:C:/Workspaces/DAVE-4.3/WS_2016_09_02/Flightcontroller_PWM_CopterRocks_Working/Dave/Generated/CMSIS_DSP\arm_math.h ****     #define ALIGN4 __attribute__((aligned(4)))
 364:C:/Workspaces/DAVE-4.3/WS_2016_09_02/Flightcontroller_PWM_CopterRocks_Working/Dave/Generated/CMSIS_DSP\arm_math.h ****   #else
 365:C:/Workspaces/DAVE-4.3/WS_2016_09_02/Flightcontroller_PWM_CopterRocks_Working/Dave/Generated/CMSIS_DSP\arm_math.h ****     #define ALIGN4 __align(4)
 366:C:/Workspaces/DAVE-4.3/WS_2016_09_02/Flightcontroller_PWM_CopterRocks_Working/Dave/Generated/CMSIS_DSP\arm_math.h ****   #endif
 367:C:/Workspaces/DAVE-4.3/WS_2016_09_02/Flightcontroller_PWM_CopterRocks_Working/Dave/Generated/CMSIS_DSP\arm_math.h **** #endif   /* #ifndef UNALIGNED_SUPPORT_DISABLE */
 368:C:/Workspaces/DAVE-4.3/WS_2016_09_02/Flightcontroller_PWM_CopterRocks_Working/Dave/Generated/CMSIS_DSP\arm_math.h **** 
 369:C:/Workspaces/DAVE-4.3/WS_2016_09_02/Flightcontroller_PWM_CopterRocks_Working/Dave/Generated/CMSIS_DSP\arm_math.h ****   /**
 370:C:/Workspaces/DAVE-4.3/WS_2016_09_02/Flightcontroller_PWM_CopterRocks_Working/Dave/Generated/CMSIS_DSP\arm_math.h ****    * @brief Error status returned by some functions in the library.
 371:C:/Workspaces/DAVE-4.3/WS_2016_09_02/Flightcontroller_PWM_CopterRocks_Working/Dave/Generated/CMSIS_DSP\arm_math.h ****    */
 372:C:/Workspaces/DAVE-4.3/WS_2016_09_02/Flightcontroller_PWM_CopterRocks_Working/Dave/Generated/CMSIS_DSP\arm_math.h **** 
 373:C:/Workspaces/DAVE-4.3/WS_2016_09_02/Flightcontroller_PWM_CopterRocks_Working/Dave/Generated/CMSIS_DSP\arm_math.h ****   typedef enum
 374:C:/Workspaces/DAVE-4.3/WS_2016_09_02/Flightcontroller_PWM_CopterRocks_Working/Dave/Generated/CMSIS_DSP\arm_math.h ****   {
 375:C:/Workspaces/DAVE-4.3/WS_2016_09_02/Flightcontroller_PWM_CopterRocks_Working/Dave/Generated/CMSIS_DSP\arm_math.h ****     ARM_MATH_SUCCESS = 0,                /**< No error */
 376:C:/Workspaces/DAVE-4.3/WS_2016_09_02/Flightcontroller_PWM_CopterRocks_Working/Dave/Generated/CMSIS_DSP\arm_math.h ****     ARM_MATH_ARGUMENT_ERROR = -1,        /**< One or more arguments are incorrect */
 377:C:/Workspaces/DAVE-4.3/WS_2016_09_02/Flightcontroller_PWM_CopterRocks_Working/Dave/Generated/CMSIS_DSP\arm_math.h ****     ARM_MATH_LENGTH_ERROR = -2,          /**< Length of data buffer is incorrect */
 378:C:/Workspaces/DAVE-4.3/WS_2016_09_02/Flightcontroller_PWM_CopterRocks_Working/Dave/Generated/CMSIS_DSP\arm_math.h ****     ARM_MATH_SIZE_MISMATCH = -3,         /**< Size of matrices is not compatible with the operation
 379:C:/Workspaces/DAVE-4.3/WS_2016_09_02/Flightcontroller_PWM_CopterRocks_Working/Dave/Generated/CMSIS_DSP\arm_math.h ****     ARM_MATH_NANINF = -4,                /**< Not-a-number (NaN) or infinity is generated */
 380:C:/Workspaces/DAVE-4.3/WS_2016_09_02/Flightcontroller_PWM_CopterRocks_Working/Dave/Generated/CMSIS_DSP\arm_math.h ****     ARM_MATH_SINGULAR = -5,              /**< Generated by matrix inversion if the input matrix is 
 381:C:/Workspaces/DAVE-4.3/WS_2016_09_02/Flightcontroller_PWM_CopterRocks_Working/Dave/Generated/CMSIS_DSP\arm_math.h ****     ARM_MATH_TEST_FAILURE = -6           /**< Test Failed  */
 382:C:/Workspaces/DAVE-4.3/WS_2016_09_02/Flightcontroller_PWM_CopterRocks_Working/Dave/Generated/CMSIS_DSP\arm_math.h ****   } arm_status;
 383:C:/Workspaces/DAVE-4.3/WS_2016_09_02/Flightcontroller_PWM_CopterRocks_Working/Dave/Generated/CMSIS_DSP\arm_math.h **** 
 384:C:/Workspaces/DAVE-4.3/WS_2016_09_02/Flightcontroller_PWM_CopterRocks_Working/Dave/Generated/CMSIS_DSP\arm_math.h ****   /**
 385:C:/Workspaces/DAVE-4.3/WS_2016_09_02/Flightcontroller_PWM_CopterRocks_Working/Dave/Generated/CMSIS_DSP\arm_math.h ****    * @brief 8-bit fractional data type in 1.7 format.
 386:C:/Workspaces/DAVE-4.3/WS_2016_09_02/Flightcontroller_PWM_CopterRocks_Working/Dave/Generated/CMSIS_DSP\arm_math.h ****    */
 387:C:/Workspaces/DAVE-4.3/WS_2016_09_02/Flightcontroller_PWM_CopterRocks_Working/Dave/Generated/CMSIS_DSP\arm_math.h ****   typedef int8_t q7_t;
 388:C:/Workspaces/DAVE-4.3/WS_2016_09_02/Flightcontroller_PWM_CopterRocks_Working/Dave/Generated/CMSIS_DSP\arm_math.h **** 
 389:C:/Workspaces/DAVE-4.3/WS_2016_09_02/Flightcontroller_PWM_CopterRocks_Working/Dave/Generated/CMSIS_DSP\arm_math.h ****   /**
 390:C:/Workspaces/DAVE-4.3/WS_2016_09_02/Flightcontroller_PWM_CopterRocks_Working/Dave/Generated/CMSIS_DSP\arm_math.h ****    * @brief 16-bit fractional data type in 1.15 format.
 391:C:/Workspaces/DAVE-4.3/WS_2016_09_02/Flightcontroller_PWM_CopterRocks_Working/Dave/Generated/CMSIS_DSP\arm_math.h ****    */
 392:C:/Workspaces/DAVE-4.3/WS_2016_09_02/Flightcontroller_PWM_CopterRocks_Working/Dave/Generated/CMSIS_DSP\arm_math.h ****   typedef int16_t q15_t;
 393:C:/Workspaces/DAVE-4.3/WS_2016_09_02/Flightcontroller_PWM_CopterRocks_Working/Dave/Generated/CMSIS_DSP\arm_math.h **** 
 394:C:/Workspaces/DAVE-4.3/WS_2016_09_02/Flightcontroller_PWM_CopterRocks_Working/Dave/Generated/CMSIS_DSP\arm_math.h ****   /**
 395:C:/Workspaces/DAVE-4.3/WS_2016_09_02/Flightcontroller_PWM_CopterRocks_Working/Dave/Generated/CMSIS_DSP\arm_math.h ****    * @brief 32-bit fractional data type in 1.31 format.
 396:C:/Workspaces/DAVE-4.3/WS_2016_09_02/Flightcontroller_PWM_CopterRocks_Working/Dave/Generated/CMSIS_DSP\arm_math.h ****    */
 397:C:/Workspaces/DAVE-4.3/WS_2016_09_02/Flightcontroller_PWM_CopterRocks_Working/Dave/Generated/CMSIS_DSP\arm_math.h ****   typedef int32_t q31_t;
 398:C:/Workspaces/DAVE-4.3/WS_2016_09_02/Flightcontroller_PWM_CopterRocks_Working/Dave/Generated/CMSIS_DSP\arm_math.h **** 
 399:C:/Workspaces/DAVE-4.3/WS_2016_09_02/Flightcontroller_PWM_CopterRocks_Working/Dave/Generated/CMSIS_DSP\arm_math.h ****   /**
 400:C:/Workspaces/DAVE-4.3/WS_2016_09_02/Flightcontroller_PWM_CopterRocks_Working/Dave/Generated/CMSIS_DSP\arm_math.h ****    * @brief 64-bit fractional data type in 1.63 format.
 401:C:/Workspaces/DAVE-4.3/WS_2016_09_02/Flightcontroller_PWM_CopterRocks_Working/Dave/Generated/CMSIS_DSP\arm_math.h ****    */
 402:C:/Workspaces/DAVE-4.3/WS_2016_09_02/Flightcontroller_PWM_CopterRocks_Working/Dave/Generated/CMSIS_DSP\arm_math.h ****   typedef int64_t q63_t;
 403:C:/Workspaces/DAVE-4.3/WS_2016_09_02/Flightcontroller_PWM_CopterRocks_Working/Dave/Generated/CMSIS_DSP\arm_math.h **** 
 404:C:/Workspaces/DAVE-4.3/WS_2016_09_02/Flightcontroller_PWM_CopterRocks_Working/Dave/Generated/CMSIS_DSP\arm_math.h ****   /**
 405:C:/Workspaces/DAVE-4.3/WS_2016_09_02/Flightcontroller_PWM_CopterRocks_Working/Dave/Generated/CMSIS_DSP\arm_math.h ****    * @brief 32-bit floating-point type definition.
 406:C:/Workspaces/DAVE-4.3/WS_2016_09_02/Flightcontroller_PWM_CopterRocks_Working/Dave/Generated/CMSIS_DSP\arm_math.h ****    */
 407:C:/Workspaces/DAVE-4.3/WS_2016_09_02/Flightcontroller_PWM_CopterRocks_Working/Dave/Generated/CMSIS_DSP\arm_math.h ****   typedef float float32_t;
 408:C:/Workspaces/DAVE-4.3/WS_2016_09_02/Flightcontroller_PWM_CopterRocks_Working/Dave/Generated/CMSIS_DSP\arm_math.h **** 
 409:C:/Workspaces/DAVE-4.3/WS_2016_09_02/Flightcontroller_PWM_CopterRocks_Working/Dave/Generated/CMSIS_DSP\arm_math.h ****   /**
 410:C:/Workspaces/DAVE-4.3/WS_2016_09_02/Flightcontroller_PWM_CopterRocks_Working/Dave/Generated/CMSIS_DSP\arm_math.h ****    * @brief 64-bit floating-point type definition.
 411:C:/Workspaces/DAVE-4.3/WS_2016_09_02/Flightcontroller_PWM_CopterRocks_Working/Dave/Generated/CMSIS_DSP\arm_math.h ****    */
 412:C:/Workspaces/DAVE-4.3/WS_2016_09_02/Flightcontroller_PWM_CopterRocks_Working/Dave/Generated/CMSIS_DSP\arm_math.h ****   typedef double float64_t;
 413:C:/Workspaces/DAVE-4.3/WS_2016_09_02/Flightcontroller_PWM_CopterRocks_Working/Dave/Generated/CMSIS_DSP\arm_math.h **** 
 414:C:/Workspaces/DAVE-4.3/WS_2016_09_02/Flightcontroller_PWM_CopterRocks_Working/Dave/Generated/CMSIS_DSP\arm_math.h ****   /**
 415:C:/Workspaces/DAVE-4.3/WS_2016_09_02/Flightcontroller_PWM_CopterRocks_Working/Dave/Generated/CMSIS_DSP\arm_math.h ****    * @brief definition to read/write two 16 bit values.
 416:C:/Workspaces/DAVE-4.3/WS_2016_09_02/Flightcontroller_PWM_CopterRocks_Working/Dave/Generated/CMSIS_DSP\arm_math.h ****    */
 417:C:/Workspaces/DAVE-4.3/WS_2016_09_02/Flightcontroller_PWM_CopterRocks_Working/Dave/Generated/CMSIS_DSP\arm_math.h **** #if defined __CC_ARM
 418:C:/Workspaces/DAVE-4.3/WS_2016_09_02/Flightcontroller_PWM_CopterRocks_Working/Dave/Generated/CMSIS_DSP\arm_math.h ****   #define __SIMD32_TYPE int32_t __packed
 419:C:/Workspaces/DAVE-4.3/WS_2016_09_02/Flightcontroller_PWM_CopterRocks_Working/Dave/Generated/CMSIS_DSP\arm_math.h ****   #define CMSIS_UNUSED __attribute__((unused))
 420:C:/Workspaces/DAVE-4.3/WS_2016_09_02/Flightcontroller_PWM_CopterRocks_Working/Dave/Generated/CMSIS_DSP\arm_math.h **** 
 421:C:/Workspaces/DAVE-4.3/WS_2016_09_02/Flightcontroller_PWM_CopterRocks_Working/Dave/Generated/CMSIS_DSP\arm_math.h **** #elif defined(__ARMCC_VERSION) && (__ARMCC_VERSION >= 6010050)
 422:C:/Workspaces/DAVE-4.3/WS_2016_09_02/Flightcontroller_PWM_CopterRocks_Working/Dave/Generated/CMSIS_DSP\arm_math.h ****   #define __SIMD32_TYPE int32_t
 423:C:/Workspaces/DAVE-4.3/WS_2016_09_02/Flightcontroller_PWM_CopterRocks_Working/Dave/Generated/CMSIS_DSP\arm_math.h ****   #define CMSIS_UNUSED __attribute__((unused))
 424:C:/Workspaces/DAVE-4.3/WS_2016_09_02/Flightcontroller_PWM_CopterRocks_Working/Dave/Generated/CMSIS_DSP\arm_math.h **** 
 425:C:/Workspaces/DAVE-4.3/WS_2016_09_02/Flightcontroller_PWM_CopterRocks_Working/Dave/Generated/CMSIS_DSP\arm_math.h **** #elif defined __GNUC__
 426:C:/Workspaces/DAVE-4.3/WS_2016_09_02/Flightcontroller_PWM_CopterRocks_Working/Dave/Generated/CMSIS_DSP\arm_math.h ****   #define __SIMD32_TYPE int32_t
 427:C:/Workspaces/DAVE-4.3/WS_2016_09_02/Flightcontroller_PWM_CopterRocks_Working/Dave/Generated/CMSIS_DSP\arm_math.h ****   #define CMSIS_UNUSED __attribute__((unused))
 428:C:/Workspaces/DAVE-4.3/WS_2016_09_02/Flightcontroller_PWM_CopterRocks_Working/Dave/Generated/CMSIS_DSP\arm_math.h **** 
 429:C:/Workspaces/DAVE-4.3/WS_2016_09_02/Flightcontroller_PWM_CopterRocks_Working/Dave/Generated/CMSIS_DSP\arm_math.h **** #elif defined __ICCARM__
 430:C:/Workspaces/DAVE-4.3/WS_2016_09_02/Flightcontroller_PWM_CopterRocks_Working/Dave/Generated/CMSIS_DSP\arm_math.h ****   #define __SIMD32_TYPE int32_t __packed
 431:C:/Workspaces/DAVE-4.3/WS_2016_09_02/Flightcontroller_PWM_CopterRocks_Working/Dave/Generated/CMSIS_DSP\arm_math.h ****   #define CMSIS_UNUSED
 432:C:/Workspaces/DAVE-4.3/WS_2016_09_02/Flightcontroller_PWM_CopterRocks_Working/Dave/Generated/CMSIS_DSP\arm_math.h **** 
 433:C:/Workspaces/DAVE-4.3/WS_2016_09_02/Flightcontroller_PWM_CopterRocks_Working/Dave/Generated/CMSIS_DSP\arm_math.h **** #elif defined __CSMC__
 434:C:/Workspaces/DAVE-4.3/WS_2016_09_02/Flightcontroller_PWM_CopterRocks_Working/Dave/Generated/CMSIS_DSP\arm_math.h ****   #define __SIMD32_TYPE int32_t
 435:C:/Workspaces/DAVE-4.3/WS_2016_09_02/Flightcontroller_PWM_CopterRocks_Working/Dave/Generated/CMSIS_DSP\arm_math.h ****   #define CMSIS_UNUSED
 436:C:/Workspaces/DAVE-4.3/WS_2016_09_02/Flightcontroller_PWM_CopterRocks_Working/Dave/Generated/CMSIS_DSP\arm_math.h **** 
 437:C:/Workspaces/DAVE-4.3/WS_2016_09_02/Flightcontroller_PWM_CopterRocks_Working/Dave/Generated/CMSIS_DSP\arm_math.h **** #elif defined __TASKING__
 438:C:/Workspaces/DAVE-4.3/WS_2016_09_02/Flightcontroller_PWM_CopterRocks_Working/Dave/Generated/CMSIS_DSP\arm_math.h ****   #define __SIMD32_TYPE __unaligned int32_t
 439:C:/Workspaces/DAVE-4.3/WS_2016_09_02/Flightcontroller_PWM_CopterRocks_Working/Dave/Generated/CMSIS_DSP\arm_math.h ****   #define CMSIS_UNUSED
 440:C:/Workspaces/DAVE-4.3/WS_2016_09_02/Flightcontroller_PWM_CopterRocks_Working/Dave/Generated/CMSIS_DSP\arm_math.h **** 
 441:C:/Workspaces/DAVE-4.3/WS_2016_09_02/Flightcontroller_PWM_CopterRocks_Working/Dave/Generated/CMSIS_DSP\arm_math.h **** #else
 442:C:/Workspaces/DAVE-4.3/WS_2016_09_02/Flightcontroller_PWM_CopterRocks_Working/Dave/Generated/CMSIS_DSP\arm_math.h ****   #error Unknown compiler
 443:C:/Workspaces/DAVE-4.3/WS_2016_09_02/Flightcontroller_PWM_CopterRocks_Working/Dave/Generated/CMSIS_DSP\arm_math.h **** #endif
 444:C:/Workspaces/DAVE-4.3/WS_2016_09_02/Flightcontroller_PWM_CopterRocks_Working/Dave/Generated/CMSIS_DSP\arm_math.h **** 
 445:C:/Workspaces/DAVE-4.3/WS_2016_09_02/Flightcontroller_PWM_CopterRocks_Working/Dave/Generated/CMSIS_DSP\arm_math.h **** #define __SIMD32(addr)        (*(__SIMD32_TYPE **) & (addr))
 446:C:/Workspaces/DAVE-4.3/WS_2016_09_02/Flightcontroller_PWM_CopterRocks_Working/Dave/Generated/CMSIS_DSP\arm_math.h **** #define __SIMD32_CONST(addr)  ((__SIMD32_TYPE *)(addr))
 447:C:/Workspaces/DAVE-4.3/WS_2016_09_02/Flightcontroller_PWM_CopterRocks_Working/Dave/Generated/CMSIS_DSP\arm_math.h **** #define _SIMD32_OFFSET(addr)  (*(__SIMD32_TYPE *)  (addr))
 448:C:/Workspaces/DAVE-4.3/WS_2016_09_02/Flightcontroller_PWM_CopterRocks_Working/Dave/Generated/CMSIS_DSP\arm_math.h **** #define __SIMD64(addr)        (*(int64_t **) & (addr))
 449:C:/Workspaces/DAVE-4.3/WS_2016_09_02/Flightcontroller_PWM_CopterRocks_Working/Dave/Generated/CMSIS_DSP\arm_math.h **** 
 450:C:/Workspaces/DAVE-4.3/WS_2016_09_02/Flightcontroller_PWM_CopterRocks_Working/Dave/Generated/CMSIS_DSP\arm_math.h **** #if defined (ARM_MATH_CM3) || defined (ARM_MATH_CM0_FAMILY)
 451:C:/Workspaces/DAVE-4.3/WS_2016_09_02/Flightcontroller_PWM_CopterRocks_Working/Dave/Generated/CMSIS_DSP\arm_math.h ****   /**
 452:C:/Workspaces/DAVE-4.3/WS_2016_09_02/Flightcontroller_PWM_CopterRocks_Working/Dave/Generated/CMSIS_DSP\arm_math.h ****    * @brief definition to pack two 16 bit values.
 453:C:/Workspaces/DAVE-4.3/WS_2016_09_02/Flightcontroller_PWM_CopterRocks_Working/Dave/Generated/CMSIS_DSP\arm_math.h ****    */
 454:C:/Workspaces/DAVE-4.3/WS_2016_09_02/Flightcontroller_PWM_CopterRocks_Working/Dave/Generated/CMSIS_DSP\arm_math.h **** #define __PKHBT(ARG1, ARG2, ARG3)      ( (((int32_t)(ARG1) <<  0) & (int32_t)0x0000FFFF) | \
 455:C:/Workspaces/DAVE-4.3/WS_2016_09_02/Flightcontroller_PWM_CopterRocks_Working/Dave/Generated/CMSIS_DSP\arm_math.h ****                                          (((int32_t)(ARG2) << ARG3) & (int32_t)0xFFFF0000)  )
 456:C:/Workspaces/DAVE-4.3/WS_2016_09_02/Flightcontroller_PWM_CopterRocks_Working/Dave/Generated/CMSIS_DSP\arm_math.h **** #define __PKHTB(ARG1, ARG2, ARG3)      ( (((int32_t)(ARG1) <<  0) & (int32_t)0xFFFF0000) | \
 457:C:/Workspaces/DAVE-4.3/WS_2016_09_02/Flightcontroller_PWM_CopterRocks_Working/Dave/Generated/CMSIS_DSP\arm_math.h ****                                          (((int32_t)(ARG2) >> ARG3) & (int32_t)0x0000FFFF)  )
 458:C:/Workspaces/DAVE-4.3/WS_2016_09_02/Flightcontroller_PWM_CopterRocks_Working/Dave/Generated/CMSIS_DSP\arm_math.h **** 
 459:C:/Workspaces/DAVE-4.3/WS_2016_09_02/Flightcontroller_PWM_CopterRocks_Working/Dave/Generated/CMSIS_DSP\arm_math.h **** #endif
 460:C:/Workspaces/DAVE-4.3/WS_2016_09_02/Flightcontroller_PWM_CopterRocks_Working/Dave/Generated/CMSIS_DSP\arm_math.h **** 
 461:C:/Workspaces/DAVE-4.3/WS_2016_09_02/Flightcontroller_PWM_CopterRocks_Working/Dave/Generated/CMSIS_DSP\arm_math.h **** 
 462:C:/Workspaces/DAVE-4.3/WS_2016_09_02/Flightcontroller_PWM_CopterRocks_Working/Dave/Generated/CMSIS_DSP\arm_math.h ****    /**
 463:C:/Workspaces/DAVE-4.3/WS_2016_09_02/Flightcontroller_PWM_CopterRocks_Working/Dave/Generated/CMSIS_DSP\arm_math.h ****    * @brief definition to pack four 8 bit values.
 464:C:/Workspaces/DAVE-4.3/WS_2016_09_02/Flightcontroller_PWM_CopterRocks_Working/Dave/Generated/CMSIS_DSP\arm_math.h ****    */
 465:C:/Workspaces/DAVE-4.3/WS_2016_09_02/Flightcontroller_PWM_CopterRocks_Working/Dave/Generated/CMSIS_DSP\arm_math.h **** #ifndef ARM_MATH_BIG_ENDIAN
 466:C:/Workspaces/DAVE-4.3/WS_2016_09_02/Flightcontroller_PWM_CopterRocks_Working/Dave/Generated/CMSIS_DSP\arm_math.h **** 
 467:C:/Workspaces/DAVE-4.3/WS_2016_09_02/Flightcontroller_PWM_CopterRocks_Working/Dave/Generated/CMSIS_DSP\arm_math.h **** #define __PACKq7(v0,v1,v2,v3) ( (((int32_t)(v0) <<  0) & (int32_t)0x000000FF) | \
 468:C:/Workspaces/DAVE-4.3/WS_2016_09_02/Flightcontroller_PWM_CopterRocks_Working/Dave/Generated/CMSIS_DSP\arm_math.h ****                                 (((int32_t)(v1) <<  8) & (int32_t)0x0000FF00) | \
 469:C:/Workspaces/DAVE-4.3/WS_2016_09_02/Flightcontroller_PWM_CopterRocks_Working/Dave/Generated/CMSIS_DSP\arm_math.h ****                                 (((int32_t)(v2) << 16) & (int32_t)0x00FF0000) | \
 470:C:/Workspaces/DAVE-4.3/WS_2016_09_02/Flightcontroller_PWM_CopterRocks_Working/Dave/Generated/CMSIS_DSP\arm_math.h ****                                 (((int32_t)(v3) << 24) & (int32_t)0xFF000000)  )
 471:C:/Workspaces/DAVE-4.3/WS_2016_09_02/Flightcontroller_PWM_CopterRocks_Working/Dave/Generated/CMSIS_DSP\arm_math.h **** #else
 472:C:/Workspaces/DAVE-4.3/WS_2016_09_02/Flightcontroller_PWM_CopterRocks_Working/Dave/Generated/CMSIS_DSP\arm_math.h **** 
 473:C:/Workspaces/DAVE-4.3/WS_2016_09_02/Flightcontroller_PWM_CopterRocks_Working/Dave/Generated/CMSIS_DSP\arm_math.h **** #define __PACKq7(v0,v1,v2,v3) ( (((int32_t)(v3) <<  0) & (int32_t)0x000000FF) | \
 474:C:/Workspaces/DAVE-4.3/WS_2016_09_02/Flightcontroller_PWM_CopterRocks_Working/Dave/Generated/CMSIS_DSP\arm_math.h ****                                 (((int32_t)(v2) <<  8) & (int32_t)0x0000FF00) | \
 475:C:/Workspaces/DAVE-4.3/WS_2016_09_02/Flightcontroller_PWM_CopterRocks_Working/Dave/Generated/CMSIS_DSP\arm_math.h ****                                 (((int32_t)(v1) << 16) & (int32_t)0x00FF0000) | \
 476:C:/Workspaces/DAVE-4.3/WS_2016_09_02/Flightcontroller_PWM_CopterRocks_Working/Dave/Generated/CMSIS_DSP\arm_math.h ****                                 (((int32_t)(v0) << 24) & (int32_t)0xFF000000)  )
 477:C:/Workspaces/DAVE-4.3/WS_2016_09_02/Flightcontroller_PWM_CopterRocks_Working/Dave/Generated/CMSIS_DSP\arm_math.h **** 
 478:C:/Workspaces/DAVE-4.3/WS_2016_09_02/Flightcontroller_PWM_CopterRocks_Working/Dave/Generated/CMSIS_DSP\arm_math.h **** #endif
 479:C:/Workspaces/DAVE-4.3/WS_2016_09_02/Flightcontroller_PWM_CopterRocks_Working/Dave/Generated/CMSIS_DSP\arm_math.h **** 
 480:C:/Workspaces/DAVE-4.3/WS_2016_09_02/Flightcontroller_PWM_CopterRocks_Working/Dave/Generated/CMSIS_DSP\arm_math.h **** 
 481:C:/Workspaces/DAVE-4.3/WS_2016_09_02/Flightcontroller_PWM_CopterRocks_Working/Dave/Generated/CMSIS_DSP\arm_math.h ****   /**
 482:C:/Workspaces/DAVE-4.3/WS_2016_09_02/Flightcontroller_PWM_CopterRocks_Working/Dave/Generated/CMSIS_DSP\arm_math.h ****    * @brief Clips Q63 to Q31 values.
 483:C:/Workspaces/DAVE-4.3/WS_2016_09_02/Flightcontroller_PWM_CopterRocks_Working/Dave/Generated/CMSIS_DSP\arm_math.h ****    */
 484:C:/Workspaces/DAVE-4.3/WS_2016_09_02/Flightcontroller_PWM_CopterRocks_Working/Dave/Generated/CMSIS_DSP\arm_math.h ****   static __INLINE q31_t clip_q63_to_q31(
 485:C:/Workspaces/DAVE-4.3/WS_2016_09_02/Flightcontroller_PWM_CopterRocks_Working/Dave/Generated/CMSIS_DSP\arm_math.h ****   q63_t x)
 486:C:/Workspaces/DAVE-4.3/WS_2016_09_02/Flightcontroller_PWM_CopterRocks_Working/Dave/Generated/CMSIS_DSP\arm_math.h ****   {
  27              	 .loc 1 486 0
  28              	 .cfi_startproc
  29              	 
  30              	 
  31              	 
  32 0000 2DE9B003 	 push {r4,r5,r7,r8,r9}
  33              	.LCFI0:
  34              	 .cfi_def_cfa_offset 20
  35              	 .cfi_offset 4,-20
  36              	 .cfi_offset 5,-16
  37              	 .cfi_offset 7,-12
  38              	 .cfi_offset 8,-8
  39              	 .cfi_offset 9,-4
  40 0004 83B0     	 sub sp,sp,#12
  41              	.LCFI1:
  42              	 .cfi_def_cfa_offset 32
  43 0006 00AF     	 add r7,sp,#0
  44              	.LCFI2:
  45              	 .cfi_def_cfa_register 7
  46 0008 C7E90001 	 strd r0,[r7]
 487:C:/Workspaces/DAVE-4.3/WS_2016_09_02/Flightcontroller_PWM_CopterRocks_Working/Dave/Generated/CMSIS_DSP\arm_math.h ****     return ((q31_t) (x >> 32) != ((q31_t) x >> 31)) ?
  47              	 .loc 1 487 0
  48 000c D7E90023 	 ldrd r2,[r7]
  49 0010 9846     	 mov r8,r3
  50 0012 4FEAE379 	 asr r9,r3,#31
  51 0016 4246     	 mov r2,r8
  52 0018 3B68     	 ldr r3,[r7]
  53 001a DB17     	 asrs r3,r3,#31
 488:C:/Workspaces/DAVE-4.3/WS_2016_09_02/Flightcontroller_PWM_CopterRocks_Working/Dave/Generated/CMSIS_DSP\arm_math.h ****       ((0x7FFFFFFF ^ ((q31_t) (x >> 63)))) : (q31_t) x;
  54              	 .loc 1 488 0
  55 001c 9A42     	 cmp r2,r3
  56 001e 08D0     	 beq .L2
  57              	 .loc 1 488 0 is_stmt 0 discriminator 1
  58 0020 D7E90023 	 ldrd r2,[r7]
  59 0024 DC17     	 asrs r4,r3,#31
  60 0026 DD17     	 asrs r5,r3,#31
  61 0028 2346     	 mov r3,r4
  62 002a 83F00043 	 eor r3,r3,#-2147483648
  63 002e DB43     	 mvns r3,r3
  64 0030 00E0     	 b .L3
  65              	.L2:
  66              	 .loc 1 488 0 discriminator 2
  67 0032 3B68     	 ldr r3,[r7]
  68              	.L3:
 489:C:/Workspaces/DAVE-4.3/WS_2016_09_02/Flightcontroller_PWM_CopterRocks_Working/Dave/Generated/CMSIS_DSP\arm_math.h ****   }
  69              	 .loc 1 489 0 is_stmt 1
  70 0034 1846     	 mov r0,r3
  71 0036 0C37     	 adds r7,r7,#12
  72              	.LCFI3:
  73              	 .cfi_def_cfa_offset 20
  74 0038 BD46     	 mov sp,r7
  75              	.LCFI4:
  76              	 .cfi_def_cfa_register 13
  77              	 
  78 003a BDE8B003 	 pop {r4,r5,r7,r8,r9}
  79              	.LCFI5:
  80              	 .cfi_restore 9
  81              	 .cfi_restore 8
  82              	 .cfi_restore 7
  83              	 .cfi_restore 5
  84              	 .cfi_restore 4
  85              	 .cfi_def_cfa_offset 0
  86 003e 7047     	 bx lr
  87              	 .cfi_endproc
  88              	.LFE106:
  90              	 .global __aeabi_f2lz
  91              	 .section .text.arm_float_to_q31,"ax",%progbits
  92              	 .align 2
  93              	 .global arm_float_to_q31
  94              	 .thumb
  95              	 .thumb_func
  97              	arm_float_to_q31:
  98              	.LFB139:
  99              	 .file 2 "../Dave/Generated/CMSIS_DSP/SupportFunctions/arm_float_to_q31.c"
   1:../Dave/Generated/CMSIS_DSP/SupportFunctions/arm_float_to_q31.c **** /* ----------------------------------------------------------------------------    
   2:../Dave/Generated/CMSIS_DSP/SupportFunctions/arm_float_to_q31.c **** * Copyright (C) 2010-2014 ARM Limited. All rights reserved.    
   3:../Dave/Generated/CMSIS_DSP/SupportFunctions/arm_float_to_q31.c **** *    
   4:../Dave/Generated/CMSIS_DSP/SupportFunctions/arm_float_to_q31.c **** * $Date:        31. July 2014
   5:../Dave/Generated/CMSIS_DSP/SupportFunctions/arm_float_to_q31.c **** * $Revision: 	V1.4.4  
   6:../Dave/Generated/CMSIS_DSP/SupportFunctions/arm_float_to_q31.c **** *    
   7:../Dave/Generated/CMSIS_DSP/SupportFunctions/arm_float_to_q31.c **** * Project: 	    CMSIS DSP Library    
   8:../Dave/Generated/CMSIS_DSP/SupportFunctions/arm_float_to_q31.c **** * Title:		arm_float_to_q31.c    
   9:../Dave/Generated/CMSIS_DSP/SupportFunctions/arm_float_to_q31.c **** *    
  10:../Dave/Generated/CMSIS_DSP/SupportFunctions/arm_float_to_q31.c **** * Description:	Converts the elements of the floating-point vector to Q31 vector.    
  11:../Dave/Generated/CMSIS_DSP/SupportFunctions/arm_float_to_q31.c **** *    
  12:../Dave/Generated/CMSIS_DSP/SupportFunctions/arm_float_to_q31.c **** * Target Processor: Cortex-M4/Cortex-M3/Cortex-M0
  13:../Dave/Generated/CMSIS_DSP/SupportFunctions/arm_float_to_q31.c **** *  
  14:../Dave/Generated/CMSIS_DSP/SupportFunctions/arm_float_to_q31.c **** * Redistribution and use in source and binary forms, with or without 
  15:../Dave/Generated/CMSIS_DSP/SupportFunctions/arm_float_to_q31.c **** * modification, are permitted provided that the following conditions
  16:../Dave/Generated/CMSIS_DSP/SupportFunctions/arm_float_to_q31.c **** * are met:
  17:../Dave/Generated/CMSIS_DSP/SupportFunctions/arm_float_to_q31.c **** *   - Redistributions of source code must retain the above copyright
  18:../Dave/Generated/CMSIS_DSP/SupportFunctions/arm_float_to_q31.c **** *     notice, this list of conditions and the following disclaimer.
  19:../Dave/Generated/CMSIS_DSP/SupportFunctions/arm_float_to_q31.c **** *   - Redistributions in binary form must reproduce the above copyright
  20:../Dave/Generated/CMSIS_DSP/SupportFunctions/arm_float_to_q31.c **** *     notice, this list of conditions and the following disclaimer in
  21:../Dave/Generated/CMSIS_DSP/SupportFunctions/arm_float_to_q31.c **** *     the documentation and/or other materials provided with the 
  22:../Dave/Generated/CMSIS_DSP/SupportFunctions/arm_float_to_q31.c **** *     distribution.
  23:../Dave/Generated/CMSIS_DSP/SupportFunctions/arm_float_to_q31.c **** *   - Neither the name of ARM LIMITED nor the names of its contributors
  24:../Dave/Generated/CMSIS_DSP/SupportFunctions/arm_float_to_q31.c **** *     may be used to endorse or promote products derived from this
  25:../Dave/Generated/CMSIS_DSP/SupportFunctions/arm_float_to_q31.c **** *     software without specific prior written permission.
  26:../Dave/Generated/CMSIS_DSP/SupportFunctions/arm_float_to_q31.c **** *
  27:../Dave/Generated/CMSIS_DSP/SupportFunctions/arm_float_to_q31.c **** * THIS SOFTWARE IS PROVIDED BY THE COPYRIGHT HOLDERS AND CONTRIBUTORS
  28:../Dave/Generated/CMSIS_DSP/SupportFunctions/arm_float_to_q31.c **** * "AS IS" AND ANY EXPRESS OR IMPLIED WARRANTIES, INCLUDING, BUT NOT
  29:../Dave/Generated/CMSIS_DSP/SupportFunctions/arm_float_to_q31.c **** * LIMITED TO, THE IMPLIED WARRANTIES OF MERCHANTABILITY AND FITNESS
  30:../Dave/Generated/CMSIS_DSP/SupportFunctions/arm_float_to_q31.c **** * FOR A PARTICULAR PURPOSE ARE DISCLAIMED. IN NO EVENT SHALL THE 
  31:../Dave/Generated/CMSIS_DSP/SupportFunctions/arm_float_to_q31.c **** * COPYRIGHT OWNER OR CONTRIBUTORS BE LIABLE FOR ANY DIRECT, INDIRECT,
  32:../Dave/Generated/CMSIS_DSP/SupportFunctions/arm_float_to_q31.c **** * INCIDENTAL, SPECIAL, EXEMPLARY, OR CONSEQUENTIAL DAMAGES (INCLUDING,
  33:../Dave/Generated/CMSIS_DSP/SupportFunctions/arm_float_to_q31.c **** * BUT NOT LIMITED TO, PROCUREMENT OF SUBSTITUTE GOODS OR SERVICES;
  34:../Dave/Generated/CMSIS_DSP/SupportFunctions/arm_float_to_q31.c **** * LOSS OF USE, DATA, OR PROFITS; OR BUSINESS INTERRUPTION) HOWEVER
  35:../Dave/Generated/CMSIS_DSP/SupportFunctions/arm_float_to_q31.c **** * CAUSED AND ON ANY THEORY OF LIABILITY, WHETHER IN CONTRACT, STRICT
  36:../Dave/Generated/CMSIS_DSP/SupportFunctions/arm_float_to_q31.c **** * LIABILITY, OR TORT (INCLUDING NEGLIGENCE OR OTHERWISE) ARISING IN
  37:../Dave/Generated/CMSIS_DSP/SupportFunctions/arm_float_to_q31.c **** * ANY WAY OUT OF THE USE OF THIS SOFTWARE, EVEN IF ADVISED OF THE
  38:../Dave/Generated/CMSIS_DSP/SupportFunctions/arm_float_to_q31.c **** * POSSIBILITY OF SUCH DAMAGE.  
  39:../Dave/Generated/CMSIS_DSP/SupportFunctions/arm_float_to_q31.c **** * ---------------------------------------------------------------------------- */
  40:../Dave/Generated/CMSIS_DSP/SupportFunctions/arm_float_to_q31.c **** 
  41:../Dave/Generated/CMSIS_DSP/SupportFunctions/arm_float_to_q31.c **** #include "CMSIS_DSP/cmsis_dsp.h"
  42:../Dave/Generated/CMSIS_DSP/SupportFunctions/arm_float_to_q31.c **** 
  43:../Dave/Generated/CMSIS_DSP/SupportFunctions/arm_float_to_q31.c **** /**    
  44:../Dave/Generated/CMSIS_DSP/SupportFunctions/arm_float_to_q31.c ****  * @ingroup groupSupport    
  45:../Dave/Generated/CMSIS_DSP/SupportFunctions/arm_float_to_q31.c ****  */
  46:../Dave/Generated/CMSIS_DSP/SupportFunctions/arm_float_to_q31.c **** 
  47:../Dave/Generated/CMSIS_DSP/SupportFunctions/arm_float_to_q31.c **** /**    
  48:../Dave/Generated/CMSIS_DSP/SupportFunctions/arm_float_to_q31.c ****  * @defgroup float_to_x  Convert 32-bit floating point value    
  49:../Dave/Generated/CMSIS_DSP/SupportFunctions/arm_float_to_q31.c ****  */
  50:../Dave/Generated/CMSIS_DSP/SupportFunctions/arm_float_to_q31.c **** 
  51:../Dave/Generated/CMSIS_DSP/SupportFunctions/arm_float_to_q31.c **** /**    
  52:../Dave/Generated/CMSIS_DSP/SupportFunctions/arm_float_to_q31.c ****  * @addtogroup float_to_x    
  53:../Dave/Generated/CMSIS_DSP/SupportFunctions/arm_float_to_q31.c ****  * @{    
  54:../Dave/Generated/CMSIS_DSP/SupportFunctions/arm_float_to_q31.c ****  */
  55:../Dave/Generated/CMSIS_DSP/SupportFunctions/arm_float_to_q31.c **** 
  56:../Dave/Generated/CMSIS_DSP/SupportFunctions/arm_float_to_q31.c **** /**    
  57:../Dave/Generated/CMSIS_DSP/SupportFunctions/arm_float_to_q31.c ****  * @brief Converts the elements of the floating-point vector to Q31 vector.    
  58:../Dave/Generated/CMSIS_DSP/SupportFunctions/arm_float_to_q31.c ****  * @param[in]       *pSrc points to the floating-point input vector    
  59:../Dave/Generated/CMSIS_DSP/SupportFunctions/arm_float_to_q31.c ****  * @param[out]      *pDst points to the Q31 output vector   
  60:../Dave/Generated/CMSIS_DSP/SupportFunctions/arm_float_to_q31.c ****  * @param[in]       blockSize length of the input vector    
  61:../Dave/Generated/CMSIS_DSP/SupportFunctions/arm_float_to_q31.c ****  * @return none.    
  62:../Dave/Generated/CMSIS_DSP/SupportFunctions/arm_float_to_q31.c ****  *    
  63:../Dave/Generated/CMSIS_DSP/SupportFunctions/arm_float_to_q31.c ****  *\par Description:    
  64:../Dave/Generated/CMSIS_DSP/SupportFunctions/arm_float_to_q31.c ****  * \par   
  65:../Dave/Generated/CMSIS_DSP/SupportFunctions/arm_float_to_q31.c ****  * The equation used for the conversion process is:    
  66:../Dave/Generated/CMSIS_DSP/SupportFunctions/arm_float_to_q31.c ****  *   
  67:../Dave/Generated/CMSIS_DSP/SupportFunctions/arm_float_to_q31.c ****  * <pre>    
  68:../Dave/Generated/CMSIS_DSP/SupportFunctions/arm_float_to_q31.c ****  * 	pDst[n] = (q31_t)(pSrc[n] * 2147483648);   0 <= n < blockSize.    
  69:../Dave/Generated/CMSIS_DSP/SupportFunctions/arm_float_to_q31.c ****  * </pre>    
  70:../Dave/Generated/CMSIS_DSP/SupportFunctions/arm_float_to_q31.c ****  * <b>Scaling and Overflow Behavior:</b>    
  71:../Dave/Generated/CMSIS_DSP/SupportFunctions/arm_float_to_q31.c ****  * \par    
  72:../Dave/Generated/CMSIS_DSP/SupportFunctions/arm_float_to_q31.c ****  * The function uses saturating arithmetic.    
  73:../Dave/Generated/CMSIS_DSP/SupportFunctions/arm_float_to_q31.c ****  * Results outside of the allowable Q31 range[0x80000000 0x7FFFFFFF] will be saturated.    
  74:../Dave/Generated/CMSIS_DSP/SupportFunctions/arm_float_to_q31.c ****  *   
  75:../Dave/Generated/CMSIS_DSP/SupportFunctions/arm_float_to_q31.c ****  * \note In order to apply rounding, the library should be rebuilt with the ROUNDING macro     
  76:../Dave/Generated/CMSIS_DSP/SupportFunctions/arm_float_to_q31.c ****  * defined in the preprocessor section of project options.     
  77:../Dave/Generated/CMSIS_DSP/SupportFunctions/arm_float_to_q31.c ****  */
  78:../Dave/Generated/CMSIS_DSP/SupportFunctions/arm_float_to_q31.c **** 
  79:../Dave/Generated/CMSIS_DSP/SupportFunctions/arm_float_to_q31.c **** 
  80:../Dave/Generated/CMSIS_DSP/SupportFunctions/arm_float_to_q31.c **** void arm_float_to_q31(
  81:../Dave/Generated/CMSIS_DSP/SupportFunctions/arm_float_to_q31.c ****   float32_t * pSrc,
  82:../Dave/Generated/CMSIS_DSP/SupportFunctions/arm_float_to_q31.c ****   q31_t * pDst,
  83:../Dave/Generated/CMSIS_DSP/SupportFunctions/arm_float_to_q31.c ****   uint32_t blockSize)
  84:../Dave/Generated/CMSIS_DSP/SupportFunctions/arm_float_to_q31.c **** {
 100              	 .loc 2 84 0
 101              	 .cfi_startproc
 102              	 
 103              	 
 104 0000 90B5     	 push {r4,r7,lr}
 105              	.LCFI6:
 106              	 .cfi_def_cfa_offset 12
 107              	 .cfi_offset 4,-12
 108              	 .cfi_offset 7,-8
 109              	 .cfi_offset 14,-4
 110 0002 89B0     	 sub sp,sp,#36
 111              	.LCFI7:
 112              	 .cfi_def_cfa_offset 48
 113 0004 00AF     	 add r7,sp,#0
 114              	.LCFI8:
 115              	 .cfi_def_cfa_register 7
 116 0006 F860     	 str r0,[r7,#12]
 117 0008 B960     	 str r1,[r7,#8]
 118 000a 7A60     	 str r2,[r7,#4]
  85:../Dave/Generated/CMSIS_DSP/SupportFunctions/arm_float_to_q31.c ****   float32_t *pIn = pSrc;                         /* Src pointer */
 119              	 .loc 2 85 0
 120 000c FB68     	 ldr r3,[r7,#12]
 121 000e FB61     	 str r3,[r7,#28]
  86:../Dave/Generated/CMSIS_DSP/SupportFunctions/arm_float_to_q31.c ****   uint32_t blkCnt;                               /* loop counter */
  87:../Dave/Generated/CMSIS_DSP/SupportFunctions/arm_float_to_q31.c **** 
  88:../Dave/Generated/CMSIS_DSP/SupportFunctions/arm_float_to_q31.c **** #ifdef ARM_MATH_ROUNDING
  89:../Dave/Generated/CMSIS_DSP/SupportFunctions/arm_float_to_q31.c **** 
  90:../Dave/Generated/CMSIS_DSP/SupportFunctions/arm_float_to_q31.c ****   float32_t in;
  91:../Dave/Generated/CMSIS_DSP/SupportFunctions/arm_float_to_q31.c **** 
  92:../Dave/Generated/CMSIS_DSP/SupportFunctions/arm_float_to_q31.c **** #endif /*      #ifdef ARM_MATH_ROUNDING        */
  93:../Dave/Generated/CMSIS_DSP/SupportFunctions/arm_float_to_q31.c **** 
  94:../Dave/Generated/CMSIS_DSP/SupportFunctions/arm_float_to_q31.c **** #ifndef ARM_MATH_CM0_FAMILY
  95:../Dave/Generated/CMSIS_DSP/SupportFunctions/arm_float_to_q31.c **** 
  96:../Dave/Generated/CMSIS_DSP/SupportFunctions/arm_float_to_q31.c ****   /* Run the below code for Cortex-M4 and Cortex-M3 */
  97:../Dave/Generated/CMSIS_DSP/SupportFunctions/arm_float_to_q31.c **** 
  98:../Dave/Generated/CMSIS_DSP/SupportFunctions/arm_float_to_q31.c ****   /*loop Unrolling */
  99:../Dave/Generated/CMSIS_DSP/SupportFunctions/arm_float_to_q31.c ****   blkCnt = blockSize >> 2u;
 122              	 .loc 2 99 0
 123 0010 7B68     	 ldr r3,[r7,#4]
 124 0012 9B08     	 lsrs r3,r3,#2
 125 0014 BB61     	 str r3,[r7,#24]
 100:../Dave/Generated/CMSIS_DSP/SupportFunctions/arm_float_to_q31.c **** 
 101:../Dave/Generated/CMSIS_DSP/SupportFunctions/arm_float_to_q31.c ****   /* First part of the processing with loop unrolling.  Compute 4 outputs at a time.    
 102:../Dave/Generated/CMSIS_DSP/SupportFunctions/arm_float_to_q31.c ****    ** a second loop below computes the remaining 1 to 3 samples. */
 103:../Dave/Generated/CMSIS_DSP/SupportFunctions/arm_float_to_q31.c ****   while(blkCnt > 0u)
 126              	 .loc 2 103 0
 127 0016 B6E0     	 b .L6
 128              	.L19:
 104:../Dave/Generated/CMSIS_DSP/SupportFunctions/arm_float_to_q31.c ****   {
 105:../Dave/Generated/CMSIS_DSP/SupportFunctions/arm_float_to_q31.c **** 
 106:../Dave/Generated/CMSIS_DSP/SupportFunctions/arm_float_to_q31.c **** #ifdef ARM_MATH_ROUNDING
 107:../Dave/Generated/CMSIS_DSP/SupportFunctions/arm_float_to_q31.c **** 
 108:../Dave/Generated/CMSIS_DSP/SupportFunctions/arm_float_to_q31.c ****     /* C = A * 32768 */
 109:../Dave/Generated/CMSIS_DSP/SupportFunctions/arm_float_to_q31.c ****     /* convert from float to Q31 and then store the results in the destination buffer */
 110:../Dave/Generated/CMSIS_DSP/SupportFunctions/arm_float_to_q31.c ****     in = *pIn++;
 129              	 .loc 2 110 0
 130 0018 FB69     	 ldr r3,[r7,#28]
 131 001a 1A1D     	 adds r2,r3,#4
 132 001c FA61     	 str r2,[r7,#28]
 133 001e 1B68     	 ldr r3,[r3]
 134 0020 7B61     	 str r3,[r7,#20]
 111:../Dave/Generated/CMSIS_DSP/SupportFunctions/arm_float_to_q31.c ****     in = (in * 2147483648.0f);
 135              	 .loc 2 111 0
 136 0022 D7ED057A 	 flds s15,[r7,#20]
 137 0026 9FED777A 	 flds s14,.L35
 138 002a 67EE877A 	 fmuls s15,s15,s14
 139 002e C7ED057A 	 fsts s15,[r7,#20]
 112:../Dave/Generated/CMSIS_DSP/SupportFunctions/arm_float_to_q31.c ****     in += in > 0.0f ? 0.5f : -0.5f;
 140              	 .loc 2 112 0
 141 0032 D7ED057A 	 flds s15,[r7,#20]
 142 0036 F5EEC07A 	 fcmpezs s15
 143 003a F1EE10FA 	 fmstat
 144 003e 02DD     	 ble .L30
 145              	 .loc 2 112 0 is_stmt 0 discriminator 1
 146 0040 F6EE007A 	 fconsts s15,#96
 147 0044 01E0     	 b .L9
 148              	.L30:
 149              	 .loc 2 112 0 discriminator 2
 150 0046 FEEE007A 	 fconsts s15,#224
 151              	.L9:
 152              	 .loc 2 112 0 discriminator 4
 153 004a 97ED057A 	 flds s14,[r7,#20]
 154 004e 77EE277A 	 fadds s15,s14,s15
 155 0052 C7ED057A 	 fsts s15,[r7,#20]
 113:../Dave/Generated/CMSIS_DSP/SupportFunctions/arm_float_to_q31.c ****     *pDst++ = clip_q63_to_q31((q63_t) (in));
 156              	 .loc 2 113 0 is_stmt 1 discriminator 4
 157 0056 BC68     	 ldr r4,[r7,#8]
 158 0058 231D     	 adds r3,r4,#4
 159 005a BB60     	 str r3,[r7,#8]
 160 005c 7869     	 ldr r0,[r7,#20]
 161 005e FFF7FEFF 	 bl __aeabi_f2lz
 162 0062 0246     	 mov r2,r0
 163 0064 0B46     	 mov r3,r1
 164 0066 1046     	 mov r0,r2
 165 0068 1946     	 mov r1,r3
 166 006a FFF7FEFF 	 bl clip_q63_to_q31
 167 006e 0346     	 mov r3,r0
 168 0070 2360     	 str r3,[r4]
 114:../Dave/Generated/CMSIS_DSP/SupportFunctions/arm_float_to_q31.c **** 
 115:../Dave/Generated/CMSIS_DSP/SupportFunctions/arm_float_to_q31.c ****     in = *pIn++;
 169              	 .loc 2 115 0 discriminator 4
 170 0072 FB69     	 ldr r3,[r7,#28]
 171 0074 1A1D     	 adds r2,r3,#4
 172 0076 FA61     	 str r2,[r7,#28]
 173 0078 1B68     	 ldr r3,[r3]
 174 007a 7B61     	 str r3,[r7,#20]
 116:../Dave/Generated/CMSIS_DSP/SupportFunctions/arm_float_to_q31.c ****     in = (in * 2147483648.0f);
 175              	 .loc 2 116 0 discriminator 4
 176 007c D7ED057A 	 flds s15,[r7,#20]
 177 0080 9FED607A 	 flds s14,.L35
 178 0084 67EE877A 	 fmuls s15,s15,s14
 179 0088 C7ED057A 	 fsts s15,[r7,#20]
 117:../Dave/Generated/CMSIS_DSP/SupportFunctions/arm_float_to_q31.c ****     in += in > 0.0f ? 0.5f : -0.5f;
 180              	 .loc 2 117 0 discriminator 4
 181 008c D7ED057A 	 flds s15,[r7,#20]
 182 0090 F5EEC07A 	 fcmpezs s15
 183 0094 F1EE10FA 	 fmstat
 184 0098 02DD     	 ble .L31
 185              	 .loc 2 117 0 is_stmt 0 discriminator 1
 186 009a F6EE007A 	 fconsts s15,#96
 187 009e 01E0     	 b .L12
 188              	.L31:
 189              	 .loc 2 117 0 discriminator 2
 190 00a0 FEEE007A 	 fconsts s15,#224
 191              	.L12:
 192              	 .loc 2 117 0 discriminator 4
 193 00a4 97ED057A 	 flds s14,[r7,#20]
 194 00a8 77EE277A 	 fadds s15,s14,s15
 195 00ac C7ED057A 	 fsts s15,[r7,#20]
 118:../Dave/Generated/CMSIS_DSP/SupportFunctions/arm_float_to_q31.c ****     *pDst++ = clip_q63_to_q31((q63_t) (in));
 196              	 .loc 2 118 0 is_stmt 1 discriminator 4
 197 00b0 BC68     	 ldr r4,[r7,#8]
 198 00b2 231D     	 adds r3,r4,#4
 199 00b4 BB60     	 str r3,[r7,#8]
 200 00b6 7869     	 ldr r0,[r7,#20]
 201 00b8 FFF7FEFF 	 bl __aeabi_f2lz
 202 00bc 0246     	 mov r2,r0
 203 00be 0B46     	 mov r3,r1
 204 00c0 1046     	 mov r0,r2
 205 00c2 1946     	 mov r1,r3
 206 00c4 FFF7FEFF 	 bl clip_q63_to_q31
 207 00c8 0346     	 mov r3,r0
 208 00ca 2360     	 str r3,[r4]
 119:../Dave/Generated/CMSIS_DSP/SupportFunctions/arm_float_to_q31.c **** 
 120:../Dave/Generated/CMSIS_DSP/SupportFunctions/arm_float_to_q31.c ****     in = *pIn++;
 209              	 .loc 2 120 0 discriminator 4
 210 00cc FB69     	 ldr r3,[r7,#28]
 211 00ce 1A1D     	 adds r2,r3,#4
 212 00d0 FA61     	 str r2,[r7,#28]
 213 00d2 1B68     	 ldr r3,[r3]
 214 00d4 7B61     	 str r3,[r7,#20]
 121:../Dave/Generated/CMSIS_DSP/SupportFunctions/arm_float_to_q31.c ****     in = (in * 2147483648.0f);
 215              	 .loc 2 121 0 discriminator 4
 216 00d6 D7ED057A 	 flds s15,[r7,#20]
 217 00da 9FED4A7A 	 flds s14,.L35
 218 00de 67EE877A 	 fmuls s15,s15,s14
 219 00e2 C7ED057A 	 fsts s15,[r7,#20]
 122:../Dave/Generated/CMSIS_DSP/SupportFunctions/arm_float_to_q31.c ****     in += in > 0.0f ? 0.5f : -0.5f;
 220              	 .loc 2 122 0 discriminator 4
 221 00e6 D7ED057A 	 flds s15,[r7,#20]
 222 00ea F5EEC07A 	 fcmpezs s15
 223 00ee F1EE10FA 	 fmstat
 224 00f2 02DD     	 ble .L32
 225              	 .loc 2 122 0 is_stmt 0 discriminator 1
 226 00f4 F6EE007A 	 fconsts s15,#96
 227 00f8 01E0     	 b .L15
 228              	.L32:
 229              	 .loc 2 122 0 discriminator 2
 230 00fa FEEE007A 	 fconsts s15,#224
 231              	.L15:
 232              	 .loc 2 122 0 discriminator 4
 233 00fe 97ED057A 	 flds s14,[r7,#20]
 234 0102 77EE277A 	 fadds s15,s14,s15
 235 0106 C7ED057A 	 fsts s15,[r7,#20]
 123:../Dave/Generated/CMSIS_DSP/SupportFunctions/arm_float_to_q31.c ****     *pDst++ = clip_q63_to_q31((q63_t) (in));
 236              	 .loc 2 123 0 is_stmt 1 discriminator 4
 237 010a BC68     	 ldr r4,[r7,#8]
 238 010c 231D     	 adds r3,r4,#4
 239 010e BB60     	 str r3,[r7,#8]
 240 0110 7869     	 ldr r0,[r7,#20]
 241 0112 FFF7FEFF 	 bl __aeabi_f2lz
 242 0116 0246     	 mov r2,r0
 243 0118 0B46     	 mov r3,r1
 244 011a 1046     	 mov r0,r2
 245 011c 1946     	 mov r1,r3
 246 011e FFF7FEFF 	 bl clip_q63_to_q31
 247 0122 0346     	 mov r3,r0
 248 0124 2360     	 str r3,[r4]
 124:../Dave/Generated/CMSIS_DSP/SupportFunctions/arm_float_to_q31.c **** 
 125:../Dave/Generated/CMSIS_DSP/SupportFunctions/arm_float_to_q31.c ****     in = *pIn++;
 249              	 .loc 2 125 0 discriminator 4
 250 0126 FB69     	 ldr r3,[r7,#28]
 251 0128 1A1D     	 adds r2,r3,#4
 252 012a FA61     	 str r2,[r7,#28]
 253 012c 1B68     	 ldr r3,[r3]
 254 012e 7B61     	 str r3,[r7,#20]
 126:../Dave/Generated/CMSIS_DSP/SupportFunctions/arm_float_to_q31.c ****     in = (in * 2147483648.0f);
 255              	 .loc 2 126 0 discriminator 4
 256 0130 D7ED057A 	 flds s15,[r7,#20]
 257 0134 9FED337A 	 flds s14,.L35
 258 0138 67EE877A 	 fmuls s15,s15,s14
 259 013c C7ED057A 	 fsts s15,[r7,#20]
 127:../Dave/Generated/CMSIS_DSP/SupportFunctions/arm_float_to_q31.c ****     in += in > 0.0f ? 0.5f : -0.5f;
 260              	 .loc 2 127 0 discriminator 4
 261 0140 D7ED057A 	 flds s15,[r7,#20]
 262 0144 F5EEC07A 	 fcmpezs s15
 263 0148 F1EE10FA 	 fmstat
 264 014c 02DD     	 ble .L33
 265              	 .loc 2 127 0 is_stmt 0 discriminator 1
 266 014e F6EE007A 	 fconsts s15,#96
 267 0152 01E0     	 b .L18
 268              	.L33:
 269              	 .loc 2 127 0 discriminator 2
 270 0154 FEEE007A 	 fconsts s15,#224
 271              	.L18:
 272              	 .loc 2 127 0 discriminator 4
 273 0158 97ED057A 	 flds s14,[r7,#20]
 274 015c 77EE277A 	 fadds s15,s14,s15
 275 0160 C7ED057A 	 fsts s15,[r7,#20]
 128:../Dave/Generated/CMSIS_DSP/SupportFunctions/arm_float_to_q31.c ****     *pDst++ = clip_q63_to_q31((q63_t) (in));
 276              	 .loc 2 128 0 is_stmt 1 discriminator 4
 277 0164 BC68     	 ldr r4,[r7,#8]
 278 0166 231D     	 adds r3,r4,#4
 279 0168 BB60     	 str r3,[r7,#8]
 280 016a 7869     	 ldr r0,[r7,#20]
 281 016c FFF7FEFF 	 bl __aeabi_f2lz
 282 0170 0246     	 mov r2,r0
 283 0172 0B46     	 mov r3,r1
 284 0174 1046     	 mov r0,r2
 285 0176 1946     	 mov r1,r3
 286 0178 FFF7FEFF 	 bl clip_q63_to_q31
 287 017c 0346     	 mov r3,r0
 288 017e 2360     	 str r3,[r4]
 129:../Dave/Generated/CMSIS_DSP/SupportFunctions/arm_float_to_q31.c **** 
 130:../Dave/Generated/CMSIS_DSP/SupportFunctions/arm_float_to_q31.c **** #else
 131:../Dave/Generated/CMSIS_DSP/SupportFunctions/arm_float_to_q31.c **** 
 132:../Dave/Generated/CMSIS_DSP/SupportFunctions/arm_float_to_q31.c ****     /* C = A * 2147483648 */
 133:../Dave/Generated/CMSIS_DSP/SupportFunctions/arm_float_to_q31.c ****     /* convert from float to Q31 and then store the results in the destination buffer */
 134:../Dave/Generated/CMSIS_DSP/SupportFunctions/arm_float_to_q31.c ****     *pDst++ = clip_q63_to_q31((q63_t) (*pIn++ * 2147483648.0f));
 135:../Dave/Generated/CMSIS_DSP/SupportFunctions/arm_float_to_q31.c ****     *pDst++ = clip_q63_to_q31((q63_t) (*pIn++ * 2147483648.0f));
 136:../Dave/Generated/CMSIS_DSP/SupportFunctions/arm_float_to_q31.c ****     *pDst++ = clip_q63_to_q31((q63_t) (*pIn++ * 2147483648.0f));
 137:../Dave/Generated/CMSIS_DSP/SupportFunctions/arm_float_to_q31.c ****     *pDst++ = clip_q63_to_q31((q63_t) (*pIn++ * 2147483648.0f));
 138:../Dave/Generated/CMSIS_DSP/SupportFunctions/arm_float_to_q31.c **** 
 139:../Dave/Generated/CMSIS_DSP/SupportFunctions/arm_float_to_q31.c **** #endif /*      #ifdef ARM_MATH_ROUNDING        */
 140:../Dave/Generated/CMSIS_DSP/SupportFunctions/arm_float_to_q31.c **** 
 141:../Dave/Generated/CMSIS_DSP/SupportFunctions/arm_float_to_q31.c ****     /* Decrement the loop counter */
 142:../Dave/Generated/CMSIS_DSP/SupportFunctions/arm_float_to_q31.c ****     blkCnt--;
 289              	 .loc 2 142 0 discriminator 4
 290 0180 BB69     	 ldr r3,[r7,#24]
 291 0182 013B     	 subs r3,r3,#1
 292 0184 BB61     	 str r3,[r7,#24]
 293              	.L6:
 103:../Dave/Generated/CMSIS_DSP/SupportFunctions/arm_float_to_q31.c ****   {
 294              	 .loc 2 103 0
 295 0186 BB69     	 ldr r3,[r7,#24]
 296 0188 002B     	 cmp r3,#0
 297 018a 7FF445AF 	 bne .L19
 143:../Dave/Generated/CMSIS_DSP/SupportFunctions/arm_float_to_q31.c ****   }
 144:../Dave/Generated/CMSIS_DSP/SupportFunctions/arm_float_to_q31.c **** 
 145:../Dave/Generated/CMSIS_DSP/SupportFunctions/arm_float_to_q31.c ****   /* If the blockSize is not a multiple of 4, compute any remaining output samples here.    
 146:../Dave/Generated/CMSIS_DSP/SupportFunctions/arm_float_to_q31.c ****    ** No loop unrolling is used. */
 147:../Dave/Generated/CMSIS_DSP/SupportFunctions/arm_float_to_q31.c ****   blkCnt = blockSize % 0x4u;
 298              	 .loc 2 147 0
 299 018e 7B68     	 ldr r3,[r7,#4]
 300 0190 03F00303 	 and r3,r3,#3
 301 0194 BB61     	 str r3,[r7,#24]
 148:../Dave/Generated/CMSIS_DSP/SupportFunctions/arm_float_to_q31.c **** 
 149:../Dave/Generated/CMSIS_DSP/SupportFunctions/arm_float_to_q31.c ****   while(blkCnt > 0u)
 302              	 .loc 2 149 0
 303 0196 2FE0     	 b .L20
 304              	.L24:
 150:../Dave/Generated/CMSIS_DSP/SupportFunctions/arm_float_to_q31.c ****   {
 151:../Dave/Generated/CMSIS_DSP/SupportFunctions/arm_float_to_q31.c **** 
 152:../Dave/Generated/CMSIS_DSP/SupportFunctions/arm_float_to_q31.c **** #ifdef ARM_MATH_ROUNDING
 153:../Dave/Generated/CMSIS_DSP/SupportFunctions/arm_float_to_q31.c **** 
 154:../Dave/Generated/CMSIS_DSP/SupportFunctions/arm_float_to_q31.c ****     /* C = A * 2147483648 */
 155:../Dave/Generated/CMSIS_DSP/SupportFunctions/arm_float_to_q31.c ****     /* convert from float to Q31 and then store the results in the destination buffer */
 156:../Dave/Generated/CMSIS_DSP/SupportFunctions/arm_float_to_q31.c ****     in = *pIn++;
 305              	 .loc 2 156 0
 306 0198 FB69     	 ldr r3,[r7,#28]
 307 019a 1A1D     	 adds r2,r3,#4
 308 019c FA61     	 str r2,[r7,#28]
 309 019e 1B68     	 ldr r3,[r3]
 310 01a0 7B61     	 str r3,[r7,#20]
 157:../Dave/Generated/CMSIS_DSP/SupportFunctions/arm_float_to_q31.c ****     in = (in * 2147483648.0f);
 311              	 .loc 2 157 0
 312 01a2 D7ED057A 	 flds s15,[r7,#20]
 313 01a6 9FED177A 	 flds s14,.L35
 314 01aa 67EE877A 	 fmuls s15,s15,s14
 315 01ae C7ED057A 	 fsts s15,[r7,#20]
 158:../Dave/Generated/CMSIS_DSP/SupportFunctions/arm_float_to_q31.c ****     in += in > 0.0f ? 0.5f : -0.5f;
 316              	 .loc 2 158 0
 317 01b2 D7ED057A 	 flds s15,[r7,#20]
 318 01b6 F5EEC07A 	 fcmpezs s15
 319 01ba F1EE10FA 	 fmstat
 320 01be 02DD     	 ble .L34
 321              	 .loc 2 158 0 is_stmt 0 discriminator 1
 322 01c0 F6EE007A 	 fconsts s15,#96
 323 01c4 01E0     	 b .L23
 324              	.L34:
 325              	 .loc 2 158 0 discriminator 2
 326 01c6 FEEE007A 	 fconsts s15,#224
 327              	.L23:
 328              	 .loc 2 158 0 discriminator 4
 329 01ca 97ED057A 	 flds s14,[r7,#20]
 330 01ce 77EE277A 	 fadds s15,s14,s15
 331 01d2 C7ED057A 	 fsts s15,[r7,#20]
 159:../Dave/Generated/CMSIS_DSP/SupportFunctions/arm_float_to_q31.c ****     *pDst++ = clip_q63_to_q31((q63_t) (in));
 332              	 .loc 2 159 0 is_stmt 1 discriminator 4
 333 01d6 BC68     	 ldr r4,[r7,#8]
 334 01d8 231D     	 adds r3,r4,#4
 335 01da BB60     	 str r3,[r7,#8]
 336 01dc 7869     	 ldr r0,[r7,#20]
 337 01de FFF7FEFF 	 bl __aeabi_f2lz
 338 01e2 0246     	 mov r2,r0
 339 01e4 0B46     	 mov r3,r1
 340 01e6 1046     	 mov r0,r2
 341 01e8 1946     	 mov r1,r3
 342 01ea FFF7FEFF 	 bl clip_q63_to_q31
 343 01ee 0346     	 mov r3,r0
 344 01f0 2360     	 str r3,[r4]
 160:../Dave/Generated/CMSIS_DSP/SupportFunctions/arm_float_to_q31.c **** 
 161:../Dave/Generated/CMSIS_DSP/SupportFunctions/arm_float_to_q31.c **** #else
 162:../Dave/Generated/CMSIS_DSP/SupportFunctions/arm_float_to_q31.c **** 
 163:../Dave/Generated/CMSIS_DSP/SupportFunctions/arm_float_to_q31.c ****     /* C = A * 2147483648 */
 164:../Dave/Generated/CMSIS_DSP/SupportFunctions/arm_float_to_q31.c ****     /* convert from float to Q31 and then store the results in the destination buffer */
 165:../Dave/Generated/CMSIS_DSP/SupportFunctions/arm_float_to_q31.c ****     *pDst++ = clip_q63_to_q31((q63_t) (*pIn++ * 2147483648.0f));
 166:../Dave/Generated/CMSIS_DSP/SupportFunctions/arm_float_to_q31.c **** 
 167:../Dave/Generated/CMSIS_DSP/SupportFunctions/arm_float_to_q31.c **** #endif /*      #ifdef ARM_MATH_ROUNDING        */
 168:../Dave/Generated/CMSIS_DSP/SupportFunctions/arm_float_to_q31.c **** 
 169:../Dave/Generated/CMSIS_DSP/SupportFunctions/arm_float_to_q31.c ****     /* Decrement the loop counter */
 170:../Dave/Generated/CMSIS_DSP/SupportFunctions/arm_float_to_q31.c ****     blkCnt--;
 345              	 .loc 2 170 0 discriminator 4
 346 01f2 BB69     	 ldr r3,[r7,#24]
 347 01f4 013B     	 subs r3,r3,#1
 348 01f6 BB61     	 str r3,[r7,#24]
 349              	.L20:
 149:../Dave/Generated/CMSIS_DSP/SupportFunctions/arm_float_to_q31.c ****   {
 350              	 .loc 2 149 0
 351 01f8 BB69     	 ldr r3,[r7,#24]
 352 01fa 002B     	 cmp r3,#0
 353 01fc CCD1     	 bne .L24
 171:../Dave/Generated/CMSIS_DSP/SupportFunctions/arm_float_to_q31.c ****   }
 172:../Dave/Generated/CMSIS_DSP/SupportFunctions/arm_float_to_q31.c **** 
 173:../Dave/Generated/CMSIS_DSP/SupportFunctions/arm_float_to_q31.c **** 
 174:../Dave/Generated/CMSIS_DSP/SupportFunctions/arm_float_to_q31.c **** #else
 175:../Dave/Generated/CMSIS_DSP/SupportFunctions/arm_float_to_q31.c **** 
 176:../Dave/Generated/CMSIS_DSP/SupportFunctions/arm_float_to_q31.c ****   /* Run the below code for Cortex-M0 */
 177:../Dave/Generated/CMSIS_DSP/SupportFunctions/arm_float_to_q31.c **** 
 178:../Dave/Generated/CMSIS_DSP/SupportFunctions/arm_float_to_q31.c ****   /* Loop over blockSize number of values */
 179:../Dave/Generated/CMSIS_DSP/SupportFunctions/arm_float_to_q31.c ****   blkCnt = blockSize;
 180:../Dave/Generated/CMSIS_DSP/SupportFunctions/arm_float_to_q31.c **** 
 181:../Dave/Generated/CMSIS_DSP/SupportFunctions/arm_float_to_q31.c ****   while(blkCnt > 0u)
 182:../Dave/Generated/CMSIS_DSP/SupportFunctions/arm_float_to_q31.c ****   {
 183:../Dave/Generated/CMSIS_DSP/SupportFunctions/arm_float_to_q31.c **** 
 184:../Dave/Generated/CMSIS_DSP/SupportFunctions/arm_float_to_q31.c **** #ifdef ARM_MATH_ROUNDING
 185:../Dave/Generated/CMSIS_DSP/SupportFunctions/arm_float_to_q31.c **** 
 186:../Dave/Generated/CMSIS_DSP/SupportFunctions/arm_float_to_q31.c ****     /* C = A * 2147483648 */
 187:../Dave/Generated/CMSIS_DSP/SupportFunctions/arm_float_to_q31.c ****     /* convert from float to Q31 and then store the results in the destination buffer */
 188:../Dave/Generated/CMSIS_DSP/SupportFunctions/arm_float_to_q31.c ****     in = *pIn++;
 189:../Dave/Generated/CMSIS_DSP/SupportFunctions/arm_float_to_q31.c ****     in = (in * 2147483648.0f);
 190:../Dave/Generated/CMSIS_DSP/SupportFunctions/arm_float_to_q31.c ****     in += in > 0 ? 0.5f : -0.5f;
 191:../Dave/Generated/CMSIS_DSP/SupportFunctions/arm_float_to_q31.c ****     *pDst++ = clip_q63_to_q31((q63_t) (in));
 192:../Dave/Generated/CMSIS_DSP/SupportFunctions/arm_float_to_q31.c **** 
 193:../Dave/Generated/CMSIS_DSP/SupportFunctions/arm_float_to_q31.c **** #else
 194:../Dave/Generated/CMSIS_DSP/SupportFunctions/arm_float_to_q31.c **** 
 195:../Dave/Generated/CMSIS_DSP/SupportFunctions/arm_float_to_q31.c ****     /* C = A * 2147483648 */
 196:../Dave/Generated/CMSIS_DSP/SupportFunctions/arm_float_to_q31.c ****     /* convert from float to Q31 and then store the results in the destination buffer */
 197:../Dave/Generated/CMSIS_DSP/SupportFunctions/arm_float_to_q31.c ****     *pDst++ = clip_q63_to_q31((q63_t) (*pIn++ * 2147483648.0f));
 198:../Dave/Generated/CMSIS_DSP/SupportFunctions/arm_float_to_q31.c **** 
 199:../Dave/Generated/CMSIS_DSP/SupportFunctions/arm_float_to_q31.c **** #endif /*      #ifdef ARM_MATH_ROUNDING        */
 200:../Dave/Generated/CMSIS_DSP/SupportFunctions/arm_float_to_q31.c **** 
 201:../Dave/Generated/CMSIS_DSP/SupportFunctions/arm_float_to_q31.c ****     /* Decrement the loop counter */
 202:../Dave/Generated/CMSIS_DSP/SupportFunctions/arm_float_to_q31.c ****     blkCnt--;
 203:../Dave/Generated/CMSIS_DSP/SupportFunctions/arm_float_to_q31.c ****   }
 204:../Dave/Generated/CMSIS_DSP/SupportFunctions/arm_float_to_q31.c **** 
 205:../Dave/Generated/CMSIS_DSP/SupportFunctions/arm_float_to_q31.c **** #endif /* #ifndef ARM_MATH_CM0_FAMILY */
 206:../Dave/Generated/CMSIS_DSP/SupportFunctions/arm_float_to_q31.c **** 
 207:../Dave/Generated/CMSIS_DSP/SupportFunctions/arm_float_to_q31.c **** }
 354              	 .loc 2 207 0
 355 01fe 2437     	 adds r7,r7,#36
 356              	.LCFI9:
 357              	 .cfi_def_cfa_offset 12
 358 0200 BD46     	 mov sp,r7
 359              	.LCFI10:
 360              	 .cfi_def_cfa_register 13
 361              	 
 362 0202 90BD     	 pop {r4,r7,pc}
 363              	.L36:
 364              	 .align 2
 365              	.L35:
 366 0204 0000004F 	 .word 1325400064
 367              	 .cfi_endproc
 368              	.LFE139:
 370              	 .text
 371              	.Letext0:
 372              	 .file 3 "c:\\davev4\\dave-4.3.2\\eclipse\\arm-gcc-49\\arm-none-eabi\\include\\machine\\_default_types.h"
 373              	 .file 4 "c:\\davev4\\dave-4.3.2\\eclipse\\arm-gcc-49\\arm-none-eabi\\include\\stdint.h"