   1              	 .syntax unified
   2              	 .cpu cortex-m4
   3              	 .eabi_attribute 27,3
   4              	 .fpu fpv4-sp-d16
   5              	 .eabi_attribute 20,1
   6              	 .eabi_attribute 21,1
   7              	 .eabi_attribute 23,3
   8              	 .eabi_attribute 24,1
   9              	 .eabi_attribute 25,1
  10              	 .eabi_attribute 26,1
  11              	 .eabi_attribute 30,6
  12              	 .eabi_attribute 34,1
  13              	 .eabi_attribute 18,4
  14              	 .thumb
  15              	 .file "arm_fir_decimate_init_q15.c"
  16              	 .text
  17              	.Ltext0:
  18              	 .cfi_sections .debug_frame
  19              	 .section .text.arm_fir_decimate_init_q15,"ax",%progbits
  20              	 .align 2
  21              	 .global arm_fir_decimate_init_q15
  22              	 .thumb
  23              	 .thumb_func
  25              	arm_fir_decimate_init_q15:
  26              	.LFB139:
  27              	 .file 1 "../Dave/Generated/CMSIS_DSP/FilteringFunctions/arm_fir_decimate_init_q15.c"
   1:../Dave/Generated/CMSIS_DSP/FilteringFunctions/arm_fir_decimate_init_q15.c **** /* ----------------------------------------------------------------------    
   2:../Dave/Generated/CMSIS_DSP/FilteringFunctions/arm_fir_decimate_init_q15.c **** * Copyright (C) 2010-2014 ARM Limited. All rights reserved.    
   3:../Dave/Generated/CMSIS_DSP/FilteringFunctions/arm_fir_decimate_init_q15.c **** *    
   4:../Dave/Generated/CMSIS_DSP/FilteringFunctions/arm_fir_decimate_init_q15.c **** * $Date:        12. March 2014
   5:../Dave/Generated/CMSIS_DSP/FilteringFunctions/arm_fir_decimate_init_q15.c **** * $Revision: 	V1.4.4
   6:../Dave/Generated/CMSIS_DSP/FilteringFunctions/arm_fir_decimate_init_q15.c **** *    
   7:../Dave/Generated/CMSIS_DSP/FilteringFunctions/arm_fir_decimate_init_q15.c **** * Project: 	    CMSIS DSP Library    
   8:../Dave/Generated/CMSIS_DSP/FilteringFunctions/arm_fir_decimate_init_q15.c **** * Title:        arm_fir_decimate_init_q15.c    
   9:../Dave/Generated/CMSIS_DSP/FilteringFunctions/arm_fir_decimate_init_q15.c **** *    
  10:../Dave/Generated/CMSIS_DSP/FilteringFunctions/arm_fir_decimate_init_q15.c **** * Description:  Initialization function for the Q15 FIR Decimator.    
  11:../Dave/Generated/CMSIS_DSP/FilteringFunctions/arm_fir_decimate_init_q15.c **** *    
  12:../Dave/Generated/CMSIS_DSP/FilteringFunctions/arm_fir_decimate_init_q15.c **** * Target Processor: Cortex-M4/Cortex-M3/Cortex-M0
  13:../Dave/Generated/CMSIS_DSP/FilteringFunctions/arm_fir_decimate_init_q15.c **** *  
  14:../Dave/Generated/CMSIS_DSP/FilteringFunctions/arm_fir_decimate_init_q15.c **** * Redistribution and use in source and binary forms, with or without 
  15:../Dave/Generated/CMSIS_DSP/FilteringFunctions/arm_fir_decimate_init_q15.c **** * modification, are permitted provided that the following conditions
  16:../Dave/Generated/CMSIS_DSP/FilteringFunctions/arm_fir_decimate_init_q15.c **** * are met:
  17:../Dave/Generated/CMSIS_DSP/FilteringFunctions/arm_fir_decimate_init_q15.c **** *   - Redistributions of source code must retain the above copyright
  18:../Dave/Generated/CMSIS_DSP/FilteringFunctions/arm_fir_decimate_init_q15.c **** *     notice, this list of conditions and the following disclaimer.
  19:../Dave/Generated/CMSIS_DSP/FilteringFunctions/arm_fir_decimate_init_q15.c **** *   - Redistributions in binary form must reproduce the above copyright
  20:../Dave/Generated/CMSIS_DSP/FilteringFunctions/arm_fir_decimate_init_q15.c **** *     notice, this list of conditions and the following disclaimer in
  21:../Dave/Generated/CMSIS_DSP/FilteringFunctions/arm_fir_decimate_init_q15.c **** *     the documentation and/or other materials provided with the 
  22:../Dave/Generated/CMSIS_DSP/FilteringFunctions/arm_fir_decimate_init_q15.c **** *     distribution.
  23:../Dave/Generated/CMSIS_DSP/FilteringFunctions/arm_fir_decimate_init_q15.c **** *   - Neither the name of ARM LIMITED nor the names of its contributors
  24:../Dave/Generated/CMSIS_DSP/FilteringFunctions/arm_fir_decimate_init_q15.c **** *     may be used to endorse or promote products derived from this
  25:../Dave/Generated/CMSIS_DSP/FilteringFunctions/arm_fir_decimate_init_q15.c **** *     software without specific prior written permission.
  26:../Dave/Generated/CMSIS_DSP/FilteringFunctions/arm_fir_decimate_init_q15.c **** *
  27:../Dave/Generated/CMSIS_DSP/FilteringFunctions/arm_fir_decimate_init_q15.c **** * THIS SOFTWARE IS PROVIDED BY THE COPYRIGHT HOLDERS AND CONTRIBUTORS
  28:../Dave/Generated/CMSIS_DSP/FilteringFunctions/arm_fir_decimate_init_q15.c **** * "AS IS" AND ANY EXPRESS OR IMPLIED WARRANTIES, INCLUDING, BUT NOT
  29:../Dave/Generated/CMSIS_DSP/FilteringFunctions/arm_fir_decimate_init_q15.c **** * LIMITED TO, THE IMPLIED WARRANTIES OF MERCHANTABILITY AND FITNESS
  30:../Dave/Generated/CMSIS_DSP/FilteringFunctions/arm_fir_decimate_init_q15.c **** * FOR A PARTICULAR PURPOSE ARE DISCLAIMED. IN NO EVENT SHALL THE 
  31:../Dave/Generated/CMSIS_DSP/FilteringFunctions/arm_fir_decimate_init_q15.c **** * COPYRIGHT OWNER OR CONTRIBUTORS BE LIABLE FOR ANY DIRECT, INDIRECT,
  32:../Dave/Generated/CMSIS_DSP/FilteringFunctions/arm_fir_decimate_init_q15.c **** * INCIDENTAL, SPECIAL, EXEMPLARY, OR CONSEQUENTIAL DAMAGES (INCLUDING,
  33:../Dave/Generated/CMSIS_DSP/FilteringFunctions/arm_fir_decimate_init_q15.c **** * BUT NOT LIMITED TO, PROCUREMENT OF SUBSTITUTE GOODS OR SERVICES;
  34:../Dave/Generated/CMSIS_DSP/FilteringFunctions/arm_fir_decimate_init_q15.c **** * LOSS OF USE, DATA, OR PROFITS; OR BUSINESS INTERRUPTION) HOWEVER
  35:../Dave/Generated/CMSIS_DSP/FilteringFunctions/arm_fir_decimate_init_q15.c **** * CAUSED AND ON ANY THEORY OF LIABILITY, WHETHER IN CONTRACT, STRICT
  36:../Dave/Generated/CMSIS_DSP/FilteringFunctions/arm_fir_decimate_init_q15.c **** * LIABILITY, OR TORT (INCLUDING NEGLIGENCE OR OTHERWISE) ARISING IN
  37:../Dave/Generated/CMSIS_DSP/FilteringFunctions/arm_fir_decimate_init_q15.c **** * ANY WAY OUT OF THE USE OF THIS SOFTWARE, EVEN IF ADVISED OF THE
  38:../Dave/Generated/CMSIS_DSP/FilteringFunctions/arm_fir_decimate_init_q15.c **** * POSSIBILITY OF SUCH DAMAGE.    
  39:../Dave/Generated/CMSIS_DSP/FilteringFunctions/arm_fir_decimate_init_q15.c **** * ------------------------------------------------------------------- */
  40:../Dave/Generated/CMSIS_DSP/FilteringFunctions/arm_fir_decimate_init_q15.c **** 
  41:../Dave/Generated/CMSIS_DSP/FilteringFunctions/arm_fir_decimate_init_q15.c **** #include "CMSIS_DSP/cmsis_dsp.h"
  42:../Dave/Generated/CMSIS_DSP/FilteringFunctions/arm_fir_decimate_init_q15.c **** 
  43:../Dave/Generated/CMSIS_DSP/FilteringFunctions/arm_fir_decimate_init_q15.c **** /**    
  44:../Dave/Generated/CMSIS_DSP/FilteringFunctions/arm_fir_decimate_init_q15.c ****  * @ingroup groupFilters    
  45:../Dave/Generated/CMSIS_DSP/FilteringFunctions/arm_fir_decimate_init_q15.c ****  */
  46:../Dave/Generated/CMSIS_DSP/FilteringFunctions/arm_fir_decimate_init_q15.c **** 
  47:../Dave/Generated/CMSIS_DSP/FilteringFunctions/arm_fir_decimate_init_q15.c **** /**    
  48:../Dave/Generated/CMSIS_DSP/FilteringFunctions/arm_fir_decimate_init_q15.c ****  * @addtogroup FIR_decimate    
  49:../Dave/Generated/CMSIS_DSP/FilteringFunctions/arm_fir_decimate_init_q15.c ****  * @{    
  50:../Dave/Generated/CMSIS_DSP/FilteringFunctions/arm_fir_decimate_init_q15.c ****  */
  51:../Dave/Generated/CMSIS_DSP/FilteringFunctions/arm_fir_decimate_init_q15.c **** 
  52:../Dave/Generated/CMSIS_DSP/FilteringFunctions/arm_fir_decimate_init_q15.c **** /**    
  53:../Dave/Generated/CMSIS_DSP/FilteringFunctions/arm_fir_decimate_init_q15.c ****  * @brief  Initialization function for the Q15 FIR decimator.    
  54:../Dave/Generated/CMSIS_DSP/FilteringFunctions/arm_fir_decimate_init_q15.c ****  * @param[in,out] *S points to an instance of the Q15 FIR decimator structure.    
  55:../Dave/Generated/CMSIS_DSP/FilteringFunctions/arm_fir_decimate_init_q15.c ****  * @param[in] numTaps  number of coefficients in the filter.    
  56:../Dave/Generated/CMSIS_DSP/FilteringFunctions/arm_fir_decimate_init_q15.c ****  * @param[in] M  decimation factor.    
  57:../Dave/Generated/CMSIS_DSP/FilteringFunctions/arm_fir_decimate_init_q15.c ****  * @param[in] *pCoeffs points to the filter coefficients.    
  58:../Dave/Generated/CMSIS_DSP/FilteringFunctions/arm_fir_decimate_init_q15.c ****  * @param[in] *pState points to the state buffer.    
  59:../Dave/Generated/CMSIS_DSP/FilteringFunctions/arm_fir_decimate_init_q15.c ****  * @param[in] blockSize number of input samples to process per call.    
  60:../Dave/Generated/CMSIS_DSP/FilteringFunctions/arm_fir_decimate_init_q15.c ****  * @return    The function returns ARM_MATH_SUCCESS if initialization was successful or ARM_MATH_LE
  61:../Dave/Generated/CMSIS_DSP/FilteringFunctions/arm_fir_decimate_init_q15.c ****  * <code>blockSize</code> is not a multiple of <code>M</code>.    
  62:../Dave/Generated/CMSIS_DSP/FilteringFunctions/arm_fir_decimate_init_q15.c ****  *    
  63:../Dave/Generated/CMSIS_DSP/FilteringFunctions/arm_fir_decimate_init_q15.c ****  * <b>Description:</b>    
  64:../Dave/Generated/CMSIS_DSP/FilteringFunctions/arm_fir_decimate_init_q15.c ****  * \par    
  65:../Dave/Generated/CMSIS_DSP/FilteringFunctions/arm_fir_decimate_init_q15.c ****  * <code>pCoeffs</code> points to the array of filter coefficients stored in time reversed order:  
  66:../Dave/Generated/CMSIS_DSP/FilteringFunctions/arm_fir_decimate_init_q15.c ****  * <pre>    
  67:../Dave/Generated/CMSIS_DSP/FilteringFunctions/arm_fir_decimate_init_q15.c ****  *    {b[numTaps-1], b[numTaps-2], b[N-2], ..., b[1], b[0]}    
  68:../Dave/Generated/CMSIS_DSP/FilteringFunctions/arm_fir_decimate_init_q15.c ****  * </pre>    
  69:../Dave/Generated/CMSIS_DSP/FilteringFunctions/arm_fir_decimate_init_q15.c ****  * \par    
  70:../Dave/Generated/CMSIS_DSP/FilteringFunctions/arm_fir_decimate_init_q15.c ****  * <code>pState</code> points to the array of state variables.    
  71:../Dave/Generated/CMSIS_DSP/FilteringFunctions/arm_fir_decimate_init_q15.c ****  * <code>pState</code> is of length <code>numTaps+blockSize-1</code> words where <code>blockSize</c
  72:../Dave/Generated/CMSIS_DSP/FilteringFunctions/arm_fir_decimate_init_q15.c ****  * to the call <code>arm_fir_decimate_q15()</code>.    
  73:../Dave/Generated/CMSIS_DSP/FilteringFunctions/arm_fir_decimate_init_q15.c ****  * <code>M</code> is the decimation factor.    
  74:../Dave/Generated/CMSIS_DSP/FilteringFunctions/arm_fir_decimate_init_q15.c ****  */
  75:../Dave/Generated/CMSIS_DSP/FilteringFunctions/arm_fir_decimate_init_q15.c **** 
  76:../Dave/Generated/CMSIS_DSP/FilteringFunctions/arm_fir_decimate_init_q15.c **** arm_status arm_fir_decimate_init_q15(
  77:../Dave/Generated/CMSIS_DSP/FilteringFunctions/arm_fir_decimate_init_q15.c ****   arm_fir_decimate_instance_q15 * S,
  78:../Dave/Generated/CMSIS_DSP/FilteringFunctions/arm_fir_decimate_init_q15.c ****   uint16_t numTaps,
  79:../Dave/Generated/CMSIS_DSP/FilteringFunctions/arm_fir_decimate_init_q15.c ****   uint8_t M,
  80:../Dave/Generated/CMSIS_DSP/FilteringFunctions/arm_fir_decimate_init_q15.c ****   q15_t * pCoeffs,
  81:../Dave/Generated/CMSIS_DSP/FilteringFunctions/arm_fir_decimate_init_q15.c ****   q15_t * pState,
  82:../Dave/Generated/CMSIS_DSP/FilteringFunctions/arm_fir_decimate_init_q15.c ****   uint32_t blockSize)
  83:../Dave/Generated/CMSIS_DSP/FilteringFunctions/arm_fir_decimate_init_q15.c **** {
  28              	 .loc 1 83 0
  29              	 .cfi_startproc
  30              	 
  31              	 
  32 0000 80B5     	 push {r7,lr}
  33              	.LCFI0:
  34              	 .cfi_def_cfa_offset 8
  35              	 .cfi_offset 7,-8
  36              	 .cfi_offset 14,-4
  37 0002 86B0     	 sub sp,sp,#24
  38              	.LCFI1:
  39              	 .cfi_def_cfa_offset 32
  40 0004 00AF     	 add r7,sp,#0
  41              	.LCFI2:
  42              	 .cfi_def_cfa_register 7
  43 0006 F860     	 str r0,[r7,#12]
  44 0008 7B60     	 str r3,[r7,#4]
  45 000a 0B46     	 mov r3,r1
  46 000c 7B81     	 strh r3,[r7,#10]
  47 000e 1346     	 mov r3,r2
  48 0010 7B72     	 strb r3,[r7,#9]
  84:../Dave/Generated/CMSIS_DSP/FilteringFunctions/arm_fir_decimate_init_q15.c **** 
  85:../Dave/Generated/CMSIS_DSP/FilteringFunctions/arm_fir_decimate_init_q15.c ****   arm_status status;
  86:../Dave/Generated/CMSIS_DSP/FilteringFunctions/arm_fir_decimate_init_q15.c **** 
  87:../Dave/Generated/CMSIS_DSP/FilteringFunctions/arm_fir_decimate_init_q15.c ****   /* The size of the input block must be a multiple of the decimation factor */
  88:../Dave/Generated/CMSIS_DSP/FilteringFunctions/arm_fir_decimate_init_q15.c ****   if((blockSize % M) != 0u)
  49              	 .loc 1 88 0
  50 0012 7A7A     	 ldrb r2,[r7,#9]
  51 0014 7B6A     	 ldr r3,[r7,#36]
  52 0016 B3FBF2F1 	 udiv r1,r3,r2
  53 001a 02FB01F2 	 mul r2,r2,r1
  54 001e 9B1A     	 subs r3,r3,r2
  55 0020 002B     	 cmp r3,#0
  56 0022 02D0     	 beq .L2
  89:../Dave/Generated/CMSIS_DSP/FilteringFunctions/arm_fir_decimate_init_q15.c ****   {
  90:../Dave/Generated/CMSIS_DSP/FilteringFunctions/arm_fir_decimate_init_q15.c ****     /* Set status as ARM_MATH_LENGTH_ERROR */
  91:../Dave/Generated/CMSIS_DSP/FilteringFunctions/arm_fir_decimate_init_q15.c ****     status = ARM_MATH_LENGTH_ERROR;
  57              	 .loc 1 91 0
  58 0024 FE23     	 movs r3,#254
  59 0026 FB75     	 strb r3,[r7,#23]
  60 0028 19E0     	 b .L3
  61              	.L2:
  92:../Dave/Generated/CMSIS_DSP/FilteringFunctions/arm_fir_decimate_init_q15.c ****   }
  93:../Dave/Generated/CMSIS_DSP/FilteringFunctions/arm_fir_decimate_init_q15.c ****   else
  94:../Dave/Generated/CMSIS_DSP/FilteringFunctions/arm_fir_decimate_init_q15.c ****   {
  95:../Dave/Generated/CMSIS_DSP/FilteringFunctions/arm_fir_decimate_init_q15.c ****     /* Assign filter taps */
  96:../Dave/Generated/CMSIS_DSP/FilteringFunctions/arm_fir_decimate_init_q15.c ****     S->numTaps = numTaps;
  62              	 .loc 1 96 0
  63 002a FB68     	 ldr r3,[r7,#12]
  64 002c 7A89     	 ldrh r2,[r7,#10]
  65 002e 5A80     	 strh r2,[r3,#2]
  97:../Dave/Generated/CMSIS_DSP/FilteringFunctions/arm_fir_decimate_init_q15.c **** 
  98:../Dave/Generated/CMSIS_DSP/FilteringFunctions/arm_fir_decimate_init_q15.c ****     /* Assign coefficient pointer */
  99:../Dave/Generated/CMSIS_DSP/FilteringFunctions/arm_fir_decimate_init_q15.c ****     S->pCoeffs = pCoeffs;
  66              	 .loc 1 99 0
  67 0030 FB68     	 ldr r3,[r7,#12]
  68 0032 7A68     	 ldr r2,[r7,#4]
  69 0034 5A60     	 str r2,[r3,#4]
 100:../Dave/Generated/CMSIS_DSP/FilteringFunctions/arm_fir_decimate_init_q15.c **** 
 101:../Dave/Generated/CMSIS_DSP/FilteringFunctions/arm_fir_decimate_init_q15.c ****     /* Clear the state buffer.  The size of buffer is always (blockSize + numTaps - 1) */
 102:../Dave/Generated/CMSIS_DSP/FilteringFunctions/arm_fir_decimate_init_q15.c ****     memset(pState, 0, (numTaps + (blockSize - 1u)) * sizeof(q15_t));
  70              	 .loc 1 102 0
  71 0036 7A89     	 ldrh r2,[r7,#10]
  72 0038 7B6A     	 ldr r3,[r7,#36]
  73 003a 1344     	 add r3,r3,r2
  74 003c 03F10043 	 add r3,r3,#-2147483648
  75 0040 013B     	 subs r3,r3,#1
  76 0042 5B00     	 lsls r3,r3,#1
  77 0044 386A     	 ldr r0,[r7,#32]
  78 0046 0021     	 movs r1,#0
  79 0048 1A46     	 mov r2,r3
  80 004a FFF7FEFF 	 bl memset
 103:../Dave/Generated/CMSIS_DSP/FilteringFunctions/arm_fir_decimate_init_q15.c **** 
 104:../Dave/Generated/CMSIS_DSP/FilteringFunctions/arm_fir_decimate_init_q15.c ****     /* Assign state pointer */
 105:../Dave/Generated/CMSIS_DSP/FilteringFunctions/arm_fir_decimate_init_q15.c ****     S->pState = pState;
  81              	 .loc 1 105 0
  82 004e FB68     	 ldr r3,[r7,#12]
  83 0050 3A6A     	 ldr r2,[r7,#32]
  84 0052 9A60     	 str r2,[r3,#8]
 106:../Dave/Generated/CMSIS_DSP/FilteringFunctions/arm_fir_decimate_init_q15.c **** 
 107:../Dave/Generated/CMSIS_DSP/FilteringFunctions/arm_fir_decimate_init_q15.c ****     /* Assign Decimation factor */
 108:../Dave/Generated/CMSIS_DSP/FilteringFunctions/arm_fir_decimate_init_q15.c ****     S->M = M;
  85              	 .loc 1 108 0
  86 0054 FB68     	 ldr r3,[r7,#12]
  87 0056 7A7A     	 ldrb r2,[r7,#9]
  88 0058 1A70     	 strb r2,[r3]
 109:../Dave/Generated/CMSIS_DSP/FilteringFunctions/arm_fir_decimate_init_q15.c **** 
 110:../Dave/Generated/CMSIS_DSP/FilteringFunctions/arm_fir_decimate_init_q15.c ****     status = ARM_MATH_SUCCESS;
  89              	 .loc 1 110 0
  90 005a 0023     	 movs r3,#0
  91 005c FB75     	 strb r3,[r7,#23]
  92              	.L3:
 111:../Dave/Generated/CMSIS_DSP/FilteringFunctions/arm_fir_decimate_init_q15.c ****   }
 112:../Dave/Generated/CMSIS_DSP/FilteringFunctions/arm_fir_decimate_init_q15.c **** 
 113:../Dave/Generated/CMSIS_DSP/FilteringFunctions/arm_fir_decimate_init_q15.c ****   return (status);
  93              	 .loc 1 113 0
  94 005e FB7D     	 ldrb r3,[r7,#23]
  95 0060 5BB2     	 sxtb r3,r3
 114:../Dave/Generated/CMSIS_DSP/FilteringFunctions/arm_fir_decimate_init_q15.c **** 
 115:../Dave/Generated/CMSIS_DSP/FilteringFunctions/arm_fir_decimate_init_q15.c **** }
  96              	 .loc 1 115 0
  97 0062 1846     	 mov r0,r3
  98 0064 1837     	 adds r7,r7,#24
  99              	.LCFI3:
 100              	 .cfi_def_cfa_offset 8
 101 0066 BD46     	 mov sp,r7
 102              	.LCFI4:
 103              	 .cfi_def_cfa_register 13
 104              	 
 105 0068 80BD     	 pop {r7,pc}
 106              	 .cfi_endproc
 107              	.LFE139:
 109 006a 00BF     	 .text
 110              	.Letext0:
 111              	 .file 2 "c:\\davev4\\dave-4.3.2\\eclipse\\arm-gcc-49\\arm-none-eabi\\include\\machine\\_default_types.h"
 112              	 .file 3 "c:\\davev4\\dave-4.3.2\\eclipse\\arm-gcc-49\\arm-none-eabi\\include\\stdint.h"
 113              	 .file 4 "C:/Workspaces/DAVE-4.3/WS_2016_09_02/Flightcontroller_PWM_CopterRocks_Working/Dave/Generated/CMSIS_DSP/arm_math.h"