   1              	 .syntax unified
   2              	 .cpu cortex-m4
   3              	 .eabi_attribute 27,3
   4              	 .fpu fpv4-sp-d16
   5              	 .eabi_attribute 20,1
   6              	 .eabi_attribute 21,1
   7              	 .eabi_attribute 23,3
   8              	 .eabi_attribute 24,1
   9              	 .eabi_attribute 25,1
  10              	 .eabi_attribute 26,1
  11              	 .eabi_attribute 30,6
  12              	 .eabi_attribute 34,1
  13              	 .eabi_attribute 18,4
  14              	 .thumb
  15              	 .file "arm_lms_norm_q15.c"
  16              	 .text
  17              	.Ltext0:
  18              	 .cfi_sections .debug_frame
  19              	 .section .text.arm_recip_q15,"ax",%progbits
  20              	 .align 2
  21              	 .thumb
  22              	 .thumb_func
  24              	arm_recip_q15:
  25              	.LFB112:
  26              	 .file 1 "C:\\Workspaces\\DAVE-4.1\\Flightcontroller_PWM_CopterRocks_Working\\Dave\\Generated/CMSIS_DSP/arm_math.h"
   1:C:\Workspaces\DAVE-4.1\Flightcontroller_PWM_CopterRocks_Working\Dave\Generated/CMSIS_DSP\arm_math.h **** /* ----------------------------------------------------------------------
   2:C:\Workspaces\DAVE-4.1\Flightcontroller_PWM_CopterRocks_Working\Dave\Generated/CMSIS_DSP\arm_math.h **** * Copyright (C) 2010-2015 ARM Limited. All rights reserved.
   3:C:\Workspaces\DAVE-4.1\Flightcontroller_PWM_CopterRocks_Working\Dave\Generated/CMSIS_DSP\arm_math.h **** *
   4:C:\Workspaces\DAVE-4.1\Flightcontroller_PWM_CopterRocks_Working\Dave\Generated/CMSIS_DSP\arm_math.h **** * $Date:        20. October 2015
   5:C:\Workspaces\DAVE-4.1\Flightcontroller_PWM_CopterRocks_Working\Dave\Generated/CMSIS_DSP\arm_math.h **** * $Revision:    V1.4.5 b
   6:C:\Workspaces\DAVE-4.1\Flightcontroller_PWM_CopterRocks_Working\Dave\Generated/CMSIS_DSP\arm_math.h **** *
   7:C:\Workspaces\DAVE-4.1\Flightcontroller_PWM_CopterRocks_Working\Dave\Generated/CMSIS_DSP\arm_math.h **** * Project:      CMSIS DSP Library
   8:C:\Workspaces\DAVE-4.1\Flightcontroller_PWM_CopterRocks_Working\Dave\Generated/CMSIS_DSP\arm_math.h **** * Title:        arm_math.h
   9:C:\Workspaces\DAVE-4.1\Flightcontroller_PWM_CopterRocks_Working\Dave\Generated/CMSIS_DSP\arm_math.h **** *
  10:C:\Workspaces\DAVE-4.1\Flightcontroller_PWM_CopterRocks_Working\Dave\Generated/CMSIS_DSP\arm_math.h **** * Description:  Public header file for CMSIS DSP Library
  11:C:\Workspaces\DAVE-4.1\Flightcontroller_PWM_CopterRocks_Working\Dave\Generated/CMSIS_DSP\arm_math.h **** *
  12:C:\Workspaces\DAVE-4.1\Flightcontroller_PWM_CopterRocks_Working\Dave\Generated/CMSIS_DSP\arm_math.h **** * Target Processor: Cortex-M7/Cortex-M4/Cortex-M3/Cortex-M0
  13:C:\Workspaces\DAVE-4.1\Flightcontroller_PWM_CopterRocks_Working\Dave\Generated/CMSIS_DSP\arm_math.h **** *
  14:C:\Workspaces\DAVE-4.1\Flightcontroller_PWM_CopterRocks_Working\Dave\Generated/CMSIS_DSP\arm_math.h **** * Redistribution and use in source and binary forms, with or without
  15:C:\Workspaces\DAVE-4.1\Flightcontroller_PWM_CopterRocks_Working\Dave\Generated/CMSIS_DSP\arm_math.h **** * modification, are permitted provided that the following conditions
  16:C:\Workspaces\DAVE-4.1\Flightcontroller_PWM_CopterRocks_Working\Dave\Generated/CMSIS_DSP\arm_math.h **** * are met:
  17:C:\Workspaces\DAVE-4.1\Flightcontroller_PWM_CopterRocks_Working\Dave\Generated/CMSIS_DSP\arm_math.h **** *   - Redistributions of source code must retain the above copyright
  18:C:\Workspaces\DAVE-4.1\Flightcontroller_PWM_CopterRocks_Working\Dave\Generated/CMSIS_DSP\arm_math.h **** *     notice, this list of conditions and the following disclaimer.
  19:C:\Workspaces\DAVE-4.1\Flightcontroller_PWM_CopterRocks_Working\Dave\Generated/CMSIS_DSP\arm_math.h **** *   - Redistributions in binary form must reproduce the above copyright
  20:C:\Workspaces\DAVE-4.1\Flightcontroller_PWM_CopterRocks_Working\Dave\Generated/CMSIS_DSP\arm_math.h **** *     notice, this list of conditions and the following disclaimer in
  21:C:\Workspaces\DAVE-4.1\Flightcontroller_PWM_CopterRocks_Working\Dave\Generated/CMSIS_DSP\arm_math.h **** *     the documentation and/or other materials provided with the
  22:C:\Workspaces\DAVE-4.1\Flightcontroller_PWM_CopterRocks_Working\Dave\Generated/CMSIS_DSP\arm_math.h **** *     distribution.
  23:C:\Workspaces\DAVE-4.1\Flightcontroller_PWM_CopterRocks_Working\Dave\Generated/CMSIS_DSP\arm_math.h **** *   - Neither the name of ARM LIMITED nor the names of its contributors
  24:C:\Workspaces\DAVE-4.1\Flightcontroller_PWM_CopterRocks_Working\Dave\Generated/CMSIS_DSP\arm_math.h **** *     may be used to endorse or promote products derived from this
  25:C:\Workspaces\DAVE-4.1\Flightcontroller_PWM_CopterRocks_Working\Dave\Generated/CMSIS_DSP\arm_math.h **** *     software without specific prior written permission.
  26:C:\Workspaces\DAVE-4.1\Flightcontroller_PWM_CopterRocks_Working\Dave\Generated/CMSIS_DSP\arm_math.h **** *
  27:C:\Workspaces\DAVE-4.1\Flightcontroller_PWM_CopterRocks_Working\Dave\Generated/CMSIS_DSP\arm_math.h **** * THIS SOFTWARE IS PROVIDED BY THE COPYRIGHT HOLDERS AND CONTRIBUTORS
  28:C:\Workspaces\DAVE-4.1\Flightcontroller_PWM_CopterRocks_Working\Dave\Generated/CMSIS_DSP\arm_math.h **** * "AS IS" AND ANY EXPRESS OR IMPLIED WARRANTIES, INCLUDING, BUT NOT
  29:C:\Workspaces\DAVE-4.1\Flightcontroller_PWM_CopterRocks_Working\Dave\Generated/CMSIS_DSP\arm_math.h **** * LIMITED TO, THE IMPLIED WARRANTIES OF MERCHANTABILITY AND FITNESS
  30:C:\Workspaces\DAVE-4.1\Flightcontroller_PWM_CopterRocks_Working\Dave\Generated/CMSIS_DSP\arm_math.h **** * FOR A PARTICULAR PURPOSE ARE DISCLAIMED. IN NO EVENT SHALL THE
  31:C:\Workspaces\DAVE-4.1\Flightcontroller_PWM_CopterRocks_Working\Dave\Generated/CMSIS_DSP\arm_math.h **** * COPYRIGHT OWNER OR CONTRIBUTORS BE LIABLE FOR ANY DIRECT, INDIRECT,
  32:C:\Workspaces\DAVE-4.1\Flightcontroller_PWM_CopterRocks_Working\Dave\Generated/CMSIS_DSP\arm_math.h **** * INCIDENTAL, SPECIAL, EXEMPLARY, OR CONSEQUENTIAL DAMAGES (INCLUDING,
  33:C:\Workspaces\DAVE-4.1\Flightcontroller_PWM_CopterRocks_Working\Dave\Generated/CMSIS_DSP\arm_math.h **** * BUT NOT LIMITED TO, PROCUREMENT OF SUBSTITUTE GOODS OR SERVICES;
  34:C:\Workspaces\DAVE-4.1\Flightcontroller_PWM_CopterRocks_Working\Dave\Generated/CMSIS_DSP\arm_math.h **** * LOSS OF USE, DATA, OR PROFITS; OR BUSINESS INTERRUPTION) HOWEVER
  35:C:\Workspaces\DAVE-4.1\Flightcontroller_PWM_CopterRocks_Working\Dave\Generated/CMSIS_DSP\arm_math.h **** * CAUSED AND ON ANY THEORY OF LIABILITY, WHETHER IN CONTRACT, STRICT
  36:C:\Workspaces\DAVE-4.1\Flightcontroller_PWM_CopterRocks_Working\Dave\Generated/CMSIS_DSP\arm_math.h **** * LIABILITY, OR TORT (INCLUDING NEGLIGENCE OR OTHERWISE) ARISING IN
  37:C:\Workspaces\DAVE-4.1\Flightcontroller_PWM_CopterRocks_Working\Dave\Generated/CMSIS_DSP\arm_math.h **** * ANY WAY OUT OF THE USE OF THIS SOFTWARE, EVEN IF ADVISED OF THE
  38:C:\Workspaces\DAVE-4.1\Flightcontroller_PWM_CopterRocks_Working\Dave\Generated/CMSIS_DSP\arm_math.h **** * POSSIBILITY OF SUCH DAMAGE.
  39:C:\Workspaces\DAVE-4.1\Flightcontroller_PWM_CopterRocks_Working\Dave\Generated/CMSIS_DSP\arm_math.h ****  * -------------------------------------------------------------------- */
  40:C:\Workspaces\DAVE-4.1\Flightcontroller_PWM_CopterRocks_Working\Dave\Generated/CMSIS_DSP\arm_math.h **** 
  41:C:\Workspaces\DAVE-4.1\Flightcontroller_PWM_CopterRocks_Working\Dave\Generated/CMSIS_DSP\arm_math.h **** /**
  42:C:\Workspaces\DAVE-4.1\Flightcontroller_PWM_CopterRocks_Working\Dave\Generated/CMSIS_DSP\arm_math.h ****    \mainpage CMSIS DSP Software Library
  43:C:\Workspaces\DAVE-4.1\Flightcontroller_PWM_CopterRocks_Working\Dave\Generated/CMSIS_DSP\arm_math.h ****    *
  44:C:\Workspaces\DAVE-4.1\Flightcontroller_PWM_CopterRocks_Working\Dave\Generated/CMSIS_DSP\arm_math.h ****    * Introduction
  45:C:\Workspaces\DAVE-4.1\Flightcontroller_PWM_CopterRocks_Working\Dave\Generated/CMSIS_DSP\arm_math.h ****    * ------------
  46:C:\Workspaces\DAVE-4.1\Flightcontroller_PWM_CopterRocks_Working\Dave\Generated/CMSIS_DSP\arm_math.h ****    *
  47:C:\Workspaces\DAVE-4.1\Flightcontroller_PWM_CopterRocks_Working\Dave\Generated/CMSIS_DSP\arm_math.h ****    * This user manual describes the CMSIS DSP software library,
  48:C:\Workspaces\DAVE-4.1\Flightcontroller_PWM_CopterRocks_Working\Dave\Generated/CMSIS_DSP\arm_math.h ****    * a suite of common signal processing functions for use on Cortex-M processor based devices.
  49:C:\Workspaces\DAVE-4.1\Flightcontroller_PWM_CopterRocks_Working\Dave\Generated/CMSIS_DSP\arm_math.h ****    *
  50:C:\Workspaces\DAVE-4.1\Flightcontroller_PWM_CopterRocks_Working\Dave\Generated/CMSIS_DSP\arm_math.h ****    * The library is divided into a number of functions each covering a specific category:
  51:C:\Workspaces\DAVE-4.1\Flightcontroller_PWM_CopterRocks_Working\Dave\Generated/CMSIS_DSP\arm_math.h ****    * - Basic math functions
  52:C:\Workspaces\DAVE-4.1\Flightcontroller_PWM_CopterRocks_Working\Dave\Generated/CMSIS_DSP\arm_math.h ****    * - Fast math functions
  53:C:\Workspaces\DAVE-4.1\Flightcontroller_PWM_CopterRocks_Working\Dave\Generated/CMSIS_DSP\arm_math.h ****    * - Complex math functions
  54:C:\Workspaces\DAVE-4.1\Flightcontroller_PWM_CopterRocks_Working\Dave\Generated/CMSIS_DSP\arm_math.h ****    * - Filters
  55:C:\Workspaces\DAVE-4.1\Flightcontroller_PWM_CopterRocks_Working\Dave\Generated/CMSIS_DSP\arm_math.h ****    * - Matrix functions
  56:C:\Workspaces\DAVE-4.1\Flightcontroller_PWM_CopterRocks_Working\Dave\Generated/CMSIS_DSP\arm_math.h ****    * - Transforms
  57:C:\Workspaces\DAVE-4.1\Flightcontroller_PWM_CopterRocks_Working\Dave\Generated/CMSIS_DSP\arm_math.h ****    * - Motor control functions
  58:C:\Workspaces\DAVE-4.1\Flightcontroller_PWM_CopterRocks_Working\Dave\Generated/CMSIS_DSP\arm_math.h ****    * - Statistical functions
  59:C:\Workspaces\DAVE-4.1\Flightcontroller_PWM_CopterRocks_Working\Dave\Generated/CMSIS_DSP\arm_math.h ****    * - Support functions
  60:C:\Workspaces\DAVE-4.1\Flightcontroller_PWM_CopterRocks_Working\Dave\Generated/CMSIS_DSP\arm_math.h ****    * - Interpolation functions
  61:C:\Workspaces\DAVE-4.1\Flightcontroller_PWM_CopterRocks_Working\Dave\Generated/CMSIS_DSP\arm_math.h ****    *
  62:C:\Workspaces\DAVE-4.1\Flightcontroller_PWM_CopterRocks_Working\Dave\Generated/CMSIS_DSP\arm_math.h ****    * The library has separate functions for operating on 8-bit integers, 16-bit integers,
  63:C:\Workspaces\DAVE-4.1\Flightcontroller_PWM_CopterRocks_Working\Dave\Generated/CMSIS_DSP\arm_math.h ****    * 32-bit integer and 32-bit floating-point values.
  64:C:\Workspaces\DAVE-4.1\Flightcontroller_PWM_CopterRocks_Working\Dave\Generated/CMSIS_DSP\arm_math.h ****    *
  65:C:\Workspaces\DAVE-4.1\Flightcontroller_PWM_CopterRocks_Working\Dave\Generated/CMSIS_DSP\arm_math.h ****    * Using the Library
  66:C:\Workspaces\DAVE-4.1\Flightcontroller_PWM_CopterRocks_Working\Dave\Generated/CMSIS_DSP\arm_math.h ****    * ------------
  67:C:\Workspaces\DAVE-4.1\Flightcontroller_PWM_CopterRocks_Working\Dave\Generated/CMSIS_DSP\arm_math.h ****    *
  68:C:\Workspaces\DAVE-4.1\Flightcontroller_PWM_CopterRocks_Working\Dave\Generated/CMSIS_DSP\arm_math.h ****    * The library installer contains prebuilt versions of the libraries in the <code>Lib</code> fold
  69:C:\Workspaces\DAVE-4.1\Flightcontroller_PWM_CopterRocks_Working\Dave\Generated/CMSIS_DSP\arm_math.h ****    * - arm_cortexM7lfdp_math.lib (Little endian and Double Precision Floating Point Unit on Cortex-
  70:C:\Workspaces\DAVE-4.1\Flightcontroller_PWM_CopterRocks_Working\Dave\Generated/CMSIS_DSP\arm_math.h ****    * - arm_cortexM7bfdp_math.lib (Big endian and Double Precision Floating Point Unit on Cortex-M7)
  71:C:\Workspaces\DAVE-4.1\Flightcontroller_PWM_CopterRocks_Working\Dave\Generated/CMSIS_DSP\arm_math.h ****    * - arm_cortexM7lfsp_math.lib (Little endian and Single Precision Floating Point Unit on Cortex-
  72:C:\Workspaces\DAVE-4.1\Flightcontroller_PWM_CopterRocks_Working\Dave\Generated/CMSIS_DSP\arm_math.h ****    * - arm_cortexM7bfsp_math.lib (Big endian and Single Precision Floating Point Unit on Cortex-M7)
  73:C:\Workspaces\DAVE-4.1\Flightcontroller_PWM_CopterRocks_Working\Dave\Generated/CMSIS_DSP\arm_math.h ****    * - arm_cortexM7l_math.lib (Little endian on Cortex-M7)
  74:C:\Workspaces\DAVE-4.1\Flightcontroller_PWM_CopterRocks_Working\Dave\Generated/CMSIS_DSP\arm_math.h ****    * - arm_cortexM7b_math.lib (Big endian on Cortex-M7)
  75:C:\Workspaces\DAVE-4.1\Flightcontroller_PWM_CopterRocks_Working\Dave\Generated/CMSIS_DSP\arm_math.h ****    * - arm_cortexM4lf_math.lib (Little endian and Floating Point Unit on Cortex-M4)
  76:C:\Workspaces\DAVE-4.1\Flightcontroller_PWM_CopterRocks_Working\Dave\Generated/CMSIS_DSP\arm_math.h ****    * - arm_cortexM4bf_math.lib (Big endian and Floating Point Unit on Cortex-M4)
  77:C:\Workspaces\DAVE-4.1\Flightcontroller_PWM_CopterRocks_Working\Dave\Generated/CMSIS_DSP\arm_math.h ****    * - arm_cortexM4l_math.lib (Little endian on Cortex-M4)
  78:C:\Workspaces\DAVE-4.1\Flightcontroller_PWM_CopterRocks_Working\Dave\Generated/CMSIS_DSP\arm_math.h ****    * - arm_cortexM4b_math.lib (Big endian on Cortex-M4)
  79:C:\Workspaces\DAVE-4.1\Flightcontroller_PWM_CopterRocks_Working\Dave\Generated/CMSIS_DSP\arm_math.h ****    * - arm_cortexM3l_math.lib (Little endian on Cortex-M3)
  80:C:\Workspaces\DAVE-4.1\Flightcontroller_PWM_CopterRocks_Working\Dave\Generated/CMSIS_DSP\arm_math.h ****    * - arm_cortexM3b_math.lib (Big endian on Cortex-M3)
  81:C:\Workspaces\DAVE-4.1\Flightcontroller_PWM_CopterRocks_Working\Dave\Generated/CMSIS_DSP\arm_math.h ****    * - arm_cortexM0l_math.lib (Little endian on Cortex-M0 / CortexM0+)
  82:C:\Workspaces\DAVE-4.1\Flightcontroller_PWM_CopterRocks_Working\Dave\Generated/CMSIS_DSP\arm_math.h ****    * - arm_cortexM0b_math.lib (Big endian on Cortex-M0 / CortexM0+)
  83:C:\Workspaces\DAVE-4.1\Flightcontroller_PWM_CopterRocks_Working\Dave\Generated/CMSIS_DSP\arm_math.h ****    *
  84:C:\Workspaces\DAVE-4.1\Flightcontroller_PWM_CopterRocks_Working\Dave\Generated/CMSIS_DSP\arm_math.h ****    * The library functions are declared in the public file <code>arm_math.h</code> which is placed 
  85:C:\Workspaces\DAVE-4.1\Flightcontroller_PWM_CopterRocks_Working\Dave\Generated/CMSIS_DSP\arm_math.h ****    * Simply include this file and link the appropriate library in the application and begin calling
  86:C:\Workspaces\DAVE-4.1\Flightcontroller_PWM_CopterRocks_Working\Dave\Generated/CMSIS_DSP\arm_math.h ****    * public header file <code> arm_math.h</code> for Cortex-M7/M4/M3/M0/M0+ with little endian and 
  87:C:\Workspaces\DAVE-4.1\Flightcontroller_PWM_CopterRocks_Working\Dave\Generated/CMSIS_DSP\arm_math.h ****    * Define the appropriate pre processor MACRO ARM_MATH_CM7 or ARM_MATH_CM4 or  ARM_MATH_CM3 or
  88:C:\Workspaces\DAVE-4.1\Flightcontroller_PWM_CopterRocks_Working\Dave\Generated/CMSIS_DSP\arm_math.h ****    * ARM_MATH_CM0 or ARM_MATH_CM0PLUS depending on the target processor in the application.
  89:C:\Workspaces\DAVE-4.1\Flightcontroller_PWM_CopterRocks_Working\Dave\Generated/CMSIS_DSP\arm_math.h ****    *
  90:C:\Workspaces\DAVE-4.1\Flightcontroller_PWM_CopterRocks_Working\Dave\Generated/CMSIS_DSP\arm_math.h ****    * Examples
  91:C:\Workspaces\DAVE-4.1\Flightcontroller_PWM_CopterRocks_Working\Dave\Generated/CMSIS_DSP\arm_math.h ****    * --------
  92:C:\Workspaces\DAVE-4.1\Flightcontroller_PWM_CopterRocks_Working\Dave\Generated/CMSIS_DSP\arm_math.h ****    *
  93:C:\Workspaces\DAVE-4.1\Flightcontroller_PWM_CopterRocks_Working\Dave\Generated/CMSIS_DSP\arm_math.h ****    * The library ships with a number of examples which demonstrate how to use the library functions
  94:C:\Workspaces\DAVE-4.1\Flightcontroller_PWM_CopterRocks_Working\Dave\Generated/CMSIS_DSP\arm_math.h ****    *
  95:C:\Workspaces\DAVE-4.1\Flightcontroller_PWM_CopterRocks_Working\Dave\Generated/CMSIS_DSP\arm_math.h ****    * Toolchain Support
  96:C:\Workspaces\DAVE-4.1\Flightcontroller_PWM_CopterRocks_Working\Dave\Generated/CMSIS_DSP\arm_math.h ****    * ------------
  97:C:\Workspaces\DAVE-4.1\Flightcontroller_PWM_CopterRocks_Working\Dave\Generated/CMSIS_DSP\arm_math.h ****    *
  98:C:\Workspaces\DAVE-4.1\Flightcontroller_PWM_CopterRocks_Working\Dave\Generated/CMSIS_DSP\arm_math.h ****    * The library has been developed and tested with MDK-ARM version 5.14.0.0
  99:C:\Workspaces\DAVE-4.1\Flightcontroller_PWM_CopterRocks_Working\Dave\Generated/CMSIS_DSP\arm_math.h ****    * The library is being tested in GCC and IAR toolchains and updates on this activity will be mad
 100:C:\Workspaces\DAVE-4.1\Flightcontroller_PWM_CopterRocks_Working\Dave\Generated/CMSIS_DSP\arm_math.h ****    *
 101:C:\Workspaces\DAVE-4.1\Flightcontroller_PWM_CopterRocks_Working\Dave\Generated/CMSIS_DSP\arm_math.h ****    * Building the Library
 102:C:\Workspaces\DAVE-4.1\Flightcontroller_PWM_CopterRocks_Working\Dave\Generated/CMSIS_DSP\arm_math.h ****    * ------------
 103:C:\Workspaces\DAVE-4.1\Flightcontroller_PWM_CopterRocks_Working\Dave\Generated/CMSIS_DSP\arm_math.h ****    *
 104:C:\Workspaces\DAVE-4.1\Flightcontroller_PWM_CopterRocks_Working\Dave\Generated/CMSIS_DSP\arm_math.h ****    * The library installer contains a project file to re build libraries on MDK-ARM Tool chain in t
 105:C:\Workspaces\DAVE-4.1\Flightcontroller_PWM_CopterRocks_Working\Dave\Generated/CMSIS_DSP\arm_math.h ****    * - arm_cortexM_math.uvprojx
 106:C:\Workspaces\DAVE-4.1\Flightcontroller_PWM_CopterRocks_Working\Dave\Generated/CMSIS_DSP\arm_math.h ****    *
 107:C:\Workspaces\DAVE-4.1\Flightcontroller_PWM_CopterRocks_Working\Dave\Generated/CMSIS_DSP\arm_math.h ****    *
 108:C:\Workspaces\DAVE-4.1\Flightcontroller_PWM_CopterRocks_Working\Dave\Generated/CMSIS_DSP\arm_math.h ****    * The libraries can be built by opening the arm_cortexM_math.uvprojx project in MDK-ARM, selecti
 109:C:\Workspaces\DAVE-4.1\Flightcontroller_PWM_CopterRocks_Working\Dave\Generated/CMSIS_DSP\arm_math.h ****    *
 110:C:\Workspaces\DAVE-4.1\Flightcontroller_PWM_CopterRocks_Working\Dave\Generated/CMSIS_DSP\arm_math.h ****    * Pre-processor Macros
 111:C:\Workspaces\DAVE-4.1\Flightcontroller_PWM_CopterRocks_Working\Dave\Generated/CMSIS_DSP\arm_math.h ****    * ------------
 112:C:\Workspaces\DAVE-4.1\Flightcontroller_PWM_CopterRocks_Working\Dave\Generated/CMSIS_DSP\arm_math.h ****    *
 113:C:\Workspaces\DAVE-4.1\Flightcontroller_PWM_CopterRocks_Working\Dave\Generated/CMSIS_DSP\arm_math.h ****    * Each library project have differant pre-processor macros.
 114:C:\Workspaces\DAVE-4.1\Flightcontroller_PWM_CopterRocks_Working\Dave\Generated/CMSIS_DSP\arm_math.h ****    *
 115:C:\Workspaces\DAVE-4.1\Flightcontroller_PWM_CopterRocks_Working\Dave\Generated/CMSIS_DSP\arm_math.h ****    * - UNALIGNED_SUPPORT_DISABLE:
 116:C:\Workspaces\DAVE-4.1\Flightcontroller_PWM_CopterRocks_Working\Dave\Generated/CMSIS_DSP\arm_math.h ****    *
 117:C:\Workspaces\DAVE-4.1\Flightcontroller_PWM_CopterRocks_Working\Dave\Generated/CMSIS_DSP\arm_math.h ****    * Define macro UNALIGNED_SUPPORT_DISABLE, If the silicon does not support unaligned memory acces
 118:C:\Workspaces\DAVE-4.1\Flightcontroller_PWM_CopterRocks_Working\Dave\Generated/CMSIS_DSP\arm_math.h ****    *
 119:C:\Workspaces\DAVE-4.1\Flightcontroller_PWM_CopterRocks_Working\Dave\Generated/CMSIS_DSP\arm_math.h ****    * - ARM_MATH_BIG_ENDIAN:
 120:C:\Workspaces\DAVE-4.1\Flightcontroller_PWM_CopterRocks_Working\Dave\Generated/CMSIS_DSP\arm_math.h ****    *
 121:C:\Workspaces\DAVE-4.1\Flightcontroller_PWM_CopterRocks_Working\Dave\Generated/CMSIS_DSP\arm_math.h ****    * Define macro ARM_MATH_BIG_ENDIAN to build the library for big endian targets. By default libra
 122:C:\Workspaces\DAVE-4.1\Flightcontroller_PWM_CopterRocks_Working\Dave\Generated/CMSIS_DSP\arm_math.h ****    *
 123:C:\Workspaces\DAVE-4.1\Flightcontroller_PWM_CopterRocks_Working\Dave\Generated/CMSIS_DSP\arm_math.h ****    * - ARM_MATH_MATRIX_CHECK:
 124:C:\Workspaces\DAVE-4.1\Flightcontroller_PWM_CopterRocks_Working\Dave\Generated/CMSIS_DSP\arm_math.h ****    *
 125:C:\Workspaces\DAVE-4.1\Flightcontroller_PWM_CopterRocks_Working\Dave\Generated/CMSIS_DSP\arm_math.h ****    * Define macro ARM_MATH_MATRIX_CHECK for checking on the input and output sizes of matrices
 126:C:\Workspaces\DAVE-4.1\Flightcontroller_PWM_CopterRocks_Working\Dave\Generated/CMSIS_DSP\arm_math.h ****    *
 127:C:\Workspaces\DAVE-4.1\Flightcontroller_PWM_CopterRocks_Working\Dave\Generated/CMSIS_DSP\arm_math.h ****    * - ARM_MATH_ROUNDING:
 128:C:\Workspaces\DAVE-4.1\Flightcontroller_PWM_CopterRocks_Working\Dave\Generated/CMSIS_DSP\arm_math.h ****    *
 129:C:\Workspaces\DAVE-4.1\Flightcontroller_PWM_CopterRocks_Working\Dave\Generated/CMSIS_DSP\arm_math.h ****    * Define macro ARM_MATH_ROUNDING for rounding on support functions
 130:C:\Workspaces\DAVE-4.1\Flightcontroller_PWM_CopterRocks_Working\Dave\Generated/CMSIS_DSP\arm_math.h ****    *
 131:C:\Workspaces\DAVE-4.1\Flightcontroller_PWM_CopterRocks_Working\Dave\Generated/CMSIS_DSP\arm_math.h ****    * - ARM_MATH_CMx:
 132:C:\Workspaces\DAVE-4.1\Flightcontroller_PWM_CopterRocks_Working\Dave\Generated/CMSIS_DSP\arm_math.h ****    *
 133:C:\Workspaces\DAVE-4.1\Flightcontroller_PWM_CopterRocks_Working\Dave\Generated/CMSIS_DSP\arm_math.h ****    * Define macro ARM_MATH_CM4 for building the library on Cortex-M4 target, ARM_MATH_CM3 for build
 134:C:\Workspaces\DAVE-4.1\Flightcontroller_PWM_CopterRocks_Working\Dave\Generated/CMSIS_DSP\arm_math.h ****    * and ARM_MATH_CM0 for building library on Cortex-M0 target, ARM_MATH_CM0PLUS for building libra
 135:C:\Workspaces\DAVE-4.1\Flightcontroller_PWM_CopterRocks_Working\Dave\Generated/CMSIS_DSP\arm_math.h ****    * ARM_MATH_CM7 for building the library on cortex-M7.
 136:C:\Workspaces\DAVE-4.1\Flightcontroller_PWM_CopterRocks_Working\Dave\Generated/CMSIS_DSP\arm_math.h ****    *
 137:C:\Workspaces\DAVE-4.1\Flightcontroller_PWM_CopterRocks_Working\Dave\Generated/CMSIS_DSP\arm_math.h ****    * - __FPU_PRESENT:
 138:C:\Workspaces\DAVE-4.1\Flightcontroller_PWM_CopterRocks_Working\Dave\Generated/CMSIS_DSP\arm_math.h ****    *
 139:C:\Workspaces\DAVE-4.1\Flightcontroller_PWM_CopterRocks_Working\Dave\Generated/CMSIS_DSP\arm_math.h ****    * Initialize macro __FPU_PRESENT = 1 when building on FPU supported Targets. Enable this macro f
 140:C:\Workspaces\DAVE-4.1\Flightcontroller_PWM_CopterRocks_Working\Dave\Generated/CMSIS_DSP\arm_math.h ****    *
 141:C:\Workspaces\DAVE-4.1\Flightcontroller_PWM_CopterRocks_Working\Dave\Generated/CMSIS_DSP\arm_math.h ****    * <hr>
 142:C:\Workspaces\DAVE-4.1\Flightcontroller_PWM_CopterRocks_Working\Dave\Generated/CMSIS_DSP\arm_math.h ****    * CMSIS-DSP in ARM::CMSIS Pack
 143:C:\Workspaces\DAVE-4.1\Flightcontroller_PWM_CopterRocks_Working\Dave\Generated/CMSIS_DSP\arm_math.h ****    * -----------------------------
 144:C:\Workspaces\DAVE-4.1\Flightcontroller_PWM_CopterRocks_Working\Dave\Generated/CMSIS_DSP\arm_math.h ****    *
 145:C:\Workspaces\DAVE-4.1\Flightcontroller_PWM_CopterRocks_Working\Dave\Generated/CMSIS_DSP\arm_math.h ****    * The following files relevant to CMSIS-DSP are present in the <b>ARM::CMSIS</b> Pack directorie
 146:C:\Workspaces\DAVE-4.1\Flightcontroller_PWM_CopterRocks_Working\Dave\Generated/CMSIS_DSP\arm_math.h ****    * |File/Folder                   |Content                                                       
 147:C:\Workspaces\DAVE-4.1\Flightcontroller_PWM_CopterRocks_Working\Dave\Generated/CMSIS_DSP\arm_math.h ****    * |------------------------------|--------------------------------------------------------------
 148:C:\Workspaces\DAVE-4.1\Flightcontroller_PWM_CopterRocks_Working\Dave\Generated/CMSIS_DSP\arm_math.h ****    * |\b CMSIS\\Documentation\\DSP  | This documentation                                           
 149:C:\Workspaces\DAVE-4.1\Flightcontroller_PWM_CopterRocks_Working\Dave\Generated/CMSIS_DSP\arm_math.h ****    * |\b CMSIS\\DSP_Lib             | Software license agreement (license.txt)                     
 150:C:\Workspaces\DAVE-4.1\Flightcontroller_PWM_CopterRocks_Working\Dave\Generated/CMSIS_DSP\arm_math.h ****    * |\b CMSIS\\DSP_Lib\\Examples   | Example projects demonstrating the usage of the library funct
 151:C:\Workspaces\DAVE-4.1\Flightcontroller_PWM_CopterRocks_Working\Dave\Generated/CMSIS_DSP\arm_math.h ****    * |\b CMSIS\\DSP_Lib\\Source     | Source files for rebuilding the library                      
 152:C:\Workspaces\DAVE-4.1\Flightcontroller_PWM_CopterRocks_Working\Dave\Generated/CMSIS_DSP\arm_math.h ****    *
 153:C:\Workspaces\DAVE-4.1\Flightcontroller_PWM_CopterRocks_Working\Dave\Generated/CMSIS_DSP\arm_math.h ****    * <hr>
 154:C:\Workspaces\DAVE-4.1\Flightcontroller_PWM_CopterRocks_Working\Dave\Generated/CMSIS_DSP\arm_math.h ****    * Revision History of CMSIS-DSP
 155:C:\Workspaces\DAVE-4.1\Flightcontroller_PWM_CopterRocks_Working\Dave\Generated/CMSIS_DSP\arm_math.h ****    * ------------
 156:C:\Workspaces\DAVE-4.1\Flightcontroller_PWM_CopterRocks_Working\Dave\Generated/CMSIS_DSP\arm_math.h ****    * Please refer to \ref ChangeLog_pg.
 157:C:\Workspaces\DAVE-4.1\Flightcontroller_PWM_CopterRocks_Working\Dave\Generated/CMSIS_DSP\arm_math.h ****    *
 158:C:\Workspaces\DAVE-4.1\Flightcontroller_PWM_CopterRocks_Working\Dave\Generated/CMSIS_DSP\arm_math.h ****    * Copyright Notice
 159:C:\Workspaces\DAVE-4.1\Flightcontroller_PWM_CopterRocks_Working\Dave\Generated/CMSIS_DSP\arm_math.h ****    * ------------
 160:C:\Workspaces\DAVE-4.1\Flightcontroller_PWM_CopterRocks_Working\Dave\Generated/CMSIS_DSP\arm_math.h ****    *
 161:C:\Workspaces\DAVE-4.1\Flightcontroller_PWM_CopterRocks_Working\Dave\Generated/CMSIS_DSP\arm_math.h ****    * Copyright (C) 2010-2015 ARM Limited. All rights reserved.
 162:C:\Workspaces\DAVE-4.1\Flightcontroller_PWM_CopterRocks_Working\Dave\Generated/CMSIS_DSP\arm_math.h ****    */
 163:C:\Workspaces\DAVE-4.1\Flightcontroller_PWM_CopterRocks_Working\Dave\Generated/CMSIS_DSP\arm_math.h **** 
 164:C:\Workspaces\DAVE-4.1\Flightcontroller_PWM_CopterRocks_Working\Dave\Generated/CMSIS_DSP\arm_math.h **** 
 165:C:\Workspaces\DAVE-4.1\Flightcontroller_PWM_CopterRocks_Working\Dave\Generated/CMSIS_DSP\arm_math.h **** /**
 166:C:\Workspaces\DAVE-4.1\Flightcontroller_PWM_CopterRocks_Working\Dave\Generated/CMSIS_DSP\arm_math.h ****  * @defgroup groupMath Basic Math Functions
 167:C:\Workspaces\DAVE-4.1\Flightcontroller_PWM_CopterRocks_Working\Dave\Generated/CMSIS_DSP\arm_math.h ****  */
 168:C:\Workspaces\DAVE-4.1\Flightcontroller_PWM_CopterRocks_Working\Dave\Generated/CMSIS_DSP\arm_math.h **** 
 169:C:\Workspaces\DAVE-4.1\Flightcontroller_PWM_CopterRocks_Working\Dave\Generated/CMSIS_DSP\arm_math.h **** /**
 170:C:\Workspaces\DAVE-4.1\Flightcontroller_PWM_CopterRocks_Working\Dave\Generated/CMSIS_DSP\arm_math.h ****  * @defgroup groupFastMath Fast Math Functions
 171:C:\Workspaces\DAVE-4.1\Flightcontroller_PWM_CopterRocks_Working\Dave\Generated/CMSIS_DSP\arm_math.h ****  * This set of functions provides a fast approximation to sine, cosine, and square root.
 172:C:\Workspaces\DAVE-4.1\Flightcontroller_PWM_CopterRocks_Working\Dave\Generated/CMSIS_DSP\arm_math.h ****  * As compared to most of the other functions in the CMSIS math library, the fast math functions
 173:C:\Workspaces\DAVE-4.1\Flightcontroller_PWM_CopterRocks_Working\Dave\Generated/CMSIS_DSP\arm_math.h ****  * operate on individual values and not arrays.
 174:C:\Workspaces\DAVE-4.1\Flightcontroller_PWM_CopterRocks_Working\Dave\Generated/CMSIS_DSP\arm_math.h ****  * There are separate functions for Q15, Q31, and floating-point data.
 175:C:\Workspaces\DAVE-4.1\Flightcontroller_PWM_CopterRocks_Working\Dave\Generated/CMSIS_DSP\arm_math.h ****  *
 176:C:\Workspaces\DAVE-4.1\Flightcontroller_PWM_CopterRocks_Working\Dave\Generated/CMSIS_DSP\arm_math.h ****  */
 177:C:\Workspaces\DAVE-4.1\Flightcontroller_PWM_CopterRocks_Working\Dave\Generated/CMSIS_DSP\arm_math.h **** 
 178:C:\Workspaces\DAVE-4.1\Flightcontroller_PWM_CopterRocks_Working\Dave\Generated/CMSIS_DSP\arm_math.h **** /**
 179:C:\Workspaces\DAVE-4.1\Flightcontroller_PWM_CopterRocks_Working\Dave\Generated/CMSIS_DSP\arm_math.h ****  * @defgroup groupCmplxMath Complex Math Functions
 180:C:\Workspaces\DAVE-4.1\Flightcontroller_PWM_CopterRocks_Working\Dave\Generated/CMSIS_DSP\arm_math.h ****  * This set of functions operates on complex data vectors.
 181:C:\Workspaces\DAVE-4.1\Flightcontroller_PWM_CopterRocks_Working\Dave\Generated/CMSIS_DSP\arm_math.h ****  * The data in the complex arrays is stored in an interleaved fashion
 182:C:\Workspaces\DAVE-4.1\Flightcontroller_PWM_CopterRocks_Working\Dave\Generated/CMSIS_DSP\arm_math.h ****  * (real, imag, real, imag, ...).
 183:C:\Workspaces\DAVE-4.1\Flightcontroller_PWM_CopterRocks_Working\Dave\Generated/CMSIS_DSP\arm_math.h ****  * In the API functions, the number of samples in a complex array refers
 184:C:\Workspaces\DAVE-4.1\Flightcontroller_PWM_CopterRocks_Working\Dave\Generated/CMSIS_DSP\arm_math.h ****  * to the number of complex values; the array contains twice this number of
 185:C:\Workspaces\DAVE-4.1\Flightcontroller_PWM_CopterRocks_Working\Dave\Generated/CMSIS_DSP\arm_math.h ****  * real values.
 186:C:\Workspaces\DAVE-4.1\Flightcontroller_PWM_CopterRocks_Working\Dave\Generated/CMSIS_DSP\arm_math.h ****  */
 187:C:\Workspaces\DAVE-4.1\Flightcontroller_PWM_CopterRocks_Working\Dave\Generated/CMSIS_DSP\arm_math.h **** 
 188:C:\Workspaces\DAVE-4.1\Flightcontroller_PWM_CopterRocks_Working\Dave\Generated/CMSIS_DSP\arm_math.h **** /**
 189:C:\Workspaces\DAVE-4.1\Flightcontroller_PWM_CopterRocks_Working\Dave\Generated/CMSIS_DSP\arm_math.h ****  * @defgroup groupFilters Filtering Functions
 190:C:\Workspaces\DAVE-4.1\Flightcontroller_PWM_CopterRocks_Working\Dave\Generated/CMSIS_DSP\arm_math.h ****  */
 191:C:\Workspaces\DAVE-4.1\Flightcontroller_PWM_CopterRocks_Working\Dave\Generated/CMSIS_DSP\arm_math.h **** 
 192:C:\Workspaces\DAVE-4.1\Flightcontroller_PWM_CopterRocks_Working\Dave\Generated/CMSIS_DSP\arm_math.h **** /**
 193:C:\Workspaces\DAVE-4.1\Flightcontroller_PWM_CopterRocks_Working\Dave\Generated/CMSIS_DSP\arm_math.h ****  * @defgroup groupMatrix Matrix Functions
 194:C:\Workspaces\DAVE-4.1\Flightcontroller_PWM_CopterRocks_Working\Dave\Generated/CMSIS_DSP\arm_math.h ****  *
 195:C:\Workspaces\DAVE-4.1\Flightcontroller_PWM_CopterRocks_Working\Dave\Generated/CMSIS_DSP\arm_math.h ****  * This set of functions provides basic matrix math operations.
 196:C:\Workspaces\DAVE-4.1\Flightcontroller_PWM_CopterRocks_Working\Dave\Generated/CMSIS_DSP\arm_math.h ****  * The functions operate on matrix data structures.  For example,
 197:C:\Workspaces\DAVE-4.1\Flightcontroller_PWM_CopterRocks_Working\Dave\Generated/CMSIS_DSP\arm_math.h ****  * the type
 198:C:\Workspaces\DAVE-4.1\Flightcontroller_PWM_CopterRocks_Working\Dave\Generated/CMSIS_DSP\arm_math.h ****  * definition for the floating-point matrix structure is shown
 199:C:\Workspaces\DAVE-4.1\Flightcontroller_PWM_CopterRocks_Working\Dave\Generated/CMSIS_DSP\arm_math.h ****  * below:
 200:C:\Workspaces\DAVE-4.1\Flightcontroller_PWM_CopterRocks_Working\Dave\Generated/CMSIS_DSP\arm_math.h ****  * <pre>
 201:C:\Workspaces\DAVE-4.1\Flightcontroller_PWM_CopterRocks_Working\Dave\Generated/CMSIS_DSP\arm_math.h ****  *     typedef struct
 202:C:\Workspaces\DAVE-4.1\Flightcontroller_PWM_CopterRocks_Working\Dave\Generated/CMSIS_DSP\arm_math.h ****  *     {
 203:C:\Workspaces\DAVE-4.1\Flightcontroller_PWM_CopterRocks_Working\Dave\Generated/CMSIS_DSP\arm_math.h ****  *       uint16_t numRows;     // number of rows of the matrix.
 204:C:\Workspaces\DAVE-4.1\Flightcontroller_PWM_CopterRocks_Working\Dave\Generated/CMSIS_DSP\arm_math.h ****  *       uint16_t numCols;     // number of columns of the matrix.
 205:C:\Workspaces\DAVE-4.1\Flightcontroller_PWM_CopterRocks_Working\Dave\Generated/CMSIS_DSP\arm_math.h ****  *       float32_t *pData;     // points to the data of the matrix.
 206:C:\Workspaces\DAVE-4.1\Flightcontroller_PWM_CopterRocks_Working\Dave\Generated/CMSIS_DSP\arm_math.h ****  *     } arm_matrix_instance_f32;
 207:C:\Workspaces\DAVE-4.1\Flightcontroller_PWM_CopterRocks_Working\Dave\Generated/CMSIS_DSP\arm_math.h ****  * </pre>
 208:C:\Workspaces\DAVE-4.1\Flightcontroller_PWM_CopterRocks_Working\Dave\Generated/CMSIS_DSP\arm_math.h ****  * There are similar definitions for Q15 and Q31 data types.
 209:C:\Workspaces\DAVE-4.1\Flightcontroller_PWM_CopterRocks_Working\Dave\Generated/CMSIS_DSP\arm_math.h ****  *
 210:C:\Workspaces\DAVE-4.1\Flightcontroller_PWM_CopterRocks_Working\Dave\Generated/CMSIS_DSP\arm_math.h ****  * The structure specifies the size of the matrix and then points to
 211:C:\Workspaces\DAVE-4.1\Flightcontroller_PWM_CopterRocks_Working\Dave\Generated/CMSIS_DSP\arm_math.h ****  * an array of data.  The array is of size <code>numRows X numCols</code>
 212:C:\Workspaces\DAVE-4.1\Flightcontroller_PWM_CopterRocks_Working\Dave\Generated/CMSIS_DSP\arm_math.h ****  * and the values are arranged in row order.  That is, the
 213:C:\Workspaces\DAVE-4.1\Flightcontroller_PWM_CopterRocks_Working\Dave\Generated/CMSIS_DSP\arm_math.h ****  * matrix element (i, j) is stored at:
 214:C:\Workspaces\DAVE-4.1\Flightcontroller_PWM_CopterRocks_Working\Dave\Generated/CMSIS_DSP\arm_math.h ****  * <pre>
 215:C:\Workspaces\DAVE-4.1\Flightcontroller_PWM_CopterRocks_Working\Dave\Generated/CMSIS_DSP\arm_math.h ****  *     pData[i*numCols + j]
 216:C:\Workspaces\DAVE-4.1\Flightcontroller_PWM_CopterRocks_Working\Dave\Generated/CMSIS_DSP\arm_math.h ****  * </pre>
 217:C:\Workspaces\DAVE-4.1\Flightcontroller_PWM_CopterRocks_Working\Dave\Generated/CMSIS_DSP\arm_math.h ****  *
 218:C:\Workspaces\DAVE-4.1\Flightcontroller_PWM_CopterRocks_Working\Dave\Generated/CMSIS_DSP\arm_math.h ****  * \par Init Functions
 219:C:\Workspaces\DAVE-4.1\Flightcontroller_PWM_CopterRocks_Working\Dave\Generated/CMSIS_DSP\arm_math.h ****  * There is an associated initialization function for each type of matrix
 220:C:\Workspaces\DAVE-4.1\Flightcontroller_PWM_CopterRocks_Working\Dave\Generated/CMSIS_DSP\arm_math.h ****  * data structure.
 221:C:\Workspaces\DAVE-4.1\Flightcontroller_PWM_CopterRocks_Working\Dave\Generated/CMSIS_DSP\arm_math.h ****  * The initialization function sets the values of the internal structure fields.
 222:C:\Workspaces\DAVE-4.1\Flightcontroller_PWM_CopterRocks_Working\Dave\Generated/CMSIS_DSP\arm_math.h ****  * Refer to the function <code>arm_mat_init_f32()</code>, <code>arm_mat_init_q31()</code>
 223:C:\Workspaces\DAVE-4.1\Flightcontroller_PWM_CopterRocks_Working\Dave\Generated/CMSIS_DSP\arm_math.h ****  * and <code>arm_mat_init_q15()</code> for floating-point, Q31 and Q15 types,  respectively.
 224:C:\Workspaces\DAVE-4.1\Flightcontroller_PWM_CopterRocks_Working\Dave\Generated/CMSIS_DSP\arm_math.h ****  *
 225:C:\Workspaces\DAVE-4.1\Flightcontroller_PWM_CopterRocks_Working\Dave\Generated/CMSIS_DSP\arm_math.h ****  * \par
 226:C:\Workspaces\DAVE-4.1\Flightcontroller_PWM_CopterRocks_Working\Dave\Generated/CMSIS_DSP\arm_math.h ****  * Use of the initialization function is optional. However, if initialization function is used
 227:C:\Workspaces\DAVE-4.1\Flightcontroller_PWM_CopterRocks_Working\Dave\Generated/CMSIS_DSP\arm_math.h ****  * then the instance structure cannot be placed into a const data section.
 228:C:\Workspaces\DAVE-4.1\Flightcontroller_PWM_CopterRocks_Working\Dave\Generated/CMSIS_DSP\arm_math.h ****  * To place the instance structure in a const data
 229:C:\Workspaces\DAVE-4.1\Flightcontroller_PWM_CopterRocks_Working\Dave\Generated/CMSIS_DSP\arm_math.h ****  * section, manually initialize the data structure.  For example:
 230:C:\Workspaces\DAVE-4.1\Flightcontroller_PWM_CopterRocks_Working\Dave\Generated/CMSIS_DSP\arm_math.h ****  * <pre>
 231:C:\Workspaces\DAVE-4.1\Flightcontroller_PWM_CopterRocks_Working\Dave\Generated/CMSIS_DSP\arm_math.h ****  * <code>arm_matrix_instance_f32 S = {nRows, nColumns, pData};</code>
 232:C:\Workspaces\DAVE-4.1\Flightcontroller_PWM_CopterRocks_Working\Dave\Generated/CMSIS_DSP\arm_math.h ****  * <code>arm_matrix_instance_q31 S = {nRows, nColumns, pData};</code>
 233:C:\Workspaces\DAVE-4.1\Flightcontroller_PWM_CopterRocks_Working\Dave\Generated/CMSIS_DSP\arm_math.h ****  * <code>arm_matrix_instance_q15 S = {nRows, nColumns, pData};</code>
 234:C:\Workspaces\DAVE-4.1\Flightcontroller_PWM_CopterRocks_Working\Dave\Generated/CMSIS_DSP\arm_math.h ****  * </pre>
 235:C:\Workspaces\DAVE-4.1\Flightcontroller_PWM_CopterRocks_Working\Dave\Generated/CMSIS_DSP\arm_math.h ****  * where <code>nRows</code> specifies the number of rows, <code>nColumns</code>
 236:C:\Workspaces\DAVE-4.1\Flightcontroller_PWM_CopterRocks_Working\Dave\Generated/CMSIS_DSP\arm_math.h ****  * specifies the number of columns, and <code>pData</code> points to the
 237:C:\Workspaces\DAVE-4.1\Flightcontroller_PWM_CopterRocks_Working\Dave\Generated/CMSIS_DSP\arm_math.h ****  * data array.
 238:C:\Workspaces\DAVE-4.1\Flightcontroller_PWM_CopterRocks_Working\Dave\Generated/CMSIS_DSP\arm_math.h ****  *
 239:C:\Workspaces\DAVE-4.1\Flightcontroller_PWM_CopterRocks_Working\Dave\Generated/CMSIS_DSP\arm_math.h ****  * \par Size Checking
 240:C:\Workspaces\DAVE-4.1\Flightcontroller_PWM_CopterRocks_Working\Dave\Generated/CMSIS_DSP\arm_math.h ****  * By default all of the matrix functions perform size checking on the input and
 241:C:\Workspaces\DAVE-4.1\Flightcontroller_PWM_CopterRocks_Working\Dave\Generated/CMSIS_DSP\arm_math.h ****  * output matrices.  For example, the matrix addition function verifies that the
 242:C:\Workspaces\DAVE-4.1\Flightcontroller_PWM_CopterRocks_Working\Dave\Generated/CMSIS_DSP\arm_math.h ****  * two input matrices and the output matrix all have the same number of rows and
 243:C:\Workspaces\DAVE-4.1\Flightcontroller_PWM_CopterRocks_Working\Dave\Generated/CMSIS_DSP\arm_math.h ****  * columns.  If the size check fails the functions return:
 244:C:\Workspaces\DAVE-4.1\Flightcontroller_PWM_CopterRocks_Working\Dave\Generated/CMSIS_DSP\arm_math.h ****  * <pre>
 245:C:\Workspaces\DAVE-4.1\Flightcontroller_PWM_CopterRocks_Working\Dave\Generated/CMSIS_DSP\arm_math.h ****  *     ARM_MATH_SIZE_MISMATCH
 246:C:\Workspaces\DAVE-4.1\Flightcontroller_PWM_CopterRocks_Working\Dave\Generated/CMSIS_DSP\arm_math.h ****  * </pre>
 247:C:\Workspaces\DAVE-4.1\Flightcontroller_PWM_CopterRocks_Working\Dave\Generated/CMSIS_DSP\arm_math.h ****  * Otherwise the functions return
 248:C:\Workspaces\DAVE-4.1\Flightcontroller_PWM_CopterRocks_Working\Dave\Generated/CMSIS_DSP\arm_math.h ****  * <pre>
 249:C:\Workspaces\DAVE-4.1\Flightcontroller_PWM_CopterRocks_Working\Dave\Generated/CMSIS_DSP\arm_math.h ****  *     ARM_MATH_SUCCESS
 250:C:\Workspaces\DAVE-4.1\Flightcontroller_PWM_CopterRocks_Working\Dave\Generated/CMSIS_DSP\arm_math.h ****  * </pre>
 251:C:\Workspaces\DAVE-4.1\Flightcontroller_PWM_CopterRocks_Working\Dave\Generated/CMSIS_DSP\arm_math.h ****  * There is some overhead associated with this matrix size checking.
 252:C:\Workspaces\DAVE-4.1\Flightcontroller_PWM_CopterRocks_Working\Dave\Generated/CMSIS_DSP\arm_math.h ****  * The matrix size checking is enabled via the \#define
 253:C:\Workspaces\DAVE-4.1\Flightcontroller_PWM_CopterRocks_Working\Dave\Generated/CMSIS_DSP\arm_math.h ****  * <pre>
 254:C:\Workspaces\DAVE-4.1\Flightcontroller_PWM_CopterRocks_Working\Dave\Generated/CMSIS_DSP\arm_math.h ****  *     ARM_MATH_MATRIX_CHECK
 255:C:\Workspaces\DAVE-4.1\Flightcontroller_PWM_CopterRocks_Working\Dave\Generated/CMSIS_DSP\arm_math.h ****  * </pre>
 256:C:\Workspaces\DAVE-4.1\Flightcontroller_PWM_CopterRocks_Working\Dave\Generated/CMSIS_DSP\arm_math.h ****  * within the library project settings.  By default this macro is defined
 257:C:\Workspaces\DAVE-4.1\Flightcontroller_PWM_CopterRocks_Working\Dave\Generated/CMSIS_DSP\arm_math.h ****  * and size checking is enabled.  By changing the project settings and
 258:C:\Workspaces\DAVE-4.1\Flightcontroller_PWM_CopterRocks_Working\Dave\Generated/CMSIS_DSP\arm_math.h ****  * undefining this macro size checking is eliminated and the functions
 259:C:\Workspaces\DAVE-4.1\Flightcontroller_PWM_CopterRocks_Working\Dave\Generated/CMSIS_DSP\arm_math.h ****  * run a bit faster.  With size checking disabled the functions always
 260:C:\Workspaces\DAVE-4.1\Flightcontroller_PWM_CopterRocks_Working\Dave\Generated/CMSIS_DSP\arm_math.h ****  * return <code>ARM_MATH_SUCCESS</code>.
 261:C:\Workspaces\DAVE-4.1\Flightcontroller_PWM_CopterRocks_Working\Dave\Generated/CMSIS_DSP\arm_math.h ****  */
 262:C:\Workspaces\DAVE-4.1\Flightcontroller_PWM_CopterRocks_Working\Dave\Generated/CMSIS_DSP\arm_math.h **** 
 263:C:\Workspaces\DAVE-4.1\Flightcontroller_PWM_CopterRocks_Working\Dave\Generated/CMSIS_DSP\arm_math.h **** /**
 264:C:\Workspaces\DAVE-4.1\Flightcontroller_PWM_CopterRocks_Working\Dave\Generated/CMSIS_DSP\arm_math.h ****  * @defgroup groupTransforms Transform Functions
 265:C:\Workspaces\DAVE-4.1\Flightcontroller_PWM_CopterRocks_Working\Dave\Generated/CMSIS_DSP\arm_math.h ****  */
 266:C:\Workspaces\DAVE-4.1\Flightcontroller_PWM_CopterRocks_Working\Dave\Generated/CMSIS_DSP\arm_math.h **** 
 267:C:\Workspaces\DAVE-4.1\Flightcontroller_PWM_CopterRocks_Working\Dave\Generated/CMSIS_DSP\arm_math.h **** /**
 268:C:\Workspaces\DAVE-4.1\Flightcontroller_PWM_CopterRocks_Working\Dave\Generated/CMSIS_DSP\arm_math.h ****  * @defgroup groupController Controller Functions
 269:C:\Workspaces\DAVE-4.1\Flightcontroller_PWM_CopterRocks_Working\Dave\Generated/CMSIS_DSP\arm_math.h ****  */
 270:C:\Workspaces\DAVE-4.1\Flightcontroller_PWM_CopterRocks_Working\Dave\Generated/CMSIS_DSP\arm_math.h **** 
 271:C:\Workspaces\DAVE-4.1\Flightcontroller_PWM_CopterRocks_Working\Dave\Generated/CMSIS_DSP\arm_math.h **** /**
 272:C:\Workspaces\DAVE-4.1\Flightcontroller_PWM_CopterRocks_Working\Dave\Generated/CMSIS_DSP\arm_math.h ****  * @defgroup groupStats Statistics Functions
 273:C:\Workspaces\DAVE-4.1\Flightcontroller_PWM_CopterRocks_Working\Dave\Generated/CMSIS_DSP\arm_math.h ****  */
 274:C:\Workspaces\DAVE-4.1\Flightcontroller_PWM_CopterRocks_Working\Dave\Generated/CMSIS_DSP\arm_math.h **** /**
 275:C:\Workspaces\DAVE-4.1\Flightcontroller_PWM_CopterRocks_Working\Dave\Generated/CMSIS_DSP\arm_math.h ****  * @defgroup groupSupport Support Functions
 276:C:\Workspaces\DAVE-4.1\Flightcontroller_PWM_CopterRocks_Working\Dave\Generated/CMSIS_DSP\arm_math.h ****  */
 277:C:\Workspaces\DAVE-4.1\Flightcontroller_PWM_CopterRocks_Working\Dave\Generated/CMSIS_DSP\arm_math.h **** 
 278:C:\Workspaces\DAVE-4.1\Flightcontroller_PWM_CopterRocks_Working\Dave\Generated/CMSIS_DSP\arm_math.h **** /**
 279:C:\Workspaces\DAVE-4.1\Flightcontroller_PWM_CopterRocks_Working\Dave\Generated/CMSIS_DSP\arm_math.h ****  * @defgroup groupInterpolation Interpolation Functions
 280:C:\Workspaces\DAVE-4.1\Flightcontroller_PWM_CopterRocks_Working\Dave\Generated/CMSIS_DSP\arm_math.h ****  * These functions perform 1- and 2-dimensional interpolation of data.
 281:C:\Workspaces\DAVE-4.1\Flightcontroller_PWM_CopterRocks_Working\Dave\Generated/CMSIS_DSP\arm_math.h ****  * Linear interpolation is used for 1-dimensional data and
 282:C:\Workspaces\DAVE-4.1\Flightcontroller_PWM_CopterRocks_Working\Dave\Generated/CMSIS_DSP\arm_math.h ****  * bilinear interpolation is used for 2-dimensional data.
 283:C:\Workspaces\DAVE-4.1\Flightcontroller_PWM_CopterRocks_Working\Dave\Generated/CMSIS_DSP\arm_math.h ****  */
 284:C:\Workspaces\DAVE-4.1\Flightcontroller_PWM_CopterRocks_Working\Dave\Generated/CMSIS_DSP\arm_math.h **** 
 285:C:\Workspaces\DAVE-4.1\Flightcontroller_PWM_CopterRocks_Working\Dave\Generated/CMSIS_DSP\arm_math.h **** /**
 286:C:\Workspaces\DAVE-4.1\Flightcontroller_PWM_CopterRocks_Working\Dave\Generated/CMSIS_DSP\arm_math.h ****  * @defgroup groupExamples Examples
 287:C:\Workspaces\DAVE-4.1\Flightcontroller_PWM_CopterRocks_Working\Dave\Generated/CMSIS_DSP\arm_math.h ****  */
 288:C:\Workspaces\DAVE-4.1\Flightcontroller_PWM_CopterRocks_Working\Dave\Generated/CMSIS_DSP\arm_math.h **** #ifndef _ARM_MATH_H
 289:C:\Workspaces\DAVE-4.1\Flightcontroller_PWM_CopterRocks_Working\Dave\Generated/CMSIS_DSP\arm_math.h **** #define _ARM_MATH_H
 290:C:\Workspaces\DAVE-4.1\Flightcontroller_PWM_CopterRocks_Working\Dave\Generated/CMSIS_DSP\arm_math.h **** 
 291:C:\Workspaces\DAVE-4.1\Flightcontroller_PWM_CopterRocks_Working\Dave\Generated/CMSIS_DSP\arm_math.h **** /* ignore some GCC warnings */
 292:C:\Workspaces\DAVE-4.1\Flightcontroller_PWM_CopterRocks_Working\Dave\Generated/CMSIS_DSP\arm_math.h **** #if defined ( __GNUC__ )
 293:C:\Workspaces\DAVE-4.1\Flightcontroller_PWM_CopterRocks_Working\Dave\Generated/CMSIS_DSP\arm_math.h **** #pragma GCC diagnostic push
 294:C:\Workspaces\DAVE-4.1\Flightcontroller_PWM_CopterRocks_Working\Dave\Generated/CMSIS_DSP\arm_math.h **** #pragma GCC diagnostic ignored "-Wsign-conversion"
 295:C:\Workspaces\DAVE-4.1\Flightcontroller_PWM_CopterRocks_Working\Dave\Generated/CMSIS_DSP\arm_math.h **** #pragma GCC diagnostic ignored "-Wconversion"
 296:C:\Workspaces\DAVE-4.1\Flightcontroller_PWM_CopterRocks_Working\Dave\Generated/CMSIS_DSP\arm_math.h **** #pragma GCC diagnostic ignored "-Wunused-parameter"
 297:C:\Workspaces\DAVE-4.1\Flightcontroller_PWM_CopterRocks_Working\Dave\Generated/CMSIS_DSP\arm_math.h **** #endif
 298:C:\Workspaces\DAVE-4.1\Flightcontroller_PWM_CopterRocks_Working\Dave\Generated/CMSIS_DSP\arm_math.h **** 
 299:C:\Workspaces\DAVE-4.1\Flightcontroller_PWM_CopterRocks_Working\Dave\Generated/CMSIS_DSP\arm_math.h **** #define __CMSIS_GENERIC         /* disable NVIC and Systick functions */
 300:C:\Workspaces\DAVE-4.1\Flightcontroller_PWM_CopterRocks_Working\Dave\Generated/CMSIS_DSP\arm_math.h **** 
 301:C:\Workspaces\DAVE-4.1\Flightcontroller_PWM_CopterRocks_Working\Dave\Generated/CMSIS_DSP\arm_math.h **** #if defined(ARM_MATH_CM7)
 302:C:\Workspaces\DAVE-4.1\Flightcontroller_PWM_CopterRocks_Working\Dave\Generated/CMSIS_DSP\arm_math.h ****   #include "core_cm7.h"
 303:C:\Workspaces\DAVE-4.1\Flightcontroller_PWM_CopterRocks_Working\Dave\Generated/CMSIS_DSP\arm_math.h **** #elif defined (ARM_MATH_CM4)
 304:C:\Workspaces\DAVE-4.1\Flightcontroller_PWM_CopterRocks_Working\Dave\Generated/CMSIS_DSP\arm_math.h ****   #include "core_cm4.h"
 305:C:\Workspaces\DAVE-4.1\Flightcontroller_PWM_CopterRocks_Working\Dave\Generated/CMSIS_DSP\arm_math.h **** #elif defined (ARM_MATH_CM3)
 306:C:\Workspaces\DAVE-4.1\Flightcontroller_PWM_CopterRocks_Working\Dave\Generated/CMSIS_DSP\arm_math.h ****   #include "core_cm3.h"
 307:C:\Workspaces\DAVE-4.1\Flightcontroller_PWM_CopterRocks_Working\Dave\Generated/CMSIS_DSP\arm_math.h **** #elif defined (ARM_MATH_CM0)
 308:C:\Workspaces\DAVE-4.1\Flightcontroller_PWM_CopterRocks_Working\Dave\Generated/CMSIS_DSP\arm_math.h ****   #include "core_cm0.h"
 309:C:\Workspaces\DAVE-4.1\Flightcontroller_PWM_CopterRocks_Working\Dave\Generated/CMSIS_DSP\arm_math.h ****   #define ARM_MATH_CM0_FAMILY
 310:C:\Workspaces\DAVE-4.1\Flightcontroller_PWM_CopterRocks_Working\Dave\Generated/CMSIS_DSP\arm_math.h **** #elif defined (ARM_MATH_CM0PLUS)
 311:C:\Workspaces\DAVE-4.1\Flightcontroller_PWM_CopterRocks_Working\Dave\Generated/CMSIS_DSP\arm_math.h ****   #include "core_cm0plus.h"
 312:C:\Workspaces\DAVE-4.1\Flightcontroller_PWM_CopterRocks_Working\Dave\Generated/CMSIS_DSP\arm_math.h ****   #define ARM_MATH_CM0_FAMILY
 313:C:\Workspaces\DAVE-4.1\Flightcontroller_PWM_CopterRocks_Working\Dave\Generated/CMSIS_DSP\arm_math.h **** #else
 314:C:\Workspaces\DAVE-4.1\Flightcontroller_PWM_CopterRocks_Working\Dave\Generated/CMSIS_DSP\arm_math.h ****   #error "Define according the used Cortex core ARM_MATH_CM7, ARM_MATH_CM4, ARM_MATH_CM3, ARM_MATH_
 315:C:\Workspaces\DAVE-4.1\Flightcontroller_PWM_CopterRocks_Working\Dave\Generated/CMSIS_DSP\arm_math.h **** #endif
 316:C:\Workspaces\DAVE-4.1\Flightcontroller_PWM_CopterRocks_Working\Dave\Generated/CMSIS_DSP\arm_math.h **** 
 317:C:\Workspaces\DAVE-4.1\Flightcontroller_PWM_CopterRocks_Working\Dave\Generated/CMSIS_DSP\arm_math.h **** #undef  __CMSIS_GENERIC         /* enable NVIC and Systick functions */
 318:C:\Workspaces\DAVE-4.1\Flightcontroller_PWM_CopterRocks_Working\Dave\Generated/CMSIS_DSP\arm_math.h **** #include "string.h"
 319:C:\Workspaces\DAVE-4.1\Flightcontroller_PWM_CopterRocks_Working\Dave\Generated/CMSIS_DSP\arm_math.h **** #include "math.h"
 320:C:\Workspaces\DAVE-4.1\Flightcontroller_PWM_CopterRocks_Working\Dave\Generated/CMSIS_DSP\arm_math.h **** #ifdef   __cplusplus
 321:C:\Workspaces\DAVE-4.1\Flightcontroller_PWM_CopterRocks_Working\Dave\Generated/CMSIS_DSP\arm_math.h **** extern "C"
 322:C:\Workspaces\DAVE-4.1\Flightcontroller_PWM_CopterRocks_Working\Dave\Generated/CMSIS_DSP\arm_math.h **** {
 323:C:\Workspaces\DAVE-4.1\Flightcontroller_PWM_CopterRocks_Working\Dave\Generated/CMSIS_DSP\arm_math.h **** #endif
 324:C:\Workspaces\DAVE-4.1\Flightcontroller_PWM_CopterRocks_Working\Dave\Generated/CMSIS_DSP\arm_math.h **** 
 325:C:\Workspaces\DAVE-4.1\Flightcontroller_PWM_CopterRocks_Working\Dave\Generated/CMSIS_DSP\arm_math.h **** 
 326:C:\Workspaces\DAVE-4.1\Flightcontroller_PWM_CopterRocks_Working\Dave\Generated/CMSIS_DSP\arm_math.h ****   /**
 327:C:\Workspaces\DAVE-4.1\Flightcontroller_PWM_CopterRocks_Working\Dave\Generated/CMSIS_DSP\arm_math.h ****    * @brief Macros required for reciprocal calculation in Normalized LMS
 328:C:\Workspaces\DAVE-4.1\Flightcontroller_PWM_CopterRocks_Working\Dave\Generated/CMSIS_DSP\arm_math.h ****    */
 329:C:\Workspaces\DAVE-4.1\Flightcontroller_PWM_CopterRocks_Working\Dave\Generated/CMSIS_DSP\arm_math.h **** 
 330:C:\Workspaces\DAVE-4.1\Flightcontroller_PWM_CopterRocks_Working\Dave\Generated/CMSIS_DSP\arm_math.h **** #define DELTA_Q31          (0x100)
 331:C:\Workspaces\DAVE-4.1\Flightcontroller_PWM_CopterRocks_Working\Dave\Generated/CMSIS_DSP\arm_math.h **** #define DELTA_Q15          0x5
 332:C:\Workspaces\DAVE-4.1\Flightcontroller_PWM_CopterRocks_Working\Dave\Generated/CMSIS_DSP\arm_math.h **** #define INDEX_MASK         0x0000003F
 333:C:\Workspaces\DAVE-4.1\Flightcontroller_PWM_CopterRocks_Working\Dave\Generated/CMSIS_DSP\arm_math.h **** #ifndef PI
 334:C:\Workspaces\DAVE-4.1\Flightcontroller_PWM_CopterRocks_Working\Dave\Generated/CMSIS_DSP\arm_math.h **** #define PI                 3.14159265358979f
 335:C:\Workspaces\DAVE-4.1\Flightcontroller_PWM_CopterRocks_Working\Dave\Generated/CMSIS_DSP\arm_math.h **** #endif
 336:C:\Workspaces\DAVE-4.1\Flightcontroller_PWM_CopterRocks_Working\Dave\Generated/CMSIS_DSP\arm_math.h **** 
 337:C:\Workspaces\DAVE-4.1\Flightcontroller_PWM_CopterRocks_Working\Dave\Generated/CMSIS_DSP\arm_math.h ****   /**
 338:C:\Workspaces\DAVE-4.1\Flightcontroller_PWM_CopterRocks_Working\Dave\Generated/CMSIS_DSP\arm_math.h ****    * @brief Macros required for SINE and COSINE Fast math approximations
 339:C:\Workspaces\DAVE-4.1\Flightcontroller_PWM_CopterRocks_Working\Dave\Generated/CMSIS_DSP\arm_math.h ****    */
 340:C:\Workspaces\DAVE-4.1\Flightcontroller_PWM_CopterRocks_Working\Dave\Generated/CMSIS_DSP\arm_math.h **** 
 341:C:\Workspaces\DAVE-4.1\Flightcontroller_PWM_CopterRocks_Working\Dave\Generated/CMSIS_DSP\arm_math.h **** #define FAST_MATH_TABLE_SIZE  512
 342:C:\Workspaces\DAVE-4.1\Flightcontroller_PWM_CopterRocks_Working\Dave\Generated/CMSIS_DSP\arm_math.h **** #define FAST_MATH_Q31_SHIFT   (32 - 10)
 343:C:\Workspaces\DAVE-4.1\Flightcontroller_PWM_CopterRocks_Working\Dave\Generated/CMSIS_DSP\arm_math.h **** #define FAST_MATH_Q15_SHIFT   (16 - 10)
 344:C:\Workspaces\DAVE-4.1\Flightcontroller_PWM_CopterRocks_Working\Dave\Generated/CMSIS_DSP\arm_math.h **** #define CONTROLLER_Q31_SHIFT  (32 - 9)
 345:C:\Workspaces\DAVE-4.1\Flightcontroller_PWM_CopterRocks_Working\Dave\Generated/CMSIS_DSP\arm_math.h **** #define TABLE_SIZE  256
 346:C:\Workspaces\DAVE-4.1\Flightcontroller_PWM_CopterRocks_Working\Dave\Generated/CMSIS_DSP\arm_math.h **** #define TABLE_SPACING_Q31     0x400000
 347:C:\Workspaces\DAVE-4.1\Flightcontroller_PWM_CopterRocks_Working\Dave\Generated/CMSIS_DSP\arm_math.h **** #define TABLE_SPACING_Q15     0x80
 348:C:\Workspaces\DAVE-4.1\Flightcontroller_PWM_CopterRocks_Working\Dave\Generated/CMSIS_DSP\arm_math.h **** 
 349:C:\Workspaces\DAVE-4.1\Flightcontroller_PWM_CopterRocks_Working\Dave\Generated/CMSIS_DSP\arm_math.h ****   /**
 350:C:\Workspaces\DAVE-4.1\Flightcontroller_PWM_CopterRocks_Working\Dave\Generated/CMSIS_DSP\arm_math.h ****    * @brief Macros required for SINE and COSINE Controller functions
 351:C:\Workspaces\DAVE-4.1\Flightcontroller_PWM_CopterRocks_Working\Dave\Generated/CMSIS_DSP\arm_math.h ****    */
 352:C:\Workspaces\DAVE-4.1\Flightcontroller_PWM_CopterRocks_Working\Dave\Generated/CMSIS_DSP\arm_math.h ****   /* 1.31(q31) Fixed value of 2/360 */
 353:C:\Workspaces\DAVE-4.1\Flightcontroller_PWM_CopterRocks_Working\Dave\Generated/CMSIS_DSP\arm_math.h ****   /* -1 to +1 is divided into 360 values so total spacing is (2/360) */
 354:C:\Workspaces\DAVE-4.1\Flightcontroller_PWM_CopterRocks_Working\Dave\Generated/CMSIS_DSP\arm_math.h **** #define INPUT_SPACING         0xB60B61
 355:C:\Workspaces\DAVE-4.1\Flightcontroller_PWM_CopterRocks_Working\Dave\Generated/CMSIS_DSP\arm_math.h **** 
 356:C:\Workspaces\DAVE-4.1\Flightcontroller_PWM_CopterRocks_Working\Dave\Generated/CMSIS_DSP\arm_math.h ****   /**
 357:C:\Workspaces\DAVE-4.1\Flightcontroller_PWM_CopterRocks_Working\Dave\Generated/CMSIS_DSP\arm_math.h ****    * @brief Macro for Unaligned Support
 358:C:\Workspaces\DAVE-4.1\Flightcontroller_PWM_CopterRocks_Working\Dave\Generated/CMSIS_DSP\arm_math.h ****    */
 359:C:\Workspaces\DAVE-4.1\Flightcontroller_PWM_CopterRocks_Working\Dave\Generated/CMSIS_DSP\arm_math.h **** #ifndef UNALIGNED_SUPPORT_DISABLE
 360:C:\Workspaces\DAVE-4.1\Flightcontroller_PWM_CopterRocks_Working\Dave\Generated/CMSIS_DSP\arm_math.h ****     #define ALIGN4
 361:C:\Workspaces\DAVE-4.1\Flightcontroller_PWM_CopterRocks_Working\Dave\Generated/CMSIS_DSP\arm_math.h **** #else
 362:C:\Workspaces\DAVE-4.1\Flightcontroller_PWM_CopterRocks_Working\Dave\Generated/CMSIS_DSP\arm_math.h ****   #if defined  (__GNUC__)
 363:C:\Workspaces\DAVE-4.1\Flightcontroller_PWM_CopterRocks_Working\Dave\Generated/CMSIS_DSP\arm_math.h ****     #define ALIGN4 __attribute__((aligned(4)))
 364:C:\Workspaces\DAVE-4.1\Flightcontroller_PWM_CopterRocks_Working\Dave\Generated/CMSIS_DSP\arm_math.h ****   #else
 365:C:\Workspaces\DAVE-4.1\Flightcontroller_PWM_CopterRocks_Working\Dave\Generated/CMSIS_DSP\arm_math.h ****     #define ALIGN4 __align(4)
 366:C:\Workspaces\DAVE-4.1\Flightcontroller_PWM_CopterRocks_Working\Dave\Generated/CMSIS_DSP\arm_math.h ****   #endif
 367:C:\Workspaces\DAVE-4.1\Flightcontroller_PWM_CopterRocks_Working\Dave\Generated/CMSIS_DSP\arm_math.h **** #endif   /* #ifndef UNALIGNED_SUPPORT_DISABLE */
 368:C:\Workspaces\DAVE-4.1\Flightcontroller_PWM_CopterRocks_Working\Dave\Generated/CMSIS_DSP\arm_math.h **** 
 369:C:\Workspaces\DAVE-4.1\Flightcontroller_PWM_CopterRocks_Working\Dave\Generated/CMSIS_DSP\arm_math.h ****   /**
 370:C:\Workspaces\DAVE-4.1\Flightcontroller_PWM_CopterRocks_Working\Dave\Generated/CMSIS_DSP\arm_math.h ****    * @brief Error status returned by some functions in the library.
 371:C:\Workspaces\DAVE-4.1\Flightcontroller_PWM_CopterRocks_Working\Dave\Generated/CMSIS_DSP\arm_math.h ****    */
 372:C:\Workspaces\DAVE-4.1\Flightcontroller_PWM_CopterRocks_Working\Dave\Generated/CMSIS_DSP\arm_math.h **** 
 373:C:\Workspaces\DAVE-4.1\Flightcontroller_PWM_CopterRocks_Working\Dave\Generated/CMSIS_DSP\arm_math.h ****   typedef enum
 374:C:\Workspaces\DAVE-4.1\Flightcontroller_PWM_CopterRocks_Working\Dave\Generated/CMSIS_DSP\arm_math.h ****   {
 375:C:\Workspaces\DAVE-4.1\Flightcontroller_PWM_CopterRocks_Working\Dave\Generated/CMSIS_DSP\arm_math.h ****     ARM_MATH_SUCCESS = 0,                /**< No error */
 376:C:\Workspaces\DAVE-4.1\Flightcontroller_PWM_CopterRocks_Working\Dave\Generated/CMSIS_DSP\arm_math.h ****     ARM_MATH_ARGUMENT_ERROR = -1,        /**< One or more arguments are incorrect */
 377:C:\Workspaces\DAVE-4.1\Flightcontroller_PWM_CopterRocks_Working\Dave\Generated/CMSIS_DSP\arm_math.h ****     ARM_MATH_LENGTH_ERROR = -2,          /**< Length of data buffer is incorrect */
 378:C:\Workspaces\DAVE-4.1\Flightcontroller_PWM_CopterRocks_Working\Dave\Generated/CMSIS_DSP\arm_math.h ****     ARM_MATH_SIZE_MISMATCH = -3,         /**< Size of matrices is not compatible with the operation
 379:C:\Workspaces\DAVE-4.1\Flightcontroller_PWM_CopterRocks_Working\Dave\Generated/CMSIS_DSP\arm_math.h ****     ARM_MATH_NANINF = -4,                /**< Not-a-number (NaN) or infinity is generated */
 380:C:\Workspaces\DAVE-4.1\Flightcontroller_PWM_CopterRocks_Working\Dave\Generated/CMSIS_DSP\arm_math.h ****     ARM_MATH_SINGULAR = -5,              /**< Generated by matrix inversion if the input matrix is 
 381:C:\Workspaces\DAVE-4.1\Flightcontroller_PWM_CopterRocks_Working\Dave\Generated/CMSIS_DSP\arm_math.h ****     ARM_MATH_TEST_FAILURE = -6           /**< Test Failed  */
 382:C:\Workspaces\DAVE-4.1\Flightcontroller_PWM_CopterRocks_Working\Dave\Generated/CMSIS_DSP\arm_math.h ****   } arm_status;
 383:C:\Workspaces\DAVE-4.1\Flightcontroller_PWM_CopterRocks_Working\Dave\Generated/CMSIS_DSP\arm_math.h **** 
 384:C:\Workspaces\DAVE-4.1\Flightcontroller_PWM_CopterRocks_Working\Dave\Generated/CMSIS_DSP\arm_math.h ****   /**
 385:C:\Workspaces\DAVE-4.1\Flightcontroller_PWM_CopterRocks_Working\Dave\Generated/CMSIS_DSP\arm_math.h ****    * @brief 8-bit fractional data type in 1.7 format.
 386:C:\Workspaces\DAVE-4.1\Flightcontroller_PWM_CopterRocks_Working\Dave\Generated/CMSIS_DSP\arm_math.h ****    */
 387:C:\Workspaces\DAVE-4.1\Flightcontroller_PWM_CopterRocks_Working\Dave\Generated/CMSIS_DSP\arm_math.h ****   typedef int8_t q7_t;
 388:C:\Workspaces\DAVE-4.1\Flightcontroller_PWM_CopterRocks_Working\Dave\Generated/CMSIS_DSP\arm_math.h **** 
 389:C:\Workspaces\DAVE-4.1\Flightcontroller_PWM_CopterRocks_Working\Dave\Generated/CMSIS_DSP\arm_math.h ****   /**
 390:C:\Workspaces\DAVE-4.1\Flightcontroller_PWM_CopterRocks_Working\Dave\Generated/CMSIS_DSP\arm_math.h ****    * @brief 16-bit fractional data type in 1.15 format.
 391:C:\Workspaces\DAVE-4.1\Flightcontroller_PWM_CopterRocks_Working\Dave\Generated/CMSIS_DSP\arm_math.h ****    */
 392:C:\Workspaces\DAVE-4.1\Flightcontroller_PWM_CopterRocks_Working\Dave\Generated/CMSIS_DSP\arm_math.h ****   typedef int16_t q15_t;
 393:C:\Workspaces\DAVE-4.1\Flightcontroller_PWM_CopterRocks_Working\Dave\Generated/CMSIS_DSP\arm_math.h **** 
 394:C:\Workspaces\DAVE-4.1\Flightcontroller_PWM_CopterRocks_Working\Dave\Generated/CMSIS_DSP\arm_math.h ****   /**
 395:C:\Workspaces\DAVE-4.1\Flightcontroller_PWM_CopterRocks_Working\Dave\Generated/CMSIS_DSP\arm_math.h ****    * @brief 32-bit fractional data type in 1.31 format.
 396:C:\Workspaces\DAVE-4.1\Flightcontroller_PWM_CopterRocks_Working\Dave\Generated/CMSIS_DSP\arm_math.h ****    */
 397:C:\Workspaces\DAVE-4.1\Flightcontroller_PWM_CopterRocks_Working\Dave\Generated/CMSIS_DSP\arm_math.h ****   typedef int32_t q31_t;
 398:C:\Workspaces\DAVE-4.1\Flightcontroller_PWM_CopterRocks_Working\Dave\Generated/CMSIS_DSP\arm_math.h **** 
 399:C:\Workspaces\DAVE-4.1\Flightcontroller_PWM_CopterRocks_Working\Dave\Generated/CMSIS_DSP\arm_math.h ****   /**
 400:C:\Workspaces\DAVE-4.1\Flightcontroller_PWM_CopterRocks_Working\Dave\Generated/CMSIS_DSP\arm_math.h ****    * @brief 64-bit fractional data type in 1.63 format.
 401:C:\Workspaces\DAVE-4.1\Flightcontroller_PWM_CopterRocks_Working\Dave\Generated/CMSIS_DSP\arm_math.h ****    */
 402:C:\Workspaces\DAVE-4.1\Flightcontroller_PWM_CopterRocks_Working\Dave\Generated/CMSIS_DSP\arm_math.h ****   typedef int64_t q63_t;
 403:C:\Workspaces\DAVE-4.1\Flightcontroller_PWM_CopterRocks_Working\Dave\Generated/CMSIS_DSP\arm_math.h **** 
 404:C:\Workspaces\DAVE-4.1\Flightcontroller_PWM_CopterRocks_Working\Dave\Generated/CMSIS_DSP\arm_math.h ****   /**
 405:C:\Workspaces\DAVE-4.1\Flightcontroller_PWM_CopterRocks_Working\Dave\Generated/CMSIS_DSP\arm_math.h ****    * @brief 32-bit floating-point type definition.
 406:C:\Workspaces\DAVE-4.1\Flightcontroller_PWM_CopterRocks_Working\Dave\Generated/CMSIS_DSP\arm_math.h ****    */
 407:C:\Workspaces\DAVE-4.1\Flightcontroller_PWM_CopterRocks_Working\Dave\Generated/CMSIS_DSP\arm_math.h ****   typedef float float32_t;
 408:C:\Workspaces\DAVE-4.1\Flightcontroller_PWM_CopterRocks_Working\Dave\Generated/CMSIS_DSP\arm_math.h **** 
 409:C:\Workspaces\DAVE-4.1\Flightcontroller_PWM_CopterRocks_Working\Dave\Generated/CMSIS_DSP\arm_math.h ****   /**
 410:C:\Workspaces\DAVE-4.1\Flightcontroller_PWM_CopterRocks_Working\Dave\Generated/CMSIS_DSP\arm_math.h ****    * @brief 64-bit floating-point type definition.
 411:C:\Workspaces\DAVE-4.1\Flightcontroller_PWM_CopterRocks_Working\Dave\Generated/CMSIS_DSP\arm_math.h ****    */
 412:C:\Workspaces\DAVE-4.1\Flightcontroller_PWM_CopterRocks_Working\Dave\Generated/CMSIS_DSP\arm_math.h ****   typedef double float64_t;
 413:C:\Workspaces\DAVE-4.1\Flightcontroller_PWM_CopterRocks_Working\Dave\Generated/CMSIS_DSP\arm_math.h **** 
 414:C:\Workspaces\DAVE-4.1\Flightcontroller_PWM_CopterRocks_Working\Dave\Generated/CMSIS_DSP\arm_math.h ****   /**
 415:C:\Workspaces\DAVE-4.1\Flightcontroller_PWM_CopterRocks_Working\Dave\Generated/CMSIS_DSP\arm_math.h ****    * @brief definition to read/write two 16 bit values.
 416:C:\Workspaces\DAVE-4.1\Flightcontroller_PWM_CopterRocks_Working\Dave\Generated/CMSIS_DSP\arm_math.h ****    */
 417:C:\Workspaces\DAVE-4.1\Flightcontroller_PWM_CopterRocks_Working\Dave\Generated/CMSIS_DSP\arm_math.h **** #if defined __CC_ARM
 418:C:\Workspaces\DAVE-4.1\Flightcontroller_PWM_CopterRocks_Working\Dave\Generated/CMSIS_DSP\arm_math.h ****   #define __SIMD32_TYPE int32_t __packed
 419:C:\Workspaces\DAVE-4.1\Flightcontroller_PWM_CopterRocks_Working\Dave\Generated/CMSIS_DSP\arm_math.h ****   #define CMSIS_UNUSED __attribute__((unused))
 420:C:\Workspaces\DAVE-4.1\Flightcontroller_PWM_CopterRocks_Working\Dave\Generated/CMSIS_DSP\arm_math.h **** 
 421:C:\Workspaces\DAVE-4.1\Flightcontroller_PWM_CopterRocks_Working\Dave\Generated/CMSIS_DSP\arm_math.h **** #elif defined(__ARMCC_VERSION) && (__ARMCC_VERSION >= 6010050)
 422:C:\Workspaces\DAVE-4.1\Flightcontroller_PWM_CopterRocks_Working\Dave\Generated/CMSIS_DSP\arm_math.h ****   #define __SIMD32_TYPE int32_t
 423:C:\Workspaces\DAVE-4.1\Flightcontroller_PWM_CopterRocks_Working\Dave\Generated/CMSIS_DSP\arm_math.h ****   #define CMSIS_UNUSED __attribute__((unused))
 424:C:\Workspaces\DAVE-4.1\Flightcontroller_PWM_CopterRocks_Working\Dave\Generated/CMSIS_DSP\arm_math.h **** 
 425:C:\Workspaces\DAVE-4.1\Flightcontroller_PWM_CopterRocks_Working\Dave\Generated/CMSIS_DSP\arm_math.h **** #elif defined __GNUC__
 426:C:\Workspaces\DAVE-4.1\Flightcontroller_PWM_CopterRocks_Working\Dave\Generated/CMSIS_DSP\arm_math.h ****   #define __SIMD32_TYPE int32_t
 427:C:\Workspaces\DAVE-4.1\Flightcontroller_PWM_CopterRocks_Working\Dave\Generated/CMSIS_DSP\arm_math.h ****   #define CMSIS_UNUSED __attribute__((unused))
 428:C:\Workspaces\DAVE-4.1\Flightcontroller_PWM_CopterRocks_Working\Dave\Generated/CMSIS_DSP\arm_math.h **** 
 429:C:\Workspaces\DAVE-4.1\Flightcontroller_PWM_CopterRocks_Working\Dave\Generated/CMSIS_DSP\arm_math.h **** #elif defined __ICCARM__
 430:C:\Workspaces\DAVE-4.1\Flightcontroller_PWM_CopterRocks_Working\Dave\Generated/CMSIS_DSP\arm_math.h ****   #define __SIMD32_TYPE int32_t __packed
 431:C:\Workspaces\DAVE-4.1\Flightcontroller_PWM_CopterRocks_Working\Dave\Generated/CMSIS_DSP\arm_math.h ****   #define CMSIS_UNUSED
 432:C:\Workspaces\DAVE-4.1\Flightcontroller_PWM_CopterRocks_Working\Dave\Generated/CMSIS_DSP\arm_math.h **** 
 433:C:\Workspaces\DAVE-4.1\Flightcontroller_PWM_CopterRocks_Working\Dave\Generated/CMSIS_DSP\arm_math.h **** #elif defined __CSMC__
 434:C:\Workspaces\DAVE-4.1\Flightcontroller_PWM_CopterRocks_Working\Dave\Generated/CMSIS_DSP\arm_math.h ****   #define __SIMD32_TYPE int32_t
 435:C:\Workspaces\DAVE-4.1\Flightcontroller_PWM_CopterRocks_Working\Dave\Generated/CMSIS_DSP\arm_math.h ****   #define CMSIS_UNUSED
 436:C:\Workspaces\DAVE-4.1\Flightcontroller_PWM_CopterRocks_Working\Dave\Generated/CMSIS_DSP\arm_math.h **** 
 437:C:\Workspaces\DAVE-4.1\Flightcontroller_PWM_CopterRocks_Working\Dave\Generated/CMSIS_DSP\arm_math.h **** #elif defined __TASKING__
 438:C:\Workspaces\DAVE-4.1\Flightcontroller_PWM_CopterRocks_Working\Dave\Generated/CMSIS_DSP\arm_math.h ****   #define __SIMD32_TYPE __unaligned int32_t
 439:C:\Workspaces\DAVE-4.1\Flightcontroller_PWM_CopterRocks_Working\Dave\Generated/CMSIS_DSP\arm_math.h ****   #define CMSIS_UNUSED
 440:C:\Workspaces\DAVE-4.1\Flightcontroller_PWM_CopterRocks_Working\Dave\Generated/CMSIS_DSP\arm_math.h **** 
 441:C:\Workspaces\DAVE-4.1\Flightcontroller_PWM_CopterRocks_Working\Dave\Generated/CMSIS_DSP\arm_math.h **** #else
 442:C:\Workspaces\DAVE-4.1\Flightcontroller_PWM_CopterRocks_Working\Dave\Generated/CMSIS_DSP\arm_math.h ****   #error Unknown compiler
 443:C:\Workspaces\DAVE-4.1\Flightcontroller_PWM_CopterRocks_Working\Dave\Generated/CMSIS_DSP\arm_math.h **** #endif
 444:C:\Workspaces\DAVE-4.1\Flightcontroller_PWM_CopterRocks_Working\Dave\Generated/CMSIS_DSP\arm_math.h **** 
 445:C:\Workspaces\DAVE-4.1\Flightcontroller_PWM_CopterRocks_Working\Dave\Generated/CMSIS_DSP\arm_math.h **** #define __SIMD32(addr)        (*(__SIMD32_TYPE **) & (addr))
 446:C:\Workspaces\DAVE-4.1\Flightcontroller_PWM_CopterRocks_Working\Dave\Generated/CMSIS_DSP\arm_math.h **** #define __SIMD32_CONST(addr)  ((__SIMD32_TYPE *)(addr))
 447:C:\Workspaces\DAVE-4.1\Flightcontroller_PWM_CopterRocks_Working\Dave\Generated/CMSIS_DSP\arm_math.h **** #define _SIMD32_OFFSET(addr)  (*(__SIMD32_TYPE *)  (addr))
 448:C:\Workspaces\DAVE-4.1\Flightcontroller_PWM_CopterRocks_Working\Dave\Generated/CMSIS_DSP\arm_math.h **** #define __SIMD64(addr)        (*(int64_t **) & (addr))
 449:C:\Workspaces\DAVE-4.1\Flightcontroller_PWM_CopterRocks_Working\Dave\Generated/CMSIS_DSP\arm_math.h **** 
 450:C:\Workspaces\DAVE-4.1\Flightcontroller_PWM_CopterRocks_Working\Dave\Generated/CMSIS_DSP\arm_math.h **** #if defined (ARM_MATH_CM3) || defined (ARM_MATH_CM0_FAMILY)
 451:C:\Workspaces\DAVE-4.1\Flightcontroller_PWM_CopterRocks_Working\Dave\Generated/CMSIS_DSP\arm_math.h ****   /**
 452:C:\Workspaces\DAVE-4.1\Flightcontroller_PWM_CopterRocks_Working\Dave\Generated/CMSIS_DSP\arm_math.h ****    * @brief definition to pack two 16 bit values.
 453:C:\Workspaces\DAVE-4.1\Flightcontroller_PWM_CopterRocks_Working\Dave\Generated/CMSIS_DSP\arm_math.h ****    */
 454:C:\Workspaces\DAVE-4.1\Flightcontroller_PWM_CopterRocks_Working\Dave\Generated/CMSIS_DSP\arm_math.h **** #define __PKHBT(ARG1, ARG2, ARG3)      ( (((int32_t)(ARG1) <<  0) & (int32_t)0x0000FFFF) | \
 455:C:\Workspaces\DAVE-4.1\Flightcontroller_PWM_CopterRocks_Working\Dave\Generated/CMSIS_DSP\arm_math.h ****                                          (((int32_t)(ARG2) << ARG3) & (int32_t)0xFFFF0000)  )
 456:C:\Workspaces\DAVE-4.1\Flightcontroller_PWM_CopterRocks_Working\Dave\Generated/CMSIS_DSP\arm_math.h **** #define __PKHTB(ARG1, ARG2, ARG3)      ( (((int32_t)(ARG1) <<  0) & (int32_t)0xFFFF0000) | \
 457:C:\Workspaces\DAVE-4.1\Flightcontroller_PWM_CopterRocks_Working\Dave\Generated/CMSIS_DSP\arm_math.h ****                                          (((int32_t)(ARG2) >> ARG3) & (int32_t)0x0000FFFF)  )
 458:C:\Workspaces\DAVE-4.1\Flightcontroller_PWM_CopterRocks_Working\Dave\Generated/CMSIS_DSP\arm_math.h **** 
 459:C:\Workspaces\DAVE-4.1\Flightcontroller_PWM_CopterRocks_Working\Dave\Generated/CMSIS_DSP\arm_math.h **** #endif
 460:C:\Workspaces\DAVE-4.1\Flightcontroller_PWM_CopterRocks_Working\Dave\Generated/CMSIS_DSP\arm_math.h **** 
 461:C:\Workspaces\DAVE-4.1\Flightcontroller_PWM_CopterRocks_Working\Dave\Generated/CMSIS_DSP\arm_math.h **** 
 462:C:\Workspaces\DAVE-4.1\Flightcontroller_PWM_CopterRocks_Working\Dave\Generated/CMSIS_DSP\arm_math.h ****    /**
 463:C:\Workspaces\DAVE-4.1\Flightcontroller_PWM_CopterRocks_Working\Dave\Generated/CMSIS_DSP\arm_math.h ****    * @brief definition to pack four 8 bit values.
 464:C:\Workspaces\DAVE-4.1\Flightcontroller_PWM_CopterRocks_Working\Dave\Generated/CMSIS_DSP\arm_math.h ****    */
 465:C:\Workspaces\DAVE-4.1\Flightcontroller_PWM_CopterRocks_Working\Dave\Generated/CMSIS_DSP\arm_math.h **** #ifndef ARM_MATH_BIG_ENDIAN
 466:C:\Workspaces\DAVE-4.1\Flightcontroller_PWM_CopterRocks_Working\Dave\Generated/CMSIS_DSP\arm_math.h **** 
 467:C:\Workspaces\DAVE-4.1\Flightcontroller_PWM_CopterRocks_Working\Dave\Generated/CMSIS_DSP\arm_math.h **** #define __PACKq7(v0,v1,v2,v3) ( (((int32_t)(v0) <<  0) & (int32_t)0x000000FF) | \
 468:C:\Workspaces\DAVE-4.1\Flightcontroller_PWM_CopterRocks_Working\Dave\Generated/CMSIS_DSP\arm_math.h ****                                 (((int32_t)(v1) <<  8) & (int32_t)0x0000FF00) | \
 469:C:\Workspaces\DAVE-4.1\Flightcontroller_PWM_CopterRocks_Working\Dave\Generated/CMSIS_DSP\arm_math.h ****                                 (((int32_t)(v2) << 16) & (int32_t)0x00FF0000) | \
 470:C:\Workspaces\DAVE-4.1\Flightcontroller_PWM_CopterRocks_Working\Dave\Generated/CMSIS_DSP\arm_math.h ****                                 (((int32_t)(v3) << 24) & (int32_t)0xFF000000)  )
 471:C:\Workspaces\DAVE-4.1\Flightcontroller_PWM_CopterRocks_Working\Dave\Generated/CMSIS_DSP\arm_math.h **** #else
 472:C:\Workspaces\DAVE-4.1\Flightcontroller_PWM_CopterRocks_Working\Dave\Generated/CMSIS_DSP\arm_math.h **** 
 473:C:\Workspaces\DAVE-4.1\Flightcontroller_PWM_CopterRocks_Working\Dave\Generated/CMSIS_DSP\arm_math.h **** #define __PACKq7(v0,v1,v2,v3) ( (((int32_t)(v3) <<  0) & (int32_t)0x000000FF) | \
 474:C:\Workspaces\DAVE-4.1\Flightcontroller_PWM_CopterRocks_Working\Dave\Generated/CMSIS_DSP\arm_math.h ****                                 (((int32_t)(v2) <<  8) & (int32_t)0x0000FF00) | \
 475:C:\Workspaces\DAVE-4.1\Flightcontroller_PWM_CopterRocks_Working\Dave\Generated/CMSIS_DSP\arm_math.h ****                                 (((int32_t)(v1) << 16) & (int32_t)0x00FF0000) | \
 476:C:\Workspaces\DAVE-4.1\Flightcontroller_PWM_CopterRocks_Working\Dave\Generated/CMSIS_DSP\arm_math.h ****                                 (((int32_t)(v0) << 24) & (int32_t)0xFF000000)  )
 477:C:\Workspaces\DAVE-4.1\Flightcontroller_PWM_CopterRocks_Working\Dave\Generated/CMSIS_DSP\arm_math.h **** 
 478:C:\Workspaces\DAVE-4.1\Flightcontroller_PWM_CopterRocks_Working\Dave\Generated/CMSIS_DSP\arm_math.h **** #endif
 479:C:\Workspaces\DAVE-4.1\Flightcontroller_PWM_CopterRocks_Working\Dave\Generated/CMSIS_DSP\arm_math.h **** 
 480:C:\Workspaces\DAVE-4.1\Flightcontroller_PWM_CopterRocks_Working\Dave\Generated/CMSIS_DSP\arm_math.h **** 
 481:C:\Workspaces\DAVE-4.1\Flightcontroller_PWM_CopterRocks_Working\Dave\Generated/CMSIS_DSP\arm_math.h ****   /**
 482:C:\Workspaces\DAVE-4.1\Flightcontroller_PWM_CopterRocks_Working\Dave\Generated/CMSIS_DSP\arm_math.h ****    * @brief Clips Q63 to Q31 values.
 483:C:\Workspaces\DAVE-4.1\Flightcontroller_PWM_CopterRocks_Working\Dave\Generated/CMSIS_DSP\arm_math.h ****    */
 484:C:\Workspaces\DAVE-4.1\Flightcontroller_PWM_CopterRocks_Working\Dave\Generated/CMSIS_DSP\arm_math.h ****   static __INLINE q31_t clip_q63_to_q31(
 485:C:\Workspaces\DAVE-4.1\Flightcontroller_PWM_CopterRocks_Working\Dave\Generated/CMSIS_DSP\arm_math.h ****   q63_t x)
 486:C:\Workspaces\DAVE-4.1\Flightcontroller_PWM_CopterRocks_Working\Dave\Generated/CMSIS_DSP\arm_math.h ****   {
 487:C:\Workspaces\DAVE-4.1\Flightcontroller_PWM_CopterRocks_Working\Dave\Generated/CMSIS_DSP\arm_math.h ****     return ((q31_t) (x >> 32) != ((q31_t) x >> 31)) ?
 488:C:\Workspaces\DAVE-4.1\Flightcontroller_PWM_CopterRocks_Working\Dave\Generated/CMSIS_DSP\arm_math.h ****       ((0x7FFFFFFF ^ ((q31_t) (x >> 63)))) : (q31_t) x;
 489:C:\Workspaces\DAVE-4.1\Flightcontroller_PWM_CopterRocks_Working\Dave\Generated/CMSIS_DSP\arm_math.h ****   }
 490:C:\Workspaces\DAVE-4.1\Flightcontroller_PWM_CopterRocks_Working\Dave\Generated/CMSIS_DSP\arm_math.h **** 
 491:C:\Workspaces\DAVE-4.1\Flightcontroller_PWM_CopterRocks_Working\Dave\Generated/CMSIS_DSP\arm_math.h ****   /**
 492:C:\Workspaces\DAVE-4.1\Flightcontroller_PWM_CopterRocks_Working\Dave\Generated/CMSIS_DSP\arm_math.h ****    * @brief Clips Q63 to Q15 values.
 493:C:\Workspaces\DAVE-4.1\Flightcontroller_PWM_CopterRocks_Working\Dave\Generated/CMSIS_DSP\arm_math.h ****    */
 494:C:\Workspaces\DAVE-4.1\Flightcontroller_PWM_CopterRocks_Working\Dave\Generated/CMSIS_DSP\arm_math.h ****   static __INLINE q15_t clip_q63_to_q15(
 495:C:\Workspaces\DAVE-4.1\Flightcontroller_PWM_CopterRocks_Working\Dave\Generated/CMSIS_DSP\arm_math.h ****   q63_t x)
 496:C:\Workspaces\DAVE-4.1\Flightcontroller_PWM_CopterRocks_Working\Dave\Generated/CMSIS_DSP\arm_math.h ****   {
 497:C:\Workspaces\DAVE-4.1\Flightcontroller_PWM_CopterRocks_Working\Dave\Generated/CMSIS_DSP\arm_math.h ****     return ((q31_t) (x >> 32) != ((q31_t) x >> 31)) ?
 498:C:\Workspaces\DAVE-4.1\Flightcontroller_PWM_CopterRocks_Working\Dave\Generated/CMSIS_DSP\arm_math.h ****       ((0x7FFF ^ ((q15_t) (x >> 63)))) : (q15_t) (x >> 15);
 499:C:\Workspaces\DAVE-4.1\Flightcontroller_PWM_CopterRocks_Working\Dave\Generated/CMSIS_DSP\arm_math.h ****   }
 500:C:\Workspaces\DAVE-4.1\Flightcontroller_PWM_CopterRocks_Working\Dave\Generated/CMSIS_DSP\arm_math.h **** 
 501:C:\Workspaces\DAVE-4.1\Flightcontroller_PWM_CopterRocks_Working\Dave\Generated/CMSIS_DSP\arm_math.h ****   /**
 502:C:\Workspaces\DAVE-4.1\Flightcontroller_PWM_CopterRocks_Working\Dave\Generated/CMSIS_DSP\arm_math.h ****    * @brief Clips Q31 to Q7 values.
 503:C:\Workspaces\DAVE-4.1\Flightcontroller_PWM_CopterRocks_Working\Dave\Generated/CMSIS_DSP\arm_math.h ****    */
 504:C:\Workspaces\DAVE-4.1\Flightcontroller_PWM_CopterRocks_Working\Dave\Generated/CMSIS_DSP\arm_math.h ****   static __INLINE q7_t clip_q31_to_q7(
 505:C:\Workspaces\DAVE-4.1\Flightcontroller_PWM_CopterRocks_Working\Dave\Generated/CMSIS_DSP\arm_math.h ****   q31_t x)
 506:C:\Workspaces\DAVE-4.1\Flightcontroller_PWM_CopterRocks_Working\Dave\Generated/CMSIS_DSP\arm_math.h ****   {
 507:C:\Workspaces\DAVE-4.1\Flightcontroller_PWM_CopterRocks_Working\Dave\Generated/CMSIS_DSP\arm_math.h ****     return ((q31_t) (x >> 24) != ((q31_t) x >> 23)) ?
 508:C:\Workspaces\DAVE-4.1\Flightcontroller_PWM_CopterRocks_Working\Dave\Generated/CMSIS_DSP\arm_math.h ****       ((0x7F ^ ((q7_t) (x >> 31)))) : (q7_t) x;
 509:C:\Workspaces\DAVE-4.1\Flightcontroller_PWM_CopterRocks_Working\Dave\Generated/CMSIS_DSP\arm_math.h ****   }
 510:C:\Workspaces\DAVE-4.1\Flightcontroller_PWM_CopterRocks_Working\Dave\Generated/CMSIS_DSP\arm_math.h **** 
 511:C:\Workspaces\DAVE-4.1\Flightcontroller_PWM_CopterRocks_Working\Dave\Generated/CMSIS_DSP\arm_math.h ****   /**
 512:C:\Workspaces\DAVE-4.1\Flightcontroller_PWM_CopterRocks_Working\Dave\Generated/CMSIS_DSP\arm_math.h ****    * @brief Clips Q31 to Q15 values.
 513:C:\Workspaces\DAVE-4.1\Flightcontroller_PWM_CopterRocks_Working\Dave\Generated/CMSIS_DSP\arm_math.h ****    */
 514:C:\Workspaces\DAVE-4.1\Flightcontroller_PWM_CopterRocks_Working\Dave\Generated/CMSIS_DSP\arm_math.h ****   static __INLINE q15_t clip_q31_to_q15(
 515:C:\Workspaces\DAVE-4.1\Flightcontroller_PWM_CopterRocks_Working\Dave\Generated/CMSIS_DSP\arm_math.h ****   q31_t x)
 516:C:\Workspaces\DAVE-4.1\Flightcontroller_PWM_CopterRocks_Working\Dave\Generated/CMSIS_DSP\arm_math.h ****   {
 517:C:\Workspaces\DAVE-4.1\Flightcontroller_PWM_CopterRocks_Working\Dave\Generated/CMSIS_DSP\arm_math.h ****     return ((q31_t) (x >> 16) != ((q31_t) x >> 15)) ?
 518:C:\Workspaces\DAVE-4.1\Flightcontroller_PWM_CopterRocks_Working\Dave\Generated/CMSIS_DSP\arm_math.h ****       ((0x7FFF ^ ((q15_t) (x >> 31)))) : (q15_t) x;
 519:C:\Workspaces\DAVE-4.1\Flightcontroller_PWM_CopterRocks_Working\Dave\Generated/CMSIS_DSP\arm_math.h ****   }
 520:C:\Workspaces\DAVE-4.1\Flightcontroller_PWM_CopterRocks_Working\Dave\Generated/CMSIS_DSP\arm_math.h **** 
 521:C:\Workspaces\DAVE-4.1\Flightcontroller_PWM_CopterRocks_Working\Dave\Generated/CMSIS_DSP\arm_math.h ****   /**
 522:C:\Workspaces\DAVE-4.1\Flightcontroller_PWM_CopterRocks_Working\Dave\Generated/CMSIS_DSP\arm_math.h ****    * @brief Multiplies 32 X 64 and returns 32 bit result in 2.30 format.
 523:C:\Workspaces\DAVE-4.1\Flightcontroller_PWM_CopterRocks_Working\Dave\Generated/CMSIS_DSP\arm_math.h ****    */
 524:C:\Workspaces\DAVE-4.1\Flightcontroller_PWM_CopterRocks_Working\Dave\Generated/CMSIS_DSP\arm_math.h **** 
 525:C:\Workspaces\DAVE-4.1\Flightcontroller_PWM_CopterRocks_Working\Dave\Generated/CMSIS_DSP\arm_math.h ****   static __INLINE q63_t mult32x64(
 526:C:\Workspaces\DAVE-4.1\Flightcontroller_PWM_CopterRocks_Working\Dave\Generated/CMSIS_DSP\arm_math.h ****   q63_t x,
 527:C:\Workspaces\DAVE-4.1\Flightcontroller_PWM_CopterRocks_Working\Dave\Generated/CMSIS_DSP\arm_math.h ****   q31_t y)
 528:C:\Workspaces\DAVE-4.1\Flightcontroller_PWM_CopterRocks_Working\Dave\Generated/CMSIS_DSP\arm_math.h ****   {
 529:C:\Workspaces\DAVE-4.1\Flightcontroller_PWM_CopterRocks_Working\Dave\Generated/CMSIS_DSP\arm_math.h ****     return ((((q63_t) (x & 0x00000000FFFFFFFF) * y) >> 32) +
 530:C:\Workspaces\DAVE-4.1\Flightcontroller_PWM_CopterRocks_Working\Dave\Generated/CMSIS_DSP\arm_math.h ****             (((q63_t) (x >> 32) * y)));
 531:C:\Workspaces\DAVE-4.1\Flightcontroller_PWM_CopterRocks_Working\Dave\Generated/CMSIS_DSP\arm_math.h ****   }
 532:C:\Workspaces\DAVE-4.1\Flightcontroller_PWM_CopterRocks_Working\Dave\Generated/CMSIS_DSP\arm_math.h **** 
 533:C:\Workspaces\DAVE-4.1\Flightcontroller_PWM_CopterRocks_Working\Dave\Generated/CMSIS_DSP\arm_math.h **** /*
 534:C:\Workspaces\DAVE-4.1\Flightcontroller_PWM_CopterRocks_Working\Dave\Generated/CMSIS_DSP\arm_math.h ****   #if defined (ARM_MATH_CM0_FAMILY) && defined ( __CC_ARM   )
 535:C:\Workspaces\DAVE-4.1\Flightcontroller_PWM_CopterRocks_Working\Dave\Generated/CMSIS_DSP\arm_math.h ****   #define __CLZ __clz
 536:C:\Workspaces\DAVE-4.1\Flightcontroller_PWM_CopterRocks_Working\Dave\Generated/CMSIS_DSP\arm_math.h ****   #endif
 537:C:\Workspaces\DAVE-4.1\Flightcontroller_PWM_CopterRocks_Working\Dave\Generated/CMSIS_DSP\arm_math.h ****  */
 538:C:\Workspaces\DAVE-4.1\Flightcontroller_PWM_CopterRocks_Working\Dave\Generated/CMSIS_DSP\arm_math.h **** /* note: function can be removed when all toolchain support __CLZ for Cortex-M0 */
 539:C:\Workspaces\DAVE-4.1\Flightcontroller_PWM_CopterRocks_Working\Dave\Generated/CMSIS_DSP\arm_math.h **** #if defined (ARM_MATH_CM0_FAMILY) && ((defined (__ICCARM__))  )
 540:C:\Workspaces\DAVE-4.1\Flightcontroller_PWM_CopterRocks_Working\Dave\Generated/CMSIS_DSP\arm_math.h ****   static __INLINE uint32_t __CLZ(
 541:C:\Workspaces\DAVE-4.1\Flightcontroller_PWM_CopterRocks_Working\Dave\Generated/CMSIS_DSP\arm_math.h ****   q31_t data);
 542:C:\Workspaces\DAVE-4.1\Flightcontroller_PWM_CopterRocks_Working\Dave\Generated/CMSIS_DSP\arm_math.h **** 
 543:C:\Workspaces\DAVE-4.1\Flightcontroller_PWM_CopterRocks_Working\Dave\Generated/CMSIS_DSP\arm_math.h ****   static __INLINE uint32_t __CLZ(
 544:C:\Workspaces\DAVE-4.1\Flightcontroller_PWM_CopterRocks_Working\Dave\Generated/CMSIS_DSP\arm_math.h ****   q31_t data)
 545:C:\Workspaces\DAVE-4.1\Flightcontroller_PWM_CopterRocks_Working\Dave\Generated/CMSIS_DSP\arm_math.h ****   {
 546:C:\Workspaces\DAVE-4.1\Flightcontroller_PWM_CopterRocks_Working\Dave\Generated/CMSIS_DSP\arm_math.h ****     uint32_t count = 0;
 547:C:\Workspaces\DAVE-4.1\Flightcontroller_PWM_CopterRocks_Working\Dave\Generated/CMSIS_DSP\arm_math.h ****     uint32_t mask = 0x80000000;
 548:C:\Workspaces\DAVE-4.1\Flightcontroller_PWM_CopterRocks_Working\Dave\Generated/CMSIS_DSP\arm_math.h **** 
 549:C:\Workspaces\DAVE-4.1\Flightcontroller_PWM_CopterRocks_Working\Dave\Generated/CMSIS_DSP\arm_math.h ****     while((data & mask) == 0)
 550:C:\Workspaces\DAVE-4.1\Flightcontroller_PWM_CopterRocks_Working\Dave\Generated/CMSIS_DSP\arm_math.h ****     {
 551:C:\Workspaces\DAVE-4.1\Flightcontroller_PWM_CopterRocks_Working\Dave\Generated/CMSIS_DSP\arm_math.h ****       count += 1u;
 552:C:\Workspaces\DAVE-4.1\Flightcontroller_PWM_CopterRocks_Working\Dave\Generated/CMSIS_DSP\arm_math.h ****       mask = mask >> 1u;
 553:C:\Workspaces\DAVE-4.1\Flightcontroller_PWM_CopterRocks_Working\Dave\Generated/CMSIS_DSP\arm_math.h ****     }
 554:C:\Workspaces\DAVE-4.1\Flightcontroller_PWM_CopterRocks_Working\Dave\Generated/CMSIS_DSP\arm_math.h **** 
 555:C:\Workspaces\DAVE-4.1\Flightcontroller_PWM_CopterRocks_Working\Dave\Generated/CMSIS_DSP\arm_math.h ****     return (count);
 556:C:\Workspaces\DAVE-4.1\Flightcontroller_PWM_CopterRocks_Working\Dave\Generated/CMSIS_DSP\arm_math.h ****   }
 557:C:\Workspaces\DAVE-4.1\Flightcontroller_PWM_CopterRocks_Working\Dave\Generated/CMSIS_DSP\arm_math.h **** #endif
 558:C:\Workspaces\DAVE-4.1\Flightcontroller_PWM_CopterRocks_Working\Dave\Generated/CMSIS_DSP\arm_math.h **** 
 559:C:\Workspaces\DAVE-4.1\Flightcontroller_PWM_CopterRocks_Working\Dave\Generated/CMSIS_DSP\arm_math.h ****   /**
 560:C:\Workspaces\DAVE-4.1\Flightcontroller_PWM_CopterRocks_Working\Dave\Generated/CMSIS_DSP\arm_math.h ****    * @brief Function to Calculates 1/in (reciprocal) value of Q31 Data type.
 561:C:\Workspaces\DAVE-4.1\Flightcontroller_PWM_CopterRocks_Working\Dave\Generated/CMSIS_DSP\arm_math.h ****    */
 562:C:\Workspaces\DAVE-4.1\Flightcontroller_PWM_CopterRocks_Working\Dave\Generated/CMSIS_DSP\arm_math.h **** 
 563:C:\Workspaces\DAVE-4.1\Flightcontroller_PWM_CopterRocks_Working\Dave\Generated/CMSIS_DSP\arm_math.h ****   static __INLINE uint32_t arm_recip_q31(
 564:C:\Workspaces\DAVE-4.1\Flightcontroller_PWM_CopterRocks_Working\Dave\Generated/CMSIS_DSP\arm_math.h ****   q31_t in,
 565:C:\Workspaces\DAVE-4.1\Flightcontroller_PWM_CopterRocks_Working\Dave\Generated/CMSIS_DSP\arm_math.h ****   q31_t * dst,
 566:C:\Workspaces\DAVE-4.1\Flightcontroller_PWM_CopterRocks_Working\Dave\Generated/CMSIS_DSP\arm_math.h ****   q31_t * pRecipTable)
 567:C:\Workspaces\DAVE-4.1\Flightcontroller_PWM_CopterRocks_Working\Dave\Generated/CMSIS_DSP\arm_math.h ****   {
 568:C:\Workspaces\DAVE-4.1\Flightcontroller_PWM_CopterRocks_Working\Dave\Generated/CMSIS_DSP\arm_math.h ****     q31_t out;
 569:C:\Workspaces\DAVE-4.1\Flightcontroller_PWM_CopterRocks_Working\Dave\Generated/CMSIS_DSP\arm_math.h ****     uint32_t tempVal;
 570:C:\Workspaces\DAVE-4.1\Flightcontroller_PWM_CopterRocks_Working\Dave\Generated/CMSIS_DSP\arm_math.h ****     uint32_t index, i;
 571:C:\Workspaces\DAVE-4.1\Flightcontroller_PWM_CopterRocks_Working\Dave\Generated/CMSIS_DSP\arm_math.h ****     uint32_t signBits;
 572:C:\Workspaces\DAVE-4.1\Flightcontroller_PWM_CopterRocks_Working\Dave\Generated/CMSIS_DSP\arm_math.h **** 
 573:C:\Workspaces\DAVE-4.1\Flightcontroller_PWM_CopterRocks_Working\Dave\Generated/CMSIS_DSP\arm_math.h ****     if(in > 0)
 574:C:\Workspaces\DAVE-4.1\Flightcontroller_PWM_CopterRocks_Working\Dave\Generated/CMSIS_DSP\arm_math.h ****     {
 575:C:\Workspaces\DAVE-4.1\Flightcontroller_PWM_CopterRocks_Working\Dave\Generated/CMSIS_DSP\arm_math.h ****       signBits = ((uint32_t) (__CLZ( in) - 1));
 576:C:\Workspaces\DAVE-4.1\Flightcontroller_PWM_CopterRocks_Working\Dave\Generated/CMSIS_DSP\arm_math.h ****     }
 577:C:\Workspaces\DAVE-4.1\Flightcontroller_PWM_CopterRocks_Working\Dave\Generated/CMSIS_DSP\arm_math.h ****     else
 578:C:\Workspaces\DAVE-4.1\Flightcontroller_PWM_CopterRocks_Working\Dave\Generated/CMSIS_DSP\arm_math.h ****     {
 579:C:\Workspaces\DAVE-4.1\Flightcontroller_PWM_CopterRocks_Working\Dave\Generated/CMSIS_DSP\arm_math.h ****       signBits = ((uint32_t) (__CLZ(-in) - 1));
 580:C:\Workspaces\DAVE-4.1\Flightcontroller_PWM_CopterRocks_Working\Dave\Generated/CMSIS_DSP\arm_math.h ****     }
 581:C:\Workspaces\DAVE-4.1\Flightcontroller_PWM_CopterRocks_Working\Dave\Generated/CMSIS_DSP\arm_math.h **** 
 582:C:\Workspaces\DAVE-4.1\Flightcontroller_PWM_CopterRocks_Working\Dave\Generated/CMSIS_DSP\arm_math.h ****     /* Convert input sample to 1.31 format */
 583:C:\Workspaces\DAVE-4.1\Flightcontroller_PWM_CopterRocks_Working\Dave\Generated/CMSIS_DSP\arm_math.h ****     in = (in << signBits);
 584:C:\Workspaces\DAVE-4.1\Flightcontroller_PWM_CopterRocks_Working\Dave\Generated/CMSIS_DSP\arm_math.h **** 
 585:C:\Workspaces\DAVE-4.1\Flightcontroller_PWM_CopterRocks_Working\Dave\Generated/CMSIS_DSP\arm_math.h ****     /* calculation of index for initial approximated Val */
 586:C:\Workspaces\DAVE-4.1\Flightcontroller_PWM_CopterRocks_Working\Dave\Generated/CMSIS_DSP\arm_math.h ****     index = (uint32_t)(in >> 24);
 587:C:\Workspaces\DAVE-4.1\Flightcontroller_PWM_CopterRocks_Working\Dave\Generated/CMSIS_DSP\arm_math.h ****     index = (index & INDEX_MASK);
 588:C:\Workspaces\DAVE-4.1\Flightcontroller_PWM_CopterRocks_Working\Dave\Generated/CMSIS_DSP\arm_math.h **** 
 589:C:\Workspaces\DAVE-4.1\Flightcontroller_PWM_CopterRocks_Working\Dave\Generated/CMSIS_DSP\arm_math.h ****     /* 1.31 with exp 1 */
 590:C:\Workspaces\DAVE-4.1\Flightcontroller_PWM_CopterRocks_Working\Dave\Generated/CMSIS_DSP\arm_math.h ****     out = pRecipTable[index];
 591:C:\Workspaces\DAVE-4.1\Flightcontroller_PWM_CopterRocks_Working\Dave\Generated/CMSIS_DSP\arm_math.h **** 
 592:C:\Workspaces\DAVE-4.1\Flightcontroller_PWM_CopterRocks_Working\Dave\Generated/CMSIS_DSP\arm_math.h ****     /* calculation of reciprocal value */
 593:C:\Workspaces\DAVE-4.1\Flightcontroller_PWM_CopterRocks_Working\Dave\Generated/CMSIS_DSP\arm_math.h ****     /* running approximation for two iterations */
 594:C:\Workspaces\DAVE-4.1\Flightcontroller_PWM_CopterRocks_Working\Dave\Generated/CMSIS_DSP\arm_math.h ****     for (i = 0u; i < 2u; i++)
 595:C:\Workspaces\DAVE-4.1\Flightcontroller_PWM_CopterRocks_Working\Dave\Generated/CMSIS_DSP\arm_math.h ****     {
 596:C:\Workspaces\DAVE-4.1\Flightcontroller_PWM_CopterRocks_Working\Dave\Generated/CMSIS_DSP\arm_math.h ****       tempVal = (uint32_t) (((q63_t) in * out) >> 31);
 597:C:\Workspaces\DAVE-4.1\Flightcontroller_PWM_CopterRocks_Working\Dave\Generated/CMSIS_DSP\arm_math.h ****       tempVal = 0x7FFFFFFFu - tempVal;
 598:C:\Workspaces\DAVE-4.1\Flightcontroller_PWM_CopterRocks_Working\Dave\Generated/CMSIS_DSP\arm_math.h ****       /*      1.31 with exp 1 */
 599:C:\Workspaces\DAVE-4.1\Flightcontroller_PWM_CopterRocks_Working\Dave\Generated/CMSIS_DSP\arm_math.h ****       /* out = (q31_t) (((q63_t) out * tempVal) >> 30); */
 600:C:\Workspaces\DAVE-4.1\Flightcontroller_PWM_CopterRocks_Working\Dave\Generated/CMSIS_DSP\arm_math.h ****       out = clip_q63_to_q31(((q63_t) out * tempVal) >> 30);
 601:C:\Workspaces\DAVE-4.1\Flightcontroller_PWM_CopterRocks_Working\Dave\Generated/CMSIS_DSP\arm_math.h ****     }
 602:C:\Workspaces\DAVE-4.1\Flightcontroller_PWM_CopterRocks_Working\Dave\Generated/CMSIS_DSP\arm_math.h **** 
 603:C:\Workspaces\DAVE-4.1\Flightcontroller_PWM_CopterRocks_Working\Dave\Generated/CMSIS_DSP\arm_math.h ****     /* write output */
 604:C:\Workspaces\DAVE-4.1\Flightcontroller_PWM_CopterRocks_Working\Dave\Generated/CMSIS_DSP\arm_math.h ****     *dst = out;
 605:C:\Workspaces\DAVE-4.1\Flightcontroller_PWM_CopterRocks_Working\Dave\Generated/CMSIS_DSP\arm_math.h **** 
 606:C:\Workspaces\DAVE-4.1\Flightcontroller_PWM_CopterRocks_Working\Dave\Generated/CMSIS_DSP\arm_math.h ****     /* return num of signbits of out = 1/in value */
 607:C:\Workspaces\DAVE-4.1\Flightcontroller_PWM_CopterRocks_Working\Dave\Generated/CMSIS_DSP\arm_math.h ****     return (signBits + 1u);
 608:C:\Workspaces\DAVE-4.1\Flightcontroller_PWM_CopterRocks_Working\Dave\Generated/CMSIS_DSP\arm_math.h ****   }
 609:C:\Workspaces\DAVE-4.1\Flightcontroller_PWM_CopterRocks_Working\Dave\Generated/CMSIS_DSP\arm_math.h **** 
 610:C:\Workspaces\DAVE-4.1\Flightcontroller_PWM_CopterRocks_Working\Dave\Generated/CMSIS_DSP\arm_math.h **** 
 611:C:\Workspaces\DAVE-4.1\Flightcontroller_PWM_CopterRocks_Working\Dave\Generated/CMSIS_DSP\arm_math.h ****   /**
 612:C:\Workspaces\DAVE-4.1\Flightcontroller_PWM_CopterRocks_Working\Dave\Generated/CMSIS_DSP\arm_math.h ****    * @brief Function to Calculates 1/in (reciprocal) value of Q15 Data type.
 613:C:\Workspaces\DAVE-4.1\Flightcontroller_PWM_CopterRocks_Working\Dave\Generated/CMSIS_DSP\arm_math.h ****    */
 614:C:\Workspaces\DAVE-4.1\Flightcontroller_PWM_CopterRocks_Working\Dave\Generated/CMSIS_DSP\arm_math.h ****   static __INLINE uint32_t arm_recip_q15(
 615:C:\Workspaces\DAVE-4.1\Flightcontroller_PWM_CopterRocks_Working\Dave\Generated/CMSIS_DSP\arm_math.h ****   q15_t in,
 616:C:\Workspaces\DAVE-4.1\Flightcontroller_PWM_CopterRocks_Working\Dave\Generated/CMSIS_DSP\arm_math.h ****   q15_t * dst,
 617:C:\Workspaces\DAVE-4.1\Flightcontroller_PWM_CopterRocks_Working\Dave\Generated/CMSIS_DSP\arm_math.h ****   q15_t * pRecipTable)
 618:C:\Workspaces\DAVE-4.1\Flightcontroller_PWM_CopterRocks_Working\Dave\Generated/CMSIS_DSP\arm_math.h ****   {
  27              	 .loc 1 618 0
  28              	 .cfi_startproc
  29              	 
  30              	 
  31              	 
  32 0000 80B4     	 push {r7}
  33              	.LCFI0:
  34              	 .cfi_def_cfa_offset 4
  35              	 .cfi_offset 7,-4
  36 0002 8BB0     	 sub sp,sp,#44
  37              	.LCFI1:
  38              	 .cfi_def_cfa_offset 48
  39 0004 00AF     	 add r7,sp,#0
  40              	.LCFI2:
  41              	 .cfi_def_cfa_register 7
  42 0006 0346     	 mov r3,r0
  43 0008 B960     	 str r1,[r7,#8]
  44 000a 7A60     	 str r2,[r7,#4]
  45 000c FB81     	 strh r3,[r7,#14]
 619:C:\Workspaces\DAVE-4.1\Flightcontroller_PWM_CopterRocks_Working\Dave\Generated/CMSIS_DSP\arm_math.h ****     q15_t out = 0;
  46              	 .loc 1 619 0
  47 000e 0023     	 movs r3,#0
  48 0010 FB84     	 strh r3,[r7,#38]
 620:C:\Workspaces\DAVE-4.1\Flightcontroller_PWM_CopterRocks_Working\Dave\Generated/CMSIS_DSP\arm_math.h ****     uint32_t tempVal = 0;
  49              	 .loc 1 620 0
  50 0012 0023     	 movs r3,#0
  51 0014 BB61     	 str r3,[r7,#24]
 621:C:\Workspaces\DAVE-4.1\Flightcontroller_PWM_CopterRocks_Working\Dave\Generated/CMSIS_DSP\arm_math.h ****     uint32_t index = 0, i = 0;
  52              	 .loc 1 621 0
  53 0016 0023     	 movs r3,#0
  54 0018 7B61     	 str r3,[r7,#20]
  55 001a 0023     	 movs r3,#0
  56 001c 3B62     	 str r3,[r7,#32]
 622:C:\Workspaces\DAVE-4.1\Flightcontroller_PWM_CopterRocks_Working\Dave\Generated/CMSIS_DSP\arm_math.h ****     uint32_t signBits = 0;
  57              	 .loc 1 622 0
  58 001e 0023     	 movs r3,#0
  59 0020 FB61     	 str r3,[r7,#28]
 623:C:\Workspaces\DAVE-4.1\Flightcontroller_PWM_CopterRocks_Working\Dave\Generated/CMSIS_DSP\arm_math.h **** 
 624:C:\Workspaces\DAVE-4.1\Flightcontroller_PWM_CopterRocks_Working\Dave\Generated/CMSIS_DSP\arm_math.h ****     if(in > 0)
  60              	 .loc 1 624 0
  61 0022 B7F90E30 	 ldrsh r3,[r7,#14]
  62 0026 002B     	 cmp r3,#0
  63 0028 06DD     	 ble .L2
 625:C:\Workspaces\DAVE-4.1\Flightcontroller_PWM_CopterRocks_Working\Dave\Generated/CMSIS_DSP\arm_math.h ****     {
 626:C:\Workspaces\DAVE-4.1\Flightcontroller_PWM_CopterRocks_Working\Dave\Generated/CMSIS_DSP\arm_math.h ****       signBits = ((uint32_t)(__CLZ( in) - 17));
  64              	 .loc 1 626 0
  65 002a B7F90E30 	 ldrsh r3,[r7,#14]
  66 002e B3FA83F3 	 clz r3,r3
  67 0032 113B     	 subs r3,r3,#17
  68 0034 FB61     	 str r3,[r7,#28]
  69 0036 06E0     	 b .L3
  70              	.L2:
 627:C:\Workspaces\DAVE-4.1\Flightcontroller_PWM_CopterRocks_Working\Dave\Generated/CMSIS_DSP\arm_math.h ****     }
 628:C:\Workspaces\DAVE-4.1\Flightcontroller_PWM_CopterRocks_Working\Dave\Generated/CMSIS_DSP\arm_math.h ****     else
 629:C:\Workspaces\DAVE-4.1\Flightcontroller_PWM_CopterRocks_Working\Dave\Generated/CMSIS_DSP\arm_math.h ****     {
 630:C:\Workspaces\DAVE-4.1\Flightcontroller_PWM_CopterRocks_Working\Dave\Generated/CMSIS_DSP\arm_math.h ****       signBits = ((uint32_t)(__CLZ(-in) - 17));
  71              	 .loc 1 630 0
  72 0038 B7F90E30 	 ldrsh r3,[r7,#14]
  73 003c 5B42     	 negs r3,r3
  74 003e B3FA83F3 	 clz r3,r3
  75 0042 113B     	 subs r3,r3,#17
  76 0044 FB61     	 str r3,[r7,#28]
  77              	.L3:
 631:C:\Workspaces\DAVE-4.1\Flightcontroller_PWM_CopterRocks_Working\Dave\Generated/CMSIS_DSP\arm_math.h ****     }
 632:C:\Workspaces\DAVE-4.1\Flightcontroller_PWM_CopterRocks_Working\Dave\Generated/CMSIS_DSP\arm_math.h **** 
 633:C:\Workspaces\DAVE-4.1\Flightcontroller_PWM_CopterRocks_Working\Dave\Generated/CMSIS_DSP\arm_math.h ****     /* Convert input sample to 1.15 format */
 634:C:\Workspaces\DAVE-4.1\Flightcontroller_PWM_CopterRocks_Working\Dave\Generated/CMSIS_DSP\arm_math.h ****     in = (in << signBits);
  78              	 .loc 1 634 0
  79 0046 B7F90E20 	 ldrsh r2,[r7,#14]
  80 004a FB69     	 ldr r3,[r7,#28]
  81 004c 02FA03F3 	 lsl r3,r2,r3
  82 0050 FB81     	 strh r3,[r7,#14]
 635:C:\Workspaces\DAVE-4.1\Flightcontroller_PWM_CopterRocks_Working\Dave\Generated/CMSIS_DSP\arm_math.h **** 
 636:C:\Workspaces\DAVE-4.1\Flightcontroller_PWM_CopterRocks_Working\Dave\Generated/CMSIS_DSP\arm_math.h ****     /* calculation of index for initial approximated Val */
 637:C:\Workspaces\DAVE-4.1\Flightcontroller_PWM_CopterRocks_Working\Dave\Generated/CMSIS_DSP\arm_math.h ****     index = (uint32_t)(in >>  8);
  83              	 .loc 1 637 0
  84 0052 B7F90E30 	 ldrsh r3,[r7,#14]
  85 0056 1B12     	 asrs r3,r3,#8
  86 0058 9BB2     	 uxth r3,r3
  87 005a 1BB2     	 sxth r3,r3
  88 005c 7B61     	 str r3,[r7,#20]
 638:C:\Workspaces\DAVE-4.1\Flightcontroller_PWM_CopterRocks_Working\Dave\Generated/CMSIS_DSP\arm_math.h ****     index = (index & INDEX_MASK);
  89              	 .loc 1 638 0
  90 005e 7B69     	 ldr r3,[r7,#20]
  91 0060 03F03F03 	 and r3,r3,#63
  92 0064 7B61     	 str r3,[r7,#20]
 639:C:\Workspaces\DAVE-4.1\Flightcontroller_PWM_CopterRocks_Working\Dave\Generated/CMSIS_DSP\arm_math.h **** 
 640:C:\Workspaces\DAVE-4.1\Flightcontroller_PWM_CopterRocks_Working\Dave\Generated/CMSIS_DSP\arm_math.h ****     /*      1.15 with exp 1  */
 641:C:\Workspaces\DAVE-4.1\Flightcontroller_PWM_CopterRocks_Working\Dave\Generated/CMSIS_DSP\arm_math.h ****     out = pRecipTable[index];
  93              	 .loc 1 641 0
  94 0066 7B69     	 ldr r3,[r7,#20]
  95 0068 5B00     	 lsls r3,r3,#1
  96 006a 7A68     	 ldr r2,[r7,#4]
  97 006c 1344     	 add r3,r3,r2
  98 006e 1B88     	 ldrh r3,[r3]
  99 0070 FB84     	 strh r3,[r7,#38]
 642:C:\Workspaces\DAVE-4.1\Flightcontroller_PWM_CopterRocks_Working\Dave\Generated/CMSIS_DSP\arm_math.h **** 
 643:C:\Workspaces\DAVE-4.1\Flightcontroller_PWM_CopterRocks_Working\Dave\Generated/CMSIS_DSP\arm_math.h ****     /* calculation of reciprocal value */
 644:C:\Workspaces\DAVE-4.1\Flightcontroller_PWM_CopterRocks_Working\Dave\Generated/CMSIS_DSP\arm_math.h ****     /* running approximation for two iterations */
 645:C:\Workspaces\DAVE-4.1\Flightcontroller_PWM_CopterRocks_Working\Dave\Generated/CMSIS_DSP\arm_math.h ****     for (i = 0u; i < 2u; i++)
 100              	 .loc 1 645 0
 101 0072 0023     	 movs r3,#0
 102 0074 3B62     	 str r3,[r7,#32]
 103 0076 16E0     	 b .L4
 104              	.L5:
 646:C:\Workspaces\DAVE-4.1\Flightcontroller_PWM_CopterRocks_Working\Dave\Generated/CMSIS_DSP\arm_math.h ****     {
 647:C:\Workspaces\DAVE-4.1\Flightcontroller_PWM_CopterRocks_Working\Dave\Generated/CMSIS_DSP\arm_math.h ****       tempVal = (uint32_t) (((q31_t) in * out) >> 15);
 105              	 .loc 1 647 0 discriminator 3
 106 0078 B7F90E30 	 ldrsh r3,[r7,#14]
 107 007c B7F92620 	 ldrsh r2,[r7,#38]
 108 0080 02FB03F3 	 mul r3,r2,r3
 109 0084 DB13     	 asrs r3,r3,#15
 110 0086 BB61     	 str r3,[r7,#24]
 648:C:\Workspaces\DAVE-4.1\Flightcontroller_PWM_CopterRocks_Working\Dave\Generated/CMSIS_DSP\arm_math.h ****       tempVal = 0x7FFFu - tempVal;
 111              	 .loc 1 648 0 discriminator 3
 112 0088 BB69     	 ldr r3,[r7,#24]
 113 008a C3F5FF43 	 rsb r3,r3,#32640
 114 008e 7F33     	 adds r3,r3,#127
 115 0090 BB61     	 str r3,[r7,#24]
 649:C:\Workspaces\DAVE-4.1\Flightcontroller_PWM_CopterRocks_Working\Dave\Generated/CMSIS_DSP\arm_math.h ****       /*      1.15 with exp 1 */
 650:C:\Workspaces\DAVE-4.1\Flightcontroller_PWM_CopterRocks_Working\Dave\Generated/CMSIS_DSP\arm_math.h ****       out = (q15_t) (((q31_t) out * tempVal) >> 14);
 116              	 .loc 1 650 0 discriminator 3
 117 0092 B7F92630 	 ldrsh r3,[r7,#38]
 118 0096 BA69     	 ldr r2,[r7,#24]
 119 0098 02FB03F3 	 mul r3,r2,r3
 120 009c 9B0B     	 lsrs r3,r3,#14
 121 009e FB84     	 strh r3,[r7,#38]
 645:C:\Workspaces\DAVE-4.1\Flightcontroller_PWM_CopterRocks_Working\Dave\Generated/CMSIS_DSP\arm_math.h ****     {
 122              	 .loc 1 645 0 discriminator 3
 123 00a0 3B6A     	 ldr r3,[r7,#32]
 124 00a2 0133     	 adds r3,r3,#1
 125 00a4 3B62     	 str r3,[r7,#32]
 126              	.L4:
 645:C:\Workspaces\DAVE-4.1\Flightcontroller_PWM_CopterRocks_Working\Dave\Generated/CMSIS_DSP\arm_math.h ****     {
 127              	 .loc 1 645 0 is_stmt 0 discriminator 1
 128 00a6 3B6A     	 ldr r3,[r7,#32]
 129 00a8 012B     	 cmp r3,#1
 130 00aa E5D9     	 bls .L5
 651:C:\Workspaces\DAVE-4.1\Flightcontroller_PWM_CopterRocks_Working\Dave\Generated/CMSIS_DSP\arm_math.h ****       /* out = clip_q31_to_q15(((q31_t) out * tempVal) >> 14); */
 652:C:\Workspaces\DAVE-4.1\Flightcontroller_PWM_CopterRocks_Working\Dave\Generated/CMSIS_DSP\arm_math.h ****     }
 653:C:\Workspaces\DAVE-4.1\Flightcontroller_PWM_CopterRocks_Working\Dave\Generated/CMSIS_DSP\arm_math.h **** 
 654:C:\Workspaces\DAVE-4.1\Flightcontroller_PWM_CopterRocks_Working\Dave\Generated/CMSIS_DSP\arm_math.h ****     /* write output */
 655:C:\Workspaces\DAVE-4.1\Flightcontroller_PWM_CopterRocks_Working\Dave\Generated/CMSIS_DSP\arm_math.h ****     *dst = out;
 131              	 .loc 1 655 0 is_stmt 1
 132 00ac BB68     	 ldr r3,[r7,#8]
 133 00ae FA8C     	 ldrh r2,[r7,#38]
 134 00b0 1A80     	 strh r2,[r3]
 656:C:\Workspaces\DAVE-4.1\Flightcontroller_PWM_CopterRocks_Working\Dave\Generated/CMSIS_DSP\arm_math.h **** 
 657:C:\Workspaces\DAVE-4.1\Flightcontroller_PWM_CopterRocks_Working\Dave\Generated/CMSIS_DSP\arm_math.h ****     /* return num of signbits of out = 1/in value */
 658:C:\Workspaces\DAVE-4.1\Flightcontroller_PWM_CopterRocks_Working\Dave\Generated/CMSIS_DSP\arm_math.h ****     return (signBits + 1);
 135              	 .loc 1 658 0
 136 00b2 FB69     	 ldr r3,[r7,#28]
 137 00b4 0133     	 adds r3,r3,#1
 659:C:\Workspaces\DAVE-4.1\Flightcontroller_PWM_CopterRocks_Working\Dave\Generated/CMSIS_DSP\arm_math.h ****   }
 138              	 .loc 1 659 0
 139 00b6 1846     	 mov r0,r3
 140 00b8 2C37     	 adds r7,r7,#44
 141              	.LCFI3:
 142              	 .cfi_def_cfa_offset 4
 143 00ba BD46     	 mov sp,r7
 144              	.LCFI4:
 145              	 .cfi_def_cfa_register 13
 146              	 
 147 00bc 5DF8047B 	 ldr r7,[sp],#4
 148              	.LCFI5:
 149              	 .cfi_restore 7
 150              	 .cfi_def_cfa_offset 0
 151 00c0 7047     	 bx lr
 152              	 .cfi_endproc
 153              	.LFE112:
 155 00c2 00BF     	 .section .text.arm_lms_norm_q15,"ax",%progbits
 156              	 .align 2
 157              	 .global arm_lms_norm_q15
 158              	 .thumb
 159              	 .thumb_func
 161              	arm_lms_norm_q15:
 162              	.LFB139:
 163              	 .file 2 "../Dave/Generated/CMSIS_DSP/FilteringFunctions/arm_lms_norm_q15.c"
   1:../Dave/Generated/CMSIS_DSP/FilteringFunctions/arm_lms_norm_q15.c **** /* ----------------------------------------------------------------------    
   2:../Dave/Generated/CMSIS_DSP/FilteringFunctions/arm_lms_norm_q15.c **** * Copyright (C) 2010-2014 ARM Limited. All rights reserved.    
   3:../Dave/Generated/CMSIS_DSP/FilteringFunctions/arm_lms_norm_q15.c **** *    
   4:../Dave/Generated/CMSIS_DSP/FilteringFunctions/arm_lms_norm_q15.c **** * $Date:        12. March 2014
   5:../Dave/Generated/CMSIS_DSP/FilteringFunctions/arm_lms_norm_q15.c **** * $Revision: 	V1.4.4
   6:../Dave/Generated/CMSIS_DSP/FilteringFunctions/arm_lms_norm_q15.c **** *    
   7:../Dave/Generated/CMSIS_DSP/FilteringFunctions/arm_lms_norm_q15.c **** * Project: 	    CMSIS DSP Library    
   8:../Dave/Generated/CMSIS_DSP/FilteringFunctions/arm_lms_norm_q15.c **** * Title:	    arm_lms_norm_q15.c    
   9:../Dave/Generated/CMSIS_DSP/FilteringFunctions/arm_lms_norm_q15.c **** *    
  10:../Dave/Generated/CMSIS_DSP/FilteringFunctions/arm_lms_norm_q15.c **** * Description:	Q15 NLMS filter.    
  11:../Dave/Generated/CMSIS_DSP/FilteringFunctions/arm_lms_norm_q15.c **** *    
  12:../Dave/Generated/CMSIS_DSP/FilteringFunctions/arm_lms_norm_q15.c **** * Target Processor: Cortex-M4/Cortex-M3/Cortex-M0
  13:../Dave/Generated/CMSIS_DSP/FilteringFunctions/arm_lms_norm_q15.c **** *  
  14:../Dave/Generated/CMSIS_DSP/FilteringFunctions/arm_lms_norm_q15.c **** * Redistribution and use in source and binary forms, with or without 
  15:../Dave/Generated/CMSIS_DSP/FilteringFunctions/arm_lms_norm_q15.c **** * modification, are permitted provided that the following conditions
  16:../Dave/Generated/CMSIS_DSP/FilteringFunctions/arm_lms_norm_q15.c **** * are met:
  17:../Dave/Generated/CMSIS_DSP/FilteringFunctions/arm_lms_norm_q15.c **** *   - Redistributions of source code must retain the above copyright
  18:../Dave/Generated/CMSIS_DSP/FilteringFunctions/arm_lms_norm_q15.c **** *     notice, this list of conditions and the following disclaimer.
  19:../Dave/Generated/CMSIS_DSP/FilteringFunctions/arm_lms_norm_q15.c **** *   - Redistributions in binary form must reproduce the above copyright
  20:../Dave/Generated/CMSIS_DSP/FilteringFunctions/arm_lms_norm_q15.c **** *     notice, this list of conditions and the following disclaimer in
  21:../Dave/Generated/CMSIS_DSP/FilteringFunctions/arm_lms_norm_q15.c **** *     the documentation and/or other materials provided with the 
  22:../Dave/Generated/CMSIS_DSP/FilteringFunctions/arm_lms_norm_q15.c **** *     distribution.
  23:../Dave/Generated/CMSIS_DSP/FilteringFunctions/arm_lms_norm_q15.c **** *   - Neither the name of ARM LIMITED nor the names of its contributors
  24:../Dave/Generated/CMSIS_DSP/FilteringFunctions/arm_lms_norm_q15.c **** *     may be used to endorse or promote products derived from this
  25:../Dave/Generated/CMSIS_DSP/FilteringFunctions/arm_lms_norm_q15.c **** *     software without specific prior written permission.
  26:../Dave/Generated/CMSIS_DSP/FilteringFunctions/arm_lms_norm_q15.c **** *
  27:../Dave/Generated/CMSIS_DSP/FilteringFunctions/arm_lms_norm_q15.c **** * THIS SOFTWARE IS PROVIDED BY THE COPYRIGHT HOLDERS AND CONTRIBUTORS
  28:../Dave/Generated/CMSIS_DSP/FilteringFunctions/arm_lms_norm_q15.c **** * "AS IS" AND ANY EXPRESS OR IMPLIED WARRANTIES, INCLUDING, BUT NOT
  29:../Dave/Generated/CMSIS_DSP/FilteringFunctions/arm_lms_norm_q15.c **** * LIMITED TO, THE IMPLIED WARRANTIES OF MERCHANTABILITY AND FITNESS
  30:../Dave/Generated/CMSIS_DSP/FilteringFunctions/arm_lms_norm_q15.c **** * FOR A PARTICULAR PURPOSE ARE DISCLAIMED. IN NO EVENT SHALL THE 
  31:../Dave/Generated/CMSIS_DSP/FilteringFunctions/arm_lms_norm_q15.c **** * COPYRIGHT OWNER OR CONTRIBUTORS BE LIABLE FOR ANY DIRECT, INDIRECT,
  32:../Dave/Generated/CMSIS_DSP/FilteringFunctions/arm_lms_norm_q15.c **** * INCIDENTAL, SPECIAL, EXEMPLARY, OR CONSEQUENTIAL DAMAGES (INCLUDING,
  33:../Dave/Generated/CMSIS_DSP/FilteringFunctions/arm_lms_norm_q15.c **** * BUT NOT LIMITED TO, PROCUREMENT OF SUBSTITUTE GOODS OR SERVICES;
  34:../Dave/Generated/CMSIS_DSP/FilteringFunctions/arm_lms_norm_q15.c **** * LOSS OF USE, DATA, OR PROFITS; OR BUSINESS INTERRUPTION) HOWEVER
  35:../Dave/Generated/CMSIS_DSP/FilteringFunctions/arm_lms_norm_q15.c **** * CAUSED AND ON ANY THEORY OF LIABILITY, WHETHER IN CONTRACT, STRICT
  36:../Dave/Generated/CMSIS_DSP/FilteringFunctions/arm_lms_norm_q15.c **** * LIABILITY, OR TORT (INCLUDING NEGLIGENCE OR OTHERWISE) ARISING IN
  37:../Dave/Generated/CMSIS_DSP/FilteringFunctions/arm_lms_norm_q15.c **** * ANY WAY OUT OF THE USE OF THIS SOFTWARE, EVEN IF ADVISED OF THE
  38:../Dave/Generated/CMSIS_DSP/FilteringFunctions/arm_lms_norm_q15.c **** * POSSIBILITY OF SUCH DAMAGE.    
  39:../Dave/Generated/CMSIS_DSP/FilteringFunctions/arm_lms_norm_q15.c **** * -------------------------------------------------------------------- */
  40:../Dave/Generated/CMSIS_DSP/FilteringFunctions/arm_lms_norm_q15.c **** 
  41:../Dave/Generated/CMSIS_DSP/FilteringFunctions/arm_lms_norm_q15.c **** #include "CMSIS_DSP/cmsis_dsp.h"
  42:../Dave/Generated/CMSIS_DSP/FilteringFunctions/arm_lms_norm_q15.c **** 
  43:../Dave/Generated/CMSIS_DSP/FilteringFunctions/arm_lms_norm_q15.c **** /**    
  44:../Dave/Generated/CMSIS_DSP/FilteringFunctions/arm_lms_norm_q15.c ****  * @ingroup groupFilters    
  45:../Dave/Generated/CMSIS_DSP/FilteringFunctions/arm_lms_norm_q15.c ****  */
  46:../Dave/Generated/CMSIS_DSP/FilteringFunctions/arm_lms_norm_q15.c **** 
  47:../Dave/Generated/CMSIS_DSP/FilteringFunctions/arm_lms_norm_q15.c **** /**    
  48:../Dave/Generated/CMSIS_DSP/FilteringFunctions/arm_lms_norm_q15.c ****  * @addtogroup LMS_NORM    
  49:../Dave/Generated/CMSIS_DSP/FilteringFunctions/arm_lms_norm_q15.c ****  * @{    
  50:../Dave/Generated/CMSIS_DSP/FilteringFunctions/arm_lms_norm_q15.c ****  */
  51:../Dave/Generated/CMSIS_DSP/FilteringFunctions/arm_lms_norm_q15.c **** 
  52:../Dave/Generated/CMSIS_DSP/FilteringFunctions/arm_lms_norm_q15.c **** /**    
  53:../Dave/Generated/CMSIS_DSP/FilteringFunctions/arm_lms_norm_q15.c **** * @brief Processing function for Q15 normalized LMS filter.    
  54:../Dave/Generated/CMSIS_DSP/FilteringFunctions/arm_lms_norm_q15.c **** * @param[in] *S points to an instance of the Q15 normalized LMS filter structure.    
  55:../Dave/Generated/CMSIS_DSP/FilteringFunctions/arm_lms_norm_q15.c **** * @param[in] *pSrc points to the block of input data.    
  56:../Dave/Generated/CMSIS_DSP/FilteringFunctions/arm_lms_norm_q15.c **** * @param[in] *pRef points to the block of reference data.    
  57:../Dave/Generated/CMSIS_DSP/FilteringFunctions/arm_lms_norm_q15.c **** * @param[out] *pOut points to the block of output data.    
  58:../Dave/Generated/CMSIS_DSP/FilteringFunctions/arm_lms_norm_q15.c **** * @param[out] *pErr points to the block of error data.    
  59:../Dave/Generated/CMSIS_DSP/FilteringFunctions/arm_lms_norm_q15.c **** * @param[in] blockSize number of samples to process.    
  60:../Dave/Generated/CMSIS_DSP/FilteringFunctions/arm_lms_norm_q15.c **** * @return none.    
  61:../Dave/Generated/CMSIS_DSP/FilteringFunctions/arm_lms_norm_q15.c **** *    
  62:../Dave/Generated/CMSIS_DSP/FilteringFunctions/arm_lms_norm_q15.c **** * <b>Scaling and Overflow Behavior:</b>     
  63:../Dave/Generated/CMSIS_DSP/FilteringFunctions/arm_lms_norm_q15.c **** * \par     
  64:../Dave/Generated/CMSIS_DSP/FilteringFunctions/arm_lms_norm_q15.c **** * The function is implemented using a 64-bit internal accumulator.     
  65:../Dave/Generated/CMSIS_DSP/FilteringFunctions/arm_lms_norm_q15.c **** * Both coefficients and state variables are represented in 1.15 format and    
  66:../Dave/Generated/CMSIS_DSP/FilteringFunctions/arm_lms_norm_q15.c **** * multiplications yield a 2.30 result. The 2.30 intermediate results are    
  67:../Dave/Generated/CMSIS_DSP/FilteringFunctions/arm_lms_norm_q15.c **** * accumulated in a 64-bit accumulator in 34.30 format.     
  68:../Dave/Generated/CMSIS_DSP/FilteringFunctions/arm_lms_norm_q15.c **** * There is no risk of internal overflow with this approach and the full    
  69:../Dave/Generated/CMSIS_DSP/FilteringFunctions/arm_lms_norm_q15.c **** * precision of intermediate multiplications is preserved. After all additions    
  70:../Dave/Generated/CMSIS_DSP/FilteringFunctions/arm_lms_norm_q15.c **** * have been performed, the accumulator is truncated to 34.15 format by    
  71:../Dave/Generated/CMSIS_DSP/FilteringFunctions/arm_lms_norm_q15.c **** * discarding low 15 bits. Lastly, the accumulator is saturated to yield a    
  72:../Dave/Generated/CMSIS_DSP/FilteringFunctions/arm_lms_norm_q15.c **** * result in 1.15 format.    
  73:../Dave/Generated/CMSIS_DSP/FilteringFunctions/arm_lms_norm_q15.c **** *    
  74:../Dave/Generated/CMSIS_DSP/FilteringFunctions/arm_lms_norm_q15.c **** * \par   
  75:../Dave/Generated/CMSIS_DSP/FilteringFunctions/arm_lms_norm_q15.c **** * 	In this filter, filter coefficients are updated for each sample and the updation of filter coffi
  76:../Dave/Generated/CMSIS_DSP/FilteringFunctions/arm_lms_norm_q15.c **** *    
  77:../Dave/Generated/CMSIS_DSP/FilteringFunctions/arm_lms_norm_q15.c ****  */
  78:../Dave/Generated/CMSIS_DSP/FilteringFunctions/arm_lms_norm_q15.c **** 
  79:../Dave/Generated/CMSIS_DSP/FilteringFunctions/arm_lms_norm_q15.c **** void arm_lms_norm_q15(
  80:../Dave/Generated/CMSIS_DSP/FilteringFunctions/arm_lms_norm_q15.c ****   arm_lms_norm_instance_q15 * S,
  81:../Dave/Generated/CMSIS_DSP/FilteringFunctions/arm_lms_norm_q15.c ****   q15_t * pSrc,
  82:../Dave/Generated/CMSIS_DSP/FilteringFunctions/arm_lms_norm_q15.c ****   q15_t * pRef,
  83:../Dave/Generated/CMSIS_DSP/FilteringFunctions/arm_lms_norm_q15.c ****   q15_t * pOut,
  84:../Dave/Generated/CMSIS_DSP/FilteringFunctions/arm_lms_norm_q15.c ****   q15_t * pErr,
  85:../Dave/Generated/CMSIS_DSP/FilteringFunctions/arm_lms_norm_q15.c ****   uint32_t blockSize)
  86:../Dave/Generated/CMSIS_DSP/FilteringFunctions/arm_lms_norm_q15.c **** {
 164              	 .loc 2 86 0
 165              	 .cfi_startproc
 166              	 
 167              	 
 168 0000 B0B5     	 push {r4,r5,r7,lr}
 169              	.LCFI6:
 170              	 .cfi_def_cfa_offset 16
 171              	 .cfi_offset 4,-16
 172              	 .cfi_offset 5,-12
 173              	 .cfi_offset 7,-8
 174              	 .cfi_offset 14,-4
 175 0002 B8B0     	 sub sp,sp,#224
 176              	.LCFI7:
 177              	 .cfi_def_cfa_offset 240
 178 0004 00AF     	 add r7,sp,#0
 179              	.LCFI8:
 180              	 .cfi_def_cfa_register 7
 181 0006 F860     	 str r0,[r7,#12]
 182 0008 B960     	 str r1,[r7,#8]
 183 000a 7A60     	 str r2,[r7,#4]
 184 000c 3B60     	 str r3,[r7]
  87:../Dave/Generated/CMSIS_DSP/FilteringFunctions/arm_lms_norm_q15.c ****   q15_t *pState = S->pState;                     /* State pointer */
 185              	 .loc 2 87 0
 186 000e FB68     	 ldr r3,[r7,#12]
 187 0010 5B68     	 ldr r3,[r3,#4]
 188 0012 7B63     	 str r3,[r7,#52]
  88:../Dave/Generated/CMSIS_DSP/FilteringFunctions/arm_lms_norm_q15.c ****   q15_t *pCoeffs = S->pCoeffs;                   /* Coefficient pointer */
 189              	 .loc 2 88 0
 190 0014 FB68     	 ldr r3,[r7,#12]
 191 0016 9B68     	 ldr r3,[r3,#8]
 192 0018 C7F8C030 	 str r3,[r7,#192]
  89:../Dave/Generated/CMSIS_DSP/FilteringFunctions/arm_lms_norm_q15.c ****   q15_t *pStateCurnt;                            /* Points to the current sample of the state */
  90:../Dave/Generated/CMSIS_DSP/FilteringFunctions/arm_lms_norm_q15.c ****   q15_t *px, *pb;                                /* Temporary pointers for state and coefficient bu
  91:../Dave/Generated/CMSIS_DSP/FilteringFunctions/arm_lms_norm_q15.c ****   q15_t mu = S->mu;                              /* Adaptive factor */
 193              	 .loc 2 91 0
 194 001c FB68     	 ldr r3,[r7,#12]
 195 001e 9B89     	 ldrh r3,[r3,#12]
 196 0020 A7F8BE30 	 strh r3,[r7,#190]
  92:../Dave/Generated/CMSIS_DSP/FilteringFunctions/arm_lms_norm_q15.c ****   uint32_t numTaps = S->numTaps;                 /* Number of filter coefficients in the filter */
 197              	 .loc 2 92 0
 198 0024 FB68     	 ldr r3,[r7,#12]
 199 0026 1B88     	 ldrh r3,[r3]
 200 0028 C7F8B830 	 str r3,[r7,#184]
  93:../Dave/Generated/CMSIS_DSP/FilteringFunctions/arm_lms_norm_q15.c ****   uint32_t tapCnt, blkCnt;                       /* Loop counters */
  94:../Dave/Generated/CMSIS_DSP/FilteringFunctions/arm_lms_norm_q15.c ****   q31_t energy;                                  /* Energy of the input */
  95:../Dave/Generated/CMSIS_DSP/FilteringFunctions/arm_lms_norm_q15.c ****   q63_t acc;                                     /* Accumulator */
  96:../Dave/Generated/CMSIS_DSP/FilteringFunctions/arm_lms_norm_q15.c ****   q15_t e = 0, d = 0;                            /* error, reference data sample */
 201              	 .loc 2 96 0
 202 002c 0023     	 movs r3,#0
 203 002e A7F8B630 	 strh r3,[r7,#182]
 204 0032 0023     	 movs r3,#0
 205 0034 A7F8B430 	 strh r3,[r7,#180]
  97:../Dave/Generated/CMSIS_DSP/FilteringFunctions/arm_lms_norm_q15.c ****   q15_t w = 0, in;                               /* weight factor and state */
 206              	 .loc 2 97 0
 207 0038 0023     	 movs r3,#0
 208 003a A7F8B230 	 strh r3,[r7,#178]
  98:../Dave/Generated/CMSIS_DSP/FilteringFunctions/arm_lms_norm_q15.c ****   q15_t x0;                                      /* temporary variable to hold input sample */
  99:../Dave/Generated/CMSIS_DSP/FilteringFunctions/arm_lms_norm_q15.c ****   //uint32_t shift = (uint32_t) S->postShift + 1u; /* Shift to be applied to the output */ 
 100:../Dave/Generated/CMSIS_DSP/FilteringFunctions/arm_lms_norm_q15.c ****   q15_t errorXmu, oneByEnergy;                   /* Temporary variables to store error and mu produ
 101:../Dave/Generated/CMSIS_DSP/FilteringFunctions/arm_lms_norm_q15.c ****   q15_t postShift;                               /* Post shift to be applied to weight after recipr
 102:../Dave/Generated/CMSIS_DSP/FilteringFunctions/arm_lms_norm_q15.c ****   q31_t coef;                                    /* Teporary variable for coefficient */
 103:../Dave/Generated/CMSIS_DSP/FilteringFunctions/arm_lms_norm_q15.c ****   q31_t acc_l, acc_h;
 104:../Dave/Generated/CMSIS_DSP/FilteringFunctions/arm_lms_norm_q15.c ****   int32_t lShift = (15 - (int32_t) S->postShift);       /*  Post shift  */
 209              	 .loc 2 104 0
 210 003e FB68     	 ldr r3,[r7,#12]
 211 0040 9B7B     	 ldrb r3,[r3,#14]
 212 0042 C3F10F03 	 rsb r3,r3,#15
 213 0046 C7F8AC30 	 str r3,[r7,#172]
 105:../Dave/Generated/CMSIS_DSP/FilteringFunctions/arm_lms_norm_q15.c ****   int32_t uShift = (32 - lShift);
 214              	 .loc 2 105 0
 215 004a D7F8AC30 	 ldr r3,[r7,#172]
 216 004e C3F12003 	 rsb r3,r3,#32
 217 0052 C7F8A830 	 str r3,[r7,#168]
 106:../Dave/Generated/CMSIS_DSP/FilteringFunctions/arm_lms_norm_q15.c **** 
 107:../Dave/Generated/CMSIS_DSP/FilteringFunctions/arm_lms_norm_q15.c ****   energy = S->energy;
 218              	 .loc 2 107 0
 219 0056 FB68     	 ldr r3,[r7,#12]
 220 0058 9B8A     	 ldrh r3,[r3,#20]
 221 005a 1BB2     	 sxth r3,r3
 222 005c C7F8D430 	 str r3,[r7,#212]
 108:../Dave/Generated/CMSIS_DSP/FilteringFunctions/arm_lms_norm_q15.c ****   x0 = S->x0;
 223              	 .loc 2 108 0
 224 0060 FB68     	 ldr r3,[r7,#12]
 225 0062 DB8A     	 ldrh r3,[r3,#22]
 226 0064 A7F8C630 	 strh r3,[r7,#198]
 109:../Dave/Generated/CMSIS_DSP/FilteringFunctions/arm_lms_norm_q15.c **** 
 110:../Dave/Generated/CMSIS_DSP/FilteringFunctions/arm_lms_norm_q15.c ****   /* S->pState points to buffer which contains previous frame (numTaps - 1) samples */
 111:../Dave/Generated/CMSIS_DSP/FilteringFunctions/arm_lms_norm_q15.c ****   /* pStateCurnt points to the location where the new input data should be written */
 112:../Dave/Generated/CMSIS_DSP/FilteringFunctions/arm_lms_norm_q15.c ****   pStateCurnt = &(S->pState[(numTaps - 1u)]);
 227              	 .loc 2 112 0
 228 0068 FB68     	 ldr r3,[r7,#12]
 229 006a 5A68     	 ldr r2,[r3,#4]
 230 006c D7F8B830 	 ldr r3,[r7,#184]
 231 0070 03F10043 	 add r3,r3,#-2147483648
 232 0074 013B     	 subs r3,r3,#1
 233 0076 5B00     	 lsls r3,r3,#1
 234 0078 1344     	 add r3,r3,r2
 235 007a 3B63     	 str r3,[r7,#48]
 113:../Dave/Generated/CMSIS_DSP/FilteringFunctions/arm_lms_norm_q15.c **** 
 114:../Dave/Generated/CMSIS_DSP/FilteringFunctions/arm_lms_norm_q15.c ****   /* Loop over blockSize number of values */
 115:../Dave/Generated/CMSIS_DSP/FilteringFunctions/arm_lms_norm_q15.c ****   blkCnt = blockSize;
 236              	 .loc 2 115 0
 237 007c D7F8F430 	 ldr r3,[r7,#244]
 238 0080 C7F8D830 	 str r3,[r7,#216]
 116:../Dave/Generated/CMSIS_DSP/FilteringFunctions/arm_lms_norm_q15.c **** 
 117:../Dave/Generated/CMSIS_DSP/FilteringFunctions/arm_lms_norm_q15.c **** 
 118:../Dave/Generated/CMSIS_DSP/FilteringFunctions/arm_lms_norm_q15.c **** #ifndef ARM_MATH_CM0_FAMILY
 119:../Dave/Generated/CMSIS_DSP/FilteringFunctions/arm_lms_norm_q15.c **** 
 120:../Dave/Generated/CMSIS_DSP/FilteringFunctions/arm_lms_norm_q15.c ****   /* Run the below code for Cortex-M4 and Cortex-M3 */
 121:../Dave/Generated/CMSIS_DSP/FilteringFunctions/arm_lms_norm_q15.c **** 
 122:../Dave/Generated/CMSIS_DSP/FilteringFunctions/arm_lms_norm_q15.c ****   while(blkCnt > 0u)
 239              	 .loc 2 122 0
 240 0084 F3E1     	 b .L8
 241              	.L19:
 123:../Dave/Generated/CMSIS_DSP/FilteringFunctions/arm_lms_norm_q15.c ****   {
 124:../Dave/Generated/CMSIS_DSP/FilteringFunctions/arm_lms_norm_q15.c ****     /* Copy the new input sample into the state buffer */
 125:../Dave/Generated/CMSIS_DSP/FilteringFunctions/arm_lms_norm_q15.c ****     *pStateCurnt++ = *pSrc;
 242              	 .loc 2 125 0
 243 0086 3B6B     	 ldr r3,[r7,#48]
 244 0088 9A1C     	 adds r2,r3,#2
 245 008a 3A63     	 str r2,[r7,#48]
 246 008c BA68     	 ldr r2,[r7,#8]
 247 008e 1288     	 ldrh r2,[r2]
 248 0090 1A80     	 strh r2,[r3]
 126:../Dave/Generated/CMSIS_DSP/FilteringFunctions/arm_lms_norm_q15.c **** 
 127:../Dave/Generated/CMSIS_DSP/FilteringFunctions/arm_lms_norm_q15.c ****     /* Initialize pState pointer */
 128:../Dave/Generated/CMSIS_DSP/FilteringFunctions/arm_lms_norm_q15.c ****     px = pState;
 249              	 .loc 2 128 0
 250 0092 7B6B     	 ldr r3,[r7,#52]
 251 0094 FB62     	 str r3,[r7,#44]
 129:../Dave/Generated/CMSIS_DSP/FilteringFunctions/arm_lms_norm_q15.c **** 
 130:../Dave/Generated/CMSIS_DSP/FilteringFunctions/arm_lms_norm_q15.c ****     /* Initialize coeff pointer */
 131:../Dave/Generated/CMSIS_DSP/FilteringFunctions/arm_lms_norm_q15.c ****     pb = (pCoeffs);
 252              	 .loc 2 131 0
 253 0096 D7F8C030 	 ldr r3,[r7,#192]
 254 009a BB62     	 str r3,[r7,#40]
 132:../Dave/Generated/CMSIS_DSP/FilteringFunctions/arm_lms_norm_q15.c **** 
 133:../Dave/Generated/CMSIS_DSP/FilteringFunctions/arm_lms_norm_q15.c ****     /* Read the sample from input buffer */
 134:../Dave/Generated/CMSIS_DSP/FilteringFunctions/arm_lms_norm_q15.c ****     in = *pSrc++;
 255              	 .loc 2 134 0
 256 009c BB68     	 ldr r3,[r7,#8]
 257 009e 9A1C     	 adds r2,r3,#2
 258 00a0 BA60     	 str r2,[r7,#8]
 259 00a2 1B88     	 ldrh r3,[r3]
 260 00a4 A7F8A630 	 strh r3,[r7,#166]
 135:../Dave/Generated/CMSIS_DSP/FilteringFunctions/arm_lms_norm_q15.c **** 
 136:../Dave/Generated/CMSIS_DSP/FilteringFunctions/arm_lms_norm_q15.c ****     /* Update the energy calculation */
 137:../Dave/Generated/CMSIS_DSP/FilteringFunctions/arm_lms_norm_q15.c ****     energy -= (((q31_t) x0 * (x0)) >> 15);
 261              	 .loc 2 137 0
 262 00a8 B7F9C630 	 ldrsh r3,[r7,#198]
 263 00ac B7F9C620 	 ldrsh r2,[r7,#198]
 264 00b0 02FB03F3 	 mul r3,r2,r3
 265 00b4 DB13     	 asrs r3,r3,#15
 266 00b6 D7F8D420 	 ldr r2,[r7,#212]
 267 00ba D31A     	 subs r3,r2,r3
 268 00bc C7F8D430 	 str r3,[r7,#212]
 138:../Dave/Generated/CMSIS_DSP/FilteringFunctions/arm_lms_norm_q15.c ****     energy += (((q31_t) in * (in)) >> 15);
 269              	 .loc 2 138 0
 270 00c0 B7F9A630 	 ldrsh r3,[r7,#166]
 271 00c4 B7F9A620 	 ldrsh r2,[r7,#166]
 272 00c8 02FB03F3 	 mul r3,r2,r3
 273 00cc DB13     	 asrs r3,r3,#15
 274 00ce D7F8D420 	 ldr r2,[r7,#212]
 275 00d2 1344     	 add r3,r3,r2
 276 00d4 C7F8D430 	 str r3,[r7,#212]
 139:../Dave/Generated/CMSIS_DSP/FilteringFunctions/arm_lms_norm_q15.c **** 
 140:../Dave/Generated/CMSIS_DSP/FilteringFunctions/arm_lms_norm_q15.c ****     /* Set the accumulator to zero */
 141:../Dave/Generated/CMSIS_DSP/FilteringFunctions/arm_lms_norm_q15.c ****     acc = 0;
 277              	 .loc 2 141 0
 278 00d8 4FF00002 	 mov r2,#0
 279 00dc 4FF00003 	 mov r3,#0
 280 00e0 C7E93223 	 strd r2,[r7,#200]
 142:../Dave/Generated/CMSIS_DSP/FilteringFunctions/arm_lms_norm_q15.c **** 
 143:../Dave/Generated/CMSIS_DSP/FilteringFunctions/arm_lms_norm_q15.c ****     /* Loop unrolling.  Process 4 taps at a time. */
 144:../Dave/Generated/CMSIS_DSP/FilteringFunctions/arm_lms_norm_q15.c ****     tapCnt = numTaps >> 2;
 281              	 .loc 2 144 0
 282 00e4 D7F8B830 	 ldr r3,[r7,#184]
 283 00e8 9B08     	 lsrs r3,r3,#2
 284 00ea C7F8DC30 	 str r3,[r7,#220]
 145:../Dave/Generated/CMSIS_DSP/FilteringFunctions/arm_lms_norm_q15.c **** 
 146:../Dave/Generated/CMSIS_DSP/FilteringFunctions/arm_lms_norm_q15.c ****     while(tapCnt > 0u)
 285              	 .loc 2 146 0
 286 00ee 4CE0     	 b .L9
 287              	.L12:
 147:../Dave/Generated/CMSIS_DSP/FilteringFunctions/arm_lms_norm_q15.c ****     {
 148:../Dave/Generated/CMSIS_DSP/FilteringFunctions/arm_lms_norm_q15.c **** 
 149:../Dave/Generated/CMSIS_DSP/FilteringFunctions/arm_lms_norm_q15.c ****       /* Perform the multiply-accumulate */
 150:../Dave/Generated/CMSIS_DSP/FilteringFunctions/arm_lms_norm_q15.c **** #ifndef UNALIGNED_SUPPORT_DISABLE
 151:../Dave/Generated/CMSIS_DSP/FilteringFunctions/arm_lms_norm_q15.c **** 
 152:../Dave/Generated/CMSIS_DSP/FilteringFunctions/arm_lms_norm_q15.c ****       acc = __SMLALD(*__SIMD32(px)++, (*__SIMD32(pb)++), acc);
 288              	 .loc 2 152 0
 289 00f0 07F12C02 	 add r2,r7,#44
 290 00f4 1368     	 ldr r3,[r2]
 291 00f6 191D     	 adds r1,r3,#4
 292 00f8 1160     	 str r1,[r2]
 293 00fa 1B68     	 ldr r3,[r3]
 294 00fc 1846     	 mov r0,r3
 295 00fe 07F12802 	 add r2,r7,#40
 296 0102 1368     	 ldr r3,[r2]
 297 0104 191D     	 adds r1,r3,#4
 298 0106 1160     	 str r1,[r2]
 299 0108 1B68     	 ldr r3,[r3]
 300 010a 1946     	 mov r1,r3
 301 010c D7E93223 	 ldrd r2,[r7,#200]
 302 0110 B865     	 str r0,[r7,#88]
 303 0112 7965     	 str r1,[r7,#84]
 304 0114 C7E91223 	 strd r2,[r7,#72]
 305              	.LBB13:
 306              	.LBB14:
 307              	 .file 3 "C:\\Workspaces\\DAVE-4.1\\Flightcontroller_PWM_CopterRocks_Working/Libraries/CMSIS/Include/cmsis_gcc.h"
   1:C:\Workspaces\DAVE-4.1\Flightcontroller_PWM_CopterRocks_Working/Libraries/CMSIS/Include\cmsis_gcc.h **** /**************************************************************************//**
   2:C:\Workspaces\DAVE-4.1\Flightcontroller_PWM_CopterRocks_Working/Libraries/CMSIS/Include\cmsis_gcc.h ****  * @file     cmsis_gcc.h
   3:C:\Workspaces\DAVE-4.1\Flightcontroller_PWM_CopterRocks_Working/Libraries/CMSIS/Include\cmsis_gcc.h ****  * @brief    CMSIS Cortex-M Core Function/Instruction Header File
   4:C:\Workspaces\DAVE-4.1\Flightcontroller_PWM_CopterRocks_Working/Libraries/CMSIS/Include\cmsis_gcc.h ****  * @version  V4.30
   5:C:\Workspaces\DAVE-4.1\Flightcontroller_PWM_CopterRocks_Working/Libraries/CMSIS/Include\cmsis_gcc.h ****  * @date     20. October 2015
   6:C:\Workspaces\DAVE-4.1\Flightcontroller_PWM_CopterRocks_Working/Libraries/CMSIS/Include\cmsis_gcc.h ****  ******************************************************************************/
   7:C:\Workspaces\DAVE-4.1\Flightcontroller_PWM_CopterRocks_Working/Libraries/CMSIS/Include\cmsis_gcc.h **** /* Copyright (c) 2009 - 2015 ARM LIMITED
   8:C:\Workspaces\DAVE-4.1\Flightcontroller_PWM_CopterRocks_Working/Libraries/CMSIS/Include\cmsis_gcc.h **** 
   9:C:\Workspaces\DAVE-4.1\Flightcontroller_PWM_CopterRocks_Working/Libraries/CMSIS/Include\cmsis_gcc.h ****    All rights reserved.
  10:C:\Workspaces\DAVE-4.1\Flightcontroller_PWM_CopterRocks_Working/Libraries/CMSIS/Include\cmsis_gcc.h ****    Redistribution and use in source and binary forms, with or without
  11:C:\Workspaces\DAVE-4.1\Flightcontroller_PWM_CopterRocks_Working/Libraries/CMSIS/Include\cmsis_gcc.h ****    modification, are permitted provided that the following conditions are met:
  12:C:\Workspaces\DAVE-4.1\Flightcontroller_PWM_CopterRocks_Working/Libraries/CMSIS/Include\cmsis_gcc.h ****    - Redistributions of source code must retain the above copyright
  13:C:\Workspaces\DAVE-4.1\Flightcontroller_PWM_CopterRocks_Working/Libraries/CMSIS/Include\cmsis_gcc.h ****      notice, this list of conditions and the following disclaimer.
  14:C:\Workspaces\DAVE-4.1\Flightcontroller_PWM_CopterRocks_Working/Libraries/CMSIS/Include\cmsis_gcc.h ****    - Redistributions in binary form must reproduce the above copyright
  15:C:\Workspaces\DAVE-4.1\Flightcontroller_PWM_CopterRocks_Working/Libraries/CMSIS/Include\cmsis_gcc.h ****      notice, this list of conditions and the following disclaimer in the
  16:C:\Workspaces\DAVE-4.1\Flightcontroller_PWM_CopterRocks_Working/Libraries/CMSIS/Include\cmsis_gcc.h ****      documentation and/or other materials provided with the distribution.
  17:C:\Workspaces\DAVE-4.1\Flightcontroller_PWM_CopterRocks_Working/Libraries/CMSIS/Include\cmsis_gcc.h ****    - Neither the name of ARM nor the names of its contributors may be used
  18:C:\Workspaces\DAVE-4.1\Flightcontroller_PWM_CopterRocks_Working/Libraries/CMSIS/Include\cmsis_gcc.h ****      to endorse or promote products derived from this software without
  19:C:\Workspaces\DAVE-4.1\Flightcontroller_PWM_CopterRocks_Working/Libraries/CMSIS/Include\cmsis_gcc.h ****      specific prior written permission.
  20:C:\Workspaces\DAVE-4.1\Flightcontroller_PWM_CopterRocks_Working/Libraries/CMSIS/Include\cmsis_gcc.h ****    *
  21:C:\Workspaces\DAVE-4.1\Flightcontroller_PWM_CopterRocks_Working/Libraries/CMSIS/Include\cmsis_gcc.h ****    THIS SOFTWARE IS PROVIDED BY THE COPYRIGHT HOLDERS AND CONTRIBUTORS "AS IS"
  22:C:\Workspaces\DAVE-4.1\Flightcontroller_PWM_CopterRocks_Working/Libraries/CMSIS/Include\cmsis_gcc.h ****    AND ANY EXPRESS OR IMPLIED WARRANTIES, INCLUDING, BUT NOT LIMITED TO, THE
  23:C:\Workspaces\DAVE-4.1\Flightcontroller_PWM_CopterRocks_Working/Libraries/CMSIS/Include\cmsis_gcc.h ****    IMPLIED WARRANTIES OF MERCHANTABILITY AND FITNESS FOR A PARTICULAR PURPOSE
  24:C:\Workspaces\DAVE-4.1\Flightcontroller_PWM_CopterRocks_Working/Libraries/CMSIS/Include\cmsis_gcc.h ****    ARE DISCLAIMED. IN NO EVENT SHALL COPYRIGHT HOLDERS AND CONTRIBUTORS BE
  25:C:\Workspaces\DAVE-4.1\Flightcontroller_PWM_CopterRocks_Working/Libraries/CMSIS/Include\cmsis_gcc.h ****    LIABLE FOR ANY DIRECT, INDIRECT, INCIDENTAL, SPECIAL, EXEMPLARY, OR
  26:C:\Workspaces\DAVE-4.1\Flightcontroller_PWM_CopterRocks_Working/Libraries/CMSIS/Include\cmsis_gcc.h ****    CONSEQUENTIAL DAMAGES (INCLUDING, BUT NOT LIMITED TO, PROCUREMENT OF
  27:C:\Workspaces\DAVE-4.1\Flightcontroller_PWM_CopterRocks_Working/Libraries/CMSIS/Include\cmsis_gcc.h ****    SUBSTITUTE GOODS OR SERVICES; LOSS OF USE, DATA, OR PROFITS; OR BUSINESS
  28:C:\Workspaces\DAVE-4.1\Flightcontroller_PWM_CopterRocks_Working/Libraries/CMSIS/Include\cmsis_gcc.h ****    INTERRUPTION) HOWEVER CAUSED AND ON ANY THEORY OF LIABILITY, WHETHER IN
  29:C:\Workspaces\DAVE-4.1\Flightcontroller_PWM_CopterRocks_Working/Libraries/CMSIS/Include\cmsis_gcc.h ****    CONTRACT, STRICT LIABILITY, OR TORT (INCLUDING NEGLIGENCE OR OTHERWISE)
  30:C:\Workspaces\DAVE-4.1\Flightcontroller_PWM_CopterRocks_Working/Libraries/CMSIS/Include\cmsis_gcc.h ****    ARISING IN ANY WAY OUT OF THE USE OF THIS SOFTWARE, EVEN IF ADVISED OF THE
  31:C:\Workspaces\DAVE-4.1\Flightcontroller_PWM_CopterRocks_Working/Libraries/CMSIS/Include\cmsis_gcc.h ****    POSSIBILITY OF SUCH DAMAGE.
  32:C:\Workspaces\DAVE-4.1\Flightcontroller_PWM_CopterRocks_Working/Libraries/CMSIS/Include\cmsis_gcc.h ****    ---------------------------------------------------------------------------*/
  33:C:\Workspaces\DAVE-4.1\Flightcontroller_PWM_CopterRocks_Working/Libraries/CMSIS/Include\cmsis_gcc.h **** 
  34:C:\Workspaces\DAVE-4.1\Flightcontroller_PWM_CopterRocks_Working/Libraries/CMSIS/Include\cmsis_gcc.h **** 
  35:C:\Workspaces\DAVE-4.1\Flightcontroller_PWM_CopterRocks_Working/Libraries/CMSIS/Include\cmsis_gcc.h **** #ifndef __CMSIS_GCC_H
  36:C:\Workspaces\DAVE-4.1\Flightcontroller_PWM_CopterRocks_Working/Libraries/CMSIS/Include\cmsis_gcc.h **** #define __CMSIS_GCC_H
  37:C:\Workspaces\DAVE-4.1\Flightcontroller_PWM_CopterRocks_Working/Libraries/CMSIS/Include\cmsis_gcc.h **** 
  38:C:\Workspaces\DAVE-4.1\Flightcontroller_PWM_CopterRocks_Working/Libraries/CMSIS/Include\cmsis_gcc.h **** /* ignore some GCC warnings */
  39:C:\Workspaces\DAVE-4.1\Flightcontroller_PWM_CopterRocks_Working/Libraries/CMSIS/Include\cmsis_gcc.h **** #if defined ( __GNUC__ )
  40:C:\Workspaces\DAVE-4.1\Flightcontroller_PWM_CopterRocks_Working/Libraries/CMSIS/Include\cmsis_gcc.h **** #pragma GCC diagnostic push
  41:C:\Workspaces\DAVE-4.1\Flightcontroller_PWM_CopterRocks_Working/Libraries/CMSIS/Include\cmsis_gcc.h **** #pragma GCC diagnostic ignored "-Wsign-conversion"
  42:C:\Workspaces\DAVE-4.1\Flightcontroller_PWM_CopterRocks_Working/Libraries/CMSIS/Include\cmsis_gcc.h **** #pragma GCC diagnostic ignored "-Wconversion"
  43:C:\Workspaces\DAVE-4.1\Flightcontroller_PWM_CopterRocks_Working/Libraries/CMSIS/Include\cmsis_gcc.h **** #pragma GCC diagnostic ignored "-Wunused-parameter"
  44:C:\Workspaces\DAVE-4.1\Flightcontroller_PWM_CopterRocks_Working/Libraries/CMSIS/Include\cmsis_gcc.h **** #endif
  45:C:\Workspaces\DAVE-4.1\Flightcontroller_PWM_CopterRocks_Working/Libraries/CMSIS/Include\cmsis_gcc.h **** 
  46:C:\Workspaces\DAVE-4.1\Flightcontroller_PWM_CopterRocks_Working/Libraries/CMSIS/Include\cmsis_gcc.h **** 
  47:C:\Workspaces\DAVE-4.1\Flightcontroller_PWM_CopterRocks_Working/Libraries/CMSIS/Include\cmsis_gcc.h **** /* ###########################  Core Function Access  ########################### */
  48:C:\Workspaces\DAVE-4.1\Flightcontroller_PWM_CopterRocks_Working/Libraries/CMSIS/Include\cmsis_gcc.h **** /** \ingroup  CMSIS_Core_FunctionInterface
  49:C:\Workspaces\DAVE-4.1\Flightcontroller_PWM_CopterRocks_Working/Libraries/CMSIS/Include\cmsis_gcc.h ****     \defgroup CMSIS_Core_RegAccFunctions CMSIS Core Register Access Functions
  50:C:\Workspaces\DAVE-4.1\Flightcontroller_PWM_CopterRocks_Working/Libraries/CMSIS/Include\cmsis_gcc.h ****   @{
  51:C:\Workspaces\DAVE-4.1\Flightcontroller_PWM_CopterRocks_Working/Libraries/CMSIS/Include\cmsis_gcc.h ****  */
  52:C:\Workspaces\DAVE-4.1\Flightcontroller_PWM_CopterRocks_Working/Libraries/CMSIS/Include\cmsis_gcc.h **** 
  53:C:\Workspaces\DAVE-4.1\Flightcontroller_PWM_CopterRocks_Working/Libraries/CMSIS/Include\cmsis_gcc.h **** /**
  54:C:\Workspaces\DAVE-4.1\Flightcontroller_PWM_CopterRocks_Working/Libraries/CMSIS/Include\cmsis_gcc.h ****   \brief   Enable IRQ Interrupts
  55:C:\Workspaces\DAVE-4.1\Flightcontroller_PWM_CopterRocks_Working/Libraries/CMSIS/Include\cmsis_gcc.h ****   \details Enables IRQ interrupts by clearing the I-bit in the CPSR.
  56:C:\Workspaces\DAVE-4.1\Flightcontroller_PWM_CopterRocks_Working/Libraries/CMSIS/Include\cmsis_gcc.h ****            Can only be executed in Privileged modes.
  57:C:\Workspaces\DAVE-4.1\Flightcontroller_PWM_CopterRocks_Working/Libraries/CMSIS/Include\cmsis_gcc.h ****  */
  58:C:\Workspaces\DAVE-4.1\Flightcontroller_PWM_CopterRocks_Working/Libraries/CMSIS/Include\cmsis_gcc.h **** __attribute__( ( always_inline ) ) __STATIC_INLINE void __enable_irq(void)
  59:C:\Workspaces\DAVE-4.1\Flightcontroller_PWM_CopterRocks_Working/Libraries/CMSIS/Include\cmsis_gcc.h **** {
  60:C:\Workspaces\DAVE-4.1\Flightcontroller_PWM_CopterRocks_Working/Libraries/CMSIS/Include\cmsis_gcc.h ****   __ASM volatile ("cpsie i" : : : "memory");
  61:C:\Workspaces\DAVE-4.1\Flightcontroller_PWM_CopterRocks_Working/Libraries/CMSIS/Include\cmsis_gcc.h **** }
  62:C:\Workspaces\DAVE-4.1\Flightcontroller_PWM_CopterRocks_Working/Libraries/CMSIS/Include\cmsis_gcc.h **** 
  63:C:\Workspaces\DAVE-4.1\Flightcontroller_PWM_CopterRocks_Working/Libraries/CMSIS/Include\cmsis_gcc.h **** 
  64:C:\Workspaces\DAVE-4.1\Flightcontroller_PWM_CopterRocks_Working/Libraries/CMSIS/Include\cmsis_gcc.h **** /**
  65:C:\Workspaces\DAVE-4.1\Flightcontroller_PWM_CopterRocks_Working/Libraries/CMSIS/Include\cmsis_gcc.h ****   \brief   Disable IRQ Interrupts
  66:C:\Workspaces\DAVE-4.1\Flightcontroller_PWM_CopterRocks_Working/Libraries/CMSIS/Include\cmsis_gcc.h ****   \details Disables IRQ interrupts by setting the I-bit in the CPSR.
  67:C:\Workspaces\DAVE-4.1\Flightcontroller_PWM_CopterRocks_Working/Libraries/CMSIS/Include\cmsis_gcc.h ****   Can only be executed in Privileged modes.
  68:C:\Workspaces\DAVE-4.1\Flightcontroller_PWM_CopterRocks_Working/Libraries/CMSIS/Include\cmsis_gcc.h ****  */
  69:C:\Workspaces\DAVE-4.1\Flightcontroller_PWM_CopterRocks_Working/Libraries/CMSIS/Include\cmsis_gcc.h **** __attribute__( ( always_inline ) ) __STATIC_INLINE void __disable_irq(void)
  70:C:\Workspaces\DAVE-4.1\Flightcontroller_PWM_CopterRocks_Working/Libraries/CMSIS/Include\cmsis_gcc.h **** {
  71:C:\Workspaces\DAVE-4.1\Flightcontroller_PWM_CopterRocks_Working/Libraries/CMSIS/Include\cmsis_gcc.h ****   __ASM volatile ("cpsid i" : : : "memory");
  72:C:\Workspaces\DAVE-4.1\Flightcontroller_PWM_CopterRocks_Working/Libraries/CMSIS/Include\cmsis_gcc.h **** }
  73:C:\Workspaces\DAVE-4.1\Flightcontroller_PWM_CopterRocks_Working/Libraries/CMSIS/Include\cmsis_gcc.h **** 
  74:C:\Workspaces\DAVE-4.1\Flightcontroller_PWM_CopterRocks_Working/Libraries/CMSIS/Include\cmsis_gcc.h **** 
  75:C:\Workspaces\DAVE-4.1\Flightcontroller_PWM_CopterRocks_Working/Libraries/CMSIS/Include\cmsis_gcc.h **** /**
  76:C:\Workspaces\DAVE-4.1\Flightcontroller_PWM_CopterRocks_Working/Libraries/CMSIS/Include\cmsis_gcc.h ****   \brief   Get Control Register
  77:C:\Workspaces\DAVE-4.1\Flightcontroller_PWM_CopterRocks_Working/Libraries/CMSIS/Include\cmsis_gcc.h ****   \details Returns the content of the Control Register.
  78:C:\Workspaces\DAVE-4.1\Flightcontroller_PWM_CopterRocks_Working/Libraries/CMSIS/Include\cmsis_gcc.h ****   \return               Control Register value
  79:C:\Workspaces\DAVE-4.1\Flightcontroller_PWM_CopterRocks_Working/Libraries/CMSIS/Include\cmsis_gcc.h ****  */
  80:C:\Workspaces\DAVE-4.1\Flightcontroller_PWM_CopterRocks_Working/Libraries/CMSIS/Include\cmsis_gcc.h **** __attribute__( ( always_inline ) ) __STATIC_INLINE uint32_t __get_CONTROL(void)
  81:C:\Workspaces\DAVE-4.1\Flightcontroller_PWM_CopterRocks_Working/Libraries/CMSIS/Include\cmsis_gcc.h **** {
  82:C:\Workspaces\DAVE-4.1\Flightcontroller_PWM_CopterRocks_Working/Libraries/CMSIS/Include\cmsis_gcc.h ****   uint32_t result;
  83:C:\Workspaces\DAVE-4.1\Flightcontroller_PWM_CopterRocks_Working/Libraries/CMSIS/Include\cmsis_gcc.h **** 
  84:C:\Workspaces\DAVE-4.1\Flightcontroller_PWM_CopterRocks_Working/Libraries/CMSIS/Include\cmsis_gcc.h ****   __ASM volatile ("MRS %0, control" : "=r" (result) );
  85:C:\Workspaces\DAVE-4.1\Flightcontroller_PWM_CopterRocks_Working/Libraries/CMSIS/Include\cmsis_gcc.h ****   return(result);
  86:C:\Workspaces\DAVE-4.1\Flightcontroller_PWM_CopterRocks_Working/Libraries/CMSIS/Include\cmsis_gcc.h **** }
  87:C:\Workspaces\DAVE-4.1\Flightcontroller_PWM_CopterRocks_Working/Libraries/CMSIS/Include\cmsis_gcc.h **** 
  88:C:\Workspaces\DAVE-4.1\Flightcontroller_PWM_CopterRocks_Working/Libraries/CMSIS/Include\cmsis_gcc.h **** 
  89:C:\Workspaces\DAVE-4.1\Flightcontroller_PWM_CopterRocks_Working/Libraries/CMSIS/Include\cmsis_gcc.h **** /**
  90:C:\Workspaces\DAVE-4.1\Flightcontroller_PWM_CopterRocks_Working/Libraries/CMSIS/Include\cmsis_gcc.h ****   \brief   Set Control Register
  91:C:\Workspaces\DAVE-4.1\Flightcontroller_PWM_CopterRocks_Working/Libraries/CMSIS/Include\cmsis_gcc.h ****   \details Writes the given value to the Control Register.
  92:C:\Workspaces\DAVE-4.1\Flightcontroller_PWM_CopterRocks_Working/Libraries/CMSIS/Include\cmsis_gcc.h ****   \param [in]    control  Control Register value to set
  93:C:\Workspaces\DAVE-4.1\Flightcontroller_PWM_CopterRocks_Working/Libraries/CMSIS/Include\cmsis_gcc.h ****  */
  94:C:\Workspaces\DAVE-4.1\Flightcontroller_PWM_CopterRocks_Working/Libraries/CMSIS/Include\cmsis_gcc.h **** __attribute__( ( always_inline ) ) __STATIC_INLINE void __set_CONTROL(uint32_t control)
  95:C:\Workspaces\DAVE-4.1\Flightcontroller_PWM_CopterRocks_Working/Libraries/CMSIS/Include\cmsis_gcc.h **** {
  96:C:\Workspaces\DAVE-4.1\Flightcontroller_PWM_CopterRocks_Working/Libraries/CMSIS/Include\cmsis_gcc.h ****   __ASM volatile ("MSR control, %0" : : "r" (control) : "memory");
  97:C:\Workspaces\DAVE-4.1\Flightcontroller_PWM_CopterRocks_Working/Libraries/CMSIS/Include\cmsis_gcc.h **** }
  98:C:\Workspaces\DAVE-4.1\Flightcontroller_PWM_CopterRocks_Working/Libraries/CMSIS/Include\cmsis_gcc.h **** 
  99:C:\Workspaces\DAVE-4.1\Flightcontroller_PWM_CopterRocks_Working/Libraries/CMSIS/Include\cmsis_gcc.h **** 
 100:C:\Workspaces\DAVE-4.1\Flightcontroller_PWM_CopterRocks_Working/Libraries/CMSIS/Include\cmsis_gcc.h **** /**
 101:C:\Workspaces\DAVE-4.1\Flightcontroller_PWM_CopterRocks_Working/Libraries/CMSIS/Include\cmsis_gcc.h ****   \brief   Get IPSR Register
 102:C:\Workspaces\DAVE-4.1\Flightcontroller_PWM_CopterRocks_Working/Libraries/CMSIS/Include\cmsis_gcc.h ****   \details Returns the content of the IPSR Register.
 103:C:\Workspaces\DAVE-4.1\Flightcontroller_PWM_CopterRocks_Working/Libraries/CMSIS/Include\cmsis_gcc.h ****   \return               IPSR Register value
 104:C:\Workspaces\DAVE-4.1\Flightcontroller_PWM_CopterRocks_Working/Libraries/CMSIS/Include\cmsis_gcc.h ****  */
 105:C:\Workspaces\DAVE-4.1\Flightcontroller_PWM_CopterRocks_Working/Libraries/CMSIS/Include\cmsis_gcc.h **** __attribute__( ( always_inline ) ) __STATIC_INLINE uint32_t __get_IPSR(void)
 106:C:\Workspaces\DAVE-4.1\Flightcontroller_PWM_CopterRocks_Working/Libraries/CMSIS/Include\cmsis_gcc.h **** {
 107:C:\Workspaces\DAVE-4.1\Flightcontroller_PWM_CopterRocks_Working/Libraries/CMSIS/Include\cmsis_gcc.h ****   uint32_t result;
 108:C:\Workspaces\DAVE-4.1\Flightcontroller_PWM_CopterRocks_Working/Libraries/CMSIS/Include\cmsis_gcc.h **** 
 109:C:\Workspaces\DAVE-4.1\Flightcontroller_PWM_CopterRocks_Working/Libraries/CMSIS/Include\cmsis_gcc.h ****   __ASM volatile ("MRS %0, ipsr" : "=r" (result) );
 110:C:\Workspaces\DAVE-4.1\Flightcontroller_PWM_CopterRocks_Working/Libraries/CMSIS/Include\cmsis_gcc.h ****   return(result);
 111:C:\Workspaces\DAVE-4.1\Flightcontroller_PWM_CopterRocks_Working/Libraries/CMSIS/Include\cmsis_gcc.h **** }
 112:C:\Workspaces\DAVE-4.1\Flightcontroller_PWM_CopterRocks_Working/Libraries/CMSIS/Include\cmsis_gcc.h **** 
 113:C:\Workspaces\DAVE-4.1\Flightcontroller_PWM_CopterRocks_Working/Libraries/CMSIS/Include\cmsis_gcc.h **** 
 114:C:\Workspaces\DAVE-4.1\Flightcontroller_PWM_CopterRocks_Working/Libraries/CMSIS/Include\cmsis_gcc.h **** /**
 115:C:\Workspaces\DAVE-4.1\Flightcontroller_PWM_CopterRocks_Working/Libraries/CMSIS/Include\cmsis_gcc.h ****   \brief   Get APSR Register
 116:C:\Workspaces\DAVE-4.1\Flightcontroller_PWM_CopterRocks_Working/Libraries/CMSIS/Include\cmsis_gcc.h ****   \details Returns the content of the APSR Register.
 117:C:\Workspaces\DAVE-4.1\Flightcontroller_PWM_CopterRocks_Working/Libraries/CMSIS/Include\cmsis_gcc.h ****   \return               APSR Register value
 118:C:\Workspaces\DAVE-4.1\Flightcontroller_PWM_CopterRocks_Working/Libraries/CMSIS/Include\cmsis_gcc.h ****  */
 119:C:\Workspaces\DAVE-4.1\Flightcontroller_PWM_CopterRocks_Working/Libraries/CMSIS/Include\cmsis_gcc.h **** __attribute__( ( always_inline ) ) __STATIC_INLINE uint32_t __get_APSR(void)
 120:C:\Workspaces\DAVE-4.1\Flightcontroller_PWM_CopterRocks_Working/Libraries/CMSIS/Include\cmsis_gcc.h **** {
 121:C:\Workspaces\DAVE-4.1\Flightcontroller_PWM_CopterRocks_Working/Libraries/CMSIS/Include\cmsis_gcc.h ****   uint32_t result;
 122:C:\Workspaces\DAVE-4.1\Flightcontroller_PWM_CopterRocks_Working/Libraries/CMSIS/Include\cmsis_gcc.h **** 
 123:C:\Workspaces\DAVE-4.1\Flightcontroller_PWM_CopterRocks_Working/Libraries/CMSIS/Include\cmsis_gcc.h ****   __ASM volatile ("MRS %0, apsr" : "=r" (result) );
 124:C:\Workspaces\DAVE-4.1\Flightcontroller_PWM_CopterRocks_Working/Libraries/CMSIS/Include\cmsis_gcc.h ****   return(result);
 125:C:\Workspaces\DAVE-4.1\Flightcontroller_PWM_CopterRocks_Working/Libraries/CMSIS/Include\cmsis_gcc.h **** }
 126:C:\Workspaces\DAVE-4.1\Flightcontroller_PWM_CopterRocks_Working/Libraries/CMSIS/Include\cmsis_gcc.h **** 
 127:C:\Workspaces\DAVE-4.1\Flightcontroller_PWM_CopterRocks_Working/Libraries/CMSIS/Include\cmsis_gcc.h **** 
 128:C:\Workspaces\DAVE-4.1\Flightcontroller_PWM_CopterRocks_Working/Libraries/CMSIS/Include\cmsis_gcc.h **** /**
 129:C:\Workspaces\DAVE-4.1\Flightcontroller_PWM_CopterRocks_Working/Libraries/CMSIS/Include\cmsis_gcc.h ****   \brief   Get xPSR Register
 130:C:\Workspaces\DAVE-4.1\Flightcontroller_PWM_CopterRocks_Working/Libraries/CMSIS/Include\cmsis_gcc.h ****   \details Returns the content of the xPSR Register.
 131:C:\Workspaces\DAVE-4.1\Flightcontroller_PWM_CopterRocks_Working/Libraries/CMSIS/Include\cmsis_gcc.h **** 
 132:C:\Workspaces\DAVE-4.1\Flightcontroller_PWM_CopterRocks_Working/Libraries/CMSIS/Include\cmsis_gcc.h ****     \return               xPSR Register value
 133:C:\Workspaces\DAVE-4.1\Flightcontroller_PWM_CopterRocks_Working/Libraries/CMSIS/Include\cmsis_gcc.h ****  */
 134:C:\Workspaces\DAVE-4.1\Flightcontroller_PWM_CopterRocks_Working/Libraries/CMSIS/Include\cmsis_gcc.h **** __attribute__( ( always_inline ) ) __STATIC_INLINE uint32_t __get_xPSR(void)
 135:C:\Workspaces\DAVE-4.1\Flightcontroller_PWM_CopterRocks_Working/Libraries/CMSIS/Include\cmsis_gcc.h **** {
 136:C:\Workspaces\DAVE-4.1\Flightcontroller_PWM_CopterRocks_Working/Libraries/CMSIS/Include\cmsis_gcc.h ****   uint32_t result;
 137:C:\Workspaces\DAVE-4.1\Flightcontroller_PWM_CopterRocks_Working/Libraries/CMSIS/Include\cmsis_gcc.h **** 
 138:C:\Workspaces\DAVE-4.1\Flightcontroller_PWM_CopterRocks_Working/Libraries/CMSIS/Include\cmsis_gcc.h ****   __ASM volatile ("MRS %0, xpsr" : "=r" (result) );
 139:C:\Workspaces\DAVE-4.1\Flightcontroller_PWM_CopterRocks_Working/Libraries/CMSIS/Include\cmsis_gcc.h ****   return(result);
 140:C:\Workspaces\DAVE-4.1\Flightcontroller_PWM_CopterRocks_Working/Libraries/CMSIS/Include\cmsis_gcc.h **** }
 141:C:\Workspaces\DAVE-4.1\Flightcontroller_PWM_CopterRocks_Working/Libraries/CMSIS/Include\cmsis_gcc.h **** 
 142:C:\Workspaces\DAVE-4.1\Flightcontroller_PWM_CopterRocks_Working/Libraries/CMSIS/Include\cmsis_gcc.h **** 
 143:C:\Workspaces\DAVE-4.1\Flightcontroller_PWM_CopterRocks_Working/Libraries/CMSIS/Include\cmsis_gcc.h **** /**
 144:C:\Workspaces\DAVE-4.1\Flightcontroller_PWM_CopterRocks_Working/Libraries/CMSIS/Include\cmsis_gcc.h ****   \brief   Get Process Stack Pointer
 145:C:\Workspaces\DAVE-4.1\Flightcontroller_PWM_CopterRocks_Working/Libraries/CMSIS/Include\cmsis_gcc.h ****   \details Returns the current value of the Process Stack Pointer (PSP).
 146:C:\Workspaces\DAVE-4.1\Flightcontroller_PWM_CopterRocks_Working/Libraries/CMSIS/Include\cmsis_gcc.h ****   \return               PSP Register value
 147:C:\Workspaces\DAVE-4.1\Flightcontroller_PWM_CopterRocks_Working/Libraries/CMSIS/Include\cmsis_gcc.h ****  */
 148:C:\Workspaces\DAVE-4.1\Flightcontroller_PWM_CopterRocks_Working/Libraries/CMSIS/Include\cmsis_gcc.h **** __attribute__( ( always_inline ) ) __STATIC_INLINE uint32_t __get_PSP(void)
 149:C:\Workspaces\DAVE-4.1\Flightcontroller_PWM_CopterRocks_Working/Libraries/CMSIS/Include\cmsis_gcc.h **** {
 150:C:\Workspaces\DAVE-4.1\Flightcontroller_PWM_CopterRocks_Working/Libraries/CMSIS/Include\cmsis_gcc.h ****   register uint32_t result;
 151:C:\Workspaces\DAVE-4.1\Flightcontroller_PWM_CopterRocks_Working/Libraries/CMSIS/Include\cmsis_gcc.h **** 
 152:C:\Workspaces\DAVE-4.1\Flightcontroller_PWM_CopterRocks_Working/Libraries/CMSIS/Include\cmsis_gcc.h ****   __ASM volatile ("MRS %0, psp\n"  : "=r" (result) );
 153:C:\Workspaces\DAVE-4.1\Flightcontroller_PWM_CopterRocks_Working/Libraries/CMSIS/Include\cmsis_gcc.h ****   return(result);
 154:C:\Workspaces\DAVE-4.1\Flightcontroller_PWM_CopterRocks_Working/Libraries/CMSIS/Include\cmsis_gcc.h **** }
 155:C:\Workspaces\DAVE-4.1\Flightcontroller_PWM_CopterRocks_Working/Libraries/CMSIS/Include\cmsis_gcc.h **** 
 156:C:\Workspaces\DAVE-4.1\Flightcontroller_PWM_CopterRocks_Working/Libraries/CMSIS/Include\cmsis_gcc.h **** 
 157:C:\Workspaces\DAVE-4.1\Flightcontroller_PWM_CopterRocks_Working/Libraries/CMSIS/Include\cmsis_gcc.h **** /**
 158:C:\Workspaces\DAVE-4.1\Flightcontroller_PWM_CopterRocks_Working/Libraries/CMSIS/Include\cmsis_gcc.h ****   \brief   Set Process Stack Pointer
 159:C:\Workspaces\DAVE-4.1\Flightcontroller_PWM_CopterRocks_Working/Libraries/CMSIS/Include\cmsis_gcc.h ****   \details Assigns the given value to the Process Stack Pointer (PSP).
 160:C:\Workspaces\DAVE-4.1\Flightcontroller_PWM_CopterRocks_Working/Libraries/CMSIS/Include\cmsis_gcc.h ****   \param [in]    topOfProcStack  Process Stack Pointer value to set
 161:C:\Workspaces\DAVE-4.1\Flightcontroller_PWM_CopterRocks_Working/Libraries/CMSIS/Include\cmsis_gcc.h ****  */
 162:C:\Workspaces\DAVE-4.1\Flightcontroller_PWM_CopterRocks_Working/Libraries/CMSIS/Include\cmsis_gcc.h **** __attribute__( ( always_inline ) ) __STATIC_INLINE void __set_PSP(uint32_t topOfProcStack)
 163:C:\Workspaces\DAVE-4.1\Flightcontroller_PWM_CopterRocks_Working/Libraries/CMSIS/Include\cmsis_gcc.h **** {
 164:C:\Workspaces\DAVE-4.1\Flightcontroller_PWM_CopterRocks_Working/Libraries/CMSIS/Include\cmsis_gcc.h ****   __ASM volatile ("MSR psp, %0\n" : : "r" (topOfProcStack) : "sp");
 165:C:\Workspaces\DAVE-4.1\Flightcontroller_PWM_CopterRocks_Working/Libraries/CMSIS/Include\cmsis_gcc.h **** }
 166:C:\Workspaces\DAVE-4.1\Flightcontroller_PWM_CopterRocks_Working/Libraries/CMSIS/Include\cmsis_gcc.h **** 
 167:C:\Workspaces\DAVE-4.1\Flightcontroller_PWM_CopterRocks_Working/Libraries/CMSIS/Include\cmsis_gcc.h **** 
 168:C:\Workspaces\DAVE-4.1\Flightcontroller_PWM_CopterRocks_Working/Libraries/CMSIS/Include\cmsis_gcc.h **** /**
 169:C:\Workspaces\DAVE-4.1\Flightcontroller_PWM_CopterRocks_Working/Libraries/CMSIS/Include\cmsis_gcc.h ****   \brief   Get Main Stack Pointer
 170:C:\Workspaces\DAVE-4.1\Flightcontroller_PWM_CopterRocks_Working/Libraries/CMSIS/Include\cmsis_gcc.h ****   \details Returns the current value of the Main Stack Pointer (MSP).
 171:C:\Workspaces\DAVE-4.1\Flightcontroller_PWM_CopterRocks_Working/Libraries/CMSIS/Include\cmsis_gcc.h ****   \return               MSP Register value
 172:C:\Workspaces\DAVE-4.1\Flightcontroller_PWM_CopterRocks_Working/Libraries/CMSIS/Include\cmsis_gcc.h ****  */
 173:C:\Workspaces\DAVE-4.1\Flightcontroller_PWM_CopterRocks_Working/Libraries/CMSIS/Include\cmsis_gcc.h **** __attribute__( ( always_inline ) ) __STATIC_INLINE uint32_t __get_MSP(void)
 174:C:\Workspaces\DAVE-4.1\Flightcontroller_PWM_CopterRocks_Working/Libraries/CMSIS/Include\cmsis_gcc.h **** {
 175:C:\Workspaces\DAVE-4.1\Flightcontroller_PWM_CopterRocks_Working/Libraries/CMSIS/Include\cmsis_gcc.h ****   register uint32_t result;
 176:C:\Workspaces\DAVE-4.1\Flightcontroller_PWM_CopterRocks_Working/Libraries/CMSIS/Include\cmsis_gcc.h **** 
 177:C:\Workspaces\DAVE-4.1\Flightcontroller_PWM_CopterRocks_Working/Libraries/CMSIS/Include\cmsis_gcc.h ****   __ASM volatile ("MRS %0, msp\n" : "=r" (result) );
 178:C:\Workspaces\DAVE-4.1\Flightcontroller_PWM_CopterRocks_Working/Libraries/CMSIS/Include\cmsis_gcc.h ****   return(result);
 179:C:\Workspaces\DAVE-4.1\Flightcontroller_PWM_CopterRocks_Working/Libraries/CMSIS/Include\cmsis_gcc.h **** }
 180:C:\Workspaces\DAVE-4.1\Flightcontroller_PWM_CopterRocks_Working/Libraries/CMSIS/Include\cmsis_gcc.h **** 
 181:C:\Workspaces\DAVE-4.1\Flightcontroller_PWM_CopterRocks_Working/Libraries/CMSIS/Include\cmsis_gcc.h **** 
 182:C:\Workspaces\DAVE-4.1\Flightcontroller_PWM_CopterRocks_Working/Libraries/CMSIS/Include\cmsis_gcc.h **** /**
 183:C:\Workspaces\DAVE-4.1\Flightcontroller_PWM_CopterRocks_Working/Libraries/CMSIS/Include\cmsis_gcc.h ****   \brief   Set Main Stack Pointer
 184:C:\Workspaces\DAVE-4.1\Flightcontroller_PWM_CopterRocks_Working/Libraries/CMSIS/Include\cmsis_gcc.h ****   \details Assigns the given value to the Main Stack Pointer (MSP).
 185:C:\Workspaces\DAVE-4.1\Flightcontroller_PWM_CopterRocks_Working/Libraries/CMSIS/Include\cmsis_gcc.h **** 
 186:C:\Workspaces\DAVE-4.1\Flightcontroller_PWM_CopterRocks_Working/Libraries/CMSIS/Include\cmsis_gcc.h ****     \param [in]    topOfMainStack  Main Stack Pointer value to set
 187:C:\Workspaces\DAVE-4.1\Flightcontroller_PWM_CopterRocks_Working/Libraries/CMSIS/Include\cmsis_gcc.h ****  */
 188:C:\Workspaces\DAVE-4.1\Flightcontroller_PWM_CopterRocks_Working/Libraries/CMSIS/Include\cmsis_gcc.h **** __attribute__( ( always_inline ) ) __STATIC_INLINE void __set_MSP(uint32_t topOfMainStack)
 189:C:\Workspaces\DAVE-4.1\Flightcontroller_PWM_CopterRocks_Working/Libraries/CMSIS/Include\cmsis_gcc.h **** {
 190:C:\Workspaces\DAVE-4.1\Flightcontroller_PWM_CopterRocks_Working/Libraries/CMSIS/Include\cmsis_gcc.h ****   __ASM volatile ("MSR msp, %0\n" : : "r" (topOfMainStack) : "sp");
 191:C:\Workspaces\DAVE-4.1\Flightcontroller_PWM_CopterRocks_Working/Libraries/CMSIS/Include\cmsis_gcc.h **** }
 192:C:\Workspaces\DAVE-4.1\Flightcontroller_PWM_CopterRocks_Working/Libraries/CMSIS/Include\cmsis_gcc.h **** 
 193:C:\Workspaces\DAVE-4.1\Flightcontroller_PWM_CopterRocks_Working/Libraries/CMSIS/Include\cmsis_gcc.h **** 
 194:C:\Workspaces\DAVE-4.1\Flightcontroller_PWM_CopterRocks_Working/Libraries/CMSIS/Include\cmsis_gcc.h **** /**
 195:C:\Workspaces\DAVE-4.1\Flightcontroller_PWM_CopterRocks_Working/Libraries/CMSIS/Include\cmsis_gcc.h ****   \brief   Get Priority Mask
 196:C:\Workspaces\DAVE-4.1\Flightcontroller_PWM_CopterRocks_Working/Libraries/CMSIS/Include\cmsis_gcc.h ****   \details Returns the current state of the priority mask bit from the Priority Mask Register.
 197:C:\Workspaces\DAVE-4.1\Flightcontroller_PWM_CopterRocks_Working/Libraries/CMSIS/Include\cmsis_gcc.h ****   \return               Priority Mask value
 198:C:\Workspaces\DAVE-4.1\Flightcontroller_PWM_CopterRocks_Working/Libraries/CMSIS/Include\cmsis_gcc.h ****  */
 199:C:\Workspaces\DAVE-4.1\Flightcontroller_PWM_CopterRocks_Working/Libraries/CMSIS/Include\cmsis_gcc.h **** __attribute__( ( always_inline ) ) __STATIC_INLINE uint32_t __get_PRIMASK(void)
 200:C:\Workspaces\DAVE-4.1\Flightcontroller_PWM_CopterRocks_Working/Libraries/CMSIS/Include\cmsis_gcc.h **** {
 201:C:\Workspaces\DAVE-4.1\Flightcontroller_PWM_CopterRocks_Working/Libraries/CMSIS/Include\cmsis_gcc.h ****   uint32_t result;
 202:C:\Workspaces\DAVE-4.1\Flightcontroller_PWM_CopterRocks_Working/Libraries/CMSIS/Include\cmsis_gcc.h **** 
 203:C:\Workspaces\DAVE-4.1\Flightcontroller_PWM_CopterRocks_Working/Libraries/CMSIS/Include\cmsis_gcc.h ****   __ASM volatile ("MRS %0, primask" : "=r" (result) );
 204:C:\Workspaces\DAVE-4.1\Flightcontroller_PWM_CopterRocks_Working/Libraries/CMSIS/Include\cmsis_gcc.h ****   return(result);
 205:C:\Workspaces\DAVE-4.1\Flightcontroller_PWM_CopterRocks_Working/Libraries/CMSIS/Include\cmsis_gcc.h **** }
 206:C:\Workspaces\DAVE-4.1\Flightcontroller_PWM_CopterRocks_Working/Libraries/CMSIS/Include\cmsis_gcc.h **** 
 207:C:\Workspaces\DAVE-4.1\Flightcontroller_PWM_CopterRocks_Working/Libraries/CMSIS/Include\cmsis_gcc.h **** 
 208:C:\Workspaces\DAVE-4.1\Flightcontroller_PWM_CopterRocks_Working/Libraries/CMSIS/Include\cmsis_gcc.h **** /**
 209:C:\Workspaces\DAVE-4.1\Flightcontroller_PWM_CopterRocks_Working/Libraries/CMSIS/Include\cmsis_gcc.h ****   \brief   Set Priority Mask
 210:C:\Workspaces\DAVE-4.1\Flightcontroller_PWM_CopterRocks_Working/Libraries/CMSIS/Include\cmsis_gcc.h ****   \details Assigns the given value to the Priority Mask Register.
 211:C:\Workspaces\DAVE-4.1\Flightcontroller_PWM_CopterRocks_Working/Libraries/CMSIS/Include\cmsis_gcc.h ****   \param [in]    priMask  Priority Mask
 212:C:\Workspaces\DAVE-4.1\Flightcontroller_PWM_CopterRocks_Working/Libraries/CMSIS/Include\cmsis_gcc.h ****  */
 213:C:\Workspaces\DAVE-4.1\Flightcontroller_PWM_CopterRocks_Working/Libraries/CMSIS/Include\cmsis_gcc.h **** __attribute__( ( always_inline ) ) __STATIC_INLINE void __set_PRIMASK(uint32_t priMask)
 214:C:\Workspaces\DAVE-4.1\Flightcontroller_PWM_CopterRocks_Working/Libraries/CMSIS/Include\cmsis_gcc.h **** {
 215:C:\Workspaces\DAVE-4.1\Flightcontroller_PWM_CopterRocks_Working/Libraries/CMSIS/Include\cmsis_gcc.h ****   __ASM volatile ("MSR primask, %0" : : "r" (priMask) : "memory");
 216:C:\Workspaces\DAVE-4.1\Flightcontroller_PWM_CopterRocks_Working/Libraries/CMSIS/Include\cmsis_gcc.h **** }
 217:C:\Workspaces\DAVE-4.1\Flightcontroller_PWM_CopterRocks_Working/Libraries/CMSIS/Include\cmsis_gcc.h **** 
 218:C:\Workspaces\DAVE-4.1\Flightcontroller_PWM_CopterRocks_Working/Libraries/CMSIS/Include\cmsis_gcc.h **** 
 219:C:\Workspaces\DAVE-4.1\Flightcontroller_PWM_CopterRocks_Working/Libraries/CMSIS/Include\cmsis_gcc.h **** #if       (__CORTEX_M >= 0x03U)
 220:C:\Workspaces\DAVE-4.1\Flightcontroller_PWM_CopterRocks_Working/Libraries/CMSIS/Include\cmsis_gcc.h **** 
 221:C:\Workspaces\DAVE-4.1\Flightcontroller_PWM_CopterRocks_Working/Libraries/CMSIS/Include\cmsis_gcc.h **** /**
 222:C:\Workspaces\DAVE-4.1\Flightcontroller_PWM_CopterRocks_Working/Libraries/CMSIS/Include\cmsis_gcc.h ****   \brief   Enable FIQ
 223:C:\Workspaces\DAVE-4.1\Flightcontroller_PWM_CopterRocks_Working/Libraries/CMSIS/Include\cmsis_gcc.h ****   \details Enables FIQ interrupts by clearing the F-bit in the CPSR.
 224:C:\Workspaces\DAVE-4.1\Flightcontroller_PWM_CopterRocks_Working/Libraries/CMSIS/Include\cmsis_gcc.h ****            Can only be executed in Privileged modes.
 225:C:\Workspaces\DAVE-4.1\Flightcontroller_PWM_CopterRocks_Working/Libraries/CMSIS/Include\cmsis_gcc.h ****  */
 226:C:\Workspaces\DAVE-4.1\Flightcontroller_PWM_CopterRocks_Working/Libraries/CMSIS/Include\cmsis_gcc.h **** __attribute__( ( always_inline ) ) __STATIC_INLINE void __enable_fault_irq(void)
 227:C:\Workspaces\DAVE-4.1\Flightcontroller_PWM_CopterRocks_Working/Libraries/CMSIS/Include\cmsis_gcc.h **** {
 228:C:\Workspaces\DAVE-4.1\Flightcontroller_PWM_CopterRocks_Working/Libraries/CMSIS/Include\cmsis_gcc.h ****   __ASM volatile ("cpsie f" : : : "memory");
 229:C:\Workspaces\DAVE-4.1\Flightcontroller_PWM_CopterRocks_Working/Libraries/CMSIS/Include\cmsis_gcc.h **** }
 230:C:\Workspaces\DAVE-4.1\Flightcontroller_PWM_CopterRocks_Working/Libraries/CMSIS/Include\cmsis_gcc.h **** 
 231:C:\Workspaces\DAVE-4.1\Flightcontroller_PWM_CopterRocks_Working/Libraries/CMSIS/Include\cmsis_gcc.h **** 
 232:C:\Workspaces\DAVE-4.1\Flightcontroller_PWM_CopterRocks_Working/Libraries/CMSIS/Include\cmsis_gcc.h **** /**
 233:C:\Workspaces\DAVE-4.1\Flightcontroller_PWM_CopterRocks_Working/Libraries/CMSIS/Include\cmsis_gcc.h ****   \brief   Disable FIQ
 234:C:\Workspaces\DAVE-4.1\Flightcontroller_PWM_CopterRocks_Working/Libraries/CMSIS/Include\cmsis_gcc.h ****   \details Disables FIQ interrupts by setting the F-bit in the CPSR.
 235:C:\Workspaces\DAVE-4.1\Flightcontroller_PWM_CopterRocks_Working/Libraries/CMSIS/Include\cmsis_gcc.h ****            Can only be executed in Privileged modes.
 236:C:\Workspaces\DAVE-4.1\Flightcontroller_PWM_CopterRocks_Working/Libraries/CMSIS/Include\cmsis_gcc.h ****  */
 237:C:\Workspaces\DAVE-4.1\Flightcontroller_PWM_CopterRocks_Working/Libraries/CMSIS/Include\cmsis_gcc.h **** __attribute__( ( always_inline ) ) __STATIC_INLINE void __disable_fault_irq(void)
 238:C:\Workspaces\DAVE-4.1\Flightcontroller_PWM_CopterRocks_Working/Libraries/CMSIS/Include\cmsis_gcc.h **** {
 239:C:\Workspaces\DAVE-4.1\Flightcontroller_PWM_CopterRocks_Working/Libraries/CMSIS/Include\cmsis_gcc.h ****   __ASM volatile ("cpsid f" : : : "memory");
 240:C:\Workspaces\DAVE-4.1\Flightcontroller_PWM_CopterRocks_Working/Libraries/CMSIS/Include\cmsis_gcc.h **** }
 241:C:\Workspaces\DAVE-4.1\Flightcontroller_PWM_CopterRocks_Working/Libraries/CMSIS/Include\cmsis_gcc.h **** 
 242:C:\Workspaces\DAVE-4.1\Flightcontroller_PWM_CopterRocks_Working/Libraries/CMSIS/Include\cmsis_gcc.h **** 
 243:C:\Workspaces\DAVE-4.1\Flightcontroller_PWM_CopterRocks_Working/Libraries/CMSIS/Include\cmsis_gcc.h **** /**
 244:C:\Workspaces\DAVE-4.1\Flightcontroller_PWM_CopterRocks_Working/Libraries/CMSIS/Include\cmsis_gcc.h ****   \brief   Get Base Priority
 245:C:\Workspaces\DAVE-4.1\Flightcontroller_PWM_CopterRocks_Working/Libraries/CMSIS/Include\cmsis_gcc.h ****   \details Returns the current value of the Base Priority register.
 246:C:\Workspaces\DAVE-4.1\Flightcontroller_PWM_CopterRocks_Working/Libraries/CMSIS/Include\cmsis_gcc.h ****   \return               Base Priority register value
 247:C:\Workspaces\DAVE-4.1\Flightcontroller_PWM_CopterRocks_Working/Libraries/CMSIS/Include\cmsis_gcc.h ****  */
 248:C:\Workspaces\DAVE-4.1\Flightcontroller_PWM_CopterRocks_Working/Libraries/CMSIS/Include\cmsis_gcc.h **** __attribute__( ( always_inline ) ) __STATIC_INLINE uint32_t __get_BASEPRI(void)
 249:C:\Workspaces\DAVE-4.1\Flightcontroller_PWM_CopterRocks_Working/Libraries/CMSIS/Include\cmsis_gcc.h **** {
 250:C:\Workspaces\DAVE-4.1\Flightcontroller_PWM_CopterRocks_Working/Libraries/CMSIS/Include\cmsis_gcc.h ****   uint32_t result;
 251:C:\Workspaces\DAVE-4.1\Flightcontroller_PWM_CopterRocks_Working/Libraries/CMSIS/Include\cmsis_gcc.h **** 
 252:C:\Workspaces\DAVE-4.1\Flightcontroller_PWM_CopterRocks_Working/Libraries/CMSIS/Include\cmsis_gcc.h ****   __ASM volatile ("MRS %0, basepri" : "=r" (result) );
 253:C:\Workspaces\DAVE-4.1\Flightcontroller_PWM_CopterRocks_Working/Libraries/CMSIS/Include\cmsis_gcc.h ****   return(result);
 254:C:\Workspaces\DAVE-4.1\Flightcontroller_PWM_CopterRocks_Working/Libraries/CMSIS/Include\cmsis_gcc.h **** }
 255:C:\Workspaces\DAVE-4.1\Flightcontroller_PWM_CopterRocks_Working/Libraries/CMSIS/Include\cmsis_gcc.h **** 
 256:C:\Workspaces\DAVE-4.1\Flightcontroller_PWM_CopterRocks_Working/Libraries/CMSIS/Include\cmsis_gcc.h **** 
 257:C:\Workspaces\DAVE-4.1\Flightcontroller_PWM_CopterRocks_Working/Libraries/CMSIS/Include\cmsis_gcc.h **** /**
 258:C:\Workspaces\DAVE-4.1\Flightcontroller_PWM_CopterRocks_Working/Libraries/CMSIS/Include\cmsis_gcc.h ****   \brief   Set Base Priority
 259:C:\Workspaces\DAVE-4.1\Flightcontroller_PWM_CopterRocks_Working/Libraries/CMSIS/Include\cmsis_gcc.h ****   \details Assigns the given value to the Base Priority register.
 260:C:\Workspaces\DAVE-4.1\Flightcontroller_PWM_CopterRocks_Working/Libraries/CMSIS/Include\cmsis_gcc.h ****   \param [in]    basePri  Base Priority value to set
 261:C:\Workspaces\DAVE-4.1\Flightcontroller_PWM_CopterRocks_Working/Libraries/CMSIS/Include\cmsis_gcc.h ****  */
 262:C:\Workspaces\DAVE-4.1\Flightcontroller_PWM_CopterRocks_Working/Libraries/CMSIS/Include\cmsis_gcc.h **** __attribute__( ( always_inline ) ) __STATIC_INLINE void __set_BASEPRI(uint32_t value)
 263:C:\Workspaces\DAVE-4.1\Flightcontroller_PWM_CopterRocks_Working/Libraries/CMSIS/Include\cmsis_gcc.h **** {
 264:C:\Workspaces\DAVE-4.1\Flightcontroller_PWM_CopterRocks_Working/Libraries/CMSIS/Include\cmsis_gcc.h ****   __ASM volatile ("MSR basepri, %0" : : "r" (value) : "memory");
 265:C:\Workspaces\DAVE-4.1\Flightcontroller_PWM_CopterRocks_Working/Libraries/CMSIS/Include\cmsis_gcc.h **** }
 266:C:\Workspaces\DAVE-4.1\Flightcontroller_PWM_CopterRocks_Working/Libraries/CMSIS/Include\cmsis_gcc.h **** 
 267:C:\Workspaces\DAVE-4.1\Flightcontroller_PWM_CopterRocks_Working/Libraries/CMSIS/Include\cmsis_gcc.h **** 
 268:C:\Workspaces\DAVE-4.1\Flightcontroller_PWM_CopterRocks_Working/Libraries/CMSIS/Include\cmsis_gcc.h **** /**
 269:C:\Workspaces\DAVE-4.1\Flightcontroller_PWM_CopterRocks_Working/Libraries/CMSIS/Include\cmsis_gcc.h ****   \brief   Set Base Priority with condition
 270:C:\Workspaces\DAVE-4.1\Flightcontroller_PWM_CopterRocks_Working/Libraries/CMSIS/Include\cmsis_gcc.h ****   \details Assigns the given value to the Base Priority register only if BASEPRI masking is disable
 271:C:\Workspaces\DAVE-4.1\Flightcontroller_PWM_CopterRocks_Working/Libraries/CMSIS/Include\cmsis_gcc.h ****            or the new value increases the BASEPRI priority level.
 272:C:\Workspaces\DAVE-4.1\Flightcontroller_PWM_CopterRocks_Working/Libraries/CMSIS/Include\cmsis_gcc.h ****   \param [in]    basePri  Base Priority value to set
 273:C:\Workspaces\DAVE-4.1\Flightcontroller_PWM_CopterRocks_Working/Libraries/CMSIS/Include\cmsis_gcc.h ****  */
 274:C:\Workspaces\DAVE-4.1\Flightcontroller_PWM_CopterRocks_Working/Libraries/CMSIS/Include\cmsis_gcc.h **** __attribute__( ( always_inline ) ) __STATIC_INLINE void __set_BASEPRI_MAX(uint32_t value)
 275:C:\Workspaces\DAVE-4.1\Flightcontroller_PWM_CopterRocks_Working/Libraries/CMSIS/Include\cmsis_gcc.h **** {
 276:C:\Workspaces\DAVE-4.1\Flightcontroller_PWM_CopterRocks_Working/Libraries/CMSIS/Include\cmsis_gcc.h ****   __ASM volatile ("MSR basepri_max, %0" : : "r" (value) : "memory");
 277:C:\Workspaces\DAVE-4.1\Flightcontroller_PWM_CopterRocks_Working/Libraries/CMSIS/Include\cmsis_gcc.h **** }
 278:C:\Workspaces\DAVE-4.1\Flightcontroller_PWM_CopterRocks_Working/Libraries/CMSIS/Include\cmsis_gcc.h **** 
 279:C:\Workspaces\DAVE-4.1\Flightcontroller_PWM_CopterRocks_Working/Libraries/CMSIS/Include\cmsis_gcc.h **** 
 280:C:\Workspaces\DAVE-4.1\Flightcontroller_PWM_CopterRocks_Working/Libraries/CMSIS/Include\cmsis_gcc.h **** /**
 281:C:\Workspaces\DAVE-4.1\Flightcontroller_PWM_CopterRocks_Working/Libraries/CMSIS/Include\cmsis_gcc.h ****   \brief   Get Fault Mask
 282:C:\Workspaces\DAVE-4.1\Flightcontroller_PWM_CopterRocks_Working/Libraries/CMSIS/Include\cmsis_gcc.h ****   \details Returns the current value of the Fault Mask register.
 283:C:\Workspaces\DAVE-4.1\Flightcontroller_PWM_CopterRocks_Working/Libraries/CMSIS/Include\cmsis_gcc.h ****   \return               Fault Mask register value
 284:C:\Workspaces\DAVE-4.1\Flightcontroller_PWM_CopterRocks_Working/Libraries/CMSIS/Include\cmsis_gcc.h ****  */
 285:C:\Workspaces\DAVE-4.1\Flightcontroller_PWM_CopterRocks_Working/Libraries/CMSIS/Include\cmsis_gcc.h **** __attribute__( ( always_inline ) ) __STATIC_INLINE uint32_t __get_FAULTMASK(void)
 286:C:\Workspaces\DAVE-4.1\Flightcontroller_PWM_CopterRocks_Working/Libraries/CMSIS/Include\cmsis_gcc.h **** {
 287:C:\Workspaces\DAVE-4.1\Flightcontroller_PWM_CopterRocks_Working/Libraries/CMSIS/Include\cmsis_gcc.h ****   uint32_t result;
 288:C:\Workspaces\DAVE-4.1\Flightcontroller_PWM_CopterRocks_Working/Libraries/CMSIS/Include\cmsis_gcc.h **** 
 289:C:\Workspaces\DAVE-4.1\Flightcontroller_PWM_CopterRocks_Working/Libraries/CMSIS/Include\cmsis_gcc.h ****   __ASM volatile ("MRS %0, faultmask" : "=r" (result) );
 290:C:\Workspaces\DAVE-4.1\Flightcontroller_PWM_CopterRocks_Working/Libraries/CMSIS/Include\cmsis_gcc.h ****   return(result);
 291:C:\Workspaces\DAVE-4.1\Flightcontroller_PWM_CopterRocks_Working/Libraries/CMSIS/Include\cmsis_gcc.h **** }
 292:C:\Workspaces\DAVE-4.1\Flightcontroller_PWM_CopterRocks_Working/Libraries/CMSIS/Include\cmsis_gcc.h **** 
 293:C:\Workspaces\DAVE-4.1\Flightcontroller_PWM_CopterRocks_Working/Libraries/CMSIS/Include\cmsis_gcc.h **** 
 294:C:\Workspaces\DAVE-4.1\Flightcontroller_PWM_CopterRocks_Working/Libraries/CMSIS/Include\cmsis_gcc.h **** /**
 295:C:\Workspaces\DAVE-4.1\Flightcontroller_PWM_CopterRocks_Working/Libraries/CMSIS/Include\cmsis_gcc.h ****   \brief   Set Fault Mask
 296:C:\Workspaces\DAVE-4.1\Flightcontroller_PWM_CopterRocks_Working/Libraries/CMSIS/Include\cmsis_gcc.h ****   \details Assigns the given value to the Fault Mask register.
 297:C:\Workspaces\DAVE-4.1\Flightcontroller_PWM_CopterRocks_Working/Libraries/CMSIS/Include\cmsis_gcc.h ****   \param [in]    faultMask  Fault Mask value to set
 298:C:\Workspaces\DAVE-4.1\Flightcontroller_PWM_CopterRocks_Working/Libraries/CMSIS/Include\cmsis_gcc.h ****  */
 299:C:\Workspaces\DAVE-4.1\Flightcontroller_PWM_CopterRocks_Working/Libraries/CMSIS/Include\cmsis_gcc.h **** __attribute__( ( always_inline ) ) __STATIC_INLINE void __set_FAULTMASK(uint32_t faultMask)
 300:C:\Workspaces\DAVE-4.1\Flightcontroller_PWM_CopterRocks_Working/Libraries/CMSIS/Include\cmsis_gcc.h **** {
 301:C:\Workspaces\DAVE-4.1\Flightcontroller_PWM_CopterRocks_Working/Libraries/CMSIS/Include\cmsis_gcc.h ****   __ASM volatile ("MSR faultmask, %0" : : "r" (faultMask) : "memory");
 302:C:\Workspaces\DAVE-4.1\Flightcontroller_PWM_CopterRocks_Working/Libraries/CMSIS/Include\cmsis_gcc.h **** }
 303:C:\Workspaces\DAVE-4.1\Flightcontroller_PWM_CopterRocks_Working/Libraries/CMSIS/Include\cmsis_gcc.h **** 
 304:C:\Workspaces\DAVE-4.1\Flightcontroller_PWM_CopterRocks_Working/Libraries/CMSIS/Include\cmsis_gcc.h **** #endif /* (__CORTEX_M >= 0x03U) */
 305:C:\Workspaces\DAVE-4.1\Flightcontroller_PWM_CopterRocks_Working/Libraries/CMSIS/Include\cmsis_gcc.h **** 
 306:C:\Workspaces\DAVE-4.1\Flightcontroller_PWM_CopterRocks_Working/Libraries/CMSIS/Include\cmsis_gcc.h **** 
 307:C:\Workspaces\DAVE-4.1\Flightcontroller_PWM_CopterRocks_Working/Libraries/CMSIS/Include\cmsis_gcc.h **** #if       (__CORTEX_M == 0x04U) || (__CORTEX_M == 0x07U)
 308:C:\Workspaces\DAVE-4.1\Flightcontroller_PWM_CopterRocks_Working/Libraries/CMSIS/Include\cmsis_gcc.h **** 
 309:C:\Workspaces\DAVE-4.1\Flightcontroller_PWM_CopterRocks_Working/Libraries/CMSIS/Include\cmsis_gcc.h **** /**
 310:C:\Workspaces\DAVE-4.1\Flightcontroller_PWM_CopterRocks_Working/Libraries/CMSIS/Include\cmsis_gcc.h ****   \brief   Get FPSCR
 311:C:\Workspaces\DAVE-4.1\Flightcontroller_PWM_CopterRocks_Working/Libraries/CMSIS/Include\cmsis_gcc.h ****   \details Returns the current value of the Floating Point Status/Control register.
 312:C:\Workspaces\DAVE-4.1\Flightcontroller_PWM_CopterRocks_Working/Libraries/CMSIS/Include\cmsis_gcc.h ****   \return               Floating Point Status/Control register value
 313:C:\Workspaces\DAVE-4.1\Flightcontroller_PWM_CopterRocks_Working/Libraries/CMSIS/Include\cmsis_gcc.h ****  */
 314:C:\Workspaces\DAVE-4.1\Flightcontroller_PWM_CopterRocks_Working/Libraries/CMSIS/Include\cmsis_gcc.h **** __attribute__( ( always_inline ) ) __STATIC_INLINE uint32_t __get_FPSCR(void)
 315:C:\Workspaces\DAVE-4.1\Flightcontroller_PWM_CopterRocks_Working/Libraries/CMSIS/Include\cmsis_gcc.h **** {
 316:C:\Workspaces\DAVE-4.1\Flightcontroller_PWM_CopterRocks_Working/Libraries/CMSIS/Include\cmsis_gcc.h **** #if (__FPU_PRESENT == 1U) && (__FPU_USED == 1U)
 317:C:\Workspaces\DAVE-4.1\Flightcontroller_PWM_CopterRocks_Working/Libraries/CMSIS/Include\cmsis_gcc.h ****   uint32_t result;
 318:C:\Workspaces\DAVE-4.1\Flightcontroller_PWM_CopterRocks_Working/Libraries/CMSIS/Include\cmsis_gcc.h **** 
 319:C:\Workspaces\DAVE-4.1\Flightcontroller_PWM_CopterRocks_Working/Libraries/CMSIS/Include\cmsis_gcc.h ****   /* Empty asm statement works as a scheduling barrier */
 320:C:\Workspaces\DAVE-4.1\Flightcontroller_PWM_CopterRocks_Working/Libraries/CMSIS/Include\cmsis_gcc.h ****   __ASM volatile ("");
 321:C:\Workspaces\DAVE-4.1\Flightcontroller_PWM_CopterRocks_Working/Libraries/CMSIS/Include\cmsis_gcc.h ****   __ASM volatile ("VMRS %0, fpscr" : "=r" (result) );
 322:C:\Workspaces\DAVE-4.1\Flightcontroller_PWM_CopterRocks_Working/Libraries/CMSIS/Include\cmsis_gcc.h ****   __ASM volatile ("");
 323:C:\Workspaces\DAVE-4.1\Flightcontroller_PWM_CopterRocks_Working/Libraries/CMSIS/Include\cmsis_gcc.h ****   return(result);
 324:C:\Workspaces\DAVE-4.1\Flightcontroller_PWM_CopterRocks_Working/Libraries/CMSIS/Include\cmsis_gcc.h **** #else
 325:C:\Workspaces\DAVE-4.1\Flightcontroller_PWM_CopterRocks_Working/Libraries/CMSIS/Include\cmsis_gcc.h ****    return(0);
 326:C:\Workspaces\DAVE-4.1\Flightcontroller_PWM_CopterRocks_Working/Libraries/CMSIS/Include\cmsis_gcc.h **** #endif
 327:C:\Workspaces\DAVE-4.1\Flightcontroller_PWM_CopterRocks_Working/Libraries/CMSIS/Include\cmsis_gcc.h **** }
 328:C:\Workspaces\DAVE-4.1\Flightcontroller_PWM_CopterRocks_Working/Libraries/CMSIS/Include\cmsis_gcc.h **** 
 329:C:\Workspaces\DAVE-4.1\Flightcontroller_PWM_CopterRocks_Working/Libraries/CMSIS/Include\cmsis_gcc.h **** 
 330:C:\Workspaces\DAVE-4.1\Flightcontroller_PWM_CopterRocks_Working/Libraries/CMSIS/Include\cmsis_gcc.h **** /**
 331:C:\Workspaces\DAVE-4.1\Flightcontroller_PWM_CopterRocks_Working/Libraries/CMSIS/Include\cmsis_gcc.h ****   \brief   Set FPSCR
 332:C:\Workspaces\DAVE-4.1\Flightcontroller_PWM_CopterRocks_Working/Libraries/CMSIS/Include\cmsis_gcc.h ****   \details Assigns the given value to the Floating Point Status/Control register.
 333:C:\Workspaces\DAVE-4.1\Flightcontroller_PWM_CopterRocks_Working/Libraries/CMSIS/Include\cmsis_gcc.h ****   \param [in]    fpscr  Floating Point Status/Control value to set
 334:C:\Workspaces\DAVE-4.1\Flightcontroller_PWM_CopterRocks_Working/Libraries/CMSIS/Include\cmsis_gcc.h ****  */
 335:C:\Workspaces\DAVE-4.1\Flightcontroller_PWM_CopterRocks_Working/Libraries/CMSIS/Include\cmsis_gcc.h **** __attribute__( ( always_inline ) ) __STATIC_INLINE void __set_FPSCR(uint32_t fpscr)
 336:C:\Workspaces\DAVE-4.1\Flightcontroller_PWM_CopterRocks_Working/Libraries/CMSIS/Include\cmsis_gcc.h **** {
 337:C:\Workspaces\DAVE-4.1\Flightcontroller_PWM_CopterRocks_Working/Libraries/CMSIS/Include\cmsis_gcc.h **** #if (__FPU_PRESENT == 1U) && (__FPU_USED == 1U)
 338:C:\Workspaces\DAVE-4.1\Flightcontroller_PWM_CopterRocks_Working/Libraries/CMSIS/Include\cmsis_gcc.h ****   /* Empty asm statement works as a scheduling barrier */
 339:C:\Workspaces\DAVE-4.1\Flightcontroller_PWM_CopterRocks_Working/Libraries/CMSIS/Include\cmsis_gcc.h ****   __ASM volatile ("");
 340:C:\Workspaces\DAVE-4.1\Flightcontroller_PWM_CopterRocks_Working/Libraries/CMSIS/Include\cmsis_gcc.h ****   __ASM volatile ("VMSR fpscr, %0" : : "r" (fpscr) : "vfpcc");
 341:C:\Workspaces\DAVE-4.1\Flightcontroller_PWM_CopterRocks_Working/Libraries/CMSIS/Include\cmsis_gcc.h ****   __ASM volatile ("");
 342:C:\Workspaces\DAVE-4.1\Flightcontroller_PWM_CopterRocks_Working/Libraries/CMSIS/Include\cmsis_gcc.h **** #endif
 343:C:\Workspaces\DAVE-4.1\Flightcontroller_PWM_CopterRocks_Working/Libraries/CMSIS/Include\cmsis_gcc.h **** }
 344:C:\Workspaces\DAVE-4.1\Flightcontroller_PWM_CopterRocks_Working/Libraries/CMSIS/Include\cmsis_gcc.h **** 
 345:C:\Workspaces\DAVE-4.1\Flightcontroller_PWM_CopterRocks_Working/Libraries/CMSIS/Include\cmsis_gcc.h **** #endif /* (__CORTEX_M == 0x04U) || (__CORTEX_M == 0x07U) */
 346:C:\Workspaces\DAVE-4.1\Flightcontroller_PWM_CopterRocks_Working/Libraries/CMSIS/Include\cmsis_gcc.h **** 
 347:C:\Workspaces\DAVE-4.1\Flightcontroller_PWM_CopterRocks_Working/Libraries/CMSIS/Include\cmsis_gcc.h **** 
 348:C:\Workspaces\DAVE-4.1\Flightcontroller_PWM_CopterRocks_Working/Libraries/CMSIS/Include\cmsis_gcc.h **** 
 349:C:\Workspaces\DAVE-4.1\Flightcontroller_PWM_CopterRocks_Working/Libraries/CMSIS/Include\cmsis_gcc.h **** /*@} end of CMSIS_Core_RegAccFunctions */
 350:C:\Workspaces\DAVE-4.1\Flightcontroller_PWM_CopterRocks_Working/Libraries/CMSIS/Include\cmsis_gcc.h **** 
 351:C:\Workspaces\DAVE-4.1\Flightcontroller_PWM_CopterRocks_Working/Libraries/CMSIS/Include\cmsis_gcc.h **** 
 352:C:\Workspaces\DAVE-4.1\Flightcontroller_PWM_CopterRocks_Working/Libraries/CMSIS/Include\cmsis_gcc.h **** /* ##########################  Core Instruction Access  ######################### */
 353:C:\Workspaces\DAVE-4.1\Flightcontroller_PWM_CopterRocks_Working/Libraries/CMSIS/Include\cmsis_gcc.h **** /** \defgroup CMSIS_Core_InstructionInterface CMSIS Core Instruction Interface
 354:C:\Workspaces\DAVE-4.1\Flightcontroller_PWM_CopterRocks_Working/Libraries/CMSIS/Include\cmsis_gcc.h ****   Access to dedicated instructions
 355:C:\Workspaces\DAVE-4.1\Flightcontroller_PWM_CopterRocks_Working/Libraries/CMSIS/Include\cmsis_gcc.h ****   @{
 356:C:\Workspaces\DAVE-4.1\Flightcontroller_PWM_CopterRocks_Working/Libraries/CMSIS/Include\cmsis_gcc.h **** */
 357:C:\Workspaces\DAVE-4.1\Flightcontroller_PWM_CopterRocks_Working/Libraries/CMSIS/Include\cmsis_gcc.h **** 
 358:C:\Workspaces\DAVE-4.1\Flightcontroller_PWM_CopterRocks_Working/Libraries/CMSIS/Include\cmsis_gcc.h **** /* Define macros for porting to both thumb1 and thumb2.
 359:C:\Workspaces\DAVE-4.1\Flightcontroller_PWM_CopterRocks_Working/Libraries/CMSIS/Include\cmsis_gcc.h ****  * For thumb1, use low register (r0-r7), specified by constraint "l"
 360:C:\Workspaces\DAVE-4.1\Flightcontroller_PWM_CopterRocks_Working/Libraries/CMSIS/Include\cmsis_gcc.h ****  * Otherwise, use general registers, specified by constraint "r" */
 361:C:\Workspaces\DAVE-4.1\Flightcontroller_PWM_CopterRocks_Working/Libraries/CMSIS/Include\cmsis_gcc.h **** #if defined (__thumb__) && !defined (__thumb2__)
 362:C:\Workspaces\DAVE-4.1\Flightcontroller_PWM_CopterRocks_Working/Libraries/CMSIS/Include\cmsis_gcc.h **** #define __CMSIS_GCC_OUT_REG(r) "=l" (r)
 363:C:\Workspaces\DAVE-4.1\Flightcontroller_PWM_CopterRocks_Working/Libraries/CMSIS/Include\cmsis_gcc.h **** #define __CMSIS_GCC_USE_REG(r) "l" (r)
 364:C:\Workspaces\DAVE-4.1\Flightcontroller_PWM_CopterRocks_Working/Libraries/CMSIS/Include\cmsis_gcc.h **** #else
 365:C:\Workspaces\DAVE-4.1\Flightcontroller_PWM_CopterRocks_Working/Libraries/CMSIS/Include\cmsis_gcc.h **** #define __CMSIS_GCC_OUT_REG(r) "=r" (r)
 366:C:\Workspaces\DAVE-4.1\Flightcontroller_PWM_CopterRocks_Working/Libraries/CMSIS/Include\cmsis_gcc.h **** #define __CMSIS_GCC_USE_REG(r) "r" (r)
 367:C:\Workspaces\DAVE-4.1\Flightcontroller_PWM_CopterRocks_Working/Libraries/CMSIS/Include\cmsis_gcc.h **** #endif
 368:C:\Workspaces\DAVE-4.1\Flightcontroller_PWM_CopterRocks_Working/Libraries/CMSIS/Include\cmsis_gcc.h **** 
 369:C:\Workspaces\DAVE-4.1\Flightcontroller_PWM_CopterRocks_Working/Libraries/CMSIS/Include\cmsis_gcc.h **** /**
 370:C:\Workspaces\DAVE-4.1\Flightcontroller_PWM_CopterRocks_Working/Libraries/CMSIS/Include\cmsis_gcc.h ****   \brief   No Operation
 371:C:\Workspaces\DAVE-4.1\Flightcontroller_PWM_CopterRocks_Working/Libraries/CMSIS/Include\cmsis_gcc.h ****   \details No Operation does nothing. This instruction can be used for code alignment purposes.
 372:C:\Workspaces\DAVE-4.1\Flightcontroller_PWM_CopterRocks_Working/Libraries/CMSIS/Include\cmsis_gcc.h ****  */
 373:C:\Workspaces\DAVE-4.1\Flightcontroller_PWM_CopterRocks_Working/Libraries/CMSIS/Include\cmsis_gcc.h **** __attribute__((always_inline)) __STATIC_INLINE void __NOP(void)
 374:C:\Workspaces\DAVE-4.1\Flightcontroller_PWM_CopterRocks_Working/Libraries/CMSIS/Include\cmsis_gcc.h **** {
 375:C:\Workspaces\DAVE-4.1\Flightcontroller_PWM_CopterRocks_Working/Libraries/CMSIS/Include\cmsis_gcc.h ****   __ASM volatile ("nop");
 376:C:\Workspaces\DAVE-4.1\Flightcontroller_PWM_CopterRocks_Working/Libraries/CMSIS/Include\cmsis_gcc.h **** }
 377:C:\Workspaces\DAVE-4.1\Flightcontroller_PWM_CopterRocks_Working/Libraries/CMSIS/Include\cmsis_gcc.h **** 
 378:C:\Workspaces\DAVE-4.1\Flightcontroller_PWM_CopterRocks_Working/Libraries/CMSIS/Include\cmsis_gcc.h **** 
 379:C:\Workspaces\DAVE-4.1\Flightcontroller_PWM_CopterRocks_Working/Libraries/CMSIS/Include\cmsis_gcc.h **** /**
 380:C:\Workspaces\DAVE-4.1\Flightcontroller_PWM_CopterRocks_Working/Libraries/CMSIS/Include\cmsis_gcc.h ****   \brief   Wait For Interrupt
 381:C:\Workspaces\DAVE-4.1\Flightcontroller_PWM_CopterRocks_Working/Libraries/CMSIS/Include\cmsis_gcc.h ****   \details Wait For Interrupt is a hint instruction that suspends execution until one of a number o
 382:C:\Workspaces\DAVE-4.1\Flightcontroller_PWM_CopterRocks_Working/Libraries/CMSIS/Include\cmsis_gcc.h ****  */
 383:C:\Workspaces\DAVE-4.1\Flightcontroller_PWM_CopterRocks_Working/Libraries/CMSIS/Include\cmsis_gcc.h **** __attribute__((always_inline)) __STATIC_INLINE void __WFI(void)
 384:C:\Workspaces\DAVE-4.1\Flightcontroller_PWM_CopterRocks_Working/Libraries/CMSIS/Include\cmsis_gcc.h **** {
 385:C:\Workspaces\DAVE-4.1\Flightcontroller_PWM_CopterRocks_Working/Libraries/CMSIS/Include\cmsis_gcc.h ****   __ASM volatile ("wfi");
 386:C:\Workspaces\DAVE-4.1\Flightcontroller_PWM_CopterRocks_Working/Libraries/CMSIS/Include\cmsis_gcc.h **** }
 387:C:\Workspaces\DAVE-4.1\Flightcontroller_PWM_CopterRocks_Working/Libraries/CMSIS/Include\cmsis_gcc.h **** 
 388:C:\Workspaces\DAVE-4.1\Flightcontroller_PWM_CopterRocks_Working/Libraries/CMSIS/Include\cmsis_gcc.h **** 
 389:C:\Workspaces\DAVE-4.1\Flightcontroller_PWM_CopterRocks_Working/Libraries/CMSIS/Include\cmsis_gcc.h **** /**
 390:C:\Workspaces\DAVE-4.1\Flightcontroller_PWM_CopterRocks_Working/Libraries/CMSIS/Include\cmsis_gcc.h ****   \brief   Wait For Event
 391:C:\Workspaces\DAVE-4.1\Flightcontroller_PWM_CopterRocks_Working/Libraries/CMSIS/Include\cmsis_gcc.h ****   \details Wait For Event is a hint instruction that permits the processor to enter
 392:C:\Workspaces\DAVE-4.1\Flightcontroller_PWM_CopterRocks_Working/Libraries/CMSIS/Include\cmsis_gcc.h ****     a low-power state until one of a number of events occurs.
 393:C:\Workspaces\DAVE-4.1\Flightcontroller_PWM_CopterRocks_Working/Libraries/CMSIS/Include\cmsis_gcc.h ****  */
 394:C:\Workspaces\DAVE-4.1\Flightcontroller_PWM_CopterRocks_Working/Libraries/CMSIS/Include\cmsis_gcc.h **** __attribute__((always_inline)) __STATIC_INLINE void __WFE(void)
 395:C:\Workspaces\DAVE-4.1\Flightcontroller_PWM_CopterRocks_Working/Libraries/CMSIS/Include\cmsis_gcc.h **** {
 396:C:\Workspaces\DAVE-4.1\Flightcontroller_PWM_CopterRocks_Working/Libraries/CMSIS/Include\cmsis_gcc.h ****   __ASM volatile ("wfe");
 397:C:\Workspaces\DAVE-4.1\Flightcontroller_PWM_CopterRocks_Working/Libraries/CMSIS/Include\cmsis_gcc.h **** }
 398:C:\Workspaces\DAVE-4.1\Flightcontroller_PWM_CopterRocks_Working/Libraries/CMSIS/Include\cmsis_gcc.h **** 
 399:C:\Workspaces\DAVE-4.1\Flightcontroller_PWM_CopterRocks_Working/Libraries/CMSIS/Include\cmsis_gcc.h **** 
 400:C:\Workspaces\DAVE-4.1\Flightcontroller_PWM_CopterRocks_Working/Libraries/CMSIS/Include\cmsis_gcc.h **** /**
 401:C:\Workspaces\DAVE-4.1\Flightcontroller_PWM_CopterRocks_Working/Libraries/CMSIS/Include\cmsis_gcc.h ****   \brief   Send Event
 402:C:\Workspaces\DAVE-4.1\Flightcontroller_PWM_CopterRocks_Working/Libraries/CMSIS/Include\cmsis_gcc.h ****   \details Send Event is a hint instruction. It causes an event to be signaled to the CPU.
 403:C:\Workspaces\DAVE-4.1\Flightcontroller_PWM_CopterRocks_Working/Libraries/CMSIS/Include\cmsis_gcc.h ****  */
 404:C:\Workspaces\DAVE-4.1\Flightcontroller_PWM_CopterRocks_Working/Libraries/CMSIS/Include\cmsis_gcc.h **** __attribute__((always_inline)) __STATIC_INLINE void __SEV(void)
 405:C:\Workspaces\DAVE-4.1\Flightcontroller_PWM_CopterRocks_Working/Libraries/CMSIS/Include\cmsis_gcc.h **** {
 406:C:\Workspaces\DAVE-4.1\Flightcontroller_PWM_CopterRocks_Working/Libraries/CMSIS/Include\cmsis_gcc.h ****   __ASM volatile ("sev");
 407:C:\Workspaces\DAVE-4.1\Flightcontroller_PWM_CopterRocks_Working/Libraries/CMSIS/Include\cmsis_gcc.h **** }
 408:C:\Workspaces\DAVE-4.1\Flightcontroller_PWM_CopterRocks_Working/Libraries/CMSIS/Include\cmsis_gcc.h **** 
 409:C:\Workspaces\DAVE-4.1\Flightcontroller_PWM_CopterRocks_Working/Libraries/CMSIS/Include\cmsis_gcc.h **** 
 410:C:\Workspaces\DAVE-4.1\Flightcontroller_PWM_CopterRocks_Working/Libraries/CMSIS/Include\cmsis_gcc.h **** /**
 411:C:\Workspaces\DAVE-4.1\Flightcontroller_PWM_CopterRocks_Working/Libraries/CMSIS/Include\cmsis_gcc.h ****   \brief   Instruction Synchronization Barrier
 412:C:\Workspaces\DAVE-4.1\Flightcontroller_PWM_CopterRocks_Working/Libraries/CMSIS/Include\cmsis_gcc.h ****   \details Instruction Synchronization Barrier flushes the pipeline in the processor,
 413:C:\Workspaces\DAVE-4.1\Flightcontroller_PWM_CopterRocks_Working/Libraries/CMSIS/Include\cmsis_gcc.h ****            so that all instructions following the ISB are fetched from cache or memory,
 414:C:\Workspaces\DAVE-4.1\Flightcontroller_PWM_CopterRocks_Working/Libraries/CMSIS/Include\cmsis_gcc.h ****            after the instruction has been completed.
 415:C:\Workspaces\DAVE-4.1\Flightcontroller_PWM_CopterRocks_Working/Libraries/CMSIS/Include\cmsis_gcc.h ****  */
 416:C:\Workspaces\DAVE-4.1\Flightcontroller_PWM_CopterRocks_Working/Libraries/CMSIS/Include\cmsis_gcc.h **** __attribute__((always_inline)) __STATIC_INLINE void __ISB(void)
 417:C:\Workspaces\DAVE-4.1\Flightcontroller_PWM_CopterRocks_Working/Libraries/CMSIS/Include\cmsis_gcc.h **** {
 418:C:\Workspaces\DAVE-4.1\Flightcontroller_PWM_CopterRocks_Working/Libraries/CMSIS/Include\cmsis_gcc.h ****   __ASM volatile ("isb 0xF":::"memory");
 419:C:\Workspaces\DAVE-4.1\Flightcontroller_PWM_CopterRocks_Working/Libraries/CMSIS/Include\cmsis_gcc.h **** }
 420:C:\Workspaces\DAVE-4.1\Flightcontroller_PWM_CopterRocks_Working/Libraries/CMSIS/Include\cmsis_gcc.h **** 
 421:C:\Workspaces\DAVE-4.1\Flightcontroller_PWM_CopterRocks_Working/Libraries/CMSIS/Include\cmsis_gcc.h **** 
 422:C:\Workspaces\DAVE-4.1\Flightcontroller_PWM_CopterRocks_Working/Libraries/CMSIS/Include\cmsis_gcc.h **** /**
 423:C:\Workspaces\DAVE-4.1\Flightcontroller_PWM_CopterRocks_Working/Libraries/CMSIS/Include\cmsis_gcc.h ****   \brief   Data Synchronization Barrier
 424:C:\Workspaces\DAVE-4.1\Flightcontroller_PWM_CopterRocks_Working/Libraries/CMSIS/Include\cmsis_gcc.h ****   \details Acts as a special kind of Data Memory Barrier.
 425:C:\Workspaces\DAVE-4.1\Flightcontroller_PWM_CopterRocks_Working/Libraries/CMSIS/Include\cmsis_gcc.h ****            It completes when all explicit memory accesses before this instruction complete.
 426:C:\Workspaces\DAVE-4.1\Flightcontroller_PWM_CopterRocks_Working/Libraries/CMSIS/Include\cmsis_gcc.h ****  */
 427:C:\Workspaces\DAVE-4.1\Flightcontroller_PWM_CopterRocks_Working/Libraries/CMSIS/Include\cmsis_gcc.h **** __attribute__((always_inline)) __STATIC_INLINE void __DSB(void)
 428:C:\Workspaces\DAVE-4.1\Flightcontroller_PWM_CopterRocks_Working/Libraries/CMSIS/Include\cmsis_gcc.h **** {
 429:C:\Workspaces\DAVE-4.1\Flightcontroller_PWM_CopterRocks_Working/Libraries/CMSIS/Include\cmsis_gcc.h ****   __ASM volatile ("dsb 0xF":::"memory");
 430:C:\Workspaces\DAVE-4.1\Flightcontroller_PWM_CopterRocks_Working/Libraries/CMSIS/Include\cmsis_gcc.h **** }
 431:C:\Workspaces\DAVE-4.1\Flightcontroller_PWM_CopterRocks_Working/Libraries/CMSIS/Include\cmsis_gcc.h **** 
 432:C:\Workspaces\DAVE-4.1\Flightcontroller_PWM_CopterRocks_Working/Libraries/CMSIS/Include\cmsis_gcc.h **** 
 433:C:\Workspaces\DAVE-4.1\Flightcontroller_PWM_CopterRocks_Working/Libraries/CMSIS/Include\cmsis_gcc.h **** /**
 434:C:\Workspaces\DAVE-4.1\Flightcontroller_PWM_CopterRocks_Working/Libraries/CMSIS/Include\cmsis_gcc.h ****   \brief   Data Memory Barrier
 435:C:\Workspaces\DAVE-4.1\Flightcontroller_PWM_CopterRocks_Working/Libraries/CMSIS/Include\cmsis_gcc.h ****   \details Ensures the apparent order of the explicit memory operations before
 436:C:\Workspaces\DAVE-4.1\Flightcontroller_PWM_CopterRocks_Working/Libraries/CMSIS/Include\cmsis_gcc.h ****            and after the instruction, without ensuring their completion.
 437:C:\Workspaces\DAVE-4.1\Flightcontroller_PWM_CopterRocks_Working/Libraries/CMSIS/Include\cmsis_gcc.h ****  */
 438:C:\Workspaces\DAVE-4.1\Flightcontroller_PWM_CopterRocks_Working/Libraries/CMSIS/Include\cmsis_gcc.h **** __attribute__((always_inline)) __STATIC_INLINE void __DMB(void)
 439:C:\Workspaces\DAVE-4.1\Flightcontroller_PWM_CopterRocks_Working/Libraries/CMSIS/Include\cmsis_gcc.h **** {
 440:C:\Workspaces\DAVE-4.1\Flightcontroller_PWM_CopterRocks_Working/Libraries/CMSIS/Include\cmsis_gcc.h ****   __ASM volatile ("dmb 0xF":::"memory");
 441:C:\Workspaces\DAVE-4.1\Flightcontroller_PWM_CopterRocks_Working/Libraries/CMSIS/Include\cmsis_gcc.h **** }
 442:C:\Workspaces\DAVE-4.1\Flightcontroller_PWM_CopterRocks_Working/Libraries/CMSIS/Include\cmsis_gcc.h **** 
 443:C:\Workspaces\DAVE-4.1\Flightcontroller_PWM_CopterRocks_Working/Libraries/CMSIS/Include\cmsis_gcc.h **** 
 444:C:\Workspaces\DAVE-4.1\Flightcontroller_PWM_CopterRocks_Working/Libraries/CMSIS/Include\cmsis_gcc.h **** /**
 445:C:\Workspaces\DAVE-4.1\Flightcontroller_PWM_CopterRocks_Working/Libraries/CMSIS/Include\cmsis_gcc.h ****   \brief   Reverse byte order (32 bit)
 446:C:\Workspaces\DAVE-4.1\Flightcontroller_PWM_CopterRocks_Working/Libraries/CMSIS/Include\cmsis_gcc.h ****   \details Reverses the byte order in integer value.
 447:C:\Workspaces\DAVE-4.1\Flightcontroller_PWM_CopterRocks_Working/Libraries/CMSIS/Include\cmsis_gcc.h ****   \param [in]    value  Value to reverse
 448:C:\Workspaces\DAVE-4.1\Flightcontroller_PWM_CopterRocks_Working/Libraries/CMSIS/Include\cmsis_gcc.h ****   \return               Reversed value
 449:C:\Workspaces\DAVE-4.1\Flightcontroller_PWM_CopterRocks_Working/Libraries/CMSIS/Include\cmsis_gcc.h ****  */
 450:C:\Workspaces\DAVE-4.1\Flightcontroller_PWM_CopterRocks_Working/Libraries/CMSIS/Include\cmsis_gcc.h **** __attribute__((always_inline)) __STATIC_INLINE uint32_t __REV(uint32_t value)
 451:C:\Workspaces\DAVE-4.1\Flightcontroller_PWM_CopterRocks_Working/Libraries/CMSIS/Include\cmsis_gcc.h **** {
 452:C:\Workspaces\DAVE-4.1\Flightcontroller_PWM_CopterRocks_Working/Libraries/CMSIS/Include\cmsis_gcc.h **** #if (__GNUC__ > 4) || (__GNUC__ == 4 && __GNUC_MINOR__ >= 5)
 453:C:\Workspaces\DAVE-4.1\Flightcontroller_PWM_CopterRocks_Working/Libraries/CMSIS/Include\cmsis_gcc.h ****   return __builtin_bswap32(value);
 454:C:\Workspaces\DAVE-4.1\Flightcontroller_PWM_CopterRocks_Working/Libraries/CMSIS/Include\cmsis_gcc.h **** #else
 455:C:\Workspaces\DAVE-4.1\Flightcontroller_PWM_CopterRocks_Working/Libraries/CMSIS/Include\cmsis_gcc.h ****   uint32_t result;
 456:C:\Workspaces\DAVE-4.1\Flightcontroller_PWM_CopterRocks_Working/Libraries/CMSIS/Include\cmsis_gcc.h **** 
 457:C:\Workspaces\DAVE-4.1\Flightcontroller_PWM_CopterRocks_Working/Libraries/CMSIS/Include\cmsis_gcc.h ****   __ASM volatile ("rev %0, %1" : __CMSIS_GCC_OUT_REG (result) : __CMSIS_GCC_USE_REG (value) );
 458:C:\Workspaces\DAVE-4.1\Flightcontroller_PWM_CopterRocks_Working/Libraries/CMSIS/Include\cmsis_gcc.h ****   return(result);
 459:C:\Workspaces\DAVE-4.1\Flightcontroller_PWM_CopterRocks_Working/Libraries/CMSIS/Include\cmsis_gcc.h **** #endif
 460:C:\Workspaces\DAVE-4.1\Flightcontroller_PWM_CopterRocks_Working/Libraries/CMSIS/Include\cmsis_gcc.h **** }
 461:C:\Workspaces\DAVE-4.1\Flightcontroller_PWM_CopterRocks_Working/Libraries/CMSIS/Include\cmsis_gcc.h **** 
 462:C:\Workspaces\DAVE-4.1\Flightcontroller_PWM_CopterRocks_Working/Libraries/CMSIS/Include\cmsis_gcc.h **** 
 463:C:\Workspaces\DAVE-4.1\Flightcontroller_PWM_CopterRocks_Working/Libraries/CMSIS/Include\cmsis_gcc.h **** /**
 464:C:\Workspaces\DAVE-4.1\Flightcontroller_PWM_CopterRocks_Working/Libraries/CMSIS/Include\cmsis_gcc.h ****   \brief   Reverse byte order (16 bit)
 465:C:\Workspaces\DAVE-4.1\Flightcontroller_PWM_CopterRocks_Working/Libraries/CMSIS/Include\cmsis_gcc.h ****   \details Reverses the byte order in two unsigned short values.
 466:C:\Workspaces\DAVE-4.1\Flightcontroller_PWM_CopterRocks_Working/Libraries/CMSIS/Include\cmsis_gcc.h ****   \param [in]    value  Value to reverse
 467:C:\Workspaces\DAVE-4.1\Flightcontroller_PWM_CopterRocks_Working/Libraries/CMSIS/Include\cmsis_gcc.h ****   \return               Reversed value
 468:C:\Workspaces\DAVE-4.1\Flightcontroller_PWM_CopterRocks_Working/Libraries/CMSIS/Include\cmsis_gcc.h ****  */
 469:C:\Workspaces\DAVE-4.1\Flightcontroller_PWM_CopterRocks_Working/Libraries/CMSIS/Include\cmsis_gcc.h **** __attribute__((always_inline)) __STATIC_INLINE uint32_t __REV16(uint32_t value)
 470:C:\Workspaces\DAVE-4.1\Flightcontroller_PWM_CopterRocks_Working/Libraries/CMSIS/Include\cmsis_gcc.h **** {
 471:C:\Workspaces\DAVE-4.1\Flightcontroller_PWM_CopterRocks_Working/Libraries/CMSIS/Include\cmsis_gcc.h ****   uint32_t result;
 472:C:\Workspaces\DAVE-4.1\Flightcontroller_PWM_CopterRocks_Working/Libraries/CMSIS/Include\cmsis_gcc.h **** 
 473:C:\Workspaces\DAVE-4.1\Flightcontroller_PWM_CopterRocks_Working/Libraries/CMSIS/Include\cmsis_gcc.h ****   __ASM volatile ("rev16 %0, %1" : __CMSIS_GCC_OUT_REG (result) : __CMSIS_GCC_USE_REG (value) );
 474:C:\Workspaces\DAVE-4.1\Flightcontroller_PWM_CopterRocks_Working/Libraries/CMSIS/Include\cmsis_gcc.h ****   return(result);
 475:C:\Workspaces\DAVE-4.1\Flightcontroller_PWM_CopterRocks_Working/Libraries/CMSIS/Include\cmsis_gcc.h **** }
 476:C:\Workspaces\DAVE-4.1\Flightcontroller_PWM_CopterRocks_Working/Libraries/CMSIS/Include\cmsis_gcc.h **** 
 477:C:\Workspaces\DAVE-4.1\Flightcontroller_PWM_CopterRocks_Working/Libraries/CMSIS/Include\cmsis_gcc.h **** 
 478:C:\Workspaces\DAVE-4.1\Flightcontroller_PWM_CopterRocks_Working/Libraries/CMSIS/Include\cmsis_gcc.h **** /**
 479:C:\Workspaces\DAVE-4.1\Flightcontroller_PWM_CopterRocks_Working/Libraries/CMSIS/Include\cmsis_gcc.h ****   \brief   Reverse byte order in signed short value
 480:C:\Workspaces\DAVE-4.1\Flightcontroller_PWM_CopterRocks_Working/Libraries/CMSIS/Include\cmsis_gcc.h ****   \details Reverses the byte order in a signed short value with sign extension to integer.
 481:C:\Workspaces\DAVE-4.1\Flightcontroller_PWM_CopterRocks_Working/Libraries/CMSIS/Include\cmsis_gcc.h ****   \param [in]    value  Value to reverse
 482:C:\Workspaces\DAVE-4.1\Flightcontroller_PWM_CopterRocks_Working/Libraries/CMSIS/Include\cmsis_gcc.h ****   \return               Reversed value
 483:C:\Workspaces\DAVE-4.1\Flightcontroller_PWM_CopterRocks_Working/Libraries/CMSIS/Include\cmsis_gcc.h ****  */
 484:C:\Workspaces\DAVE-4.1\Flightcontroller_PWM_CopterRocks_Working/Libraries/CMSIS/Include\cmsis_gcc.h **** __attribute__((always_inline)) __STATIC_INLINE int32_t __REVSH(int32_t value)
 485:C:\Workspaces\DAVE-4.1\Flightcontroller_PWM_CopterRocks_Working/Libraries/CMSIS/Include\cmsis_gcc.h **** {
 486:C:\Workspaces\DAVE-4.1\Flightcontroller_PWM_CopterRocks_Working/Libraries/CMSIS/Include\cmsis_gcc.h **** #if (__GNUC__ > 4) || (__GNUC__ == 4 && __GNUC_MINOR__ >= 8)
 487:C:\Workspaces\DAVE-4.1\Flightcontroller_PWM_CopterRocks_Working/Libraries/CMSIS/Include\cmsis_gcc.h ****   return (short)__builtin_bswap16(value);
 488:C:\Workspaces\DAVE-4.1\Flightcontroller_PWM_CopterRocks_Working/Libraries/CMSIS/Include\cmsis_gcc.h **** #else
 489:C:\Workspaces\DAVE-4.1\Flightcontroller_PWM_CopterRocks_Working/Libraries/CMSIS/Include\cmsis_gcc.h ****   int32_t result;
 490:C:\Workspaces\DAVE-4.1\Flightcontroller_PWM_CopterRocks_Working/Libraries/CMSIS/Include\cmsis_gcc.h **** 
 491:C:\Workspaces\DAVE-4.1\Flightcontroller_PWM_CopterRocks_Working/Libraries/CMSIS/Include\cmsis_gcc.h ****   __ASM volatile ("revsh %0, %1" : __CMSIS_GCC_OUT_REG (result) : __CMSIS_GCC_USE_REG (value) );
 492:C:\Workspaces\DAVE-4.1\Flightcontroller_PWM_CopterRocks_Working/Libraries/CMSIS/Include\cmsis_gcc.h ****   return(result);
 493:C:\Workspaces\DAVE-4.1\Flightcontroller_PWM_CopterRocks_Working/Libraries/CMSIS/Include\cmsis_gcc.h **** #endif
 494:C:\Workspaces\DAVE-4.1\Flightcontroller_PWM_CopterRocks_Working/Libraries/CMSIS/Include\cmsis_gcc.h **** }
 495:C:\Workspaces\DAVE-4.1\Flightcontroller_PWM_CopterRocks_Working/Libraries/CMSIS/Include\cmsis_gcc.h **** 
 496:C:\Workspaces\DAVE-4.1\Flightcontroller_PWM_CopterRocks_Working/Libraries/CMSIS/Include\cmsis_gcc.h **** 
 497:C:\Workspaces\DAVE-4.1\Flightcontroller_PWM_CopterRocks_Working/Libraries/CMSIS/Include\cmsis_gcc.h **** /**
 498:C:\Workspaces\DAVE-4.1\Flightcontroller_PWM_CopterRocks_Working/Libraries/CMSIS/Include\cmsis_gcc.h ****   \brief   Rotate Right in unsigned value (32 bit)
 499:C:\Workspaces\DAVE-4.1\Flightcontroller_PWM_CopterRocks_Working/Libraries/CMSIS/Include\cmsis_gcc.h ****   \details Rotate Right (immediate) provides the value of the contents of a register rotated by a v
 500:C:\Workspaces\DAVE-4.1\Flightcontroller_PWM_CopterRocks_Working/Libraries/CMSIS/Include\cmsis_gcc.h ****   \param [in]    value  Value to rotate
 501:C:\Workspaces\DAVE-4.1\Flightcontroller_PWM_CopterRocks_Working/Libraries/CMSIS/Include\cmsis_gcc.h ****   \param [in]    value  Number of Bits to rotate
 502:C:\Workspaces\DAVE-4.1\Flightcontroller_PWM_CopterRocks_Working/Libraries/CMSIS/Include\cmsis_gcc.h ****   \return               Rotated value
 503:C:\Workspaces\DAVE-4.1\Flightcontroller_PWM_CopterRocks_Working/Libraries/CMSIS/Include\cmsis_gcc.h ****  */
 504:C:\Workspaces\DAVE-4.1\Flightcontroller_PWM_CopterRocks_Working/Libraries/CMSIS/Include\cmsis_gcc.h **** __attribute__((always_inline)) __STATIC_INLINE uint32_t __ROR(uint32_t op1, uint32_t op2)
 505:C:\Workspaces\DAVE-4.1\Flightcontroller_PWM_CopterRocks_Working/Libraries/CMSIS/Include\cmsis_gcc.h **** {
 506:C:\Workspaces\DAVE-4.1\Flightcontroller_PWM_CopterRocks_Working/Libraries/CMSIS/Include\cmsis_gcc.h ****   return (op1 >> op2) | (op1 << (32U - op2));
 507:C:\Workspaces\DAVE-4.1\Flightcontroller_PWM_CopterRocks_Working/Libraries/CMSIS/Include\cmsis_gcc.h **** }
 508:C:\Workspaces\DAVE-4.1\Flightcontroller_PWM_CopterRocks_Working/Libraries/CMSIS/Include\cmsis_gcc.h **** 
 509:C:\Workspaces\DAVE-4.1\Flightcontroller_PWM_CopterRocks_Working/Libraries/CMSIS/Include\cmsis_gcc.h **** 
 510:C:\Workspaces\DAVE-4.1\Flightcontroller_PWM_CopterRocks_Working/Libraries/CMSIS/Include\cmsis_gcc.h **** /**
 511:C:\Workspaces\DAVE-4.1\Flightcontroller_PWM_CopterRocks_Working/Libraries/CMSIS/Include\cmsis_gcc.h ****   \brief   Breakpoint
 512:C:\Workspaces\DAVE-4.1\Flightcontroller_PWM_CopterRocks_Working/Libraries/CMSIS/Include\cmsis_gcc.h ****   \details Causes the processor to enter Debug state.
 513:C:\Workspaces\DAVE-4.1\Flightcontroller_PWM_CopterRocks_Working/Libraries/CMSIS/Include\cmsis_gcc.h ****            Debug tools can use this to investigate system state when the instruction at a particula
 514:C:\Workspaces\DAVE-4.1\Flightcontroller_PWM_CopterRocks_Working/Libraries/CMSIS/Include\cmsis_gcc.h ****   \param [in]    value  is ignored by the processor.
 515:C:\Workspaces\DAVE-4.1\Flightcontroller_PWM_CopterRocks_Working/Libraries/CMSIS/Include\cmsis_gcc.h ****                  If required, a debugger can use it to store additional information about the break
 516:C:\Workspaces\DAVE-4.1\Flightcontroller_PWM_CopterRocks_Working/Libraries/CMSIS/Include\cmsis_gcc.h ****  */
 517:C:\Workspaces\DAVE-4.1\Flightcontroller_PWM_CopterRocks_Working/Libraries/CMSIS/Include\cmsis_gcc.h **** #define __BKPT(value)                       __ASM volatile ("bkpt "#value)
 518:C:\Workspaces\DAVE-4.1\Flightcontroller_PWM_CopterRocks_Working/Libraries/CMSIS/Include\cmsis_gcc.h **** 
 519:C:\Workspaces\DAVE-4.1\Flightcontroller_PWM_CopterRocks_Working/Libraries/CMSIS/Include\cmsis_gcc.h **** 
 520:C:\Workspaces\DAVE-4.1\Flightcontroller_PWM_CopterRocks_Working/Libraries/CMSIS/Include\cmsis_gcc.h **** /**
 521:C:\Workspaces\DAVE-4.1\Flightcontroller_PWM_CopterRocks_Working/Libraries/CMSIS/Include\cmsis_gcc.h ****   \brief   Reverse bit order of value
 522:C:\Workspaces\DAVE-4.1\Flightcontroller_PWM_CopterRocks_Working/Libraries/CMSIS/Include\cmsis_gcc.h ****   \details Reverses the bit order of the given value.
 523:C:\Workspaces\DAVE-4.1\Flightcontroller_PWM_CopterRocks_Working/Libraries/CMSIS/Include\cmsis_gcc.h ****   \param [in]    value  Value to reverse
 524:C:\Workspaces\DAVE-4.1\Flightcontroller_PWM_CopterRocks_Working/Libraries/CMSIS/Include\cmsis_gcc.h ****   \return               Reversed value
 525:C:\Workspaces\DAVE-4.1\Flightcontroller_PWM_CopterRocks_Working/Libraries/CMSIS/Include\cmsis_gcc.h ****  */
 526:C:\Workspaces\DAVE-4.1\Flightcontroller_PWM_CopterRocks_Working/Libraries/CMSIS/Include\cmsis_gcc.h **** __attribute__((always_inline)) __STATIC_INLINE uint32_t __RBIT(uint32_t value)
 527:C:\Workspaces\DAVE-4.1\Flightcontroller_PWM_CopterRocks_Working/Libraries/CMSIS/Include\cmsis_gcc.h **** {
 528:C:\Workspaces\DAVE-4.1\Flightcontroller_PWM_CopterRocks_Working/Libraries/CMSIS/Include\cmsis_gcc.h ****   uint32_t result;
 529:C:\Workspaces\DAVE-4.1\Flightcontroller_PWM_CopterRocks_Working/Libraries/CMSIS/Include\cmsis_gcc.h **** 
 530:C:\Workspaces\DAVE-4.1\Flightcontroller_PWM_CopterRocks_Working/Libraries/CMSIS/Include\cmsis_gcc.h **** #if       (__CORTEX_M >= 0x03U) || (__CORTEX_SC >= 300U)
 531:C:\Workspaces\DAVE-4.1\Flightcontroller_PWM_CopterRocks_Working/Libraries/CMSIS/Include\cmsis_gcc.h ****    __ASM volatile ("rbit %0, %1" : "=r" (result) : "r" (value) );
 532:C:\Workspaces\DAVE-4.1\Flightcontroller_PWM_CopterRocks_Working/Libraries/CMSIS/Include\cmsis_gcc.h **** #else
 533:C:\Workspaces\DAVE-4.1\Flightcontroller_PWM_CopterRocks_Working/Libraries/CMSIS/Include\cmsis_gcc.h ****   int32_t s = 4 /*sizeof(v)*/ * 8 - 1; /* extra shift needed at end */
 534:C:\Workspaces\DAVE-4.1\Flightcontroller_PWM_CopterRocks_Working/Libraries/CMSIS/Include\cmsis_gcc.h **** 
 535:C:\Workspaces\DAVE-4.1\Flightcontroller_PWM_CopterRocks_Working/Libraries/CMSIS/Include\cmsis_gcc.h ****   result = value;                      /* r will be reversed bits of v; first get LSB of v */
 536:C:\Workspaces\DAVE-4.1\Flightcontroller_PWM_CopterRocks_Working/Libraries/CMSIS/Include\cmsis_gcc.h ****   for (value >>= 1U; value; value >>= 1U)
 537:C:\Workspaces\DAVE-4.1\Flightcontroller_PWM_CopterRocks_Working/Libraries/CMSIS/Include\cmsis_gcc.h ****   {
 538:C:\Workspaces\DAVE-4.1\Flightcontroller_PWM_CopterRocks_Working/Libraries/CMSIS/Include\cmsis_gcc.h ****     result <<= 1U;
 539:C:\Workspaces\DAVE-4.1\Flightcontroller_PWM_CopterRocks_Working/Libraries/CMSIS/Include\cmsis_gcc.h ****     result |= value & 1U;
 540:C:\Workspaces\DAVE-4.1\Flightcontroller_PWM_CopterRocks_Working/Libraries/CMSIS/Include\cmsis_gcc.h ****     s--;
 541:C:\Workspaces\DAVE-4.1\Flightcontroller_PWM_CopterRocks_Working/Libraries/CMSIS/Include\cmsis_gcc.h ****   }
 542:C:\Workspaces\DAVE-4.1\Flightcontroller_PWM_CopterRocks_Working/Libraries/CMSIS/Include\cmsis_gcc.h ****   result <<= s;                        /* shift when v's highest bits are zero */
 543:C:\Workspaces\DAVE-4.1\Flightcontroller_PWM_CopterRocks_Working/Libraries/CMSIS/Include\cmsis_gcc.h **** #endif
 544:C:\Workspaces\DAVE-4.1\Flightcontroller_PWM_CopterRocks_Working/Libraries/CMSIS/Include\cmsis_gcc.h ****   return(result);
 545:C:\Workspaces\DAVE-4.1\Flightcontroller_PWM_CopterRocks_Working/Libraries/CMSIS/Include\cmsis_gcc.h **** }
 546:C:\Workspaces\DAVE-4.1\Flightcontroller_PWM_CopterRocks_Working/Libraries/CMSIS/Include\cmsis_gcc.h **** 
 547:C:\Workspaces\DAVE-4.1\Flightcontroller_PWM_CopterRocks_Working/Libraries/CMSIS/Include\cmsis_gcc.h **** 
 548:C:\Workspaces\DAVE-4.1\Flightcontroller_PWM_CopterRocks_Working/Libraries/CMSIS/Include\cmsis_gcc.h **** /**
 549:C:\Workspaces\DAVE-4.1\Flightcontroller_PWM_CopterRocks_Working/Libraries/CMSIS/Include\cmsis_gcc.h ****   \brief   Count leading zeros
 550:C:\Workspaces\DAVE-4.1\Flightcontroller_PWM_CopterRocks_Working/Libraries/CMSIS/Include\cmsis_gcc.h ****   \details Counts the number of leading zeros of a data value.
 551:C:\Workspaces\DAVE-4.1\Flightcontroller_PWM_CopterRocks_Working/Libraries/CMSIS/Include\cmsis_gcc.h ****   \param [in]  value  Value to count the leading zeros
 552:C:\Workspaces\DAVE-4.1\Flightcontroller_PWM_CopterRocks_Working/Libraries/CMSIS/Include\cmsis_gcc.h ****   \return             number of leading zeros in value
 553:C:\Workspaces\DAVE-4.1\Flightcontroller_PWM_CopterRocks_Working/Libraries/CMSIS/Include\cmsis_gcc.h ****  */
 554:C:\Workspaces\DAVE-4.1\Flightcontroller_PWM_CopterRocks_Working/Libraries/CMSIS/Include\cmsis_gcc.h **** #define __CLZ             __builtin_clz
 555:C:\Workspaces\DAVE-4.1\Flightcontroller_PWM_CopterRocks_Working/Libraries/CMSIS/Include\cmsis_gcc.h **** 
 556:C:\Workspaces\DAVE-4.1\Flightcontroller_PWM_CopterRocks_Working/Libraries/CMSIS/Include\cmsis_gcc.h **** 
 557:C:\Workspaces\DAVE-4.1\Flightcontroller_PWM_CopterRocks_Working/Libraries/CMSIS/Include\cmsis_gcc.h **** #if       (__CORTEX_M >= 0x03U) || (__CORTEX_SC >= 300U)
 558:C:\Workspaces\DAVE-4.1\Flightcontroller_PWM_CopterRocks_Working/Libraries/CMSIS/Include\cmsis_gcc.h **** 
 559:C:\Workspaces\DAVE-4.1\Flightcontroller_PWM_CopterRocks_Working/Libraries/CMSIS/Include\cmsis_gcc.h **** /**
 560:C:\Workspaces\DAVE-4.1\Flightcontroller_PWM_CopterRocks_Working/Libraries/CMSIS/Include\cmsis_gcc.h ****   \brief   LDR Exclusive (8 bit)
 561:C:\Workspaces\DAVE-4.1\Flightcontroller_PWM_CopterRocks_Working/Libraries/CMSIS/Include\cmsis_gcc.h ****   \details Executes a exclusive LDR instruction for 8 bit value.
 562:C:\Workspaces\DAVE-4.1\Flightcontroller_PWM_CopterRocks_Working/Libraries/CMSIS/Include\cmsis_gcc.h ****   \param [in]    ptr  Pointer to data
 563:C:\Workspaces\DAVE-4.1\Flightcontroller_PWM_CopterRocks_Working/Libraries/CMSIS/Include\cmsis_gcc.h ****   \return             value of type uint8_t at (*ptr)
 564:C:\Workspaces\DAVE-4.1\Flightcontroller_PWM_CopterRocks_Working/Libraries/CMSIS/Include\cmsis_gcc.h ****  */
 565:C:\Workspaces\DAVE-4.1\Flightcontroller_PWM_CopterRocks_Working/Libraries/CMSIS/Include\cmsis_gcc.h **** __attribute__((always_inline)) __STATIC_INLINE uint8_t __LDREXB(volatile uint8_t *addr)
 566:C:\Workspaces\DAVE-4.1\Flightcontroller_PWM_CopterRocks_Working/Libraries/CMSIS/Include\cmsis_gcc.h **** {
 567:C:\Workspaces\DAVE-4.1\Flightcontroller_PWM_CopterRocks_Working/Libraries/CMSIS/Include\cmsis_gcc.h ****     uint32_t result;
 568:C:\Workspaces\DAVE-4.1\Flightcontroller_PWM_CopterRocks_Working/Libraries/CMSIS/Include\cmsis_gcc.h **** 
 569:C:\Workspaces\DAVE-4.1\Flightcontroller_PWM_CopterRocks_Working/Libraries/CMSIS/Include\cmsis_gcc.h **** #if (__GNUC__ > 4) || (__GNUC__ == 4 && __GNUC_MINOR__ >= 8)
 570:C:\Workspaces\DAVE-4.1\Flightcontroller_PWM_CopterRocks_Working/Libraries/CMSIS/Include\cmsis_gcc.h ****    __ASM volatile ("ldrexb %0, %1" : "=r" (result) : "Q" (*addr) );
 571:C:\Workspaces\DAVE-4.1\Flightcontroller_PWM_CopterRocks_Working/Libraries/CMSIS/Include\cmsis_gcc.h **** #else
 572:C:\Workspaces\DAVE-4.1\Flightcontroller_PWM_CopterRocks_Working/Libraries/CMSIS/Include\cmsis_gcc.h ****     /* Prior to GCC 4.8, "Q" will be expanded to [rx, #0] which is not
 573:C:\Workspaces\DAVE-4.1\Flightcontroller_PWM_CopterRocks_Working/Libraries/CMSIS/Include\cmsis_gcc.h ****        accepted by assembler. So has to use following less efficient pattern.
 574:C:\Workspaces\DAVE-4.1\Flightcontroller_PWM_CopterRocks_Working/Libraries/CMSIS/Include\cmsis_gcc.h ****     */
 575:C:\Workspaces\DAVE-4.1\Flightcontroller_PWM_CopterRocks_Working/Libraries/CMSIS/Include\cmsis_gcc.h ****    __ASM volatile ("ldrexb %0, [%1]" : "=r" (result) : "r" (addr) : "memory" );
 576:C:\Workspaces\DAVE-4.1\Flightcontroller_PWM_CopterRocks_Working/Libraries/CMSIS/Include\cmsis_gcc.h **** #endif
 577:C:\Workspaces\DAVE-4.1\Flightcontroller_PWM_CopterRocks_Working/Libraries/CMSIS/Include\cmsis_gcc.h ****    return ((uint8_t) result);    /* Add explicit type cast here */
 578:C:\Workspaces\DAVE-4.1\Flightcontroller_PWM_CopterRocks_Working/Libraries/CMSIS/Include\cmsis_gcc.h **** }
 579:C:\Workspaces\DAVE-4.1\Flightcontroller_PWM_CopterRocks_Working/Libraries/CMSIS/Include\cmsis_gcc.h **** 
 580:C:\Workspaces\DAVE-4.1\Flightcontroller_PWM_CopterRocks_Working/Libraries/CMSIS/Include\cmsis_gcc.h **** 
 581:C:\Workspaces\DAVE-4.1\Flightcontroller_PWM_CopterRocks_Working/Libraries/CMSIS/Include\cmsis_gcc.h **** /**
 582:C:\Workspaces\DAVE-4.1\Flightcontroller_PWM_CopterRocks_Working/Libraries/CMSIS/Include\cmsis_gcc.h ****   \brief   LDR Exclusive (16 bit)
 583:C:\Workspaces\DAVE-4.1\Flightcontroller_PWM_CopterRocks_Working/Libraries/CMSIS/Include\cmsis_gcc.h ****   \details Executes a exclusive LDR instruction for 16 bit values.
 584:C:\Workspaces\DAVE-4.1\Flightcontroller_PWM_CopterRocks_Working/Libraries/CMSIS/Include\cmsis_gcc.h ****   \param [in]    ptr  Pointer to data
 585:C:\Workspaces\DAVE-4.1\Flightcontroller_PWM_CopterRocks_Working/Libraries/CMSIS/Include\cmsis_gcc.h ****   \return        value of type uint16_t at (*ptr)
 586:C:\Workspaces\DAVE-4.1\Flightcontroller_PWM_CopterRocks_Working/Libraries/CMSIS/Include\cmsis_gcc.h ****  */
 587:C:\Workspaces\DAVE-4.1\Flightcontroller_PWM_CopterRocks_Working/Libraries/CMSIS/Include\cmsis_gcc.h **** __attribute__((always_inline)) __STATIC_INLINE uint16_t __LDREXH(volatile uint16_t *addr)
 588:C:\Workspaces\DAVE-4.1\Flightcontroller_PWM_CopterRocks_Working/Libraries/CMSIS/Include\cmsis_gcc.h **** {
 589:C:\Workspaces\DAVE-4.1\Flightcontroller_PWM_CopterRocks_Working/Libraries/CMSIS/Include\cmsis_gcc.h ****     uint32_t result;
 590:C:\Workspaces\DAVE-4.1\Flightcontroller_PWM_CopterRocks_Working/Libraries/CMSIS/Include\cmsis_gcc.h **** 
 591:C:\Workspaces\DAVE-4.1\Flightcontroller_PWM_CopterRocks_Working/Libraries/CMSIS/Include\cmsis_gcc.h **** #if (__GNUC__ > 4) || (__GNUC__ == 4 && __GNUC_MINOR__ >= 8)
 592:C:\Workspaces\DAVE-4.1\Flightcontroller_PWM_CopterRocks_Working/Libraries/CMSIS/Include\cmsis_gcc.h ****    __ASM volatile ("ldrexh %0, %1" : "=r" (result) : "Q" (*addr) );
 593:C:\Workspaces\DAVE-4.1\Flightcontroller_PWM_CopterRocks_Working/Libraries/CMSIS/Include\cmsis_gcc.h **** #else
 594:C:\Workspaces\DAVE-4.1\Flightcontroller_PWM_CopterRocks_Working/Libraries/CMSIS/Include\cmsis_gcc.h ****     /* Prior to GCC 4.8, "Q" will be expanded to [rx, #0] which is not
 595:C:\Workspaces\DAVE-4.1\Flightcontroller_PWM_CopterRocks_Working/Libraries/CMSIS/Include\cmsis_gcc.h ****        accepted by assembler. So has to use following less efficient pattern.
 596:C:\Workspaces\DAVE-4.1\Flightcontroller_PWM_CopterRocks_Working/Libraries/CMSIS/Include\cmsis_gcc.h ****     */
 597:C:\Workspaces\DAVE-4.1\Flightcontroller_PWM_CopterRocks_Working/Libraries/CMSIS/Include\cmsis_gcc.h ****    __ASM volatile ("ldrexh %0, [%1]" : "=r" (result) : "r" (addr) : "memory" );
 598:C:\Workspaces\DAVE-4.1\Flightcontroller_PWM_CopterRocks_Working/Libraries/CMSIS/Include\cmsis_gcc.h **** #endif
 599:C:\Workspaces\DAVE-4.1\Flightcontroller_PWM_CopterRocks_Working/Libraries/CMSIS/Include\cmsis_gcc.h ****    return ((uint16_t) result);    /* Add explicit type cast here */
 600:C:\Workspaces\DAVE-4.1\Flightcontroller_PWM_CopterRocks_Working/Libraries/CMSIS/Include\cmsis_gcc.h **** }
 601:C:\Workspaces\DAVE-4.1\Flightcontroller_PWM_CopterRocks_Working/Libraries/CMSIS/Include\cmsis_gcc.h **** 
 602:C:\Workspaces\DAVE-4.1\Flightcontroller_PWM_CopterRocks_Working/Libraries/CMSIS/Include\cmsis_gcc.h **** 
 603:C:\Workspaces\DAVE-4.1\Flightcontroller_PWM_CopterRocks_Working/Libraries/CMSIS/Include\cmsis_gcc.h **** /**
 604:C:\Workspaces\DAVE-4.1\Flightcontroller_PWM_CopterRocks_Working/Libraries/CMSIS/Include\cmsis_gcc.h ****   \brief   LDR Exclusive (32 bit)
 605:C:\Workspaces\DAVE-4.1\Flightcontroller_PWM_CopterRocks_Working/Libraries/CMSIS/Include\cmsis_gcc.h ****   \details Executes a exclusive LDR instruction for 32 bit values.
 606:C:\Workspaces\DAVE-4.1\Flightcontroller_PWM_CopterRocks_Working/Libraries/CMSIS/Include\cmsis_gcc.h ****   \param [in]    ptr  Pointer to data
 607:C:\Workspaces\DAVE-4.1\Flightcontroller_PWM_CopterRocks_Working/Libraries/CMSIS/Include\cmsis_gcc.h ****   \return        value of type uint32_t at (*ptr)
 608:C:\Workspaces\DAVE-4.1\Flightcontroller_PWM_CopterRocks_Working/Libraries/CMSIS/Include\cmsis_gcc.h ****  */
 609:C:\Workspaces\DAVE-4.1\Flightcontroller_PWM_CopterRocks_Working/Libraries/CMSIS/Include\cmsis_gcc.h **** __attribute__((always_inline)) __STATIC_INLINE uint32_t __LDREXW(volatile uint32_t *addr)
 610:C:\Workspaces\DAVE-4.1\Flightcontroller_PWM_CopterRocks_Working/Libraries/CMSIS/Include\cmsis_gcc.h **** {
 611:C:\Workspaces\DAVE-4.1\Flightcontroller_PWM_CopterRocks_Working/Libraries/CMSIS/Include\cmsis_gcc.h ****     uint32_t result;
 612:C:\Workspaces\DAVE-4.1\Flightcontroller_PWM_CopterRocks_Working/Libraries/CMSIS/Include\cmsis_gcc.h **** 
 613:C:\Workspaces\DAVE-4.1\Flightcontroller_PWM_CopterRocks_Working/Libraries/CMSIS/Include\cmsis_gcc.h ****    __ASM volatile ("ldrex %0, %1" : "=r" (result) : "Q" (*addr) );
 614:C:\Workspaces\DAVE-4.1\Flightcontroller_PWM_CopterRocks_Working/Libraries/CMSIS/Include\cmsis_gcc.h ****    return(result);
 615:C:\Workspaces\DAVE-4.1\Flightcontroller_PWM_CopterRocks_Working/Libraries/CMSIS/Include\cmsis_gcc.h **** }
 616:C:\Workspaces\DAVE-4.1\Flightcontroller_PWM_CopterRocks_Working/Libraries/CMSIS/Include\cmsis_gcc.h **** 
 617:C:\Workspaces\DAVE-4.1\Flightcontroller_PWM_CopterRocks_Working/Libraries/CMSIS/Include\cmsis_gcc.h **** 
 618:C:\Workspaces\DAVE-4.1\Flightcontroller_PWM_CopterRocks_Working/Libraries/CMSIS/Include\cmsis_gcc.h **** /**
 619:C:\Workspaces\DAVE-4.1\Flightcontroller_PWM_CopterRocks_Working/Libraries/CMSIS/Include\cmsis_gcc.h ****   \brief   STR Exclusive (8 bit)
 620:C:\Workspaces\DAVE-4.1\Flightcontroller_PWM_CopterRocks_Working/Libraries/CMSIS/Include\cmsis_gcc.h ****   \details Executes a exclusive STR instruction for 8 bit values.
 621:C:\Workspaces\DAVE-4.1\Flightcontroller_PWM_CopterRocks_Working/Libraries/CMSIS/Include\cmsis_gcc.h ****   \param [in]  value  Value to store
 622:C:\Workspaces\DAVE-4.1\Flightcontroller_PWM_CopterRocks_Working/Libraries/CMSIS/Include\cmsis_gcc.h ****   \param [in]    ptr  Pointer to location
 623:C:\Workspaces\DAVE-4.1\Flightcontroller_PWM_CopterRocks_Working/Libraries/CMSIS/Include\cmsis_gcc.h ****   \return          0  Function succeeded
 624:C:\Workspaces\DAVE-4.1\Flightcontroller_PWM_CopterRocks_Working/Libraries/CMSIS/Include\cmsis_gcc.h ****   \return          1  Function failed
 625:C:\Workspaces\DAVE-4.1\Flightcontroller_PWM_CopterRocks_Working/Libraries/CMSIS/Include\cmsis_gcc.h ****  */
 626:C:\Workspaces\DAVE-4.1\Flightcontroller_PWM_CopterRocks_Working/Libraries/CMSIS/Include\cmsis_gcc.h **** __attribute__((always_inline)) __STATIC_INLINE uint32_t __STREXB(uint8_t value, volatile uint8_t *a
 627:C:\Workspaces\DAVE-4.1\Flightcontroller_PWM_CopterRocks_Working/Libraries/CMSIS/Include\cmsis_gcc.h **** {
 628:C:\Workspaces\DAVE-4.1\Flightcontroller_PWM_CopterRocks_Working/Libraries/CMSIS/Include\cmsis_gcc.h ****    uint32_t result;
 629:C:\Workspaces\DAVE-4.1\Flightcontroller_PWM_CopterRocks_Working/Libraries/CMSIS/Include\cmsis_gcc.h **** 
 630:C:\Workspaces\DAVE-4.1\Flightcontroller_PWM_CopterRocks_Working/Libraries/CMSIS/Include\cmsis_gcc.h ****    __ASM volatile ("strexb %0, %2, %1" : "=&r" (result), "=Q" (*addr) : "r" ((uint32_t)value) );
 631:C:\Workspaces\DAVE-4.1\Flightcontroller_PWM_CopterRocks_Working/Libraries/CMSIS/Include\cmsis_gcc.h ****    return(result);
 632:C:\Workspaces\DAVE-4.1\Flightcontroller_PWM_CopterRocks_Working/Libraries/CMSIS/Include\cmsis_gcc.h **** }
 633:C:\Workspaces\DAVE-4.1\Flightcontroller_PWM_CopterRocks_Working/Libraries/CMSIS/Include\cmsis_gcc.h **** 
 634:C:\Workspaces\DAVE-4.1\Flightcontroller_PWM_CopterRocks_Working/Libraries/CMSIS/Include\cmsis_gcc.h **** 
 635:C:\Workspaces\DAVE-4.1\Flightcontroller_PWM_CopterRocks_Working/Libraries/CMSIS/Include\cmsis_gcc.h **** /**
 636:C:\Workspaces\DAVE-4.1\Flightcontroller_PWM_CopterRocks_Working/Libraries/CMSIS/Include\cmsis_gcc.h ****   \brief   STR Exclusive (16 bit)
 637:C:\Workspaces\DAVE-4.1\Flightcontroller_PWM_CopterRocks_Working/Libraries/CMSIS/Include\cmsis_gcc.h ****   \details Executes a exclusive STR instruction for 16 bit values.
 638:C:\Workspaces\DAVE-4.1\Flightcontroller_PWM_CopterRocks_Working/Libraries/CMSIS/Include\cmsis_gcc.h ****   \param [in]  value  Value to store
 639:C:\Workspaces\DAVE-4.1\Flightcontroller_PWM_CopterRocks_Working/Libraries/CMSIS/Include\cmsis_gcc.h ****   \param [in]    ptr  Pointer to location
 640:C:\Workspaces\DAVE-4.1\Flightcontroller_PWM_CopterRocks_Working/Libraries/CMSIS/Include\cmsis_gcc.h ****   \return          0  Function succeeded
 641:C:\Workspaces\DAVE-4.1\Flightcontroller_PWM_CopterRocks_Working/Libraries/CMSIS/Include\cmsis_gcc.h ****   \return          1  Function failed
 642:C:\Workspaces\DAVE-4.1\Flightcontroller_PWM_CopterRocks_Working/Libraries/CMSIS/Include\cmsis_gcc.h ****  */
 643:C:\Workspaces\DAVE-4.1\Flightcontroller_PWM_CopterRocks_Working/Libraries/CMSIS/Include\cmsis_gcc.h **** __attribute__((always_inline)) __STATIC_INLINE uint32_t __STREXH(uint16_t value, volatile uint16_t 
 644:C:\Workspaces\DAVE-4.1\Flightcontroller_PWM_CopterRocks_Working/Libraries/CMSIS/Include\cmsis_gcc.h **** {
 645:C:\Workspaces\DAVE-4.1\Flightcontroller_PWM_CopterRocks_Working/Libraries/CMSIS/Include\cmsis_gcc.h ****    uint32_t result;
 646:C:\Workspaces\DAVE-4.1\Flightcontroller_PWM_CopterRocks_Working/Libraries/CMSIS/Include\cmsis_gcc.h **** 
 647:C:\Workspaces\DAVE-4.1\Flightcontroller_PWM_CopterRocks_Working/Libraries/CMSIS/Include\cmsis_gcc.h ****    __ASM volatile ("strexh %0, %2, %1" : "=&r" (result), "=Q" (*addr) : "r" ((uint32_t)value) );
 648:C:\Workspaces\DAVE-4.1\Flightcontroller_PWM_CopterRocks_Working/Libraries/CMSIS/Include\cmsis_gcc.h ****    return(result);
 649:C:\Workspaces\DAVE-4.1\Flightcontroller_PWM_CopterRocks_Working/Libraries/CMSIS/Include\cmsis_gcc.h **** }
 650:C:\Workspaces\DAVE-4.1\Flightcontroller_PWM_CopterRocks_Working/Libraries/CMSIS/Include\cmsis_gcc.h **** 
 651:C:\Workspaces\DAVE-4.1\Flightcontroller_PWM_CopterRocks_Working/Libraries/CMSIS/Include\cmsis_gcc.h **** 
 652:C:\Workspaces\DAVE-4.1\Flightcontroller_PWM_CopterRocks_Working/Libraries/CMSIS/Include\cmsis_gcc.h **** /**
 653:C:\Workspaces\DAVE-4.1\Flightcontroller_PWM_CopterRocks_Working/Libraries/CMSIS/Include\cmsis_gcc.h ****   \brief   STR Exclusive (32 bit)
 654:C:\Workspaces\DAVE-4.1\Flightcontroller_PWM_CopterRocks_Working/Libraries/CMSIS/Include\cmsis_gcc.h ****   \details Executes a exclusive STR instruction for 32 bit values.
 655:C:\Workspaces\DAVE-4.1\Flightcontroller_PWM_CopterRocks_Working/Libraries/CMSIS/Include\cmsis_gcc.h ****   \param [in]  value  Value to store
 656:C:\Workspaces\DAVE-4.1\Flightcontroller_PWM_CopterRocks_Working/Libraries/CMSIS/Include\cmsis_gcc.h ****   \param [in]    ptr  Pointer to location
 657:C:\Workspaces\DAVE-4.1\Flightcontroller_PWM_CopterRocks_Working/Libraries/CMSIS/Include\cmsis_gcc.h ****   \return          0  Function succeeded
 658:C:\Workspaces\DAVE-4.1\Flightcontroller_PWM_CopterRocks_Working/Libraries/CMSIS/Include\cmsis_gcc.h ****   \return          1  Function failed
 659:C:\Workspaces\DAVE-4.1\Flightcontroller_PWM_CopterRocks_Working/Libraries/CMSIS/Include\cmsis_gcc.h ****  */
 660:C:\Workspaces\DAVE-4.1\Flightcontroller_PWM_CopterRocks_Working/Libraries/CMSIS/Include\cmsis_gcc.h **** __attribute__((always_inline)) __STATIC_INLINE uint32_t __STREXW(uint32_t value, volatile uint32_t 
 661:C:\Workspaces\DAVE-4.1\Flightcontroller_PWM_CopterRocks_Working/Libraries/CMSIS/Include\cmsis_gcc.h **** {
 662:C:\Workspaces\DAVE-4.1\Flightcontroller_PWM_CopterRocks_Working/Libraries/CMSIS/Include\cmsis_gcc.h ****    uint32_t result;
 663:C:\Workspaces\DAVE-4.1\Flightcontroller_PWM_CopterRocks_Working/Libraries/CMSIS/Include\cmsis_gcc.h **** 
 664:C:\Workspaces\DAVE-4.1\Flightcontroller_PWM_CopterRocks_Working/Libraries/CMSIS/Include\cmsis_gcc.h ****    __ASM volatile ("strex %0, %2, %1" : "=&r" (result), "=Q" (*addr) : "r" (value) );
 665:C:\Workspaces\DAVE-4.1\Flightcontroller_PWM_CopterRocks_Working/Libraries/CMSIS/Include\cmsis_gcc.h ****    return(result);
 666:C:\Workspaces\DAVE-4.1\Flightcontroller_PWM_CopterRocks_Working/Libraries/CMSIS/Include\cmsis_gcc.h **** }
 667:C:\Workspaces\DAVE-4.1\Flightcontroller_PWM_CopterRocks_Working/Libraries/CMSIS/Include\cmsis_gcc.h **** 
 668:C:\Workspaces\DAVE-4.1\Flightcontroller_PWM_CopterRocks_Working/Libraries/CMSIS/Include\cmsis_gcc.h **** 
 669:C:\Workspaces\DAVE-4.1\Flightcontroller_PWM_CopterRocks_Working/Libraries/CMSIS/Include\cmsis_gcc.h **** /**
 670:C:\Workspaces\DAVE-4.1\Flightcontroller_PWM_CopterRocks_Working/Libraries/CMSIS/Include\cmsis_gcc.h ****   \brief   Remove the exclusive lock
 671:C:\Workspaces\DAVE-4.1\Flightcontroller_PWM_CopterRocks_Working/Libraries/CMSIS/Include\cmsis_gcc.h ****   \details Removes the exclusive lock which is created by LDREX.
 672:C:\Workspaces\DAVE-4.1\Flightcontroller_PWM_CopterRocks_Working/Libraries/CMSIS/Include\cmsis_gcc.h ****  */
 673:C:\Workspaces\DAVE-4.1\Flightcontroller_PWM_CopterRocks_Working/Libraries/CMSIS/Include\cmsis_gcc.h **** __attribute__((always_inline)) __STATIC_INLINE void __CLREX(void)
 674:C:\Workspaces\DAVE-4.1\Flightcontroller_PWM_CopterRocks_Working/Libraries/CMSIS/Include\cmsis_gcc.h **** {
 675:C:\Workspaces\DAVE-4.1\Flightcontroller_PWM_CopterRocks_Working/Libraries/CMSIS/Include\cmsis_gcc.h ****   __ASM volatile ("clrex" ::: "memory");
 676:C:\Workspaces\DAVE-4.1\Flightcontroller_PWM_CopterRocks_Working/Libraries/CMSIS/Include\cmsis_gcc.h **** }
 677:C:\Workspaces\DAVE-4.1\Flightcontroller_PWM_CopterRocks_Working/Libraries/CMSIS/Include\cmsis_gcc.h **** 
 678:C:\Workspaces\DAVE-4.1\Flightcontroller_PWM_CopterRocks_Working/Libraries/CMSIS/Include\cmsis_gcc.h **** 
 679:C:\Workspaces\DAVE-4.1\Flightcontroller_PWM_CopterRocks_Working/Libraries/CMSIS/Include\cmsis_gcc.h **** /**
 680:C:\Workspaces\DAVE-4.1\Flightcontroller_PWM_CopterRocks_Working/Libraries/CMSIS/Include\cmsis_gcc.h ****   \brief   Signed Saturate
 681:C:\Workspaces\DAVE-4.1\Flightcontroller_PWM_CopterRocks_Working/Libraries/CMSIS/Include\cmsis_gcc.h ****   \details Saturates a signed value.
 682:C:\Workspaces\DAVE-4.1\Flightcontroller_PWM_CopterRocks_Working/Libraries/CMSIS/Include\cmsis_gcc.h ****   \param [in]  value  Value to be saturated
 683:C:\Workspaces\DAVE-4.1\Flightcontroller_PWM_CopterRocks_Working/Libraries/CMSIS/Include\cmsis_gcc.h ****   \param [in]    sat  Bit position to saturate to (1..32)
 684:C:\Workspaces\DAVE-4.1\Flightcontroller_PWM_CopterRocks_Working/Libraries/CMSIS/Include\cmsis_gcc.h ****   \return             Saturated value
 685:C:\Workspaces\DAVE-4.1\Flightcontroller_PWM_CopterRocks_Working/Libraries/CMSIS/Include\cmsis_gcc.h ****  */
 686:C:\Workspaces\DAVE-4.1\Flightcontroller_PWM_CopterRocks_Working/Libraries/CMSIS/Include\cmsis_gcc.h **** #define __SSAT(ARG1,ARG2) \
 687:C:\Workspaces\DAVE-4.1\Flightcontroller_PWM_CopterRocks_Working/Libraries/CMSIS/Include\cmsis_gcc.h **** ({                          \
 688:C:\Workspaces\DAVE-4.1\Flightcontroller_PWM_CopterRocks_Working/Libraries/CMSIS/Include\cmsis_gcc.h ****   uint32_t __RES, __ARG1 = (ARG1); \
 689:C:\Workspaces\DAVE-4.1\Flightcontroller_PWM_CopterRocks_Working/Libraries/CMSIS/Include\cmsis_gcc.h ****   __ASM ("ssat %0, %1, %2" : "=r" (__RES) :  "I" (ARG2), "r" (__ARG1) ); \
 690:C:\Workspaces\DAVE-4.1\Flightcontroller_PWM_CopterRocks_Working/Libraries/CMSIS/Include\cmsis_gcc.h ****   __RES; \
 691:C:\Workspaces\DAVE-4.1\Flightcontroller_PWM_CopterRocks_Working/Libraries/CMSIS/Include\cmsis_gcc.h ****  })
 692:C:\Workspaces\DAVE-4.1\Flightcontroller_PWM_CopterRocks_Working/Libraries/CMSIS/Include\cmsis_gcc.h **** 
 693:C:\Workspaces\DAVE-4.1\Flightcontroller_PWM_CopterRocks_Working/Libraries/CMSIS/Include\cmsis_gcc.h **** 
 694:C:\Workspaces\DAVE-4.1\Flightcontroller_PWM_CopterRocks_Working/Libraries/CMSIS/Include\cmsis_gcc.h **** /**
 695:C:\Workspaces\DAVE-4.1\Flightcontroller_PWM_CopterRocks_Working/Libraries/CMSIS/Include\cmsis_gcc.h ****   \brief   Unsigned Saturate
 696:C:\Workspaces\DAVE-4.1\Flightcontroller_PWM_CopterRocks_Working/Libraries/CMSIS/Include\cmsis_gcc.h ****   \details Saturates an unsigned value.
 697:C:\Workspaces\DAVE-4.1\Flightcontroller_PWM_CopterRocks_Working/Libraries/CMSIS/Include\cmsis_gcc.h ****   \param [in]  value  Value to be saturated
 698:C:\Workspaces\DAVE-4.1\Flightcontroller_PWM_CopterRocks_Working/Libraries/CMSIS/Include\cmsis_gcc.h ****   \param [in]    sat  Bit position to saturate to (0..31)
 699:C:\Workspaces\DAVE-4.1\Flightcontroller_PWM_CopterRocks_Working/Libraries/CMSIS/Include\cmsis_gcc.h ****   \return             Saturated value
 700:C:\Workspaces\DAVE-4.1\Flightcontroller_PWM_CopterRocks_Working/Libraries/CMSIS/Include\cmsis_gcc.h ****  */
 701:C:\Workspaces\DAVE-4.1\Flightcontroller_PWM_CopterRocks_Working/Libraries/CMSIS/Include\cmsis_gcc.h **** #define __USAT(ARG1,ARG2) \
 702:C:\Workspaces\DAVE-4.1\Flightcontroller_PWM_CopterRocks_Working/Libraries/CMSIS/Include\cmsis_gcc.h **** ({                          \
 703:C:\Workspaces\DAVE-4.1\Flightcontroller_PWM_CopterRocks_Working/Libraries/CMSIS/Include\cmsis_gcc.h ****   uint32_t __RES, __ARG1 = (ARG1); \
 704:C:\Workspaces\DAVE-4.1\Flightcontroller_PWM_CopterRocks_Working/Libraries/CMSIS/Include\cmsis_gcc.h ****   __ASM ("usat %0, %1, %2" : "=r" (__RES) :  "I" (ARG2), "r" (__ARG1) ); \
 705:C:\Workspaces\DAVE-4.1\Flightcontroller_PWM_CopterRocks_Working/Libraries/CMSIS/Include\cmsis_gcc.h ****   __RES; \
 706:C:\Workspaces\DAVE-4.1\Flightcontroller_PWM_CopterRocks_Working/Libraries/CMSIS/Include\cmsis_gcc.h ****  })
 707:C:\Workspaces\DAVE-4.1\Flightcontroller_PWM_CopterRocks_Working/Libraries/CMSIS/Include\cmsis_gcc.h **** 
 708:C:\Workspaces\DAVE-4.1\Flightcontroller_PWM_CopterRocks_Working/Libraries/CMSIS/Include\cmsis_gcc.h **** 
 709:C:\Workspaces\DAVE-4.1\Flightcontroller_PWM_CopterRocks_Working/Libraries/CMSIS/Include\cmsis_gcc.h **** /**
 710:C:\Workspaces\DAVE-4.1\Flightcontroller_PWM_CopterRocks_Working/Libraries/CMSIS/Include\cmsis_gcc.h ****   \brief   Rotate Right with Extend (32 bit)
 711:C:\Workspaces\DAVE-4.1\Flightcontroller_PWM_CopterRocks_Working/Libraries/CMSIS/Include\cmsis_gcc.h ****   \details Moves each bit of a bitstring right by one bit.
 712:C:\Workspaces\DAVE-4.1\Flightcontroller_PWM_CopterRocks_Working/Libraries/CMSIS/Include\cmsis_gcc.h ****            The carry input is shifted in at the left end of the bitstring.
 713:C:\Workspaces\DAVE-4.1\Flightcontroller_PWM_CopterRocks_Working/Libraries/CMSIS/Include\cmsis_gcc.h ****   \param [in]    value  Value to rotate
 714:C:\Workspaces\DAVE-4.1\Flightcontroller_PWM_CopterRocks_Working/Libraries/CMSIS/Include\cmsis_gcc.h ****   \return               Rotated value
 715:C:\Workspaces\DAVE-4.1\Flightcontroller_PWM_CopterRocks_Working/Libraries/CMSIS/Include\cmsis_gcc.h ****  */
 716:C:\Workspaces\DAVE-4.1\Flightcontroller_PWM_CopterRocks_Working/Libraries/CMSIS/Include\cmsis_gcc.h **** __attribute__((always_inline)) __STATIC_INLINE uint32_t __RRX(uint32_t value)
 717:C:\Workspaces\DAVE-4.1\Flightcontroller_PWM_CopterRocks_Working/Libraries/CMSIS/Include\cmsis_gcc.h **** {
 718:C:\Workspaces\DAVE-4.1\Flightcontroller_PWM_CopterRocks_Working/Libraries/CMSIS/Include\cmsis_gcc.h ****   uint32_t result;
 719:C:\Workspaces\DAVE-4.1\Flightcontroller_PWM_CopterRocks_Working/Libraries/CMSIS/Include\cmsis_gcc.h **** 
 720:C:\Workspaces\DAVE-4.1\Flightcontroller_PWM_CopterRocks_Working/Libraries/CMSIS/Include\cmsis_gcc.h ****   __ASM volatile ("rrx %0, %1" : __CMSIS_GCC_OUT_REG (result) : __CMSIS_GCC_USE_REG (value) );
 721:C:\Workspaces\DAVE-4.1\Flightcontroller_PWM_CopterRocks_Working/Libraries/CMSIS/Include\cmsis_gcc.h ****   return(result);
 722:C:\Workspaces\DAVE-4.1\Flightcontroller_PWM_CopterRocks_Working/Libraries/CMSIS/Include\cmsis_gcc.h **** }
 723:C:\Workspaces\DAVE-4.1\Flightcontroller_PWM_CopterRocks_Working/Libraries/CMSIS/Include\cmsis_gcc.h **** 
 724:C:\Workspaces\DAVE-4.1\Flightcontroller_PWM_CopterRocks_Working/Libraries/CMSIS/Include\cmsis_gcc.h **** 
 725:C:\Workspaces\DAVE-4.1\Flightcontroller_PWM_CopterRocks_Working/Libraries/CMSIS/Include\cmsis_gcc.h **** /**
 726:C:\Workspaces\DAVE-4.1\Flightcontroller_PWM_CopterRocks_Working/Libraries/CMSIS/Include\cmsis_gcc.h ****   \brief   LDRT Unprivileged (8 bit)
 727:C:\Workspaces\DAVE-4.1\Flightcontroller_PWM_CopterRocks_Working/Libraries/CMSIS/Include\cmsis_gcc.h ****   \details Executes a Unprivileged LDRT instruction for 8 bit value.
 728:C:\Workspaces\DAVE-4.1\Flightcontroller_PWM_CopterRocks_Working/Libraries/CMSIS/Include\cmsis_gcc.h ****   \param [in]    ptr  Pointer to data
 729:C:\Workspaces\DAVE-4.1\Flightcontroller_PWM_CopterRocks_Working/Libraries/CMSIS/Include\cmsis_gcc.h ****   \return             value of type uint8_t at (*ptr)
 730:C:\Workspaces\DAVE-4.1\Flightcontroller_PWM_CopterRocks_Working/Libraries/CMSIS/Include\cmsis_gcc.h ****  */
 731:C:\Workspaces\DAVE-4.1\Flightcontroller_PWM_CopterRocks_Working/Libraries/CMSIS/Include\cmsis_gcc.h **** __attribute__((always_inline)) __STATIC_INLINE uint8_t __LDRBT(volatile uint8_t *addr)
 732:C:\Workspaces\DAVE-4.1\Flightcontroller_PWM_CopterRocks_Working/Libraries/CMSIS/Include\cmsis_gcc.h **** {
 733:C:\Workspaces\DAVE-4.1\Flightcontroller_PWM_CopterRocks_Working/Libraries/CMSIS/Include\cmsis_gcc.h ****     uint32_t result;
 734:C:\Workspaces\DAVE-4.1\Flightcontroller_PWM_CopterRocks_Working/Libraries/CMSIS/Include\cmsis_gcc.h **** 
 735:C:\Workspaces\DAVE-4.1\Flightcontroller_PWM_CopterRocks_Working/Libraries/CMSIS/Include\cmsis_gcc.h **** #if (__GNUC__ > 4) || (__GNUC__ == 4 && __GNUC_MINOR__ >= 8)
 736:C:\Workspaces\DAVE-4.1\Flightcontroller_PWM_CopterRocks_Working/Libraries/CMSIS/Include\cmsis_gcc.h ****    __ASM volatile ("ldrbt %0, %1" : "=r" (result) : "Q" (*addr) );
 737:C:\Workspaces\DAVE-4.1\Flightcontroller_PWM_CopterRocks_Working/Libraries/CMSIS/Include\cmsis_gcc.h **** #else
 738:C:\Workspaces\DAVE-4.1\Flightcontroller_PWM_CopterRocks_Working/Libraries/CMSIS/Include\cmsis_gcc.h ****     /* Prior to GCC 4.8, "Q" will be expanded to [rx, #0] which is not
 739:C:\Workspaces\DAVE-4.1\Flightcontroller_PWM_CopterRocks_Working/Libraries/CMSIS/Include\cmsis_gcc.h ****        accepted by assembler. So has to use following less efficient pattern.
 740:C:\Workspaces\DAVE-4.1\Flightcontroller_PWM_CopterRocks_Working/Libraries/CMSIS/Include\cmsis_gcc.h ****     */
 741:C:\Workspaces\DAVE-4.1\Flightcontroller_PWM_CopterRocks_Working/Libraries/CMSIS/Include\cmsis_gcc.h ****    __ASM volatile ("ldrbt %0, [%1]" : "=r" (result) : "r" (addr) : "memory" );
 742:C:\Workspaces\DAVE-4.1\Flightcontroller_PWM_CopterRocks_Working/Libraries/CMSIS/Include\cmsis_gcc.h **** #endif
 743:C:\Workspaces\DAVE-4.1\Flightcontroller_PWM_CopterRocks_Working/Libraries/CMSIS/Include\cmsis_gcc.h ****    return ((uint8_t) result);    /* Add explicit type cast here */
 744:C:\Workspaces\DAVE-4.1\Flightcontroller_PWM_CopterRocks_Working/Libraries/CMSIS/Include\cmsis_gcc.h **** }
 745:C:\Workspaces\DAVE-4.1\Flightcontroller_PWM_CopterRocks_Working/Libraries/CMSIS/Include\cmsis_gcc.h **** 
 746:C:\Workspaces\DAVE-4.1\Flightcontroller_PWM_CopterRocks_Working/Libraries/CMSIS/Include\cmsis_gcc.h **** 
 747:C:\Workspaces\DAVE-4.1\Flightcontroller_PWM_CopterRocks_Working/Libraries/CMSIS/Include\cmsis_gcc.h **** /**
 748:C:\Workspaces\DAVE-4.1\Flightcontroller_PWM_CopterRocks_Working/Libraries/CMSIS/Include\cmsis_gcc.h ****   \brief   LDRT Unprivileged (16 bit)
 749:C:\Workspaces\DAVE-4.1\Flightcontroller_PWM_CopterRocks_Working/Libraries/CMSIS/Include\cmsis_gcc.h ****   \details Executes a Unprivileged LDRT instruction for 16 bit values.
 750:C:\Workspaces\DAVE-4.1\Flightcontroller_PWM_CopterRocks_Working/Libraries/CMSIS/Include\cmsis_gcc.h ****   \param [in]    ptr  Pointer to data
 751:C:\Workspaces\DAVE-4.1\Flightcontroller_PWM_CopterRocks_Working/Libraries/CMSIS/Include\cmsis_gcc.h ****   \return        value of type uint16_t at (*ptr)
 752:C:\Workspaces\DAVE-4.1\Flightcontroller_PWM_CopterRocks_Working/Libraries/CMSIS/Include\cmsis_gcc.h ****  */
 753:C:\Workspaces\DAVE-4.1\Flightcontroller_PWM_CopterRocks_Working/Libraries/CMSIS/Include\cmsis_gcc.h **** __attribute__((always_inline)) __STATIC_INLINE uint16_t __LDRHT(volatile uint16_t *addr)
 754:C:\Workspaces\DAVE-4.1\Flightcontroller_PWM_CopterRocks_Working/Libraries/CMSIS/Include\cmsis_gcc.h **** {
 755:C:\Workspaces\DAVE-4.1\Flightcontroller_PWM_CopterRocks_Working/Libraries/CMSIS/Include\cmsis_gcc.h ****     uint32_t result;
 756:C:\Workspaces\DAVE-4.1\Flightcontroller_PWM_CopterRocks_Working/Libraries/CMSIS/Include\cmsis_gcc.h **** 
 757:C:\Workspaces\DAVE-4.1\Flightcontroller_PWM_CopterRocks_Working/Libraries/CMSIS/Include\cmsis_gcc.h **** #if (__GNUC__ > 4) || (__GNUC__ == 4 && __GNUC_MINOR__ >= 8)
 758:C:\Workspaces\DAVE-4.1\Flightcontroller_PWM_CopterRocks_Working/Libraries/CMSIS/Include\cmsis_gcc.h ****    __ASM volatile ("ldrht %0, %1" : "=r" (result) : "Q" (*addr) );
 759:C:\Workspaces\DAVE-4.1\Flightcontroller_PWM_CopterRocks_Working/Libraries/CMSIS/Include\cmsis_gcc.h **** #else
 760:C:\Workspaces\DAVE-4.1\Flightcontroller_PWM_CopterRocks_Working/Libraries/CMSIS/Include\cmsis_gcc.h ****     /* Prior to GCC 4.8, "Q" will be expanded to [rx, #0] which is not
 761:C:\Workspaces\DAVE-4.1\Flightcontroller_PWM_CopterRocks_Working/Libraries/CMSIS/Include\cmsis_gcc.h ****        accepted by assembler. So has to use following less efficient pattern.
 762:C:\Workspaces\DAVE-4.1\Flightcontroller_PWM_CopterRocks_Working/Libraries/CMSIS/Include\cmsis_gcc.h ****     */
 763:C:\Workspaces\DAVE-4.1\Flightcontroller_PWM_CopterRocks_Working/Libraries/CMSIS/Include\cmsis_gcc.h ****    __ASM volatile ("ldrht %0, [%1]" : "=r" (result) : "r" (addr) : "memory" );
 764:C:\Workspaces\DAVE-4.1\Flightcontroller_PWM_CopterRocks_Working/Libraries/CMSIS/Include\cmsis_gcc.h **** #endif
 765:C:\Workspaces\DAVE-4.1\Flightcontroller_PWM_CopterRocks_Working/Libraries/CMSIS/Include\cmsis_gcc.h ****    return ((uint16_t) result);    /* Add explicit type cast here */
 766:C:\Workspaces\DAVE-4.1\Flightcontroller_PWM_CopterRocks_Working/Libraries/CMSIS/Include\cmsis_gcc.h **** }
 767:C:\Workspaces\DAVE-4.1\Flightcontroller_PWM_CopterRocks_Working/Libraries/CMSIS/Include\cmsis_gcc.h **** 
 768:C:\Workspaces\DAVE-4.1\Flightcontroller_PWM_CopterRocks_Working/Libraries/CMSIS/Include\cmsis_gcc.h **** 
 769:C:\Workspaces\DAVE-4.1\Flightcontroller_PWM_CopterRocks_Working/Libraries/CMSIS/Include\cmsis_gcc.h **** /**
 770:C:\Workspaces\DAVE-4.1\Flightcontroller_PWM_CopterRocks_Working/Libraries/CMSIS/Include\cmsis_gcc.h ****   \brief   LDRT Unprivileged (32 bit)
 771:C:\Workspaces\DAVE-4.1\Flightcontroller_PWM_CopterRocks_Working/Libraries/CMSIS/Include\cmsis_gcc.h ****   \details Executes a Unprivileged LDRT instruction for 32 bit values.
 772:C:\Workspaces\DAVE-4.1\Flightcontroller_PWM_CopterRocks_Working/Libraries/CMSIS/Include\cmsis_gcc.h ****   \param [in]    ptr  Pointer to data
 773:C:\Workspaces\DAVE-4.1\Flightcontroller_PWM_CopterRocks_Working/Libraries/CMSIS/Include\cmsis_gcc.h ****   \return        value of type uint32_t at (*ptr)
 774:C:\Workspaces\DAVE-4.1\Flightcontroller_PWM_CopterRocks_Working/Libraries/CMSIS/Include\cmsis_gcc.h ****  */
 775:C:\Workspaces\DAVE-4.1\Flightcontroller_PWM_CopterRocks_Working/Libraries/CMSIS/Include\cmsis_gcc.h **** __attribute__((always_inline)) __STATIC_INLINE uint32_t __LDRT(volatile uint32_t *addr)
 776:C:\Workspaces\DAVE-4.1\Flightcontroller_PWM_CopterRocks_Working/Libraries/CMSIS/Include\cmsis_gcc.h **** {
 777:C:\Workspaces\DAVE-4.1\Flightcontroller_PWM_CopterRocks_Working/Libraries/CMSIS/Include\cmsis_gcc.h ****     uint32_t result;
 778:C:\Workspaces\DAVE-4.1\Flightcontroller_PWM_CopterRocks_Working/Libraries/CMSIS/Include\cmsis_gcc.h **** 
 779:C:\Workspaces\DAVE-4.1\Flightcontroller_PWM_CopterRocks_Working/Libraries/CMSIS/Include\cmsis_gcc.h ****    __ASM volatile ("ldrt %0, %1" : "=r" (result) : "Q" (*addr) );
 780:C:\Workspaces\DAVE-4.1\Flightcontroller_PWM_CopterRocks_Working/Libraries/CMSIS/Include\cmsis_gcc.h ****    return(result);
 781:C:\Workspaces\DAVE-4.1\Flightcontroller_PWM_CopterRocks_Working/Libraries/CMSIS/Include\cmsis_gcc.h **** }
 782:C:\Workspaces\DAVE-4.1\Flightcontroller_PWM_CopterRocks_Working/Libraries/CMSIS/Include\cmsis_gcc.h **** 
 783:C:\Workspaces\DAVE-4.1\Flightcontroller_PWM_CopterRocks_Working/Libraries/CMSIS/Include\cmsis_gcc.h **** 
 784:C:\Workspaces\DAVE-4.1\Flightcontroller_PWM_CopterRocks_Working/Libraries/CMSIS/Include\cmsis_gcc.h **** /**
 785:C:\Workspaces\DAVE-4.1\Flightcontroller_PWM_CopterRocks_Working/Libraries/CMSIS/Include\cmsis_gcc.h ****   \brief   STRT Unprivileged (8 bit)
 786:C:\Workspaces\DAVE-4.1\Flightcontroller_PWM_CopterRocks_Working/Libraries/CMSIS/Include\cmsis_gcc.h ****   \details Executes a Unprivileged STRT instruction for 8 bit values.
 787:C:\Workspaces\DAVE-4.1\Flightcontroller_PWM_CopterRocks_Working/Libraries/CMSIS/Include\cmsis_gcc.h ****   \param [in]  value  Value to store
 788:C:\Workspaces\DAVE-4.1\Flightcontroller_PWM_CopterRocks_Working/Libraries/CMSIS/Include\cmsis_gcc.h ****   \param [in]    ptr  Pointer to location
 789:C:\Workspaces\DAVE-4.1\Flightcontroller_PWM_CopterRocks_Working/Libraries/CMSIS/Include\cmsis_gcc.h ****  */
 790:C:\Workspaces\DAVE-4.1\Flightcontroller_PWM_CopterRocks_Working/Libraries/CMSIS/Include\cmsis_gcc.h **** __attribute__((always_inline)) __STATIC_INLINE void __STRBT(uint8_t value, volatile uint8_t *addr)
 791:C:\Workspaces\DAVE-4.1\Flightcontroller_PWM_CopterRocks_Working/Libraries/CMSIS/Include\cmsis_gcc.h **** {
 792:C:\Workspaces\DAVE-4.1\Flightcontroller_PWM_CopterRocks_Working/Libraries/CMSIS/Include\cmsis_gcc.h ****    __ASM volatile ("strbt %1, %0" : "=Q" (*addr) : "r" ((uint32_t)value) );
 793:C:\Workspaces\DAVE-4.1\Flightcontroller_PWM_CopterRocks_Working/Libraries/CMSIS/Include\cmsis_gcc.h **** }
 794:C:\Workspaces\DAVE-4.1\Flightcontroller_PWM_CopterRocks_Working/Libraries/CMSIS/Include\cmsis_gcc.h **** 
 795:C:\Workspaces\DAVE-4.1\Flightcontroller_PWM_CopterRocks_Working/Libraries/CMSIS/Include\cmsis_gcc.h **** 
 796:C:\Workspaces\DAVE-4.1\Flightcontroller_PWM_CopterRocks_Working/Libraries/CMSIS/Include\cmsis_gcc.h **** /**
 797:C:\Workspaces\DAVE-4.1\Flightcontroller_PWM_CopterRocks_Working/Libraries/CMSIS/Include\cmsis_gcc.h ****   \brief   STRT Unprivileged (16 bit)
 798:C:\Workspaces\DAVE-4.1\Flightcontroller_PWM_CopterRocks_Working/Libraries/CMSIS/Include\cmsis_gcc.h ****   \details Executes a Unprivileged STRT instruction for 16 bit values.
 799:C:\Workspaces\DAVE-4.1\Flightcontroller_PWM_CopterRocks_Working/Libraries/CMSIS/Include\cmsis_gcc.h ****   \param [in]  value  Value to store
 800:C:\Workspaces\DAVE-4.1\Flightcontroller_PWM_CopterRocks_Working/Libraries/CMSIS/Include\cmsis_gcc.h ****   \param [in]    ptr  Pointer to location
 801:C:\Workspaces\DAVE-4.1\Flightcontroller_PWM_CopterRocks_Working/Libraries/CMSIS/Include\cmsis_gcc.h ****  */
 802:C:\Workspaces\DAVE-4.1\Flightcontroller_PWM_CopterRocks_Working/Libraries/CMSIS/Include\cmsis_gcc.h **** __attribute__((always_inline)) __STATIC_INLINE void __STRHT(uint16_t value, volatile uint16_t *addr
 803:C:\Workspaces\DAVE-4.1\Flightcontroller_PWM_CopterRocks_Working/Libraries/CMSIS/Include\cmsis_gcc.h **** {
 804:C:\Workspaces\DAVE-4.1\Flightcontroller_PWM_CopterRocks_Working/Libraries/CMSIS/Include\cmsis_gcc.h ****    __ASM volatile ("strht %1, %0" : "=Q" (*addr) : "r" ((uint32_t)value) );
 805:C:\Workspaces\DAVE-4.1\Flightcontroller_PWM_CopterRocks_Working/Libraries/CMSIS/Include\cmsis_gcc.h **** }
 806:C:\Workspaces\DAVE-4.1\Flightcontroller_PWM_CopterRocks_Working/Libraries/CMSIS/Include\cmsis_gcc.h **** 
 807:C:\Workspaces\DAVE-4.1\Flightcontroller_PWM_CopterRocks_Working/Libraries/CMSIS/Include\cmsis_gcc.h **** 
 808:C:\Workspaces\DAVE-4.1\Flightcontroller_PWM_CopterRocks_Working/Libraries/CMSIS/Include\cmsis_gcc.h **** /**
 809:C:\Workspaces\DAVE-4.1\Flightcontroller_PWM_CopterRocks_Working/Libraries/CMSIS/Include\cmsis_gcc.h ****   \brief   STRT Unprivileged (32 bit)
 810:C:\Workspaces\DAVE-4.1\Flightcontroller_PWM_CopterRocks_Working/Libraries/CMSIS/Include\cmsis_gcc.h ****   \details Executes a Unprivileged STRT instruction for 32 bit values.
 811:C:\Workspaces\DAVE-4.1\Flightcontroller_PWM_CopterRocks_Working/Libraries/CMSIS/Include\cmsis_gcc.h ****   \param [in]  value  Value to store
 812:C:\Workspaces\DAVE-4.1\Flightcontroller_PWM_CopterRocks_Working/Libraries/CMSIS/Include\cmsis_gcc.h ****   \param [in]    ptr  Pointer to location
 813:C:\Workspaces\DAVE-4.1\Flightcontroller_PWM_CopterRocks_Working/Libraries/CMSIS/Include\cmsis_gcc.h ****  */
 814:C:\Workspaces\DAVE-4.1\Flightcontroller_PWM_CopterRocks_Working/Libraries/CMSIS/Include\cmsis_gcc.h **** __attribute__((always_inline)) __STATIC_INLINE void __STRT(uint32_t value, volatile uint32_t *addr)
 815:C:\Workspaces\DAVE-4.1\Flightcontroller_PWM_CopterRocks_Working/Libraries/CMSIS/Include\cmsis_gcc.h **** {
 816:C:\Workspaces\DAVE-4.1\Flightcontroller_PWM_CopterRocks_Working/Libraries/CMSIS/Include\cmsis_gcc.h ****    __ASM volatile ("strt %1, %0" : "=Q" (*addr) : "r" (value) );
 817:C:\Workspaces\DAVE-4.1\Flightcontroller_PWM_CopterRocks_Working/Libraries/CMSIS/Include\cmsis_gcc.h **** }
 818:C:\Workspaces\DAVE-4.1\Flightcontroller_PWM_CopterRocks_Working/Libraries/CMSIS/Include\cmsis_gcc.h **** 
 819:C:\Workspaces\DAVE-4.1\Flightcontroller_PWM_CopterRocks_Working/Libraries/CMSIS/Include\cmsis_gcc.h **** #endif /* (__CORTEX_M >= 0x03U) || (__CORTEX_SC >= 300U) */
 820:C:\Workspaces\DAVE-4.1\Flightcontroller_PWM_CopterRocks_Working/Libraries/CMSIS/Include\cmsis_gcc.h **** 
 821:C:\Workspaces\DAVE-4.1\Flightcontroller_PWM_CopterRocks_Working/Libraries/CMSIS/Include\cmsis_gcc.h **** /*@}*/ /* end of group CMSIS_Core_InstructionInterface */
 822:C:\Workspaces\DAVE-4.1\Flightcontroller_PWM_CopterRocks_Working/Libraries/CMSIS/Include\cmsis_gcc.h **** 
 823:C:\Workspaces\DAVE-4.1\Flightcontroller_PWM_CopterRocks_Working/Libraries/CMSIS/Include\cmsis_gcc.h **** 
 824:C:\Workspaces\DAVE-4.1\Flightcontroller_PWM_CopterRocks_Working/Libraries/CMSIS/Include\cmsis_gcc.h **** /* ###################  Compiler specific Intrinsics  ########################### */
 825:C:\Workspaces\DAVE-4.1\Flightcontroller_PWM_CopterRocks_Working/Libraries/CMSIS/Include\cmsis_gcc.h **** /** \defgroup CMSIS_SIMD_intrinsics CMSIS SIMD Intrinsics
 826:C:\Workspaces\DAVE-4.1\Flightcontroller_PWM_CopterRocks_Working/Libraries/CMSIS/Include\cmsis_gcc.h ****   Access to dedicated SIMD instructions
 827:C:\Workspaces\DAVE-4.1\Flightcontroller_PWM_CopterRocks_Working/Libraries/CMSIS/Include\cmsis_gcc.h ****   @{
 828:C:\Workspaces\DAVE-4.1\Flightcontroller_PWM_CopterRocks_Working/Libraries/CMSIS/Include\cmsis_gcc.h **** */
 829:C:\Workspaces\DAVE-4.1\Flightcontroller_PWM_CopterRocks_Working/Libraries/CMSIS/Include\cmsis_gcc.h **** 
 830:C:\Workspaces\DAVE-4.1\Flightcontroller_PWM_CopterRocks_Working/Libraries/CMSIS/Include\cmsis_gcc.h **** #if (__CORTEX_M >= 0x04U)  /* only for Cortex-M4 and above */
 831:C:\Workspaces\DAVE-4.1\Flightcontroller_PWM_CopterRocks_Working/Libraries/CMSIS/Include\cmsis_gcc.h **** 
 832:C:\Workspaces\DAVE-4.1\Flightcontroller_PWM_CopterRocks_Working/Libraries/CMSIS/Include\cmsis_gcc.h **** __attribute__( ( always_inline ) ) __STATIC_INLINE uint32_t __SADD8(uint32_t op1, uint32_t op2)
 833:C:\Workspaces\DAVE-4.1\Flightcontroller_PWM_CopterRocks_Working/Libraries/CMSIS/Include\cmsis_gcc.h **** {
 834:C:\Workspaces\DAVE-4.1\Flightcontroller_PWM_CopterRocks_Working/Libraries/CMSIS/Include\cmsis_gcc.h ****   uint32_t result;
 835:C:\Workspaces\DAVE-4.1\Flightcontroller_PWM_CopterRocks_Working/Libraries/CMSIS/Include\cmsis_gcc.h **** 
 836:C:\Workspaces\DAVE-4.1\Flightcontroller_PWM_CopterRocks_Working/Libraries/CMSIS/Include\cmsis_gcc.h ****   __ASM volatile ("sadd8 %0, %1, %2" : "=r" (result) : "r" (op1), "r" (op2) );
 837:C:\Workspaces\DAVE-4.1\Flightcontroller_PWM_CopterRocks_Working/Libraries/CMSIS/Include\cmsis_gcc.h ****   return(result);
 838:C:\Workspaces\DAVE-4.1\Flightcontroller_PWM_CopterRocks_Working/Libraries/CMSIS/Include\cmsis_gcc.h **** }
 839:C:\Workspaces\DAVE-4.1\Flightcontroller_PWM_CopterRocks_Working/Libraries/CMSIS/Include\cmsis_gcc.h **** 
 840:C:\Workspaces\DAVE-4.1\Flightcontroller_PWM_CopterRocks_Working/Libraries/CMSIS/Include\cmsis_gcc.h **** __attribute__( ( always_inline ) ) __STATIC_INLINE uint32_t __QADD8(uint32_t op1, uint32_t op2)
 841:C:\Workspaces\DAVE-4.1\Flightcontroller_PWM_CopterRocks_Working/Libraries/CMSIS/Include\cmsis_gcc.h **** {
 842:C:\Workspaces\DAVE-4.1\Flightcontroller_PWM_CopterRocks_Working/Libraries/CMSIS/Include\cmsis_gcc.h ****   uint32_t result;
 843:C:\Workspaces\DAVE-4.1\Flightcontroller_PWM_CopterRocks_Working/Libraries/CMSIS/Include\cmsis_gcc.h **** 
 844:C:\Workspaces\DAVE-4.1\Flightcontroller_PWM_CopterRocks_Working/Libraries/CMSIS/Include\cmsis_gcc.h ****   __ASM volatile ("qadd8 %0, %1, %2" : "=r" (result) : "r" (op1), "r" (op2) );
 845:C:\Workspaces\DAVE-4.1\Flightcontroller_PWM_CopterRocks_Working/Libraries/CMSIS/Include\cmsis_gcc.h ****   return(result);
 846:C:\Workspaces\DAVE-4.1\Flightcontroller_PWM_CopterRocks_Working/Libraries/CMSIS/Include\cmsis_gcc.h **** }
 847:C:\Workspaces\DAVE-4.1\Flightcontroller_PWM_CopterRocks_Working/Libraries/CMSIS/Include\cmsis_gcc.h **** 
 848:C:\Workspaces\DAVE-4.1\Flightcontroller_PWM_CopterRocks_Working/Libraries/CMSIS/Include\cmsis_gcc.h **** __attribute__( ( always_inline ) ) __STATIC_INLINE uint32_t __SHADD8(uint32_t op1, uint32_t op2)
 849:C:\Workspaces\DAVE-4.1\Flightcontroller_PWM_CopterRocks_Working/Libraries/CMSIS/Include\cmsis_gcc.h **** {
 850:C:\Workspaces\DAVE-4.1\Flightcontroller_PWM_CopterRocks_Working/Libraries/CMSIS/Include\cmsis_gcc.h ****   uint32_t result;
 851:C:\Workspaces\DAVE-4.1\Flightcontroller_PWM_CopterRocks_Working/Libraries/CMSIS/Include\cmsis_gcc.h **** 
 852:C:\Workspaces\DAVE-4.1\Flightcontroller_PWM_CopterRocks_Working/Libraries/CMSIS/Include\cmsis_gcc.h ****   __ASM volatile ("shadd8 %0, %1, %2" : "=r" (result) : "r" (op1), "r" (op2) );
 853:C:\Workspaces\DAVE-4.1\Flightcontroller_PWM_CopterRocks_Working/Libraries/CMSIS/Include\cmsis_gcc.h ****   return(result);
 854:C:\Workspaces\DAVE-4.1\Flightcontroller_PWM_CopterRocks_Working/Libraries/CMSIS/Include\cmsis_gcc.h **** }
 855:C:\Workspaces\DAVE-4.1\Flightcontroller_PWM_CopterRocks_Working/Libraries/CMSIS/Include\cmsis_gcc.h **** 
 856:C:\Workspaces\DAVE-4.1\Flightcontroller_PWM_CopterRocks_Working/Libraries/CMSIS/Include\cmsis_gcc.h **** __attribute__( ( always_inline ) ) __STATIC_INLINE uint32_t __UADD8(uint32_t op1, uint32_t op2)
 857:C:\Workspaces\DAVE-4.1\Flightcontroller_PWM_CopterRocks_Working/Libraries/CMSIS/Include\cmsis_gcc.h **** {
 858:C:\Workspaces\DAVE-4.1\Flightcontroller_PWM_CopterRocks_Working/Libraries/CMSIS/Include\cmsis_gcc.h ****   uint32_t result;
 859:C:\Workspaces\DAVE-4.1\Flightcontroller_PWM_CopterRocks_Working/Libraries/CMSIS/Include\cmsis_gcc.h **** 
 860:C:\Workspaces\DAVE-4.1\Flightcontroller_PWM_CopterRocks_Working/Libraries/CMSIS/Include\cmsis_gcc.h ****   __ASM volatile ("uadd8 %0, %1, %2" : "=r" (result) : "r" (op1), "r" (op2) );
 861:C:\Workspaces\DAVE-4.1\Flightcontroller_PWM_CopterRocks_Working/Libraries/CMSIS/Include\cmsis_gcc.h ****   return(result);
 862:C:\Workspaces\DAVE-4.1\Flightcontroller_PWM_CopterRocks_Working/Libraries/CMSIS/Include\cmsis_gcc.h **** }
 863:C:\Workspaces\DAVE-4.1\Flightcontroller_PWM_CopterRocks_Working/Libraries/CMSIS/Include\cmsis_gcc.h **** 
 864:C:\Workspaces\DAVE-4.1\Flightcontroller_PWM_CopterRocks_Working/Libraries/CMSIS/Include\cmsis_gcc.h **** __attribute__( ( always_inline ) ) __STATIC_INLINE uint32_t __UQADD8(uint32_t op1, uint32_t op2)
 865:C:\Workspaces\DAVE-4.1\Flightcontroller_PWM_CopterRocks_Working/Libraries/CMSIS/Include\cmsis_gcc.h **** {
 866:C:\Workspaces\DAVE-4.1\Flightcontroller_PWM_CopterRocks_Working/Libraries/CMSIS/Include\cmsis_gcc.h ****   uint32_t result;
 867:C:\Workspaces\DAVE-4.1\Flightcontroller_PWM_CopterRocks_Working/Libraries/CMSIS/Include\cmsis_gcc.h **** 
 868:C:\Workspaces\DAVE-4.1\Flightcontroller_PWM_CopterRocks_Working/Libraries/CMSIS/Include\cmsis_gcc.h ****   __ASM volatile ("uqadd8 %0, %1, %2" : "=r" (result) : "r" (op1), "r" (op2) );
 869:C:\Workspaces\DAVE-4.1\Flightcontroller_PWM_CopterRocks_Working/Libraries/CMSIS/Include\cmsis_gcc.h ****   return(result);
 870:C:\Workspaces\DAVE-4.1\Flightcontroller_PWM_CopterRocks_Working/Libraries/CMSIS/Include\cmsis_gcc.h **** }
 871:C:\Workspaces\DAVE-4.1\Flightcontroller_PWM_CopterRocks_Working/Libraries/CMSIS/Include\cmsis_gcc.h **** 
 872:C:\Workspaces\DAVE-4.1\Flightcontroller_PWM_CopterRocks_Working/Libraries/CMSIS/Include\cmsis_gcc.h **** __attribute__( ( always_inline ) ) __STATIC_INLINE uint32_t __UHADD8(uint32_t op1, uint32_t op2)
 873:C:\Workspaces\DAVE-4.1\Flightcontroller_PWM_CopterRocks_Working/Libraries/CMSIS/Include\cmsis_gcc.h **** {
 874:C:\Workspaces\DAVE-4.1\Flightcontroller_PWM_CopterRocks_Working/Libraries/CMSIS/Include\cmsis_gcc.h ****   uint32_t result;
 875:C:\Workspaces\DAVE-4.1\Flightcontroller_PWM_CopterRocks_Working/Libraries/CMSIS/Include\cmsis_gcc.h **** 
 876:C:\Workspaces\DAVE-4.1\Flightcontroller_PWM_CopterRocks_Working/Libraries/CMSIS/Include\cmsis_gcc.h ****   __ASM volatile ("uhadd8 %0, %1, %2" : "=r" (result) : "r" (op1), "r" (op2) );
 877:C:\Workspaces\DAVE-4.1\Flightcontroller_PWM_CopterRocks_Working/Libraries/CMSIS/Include\cmsis_gcc.h ****   return(result);
 878:C:\Workspaces\DAVE-4.1\Flightcontroller_PWM_CopterRocks_Working/Libraries/CMSIS/Include\cmsis_gcc.h **** }
 879:C:\Workspaces\DAVE-4.1\Flightcontroller_PWM_CopterRocks_Working/Libraries/CMSIS/Include\cmsis_gcc.h **** 
 880:C:\Workspaces\DAVE-4.1\Flightcontroller_PWM_CopterRocks_Working/Libraries/CMSIS/Include\cmsis_gcc.h **** 
 881:C:\Workspaces\DAVE-4.1\Flightcontroller_PWM_CopterRocks_Working/Libraries/CMSIS/Include\cmsis_gcc.h **** __attribute__( ( always_inline ) ) __STATIC_INLINE uint32_t __SSUB8(uint32_t op1, uint32_t op2)
 882:C:\Workspaces\DAVE-4.1\Flightcontroller_PWM_CopterRocks_Working/Libraries/CMSIS/Include\cmsis_gcc.h **** {
 883:C:\Workspaces\DAVE-4.1\Flightcontroller_PWM_CopterRocks_Working/Libraries/CMSIS/Include\cmsis_gcc.h ****   uint32_t result;
 884:C:\Workspaces\DAVE-4.1\Flightcontroller_PWM_CopterRocks_Working/Libraries/CMSIS/Include\cmsis_gcc.h **** 
 885:C:\Workspaces\DAVE-4.1\Flightcontroller_PWM_CopterRocks_Working/Libraries/CMSIS/Include\cmsis_gcc.h ****   __ASM volatile ("ssub8 %0, %1, %2" : "=r" (result) : "r" (op1), "r" (op2) );
 886:C:\Workspaces\DAVE-4.1\Flightcontroller_PWM_CopterRocks_Working/Libraries/CMSIS/Include\cmsis_gcc.h ****   return(result);
 887:C:\Workspaces\DAVE-4.1\Flightcontroller_PWM_CopterRocks_Working/Libraries/CMSIS/Include\cmsis_gcc.h **** }
 888:C:\Workspaces\DAVE-4.1\Flightcontroller_PWM_CopterRocks_Working/Libraries/CMSIS/Include\cmsis_gcc.h **** 
 889:C:\Workspaces\DAVE-4.1\Flightcontroller_PWM_CopterRocks_Working/Libraries/CMSIS/Include\cmsis_gcc.h **** __attribute__( ( always_inline ) ) __STATIC_INLINE uint32_t __QSUB8(uint32_t op1, uint32_t op2)
 890:C:\Workspaces\DAVE-4.1\Flightcontroller_PWM_CopterRocks_Working/Libraries/CMSIS/Include\cmsis_gcc.h **** {
 891:C:\Workspaces\DAVE-4.1\Flightcontroller_PWM_CopterRocks_Working/Libraries/CMSIS/Include\cmsis_gcc.h ****   uint32_t result;
 892:C:\Workspaces\DAVE-4.1\Flightcontroller_PWM_CopterRocks_Working/Libraries/CMSIS/Include\cmsis_gcc.h **** 
 893:C:\Workspaces\DAVE-4.1\Flightcontroller_PWM_CopterRocks_Working/Libraries/CMSIS/Include\cmsis_gcc.h ****   __ASM volatile ("qsub8 %0, %1, %2" : "=r" (result) : "r" (op1), "r" (op2) );
 894:C:\Workspaces\DAVE-4.1\Flightcontroller_PWM_CopterRocks_Working/Libraries/CMSIS/Include\cmsis_gcc.h ****   return(result);
 895:C:\Workspaces\DAVE-4.1\Flightcontroller_PWM_CopterRocks_Working/Libraries/CMSIS/Include\cmsis_gcc.h **** }
 896:C:\Workspaces\DAVE-4.1\Flightcontroller_PWM_CopterRocks_Working/Libraries/CMSIS/Include\cmsis_gcc.h **** 
 897:C:\Workspaces\DAVE-4.1\Flightcontroller_PWM_CopterRocks_Working/Libraries/CMSIS/Include\cmsis_gcc.h **** __attribute__( ( always_inline ) ) __STATIC_INLINE uint32_t __SHSUB8(uint32_t op1, uint32_t op2)
 898:C:\Workspaces\DAVE-4.1\Flightcontroller_PWM_CopterRocks_Working/Libraries/CMSIS/Include\cmsis_gcc.h **** {
 899:C:\Workspaces\DAVE-4.1\Flightcontroller_PWM_CopterRocks_Working/Libraries/CMSIS/Include\cmsis_gcc.h ****   uint32_t result;
 900:C:\Workspaces\DAVE-4.1\Flightcontroller_PWM_CopterRocks_Working/Libraries/CMSIS/Include\cmsis_gcc.h **** 
 901:C:\Workspaces\DAVE-4.1\Flightcontroller_PWM_CopterRocks_Working/Libraries/CMSIS/Include\cmsis_gcc.h ****   __ASM volatile ("shsub8 %0, %1, %2" : "=r" (result) : "r" (op1), "r" (op2) );
 902:C:\Workspaces\DAVE-4.1\Flightcontroller_PWM_CopterRocks_Working/Libraries/CMSIS/Include\cmsis_gcc.h ****   return(result);
 903:C:\Workspaces\DAVE-4.1\Flightcontroller_PWM_CopterRocks_Working/Libraries/CMSIS/Include\cmsis_gcc.h **** }
 904:C:\Workspaces\DAVE-4.1\Flightcontroller_PWM_CopterRocks_Working/Libraries/CMSIS/Include\cmsis_gcc.h **** 
 905:C:\Workspaces\DAVE-4.1\Flightcontroller_PWM_CopterRocks_Working/Libraries/CMSIS/Include\cmsis_gcc.h **** __attribute__( ( always_inline ) ) __STATIC_INLINE uint32_t __USUB8(uint32_t op1, uint32_t op2)
 906:C:\Workspaces\DAVE-4.1\Flightcontroller_PWM_CopterRocks_Working/Libraries/CMSIS/Include\cmsis_gcc.h **** {
 907:C:\Workspaces\DAVE-4.1\Flightcontroller_PWM_CopterRocks_Working/Libraries/CMSIS/Include\cmsis_gcc.h ****   uint32_t result;
 908:C:\Workspaces\DAVE-4.1\Flightcontroller_PWM_CopterRocks_Working/Libraries/CMSIS/Include\cmsis_gcc.h **** 
 909:C:\Workspaces\DAVE-4.1\Flightcontroller_PWM_CopterRocks_Working/Libraries/CMSIS/Include\cmsis_gcc.h ****   __ASM volatile ("usub8 %0, %1, %2" : "=r" (result) : "r" (op1), "r" (op2) );
 910:C:\Workspaces\DAVE-4.1\Flightcontroller_PWM_CopterRocks_Working/Libraries/CMSIS/Include\cmsis_gcc.h ****   return(result);
 911:C:\Workspaces\DAVE-4.1\Flightcontroller_PWM_CopterRocks_Working/Libraries/CMSIS/Include\cmsis_gcc.h **** }
 912:C:\Workspaces\DAVE-4.1\Flightcontroller_PWM_CopterRocks_Working/Libraries/CMSIS/Include\cmsis_gcc.h **** 
 913:C:\Workspaces\DAVE-4.1\Flightcontroller_PWM_CopterRocks_Working/Libraries/CMSIS/Include\cmsis_gcc.h **** __attribute__( ( always_inline ) ) __STATIC_INLINE uint32_t __UQSUB8(uint32_t op1, uint32_t op2)
 914:C:\Workspaces\DAVE-4.1\Flightcontroller_PWM_CopterRocks_Working/Libraries/CMSIS/Include\cmsis_gcc.h **** {
 915:C:\Workspaces\DAVE-4.1\Flightcontroller_PWM_CopterRocks_Working/Libraries/CMSIS/Include\cmsis_gcc.h ****   uint32_t result;
 916:C:\Workspaces\DAVE-4.1\Flightcontroller_PWM_CopterRocks_Working/Libraries/CMSIS/Include\cmsis_gcc.h **** 
