   1              	 .syntax unified
   2              	 .cpu cortex-m4
   3              	 .eabi_attribute 27,3
   4              	 .fpu fpv4-sp-d16
   5              	 .eabi_attribute 20,1
   6              	 .eabi_attribute 21,1
   7              	 .eabi_attribute 23,3
   8              	 .eabi_attribute 24,1
   9              	 .eabi_attribute 25,1
  10              	 .eabi_attribute 26,1
  11              	 .eabi_attribute 30,6
  12              	 .eabi_attribute 34,1
  13              	 .eabi_attribute 18,4
  14              	 .thumb
  15              	 .file "arm_fir_interpolate_q15.c"
  16              	 .text
  17              	.Ltext0:
  18              	 .cfi_sections .debug_frame
  19              	 .section .text.arm_fir_interpolate_q15,"ax",%progbits
  20              	 .align 2
  21              	 .global arm_fir_interpolate_q15
  22              	 .thumb
  23              	 .thumb_func
  25              	arm_fir_interpolate_q15:
  26              	.LFB139:
  27              	 .file 1 "../Dave/Generated/CMSIS_DSP/FilteringFunctions/arm_fir_interpolate_q15.c"
   1:../Dave/Generated/CMSIS_DSP/FilteringFunctions/arm_fir_interpolate_q15.c **** /*-----------------------------------------------------------------------------    
   2:../Dave/Generated/CMSIS_DSP/FilteringFunctions/arm_fir_interpolate_q15.c **** * Copyright (C) 2010-2014 ARM Limited. All rights reserved.    
   3:../Dave/Generated/CMSIS_DSP/FilteringFunctions/arm_fir_interpolate_q15.c **** *    
   4:../Dave/Generated/CMSIS_DSP/FilteringFunctions/arm_fir_interpolate_q15.c **** * $Date:        12. March 2014
   5:../Dave/Generated/CMSIS_DSP/FilteringFunctions/arm_fir_interpolate_q15.c **** * $Revision: 	V1.4.4
   6:../Dave/Generated/CMSIS_DSP/FilteringFunctions/arm_fir_interpolate_q15.c **** *    
   7:../Dave/Generated/CMSIS_DSP/FilteringFunctions/arm_fir_interpolate_q15.c **** * Project: 	    CMSIS DSP Library    
   8:../Dave/Generated/CMSIS_DSP/FilteringFunctions/arm_fir_interpolate_q15.c **** * Title:		arm_fir_interpolate_q15.c    
   9:../Dave/Generated/CMSIS_DSP/FilteringFunctions/arm_fir_interpolate_q15.c **** *    
  10:../Dave/Generated/CMSIS_DSP/FilteringFunctions/arm_fir_interpolate_q15.c **** * Description:	Q15 FIR interpolation.    
  11:../Dave/Generated/CMSIS_DSP/FilteringFunctions/arm_fir_interpolate_q15.c **** *    
  12:../Dave/Generated/CMSIS_DSP/FilteringFunctions/arm_fir_interpolate_q15.c **** * Target Processor: Cortex-M4/Cortex-M3/Cortex-M0
  13:../Dave/Generated/CMSIS_DSP/FilteringFunctions/arm_fir_interpolate_q15.c **** *  
  14:../Dave/Generated/CMSIS_DSP/FilteringFunctions/arm_fir_interpolate_q15.c **** * Redistribution and use in source and binary forms, with or without 
  15:../Dave/Generated/CMSIS_DSP/FilteringFunctions/arm_fir_interpolate_q15.c **** * modification, are permitted provided that the following conditions
  16:../Dave/Generated/CMSIS_DSP/FilteringFunctions/arm_fir_interpolate_q15.c **** * are met:
  17:../Dave/Generated/CMSIS_DSP/FilteringFunctions/arm_fir_interpolate_q15.c **** *   - Redistributions of source code must retain the above copyright
  18:../Dave/Generated/CMSIS_DSP/FilteringFunctions/arm_fir_interpolate_q15.c **** *     notice, this list of conditions and the following disclaimer.
  19:../Dave/Generated/CMSIS_DSP/FilteringFunctions/arm_fir_interpolate_q15.c **** *   - Redistributions in binary form must reproduce the above copyright
  20:../Dave/Generated/CMSIS_DSP/FilteringFunctions/arm_fir_interpolate_q15.c **** *     notice, this list of conditions and the following disclaimer in
  21:../Dave/Generated/CMSIS_DSP/FilteringFunctions/arm_fir_interpolate_q15.c **** *     the documentation and/or other materials provided with the 
  22:../Dave/Generated/CMSIS_DSP/FilteringFunctions/arm_fir_interpolate_q15.c **** *     distribution.
  23:../Dave/Generated/CMSIS_DSP/FilteringFunctions/arm_fir_interpolate_q15.c **** *   - Neither the name of ARM LIMITED nor the names of its contributors
  24:../Dave/Generated/CMSIS_DSP/FilteringFunctions/arm_fir_interpolate_q15.c **** *     may be used to endorse or promote products derived from this
  25:../Dave/Generated/CMSIS_DSP/FilteringFunctions/arm_fir_interpolate_q15.c **** *     software without specific prior written permission.
  26:../Dave/Generated/CMSIS_DSP/FilteringFunctions/arm_fir_interpolate_q15.c **** *
  27:../Dave/Generated/CMSIS_DSP/FilteringFunctions/arm_fir_interpolate_q15.c **** * THIS SOFTWARE IS PROVIDED BY THE COPYRIGHT HOLDERS AND CONTRIBUTORS
  28:../Dave/Generated/CMSIS_DSP/FilteringFunctions/arm_fir_interpolate_q15.c **** * "AS IS" AND ANY EXPRESS OR IMPLIED WARRANTIES, INCLUDING, BUT NOT
  29:../Dave/Generated/CMSIS_DSP/FilteringFunctions/arm_fir_interpolate_q15.c **** * LIMITED TO, THE IMPLIED WARRANTIES OF MERCHANTABILITY AND FITNESS
  30:../Dave/Generated/CMSIS_DSP/FilteringFunctions/arm_fir_interpolate_q15.c **** * FOR A PARTICULAR PURPOSE ARE DISCLAIMED. IN NO EVENT SHALL THE 
  31:../Dave/Generated/CMSIS_DSP/FilteringFunctions/arm_fir_interpolate_q15.c **** * COPYRIGHT OWNER OR CONTRIBUTORS BE LIABLE FOR ANY DIRECT, INDIRECT,
  32:../Dave/Generated/CMSIS_DSP/FilteringFunctions/arm_fir_interpolate_q15.c **** * INCIDENTAL, SPECIAL, EXEMPLARY, OR CONSEQUENTIAL DAMAGES (INCLUDING,
  33:../Dave/Generated/CMSIS_DSP/FilteringFunctions/arm_fir_interpolate_q15.c **** * BUT NOT LIMITED TO, PROCUREMENT OF SUBSTITUTE GOODS OR SERVICES;
  34:../Dave/Generated/CMSIS_DSP/FilteringFunctions/arm_fir_interpolate_q15.c **** * LOSS OF USE, DATA, OR PROFITS; OR BUSINESS INTERRUPTION) HOWEVER
  35:../Dave/Generated/CMSIS_DSP/FilteringFunctions/arm_fir_interpolate_q15.c **** * CAUSED AND ON ANY THEORY OF LIABILITY, WHETHER IN CONTRACT, STRICT
  36:../Dave/Generated/CMSIS_DSP/FilteringFunctions/arm_fir_interpolate_q15.c **** * LIABILITY, OR TORT (INCLUDING NEGLIGENCE OR OTHERWISE) ARISING IN
  37:../Dave/Generated/CMSIS_DSP/FilteringFunctions/arm_fir_interpolate_q15.c **** * ANY WAY OUT OF THE USE OF THIS SOFTWARE, EVEN IF ADVISED OF THE
  38:../Dave/Generated/CMSIS_DSP/FilteringFunctions/arm_fir_interpolate_q15.c **** * POSSIBILITY OF SUCH DAMAGE.    
  39:../Dave/Generated/CMSIS_DSP/FilteringFunctions/arm_fir_interpolate_q15.c **** * ---------------------------------------------------------------------------*/
  40:../Dave/Generated/CMSIS_DSP/FilteringFunctions/arm_fir_interpolate_q15.c **** 
  41:../Dave/Generated/CMSIS_DSP/FilteringFunctions/arm_fir_interpolate_q15.c **** #include "CMSIS_DSP/cmsis_dsp.h"
  42:../Dave/Generated/CMSIS_DSP/FilteringFunctions/arm_fir_interpolate_q15.c **** 
  43:../Dave/Generated/CMSIS_DSP/FilteringFunctions/arm_fir_interpolate_q15.c **** /**    
  44:../Dave/Generated/CMSIS_DSP/FilteringFunctions/arm_fir_interpolate_q15.c ****  * @ingroup groupFilters    
  45:../Dave/Generated/CMSIS_DSP/FilteringFunctions/arm_fir_interpolate_q15.c ****  */
  46:../Dave/Generated/CMSIS_DSP/FilteringFunctions/arm_fir_interpolate_q15.c **** 
  47:../Dave/Generated/CMSIS_DSP/FilteringFunctions/arm_fir_interpolate_q15.c **** /**    
  48:../Dave/Generated/CMSIS_DSP/FilteringFunctions/arm_fir_interpolate_q15.c ****  * @addtogroup FIR_Interpolate    
  49:../Dave/Generated/CMSIS_DSP/FilteringFunctions/arm_fir_interpolate_q15.c ****  * @{    
  50:../Dave/Generated/CMSIS_DSP/FilteringFunctions/arm_fir_interpolate_q15.c ****  */
  51:../Dave/Generated/CMSIS_DSP/FilteringFunctions/arm_fir_interpolate_q15.c **** 
  52:../Dave/Generated/CMSIS_DSP/FilteringFunctions/arm_fir_interpolate_q15.c **** /**    
  53:../Dave/Generated/CMSIS_DSP/FilteringFunctions/arm_fir_interpolate_q15.c ****  * @brief Processing function for the Q15 FIR interpolator.    
  54:../Dave/Generated/CMSIS_DSP/FilteringFunctions/arm_fir_interpolate_q15.c ****  * @param[in] *S        points to an instance of the Q15 FIR interpolator structure.    
  55:../Dave/Generated/CMSIS_DSP/FilteringFunctions/arm_fir_interpolate_q15.c ****  * @param[in] *pSrc     points to the block of input data.    
  56:../Dave/Generated/CMSIS_DSP/FilteringFunctions/arm_fir_interpolate_q15.c ****  * @param[out] *pDst    points to the block of output data.    
  57:../Dave/Generated/CMSIS_DSP/FilteringFunctions/arm_fir_interpolate_q15.c ****  * @param[in] blockSize number of input samples to process per call.    
  58:../Dave/Generated/CMSIS_DSP/FilteringFunctions/arm_fir_interpolate_q15.c ****  * @return none.    
  59:../Dave/Generated/CMSIS_DSP/FilteringFunctions/arm_fir_interpolate_q15.c ****  *    
  60:../Dave/Generated/CMSIS_DSP/FilteringFunctions/arm_fir_interpolate_q15.c ****  * <b>Scaling and Overflow Behavior:</b>    
  61:../Dave/Generated/CMSIS_DSP/FilteringFunctions/arm_fir_interpolate_q15.c ****  * \par    
  62:../Dave/Generated/CMSIS_DSP/FilteringFunctions/arm_fir_interpolate_q15.c ****  * The function is implemented using a 64-bit internal accumulator.    
  63:../Dave/Generated/CMSIS_DSP/FilteringFunctions/arm_fir_interpolate_q15.c ****  * Both coefficients and state variables are represented in 1.15 format and multiplications yield a
  64:../Dave/Generated/CMSIS_DSP/FilteringFunctions/arm_fir_interpolate_q15.c ****  * The 2.30 intermediate results are accumulated in a 64-bit accumulator in 34.30 format.    
  65:../Dave/Generated/CMSIS_DSP/FilteringFunctions/arm_fir_interpolate_q15.c ****  * There is no risk of internal overflow with this approach and the full precision of intermediate 
  66:../Dave/Generated/CMSIS_DSP/FilteringFunctions/arm_fir_interpolate_q15.c ****  * After all additions have been performed, the accumulator is truncated to 34.15 format by discard
  67:../Dave/Generated/CMSIS_DSP/FilteringFunctions/arm_fir_interpolate_q15.c ****  * Lastly, the accumulator is saturated to yield a result in 1.15 format.    
  68:../Dave/Generated/CMSIS_DSP/FilteringFunctions/arm_fir_interpolate_q15.c ****  */
  69:../Dave/Generated/CMSIS_DSP/FilteringFunctions/arm_fir_interpolate_q15.c **** 
  70:../Dave/Generated/CMSIS_DSP/FilteringFunctions/arm_fir_interpolate_q15.c **** #ifndef ARM_MATH_CM0_FAMILY
  71:../Dave/Generated/CMSIS_DSP/FilteringFunctions/arm_fir_interpolate_q15.c **** 
  72:../Dave/Generated/CMSIS_DSP/FilteringFunctions/arm_fir_interpolate_q15.c ****   /* Run the below code for Cortex-M4 and Cortex-M3 */
  73:../Dave/Generated/CMSIS_DSP/FilteringFunctions/arm_fir_interpolate_q15.c **** 
  74:../Dave/Generated/CMSIS_DSP/FilteringFunctions/arm_fir_interpolate_q15.c **** void arm_fir_interpolate_q15(
  75:../Dave/Generated/CMSIS_DSP/FilteringFunctions/arm_fir_interpolate_q15.c ****   const arm_fir_interpolate_instance_q15 * S,
  76:../Dave/Generated/CMSIS_DSP/FilteringFunctions/arm_fir_interpolate_q15.c ****   q15_t * pSrc,
  77:../Dave/Generated/CMSIS_DSP/FilteringFunctions/arm_fir_interpolate_q15.c ****   q15_t * pDst,
  78:../Dave/Generated/CMSIS_DSP/FilteringFunctions/arm_fir_interpolate_q15.c ****   uint32_t blockSize)
  79:../Dave/Generated/CMSIS_DSP/FilteringFunctions/arm_fir_interpolate_q15.c **** {
  28              	 .loc 1 79 0
  29              	 .cfi_startproc
  30              	 
  31              	 
  32 0000 2DE9F04F 	 push {r4,r5,r6,r7,r8,r9,r10,fp,lr}
  33              	.LCFI0:
  34              	 .cfi_def_cfa_offset 36
  35              	 .cfi_offset 4,-36
  36              	 .cfi_offset 5,-32
  37              	 .cfi_offset 6,-28
  38              	 .cfi_offset 7,-24
  39              	 .cfi_offset 8,-20
  40              	 .cfi_offset 9,-16
  41              	 .cfi_offset 10,-12
  42              	 .cfi_offset 11,-8
  43              	 .cfi_offset 14,-4
  44 0004 9FB0     	 sub sp,sp,#124
  45              	.LCFI1:
  46              	 .cfi_def_cfa_offset 160
  47 0006 00AF     	 add r7,sp,#0
  48              	.LCFI2:
  49              	 .cfi_def_cfa_register 7
  50 0008 F860     	 str r0,[r7,#12]
  51 000a B960     	 str r1,[r7,#8]
  52 000c 7A60     	 str r2,[r7,#4]
  53 000e 3B60     	 str r3,[r7]
  80:../Dave/Generated/CMSIS_DSP/FilteringFunctions/arm_fir_interpolate_q15.c ****   q15_t *pState = S->pState;                     /* State pointer                                  
  54              	 .loc 1 80 0
  55 0010 FB68     	 ldr r3,[r7,#12]
  56 0012 9B68     	 ldr r3,[r3,#8]
  57 0014 7B61     	 str r3,[r7,#20]
  81:../Dave/Generated/CMSIS_DSP/FilteringFunctions/arm_fir_interpolate_q15.c ****   q15_t *pCoeffs = S->pCoeffs;                   /* Coefficient pointer                            
  58              	 .loc 1 81 0
  59 0016 FB68     	 ldr r3,[r7,#12]
  60 0018 5B68     	 ldr r3,[r3,#4]
  61 001a FB63     	 str r3,[r7,#60]
  82:../Dave/Generated/CMSIS_DSP/FilteringFunctions/arm_fir_interpolate_q15.c ****   q15_t *pStateCurnt;                            /* Points to the current sample of the state      
  83:../Dave/Generated/CMSIS_DSP/FilteringFunctions/arm_fir_interpolate_q15.c ****   q15_t *ptr1, *ptr2;                            /* Temporary pointers for state and coefficient bu
  84:../Dave/Generated/CMSIS_DSP/FilteringFunctions/arm_fir_interpolate_q15.c ****   q63_t sum0;                                    /* Accumulators                                   
  85:../Dave/Generated/CMSIS_DSP/FilteringFunctions/arm_fir_interpolate_q15.c ****   q15_t x0, c0;                                  /* Temporary variables to hold state and coefficie
  86:../Dave/Generated/CMSIS_DSP/FilteringFunctions/arm_fir_interpolate_q15.c ****   uint32_t i, blkCnt, j, tapCnt;                 /* Loop counters                                  
  87:../Dave/Generated/CMSIS_DSP/FilteringFunctions/arm_fir_interpolate_q15.c ****   uint16_t phaseLen = S->phaseLength;            /* Length of each polyphase filter component */
  62              	 .loc 1 87 0
  63 001c FB68     	 ldr r3,[r7,#12]
  64 001e 5B88     	 ldrh r3,[r3,#2]
  65 0020 7B87     	 strh r3,[r7,#58]
  88:../Dave/Generated/CMSIS_DSP/FilteringFunctions/arm_fir_interpolate_q15.c ****   uint32_t blkCntN2;
  89:../Dave/Generated/CMSIS_DSP/FilteringFunctions/arm_fir_interpolate_q15.c ****   q63_t acc0, acc1;
  90:../Dave/Generated/CMSIS_DSP/FilteringFunctions/arm_fir_interpolate_q15.c ****   q15_t x1;
  91:../Dave/Generated/CMSIS_DSP/FilteringFunctions/arm_fir_interpolate_q15.c **** 
  92:../Dave/Generated/CMSIS_DSP/FilteringFunctions/arm_fir_interpolate_q15.c ****   /* S->pState buffer contains previous frame (phaseLen - 1) samples */
  93:../Dave/Generated/CMSIS_DSP/FilteringFunctions/arm_fir_interpolate_q15.c ****   /* pStateCurnt points to the location where the new input data should be written */
  94:../Dave/Generated/CMSIS_DSP/FilteringFunctions/arm_fir_interpolate_q15.c ****   pStateCurnt = S->pState + ((q31_t) phaseLen - 1);
  66              	 .loc 1 94 0
  67 0022 FB68     	 ldr r3,[r7,#12]
  68 0024 9A68     	 ldr r2,[r3,#8]
  69 0026 7B8F     	 ldrh r3,[r7,#58]
  70 0028 03F10043 	 add r3,r3,#-2147483648
  71 002c 013B     	 subs r3,r3,#1
  72 002e 5B00     	 lsls r3,r3,#1
  73 0030 1344     	 add r3,r3,r2
  74 0032 3B61     	 str r3,[r7,#16]
  95:../Dave/Generated/CMSIS_DSP/FilteringFunctions/arm_fir_interpolate_q15.c **** 
  96:../Dave/Generated/CMSIS_DSP/FilteringFunctions/arm_fir_interpolate_q15.c ****   /* Initialise  blkCnt */
  97:../Dave/Generated/CMSIS_DSP/FilteringFunctions/arm_fir_interpolate_q15.c ****   blkCnt = blockSize / 2;
  75              	 .loc 1 97 0
  76 0034 3B68     	 ldr r3,[r7]
  77 0036 5B08     	 lsrs r3,r3,#1
  78 0038 FB65     	 str r3,[r7,#92]
  98:../Dave/Generated/CMSIS_DSP/FilteringFunctions/arm_fir_interpolate_q15.c ****   blkCntN2 = blockSize - (2 * blkCnt);
  79              	 .loc 1 98 0
  80 003a FB6D     	 ldr r3,[r7,#92]
  81 003c 5B00     	 lsls r3,r3,#1
  82 003e 3A68     	 ldr r2,[r7]
  83 0040 D31A     	 subs r3,r2,r3
  84 0042 7B63     	 str r3,[r7,#52]
  99:../Dave/Generated/CMSIS_DSP/FilteringFunctions/arm_fir_interpolate_q15.c **** 
 100:../Dave/Generated/CMSIS_DSP/FilteringFunctions/arm_fir_interpolate_q15.c ****   /* Samples loop unrolled by 2 */
 101:../Dave/Generated/CMSIS_DSP/FilteringFunctions/arm_fir_interpolate_q15.c ****   while(blkCnt > 0u)
  85              	 .loc 1 101 0
  86 0044 C6E1     	 b .L2
  87              	.L9:
 102:../Dave/Generated/CMSIS_DSP/FilteringFunctions/arm_fir_interpolate_q15.c ****   {
 103:../Dave/Generated/CMSIS_DSP/FilteringFunctions/arm_fir_interpolate_q15.c ****     /* Copy new input sample into the state buffer */
 104:../Dave/Generated/CMSIS_DSP/FilteringFunctions/arm_fir_interpolate_q15.c ****     *pStateCurnt++ = *pSrc++;
  88              	 .loc 1 104 0
  89 0046 3B69     	 ldr r3,[r7,#16]
  90 0048 9A1C     	 adds r2,r3,#2
  91 004a 3A61     	 str r2,[r7,#16]
  92 004c BA68     	 ldr r2,[r7,#8]
  93 004e 911C     	 adds r1,r2,#2
  94 0050 B960     	 str r1,[r7,#8]
  95 0052 1288     	 ldrh r2,[r2]
  96 0054 1A80     	 strh r2,[r3]
 105:../Dave/Generated/CMSIS_DSP/FilteringFunctions/arm_fir_interpolate_q15.c ****     *pStateCurnt++ = *pSrc++;
  97              	 .loc 1 105 0
  98 0056 3B69     	 ldr r3,[r7,#16]
  99 0058 9A1C     	 adds r2,r3,#2
 100 005a 3A61     	 str r2,[r7,#16]
 101 005c BA68     	 ldr r2,[r7,#8]
 102 005e 911C     	 adds r1,r2,#2
 103 0060 B960     	 str r1,[r7,#8]
 104 0062 1288     	 ldrh r2,[r2]
 105 0064 1A80     	 strh r2,[r3]
 106:../Dave/Generated/CMSIS_DSP/FilteringFunctions/arm_fir_interpolate_q15.c **** 
 107:../Dave/Generated/CMSIS_DSP/FilteringFunctions/arm_fir_interpolate_q15.c ****     /* Address modifier index of coefficient buffer */
 108:../Dave/Generated/CMSIS_DSP/FilteringFunctions/arm_fir_interpolate_q15.c ****     j = 1u;
 106              	 .loc 1 108 0
 107 0066 0123     	 movs r3,#1
 108 0068 BB65     	 str r3,[r7,#88]
 109:../Dave/Generated/CMSIS_DSP/FilteringFunctions/arm_fir_interpolate_q15.c **** 
 110:../Dave/Generated/CMSIS_DSP/FilteringFunctions/arm_fir_interpolate_q15.c ****     /* Loop over the Interpolation factor. */
 111:../Dave/Generated/CMSIS_DSP/FilteringFunctions/arm_fir_interpolate_q15.c ****     i = (S->L);
 109              	 .loc 1 111 0
 110 006a FB68     	 ldr r3,[r7,#12]
 111 006c 1B78     	 ldrb r3,[r3]
 112 006e 3B66     	 str r3,[r7,#96]
 112:../Dave/Generated/CMSIS_DSP/FilteringFunctions/arm_fir_interpolate_q15.c **** 
 113:../Dave/Generated/CMSIS_DSP/FilteringFunctions/arm_fir_interpolate_q15.c ****     while(i > 0u)
 113              	 .loc 1 113 0
 114 0070 A0E1     	 b .L3
 115              	.L8:
 114:../Dave/Generated/CMSIS_DSP/FilteringFunctions/arm_fir_interpolate_q15.c ****     {
 115:../Dave/Generated/CMSIS_DSP/FilteringFunctions/arm_fir_interpolate_q15.c ****       /* Set accumulator to zero */
 116:../Dave/Generated/CMSIS_DSP/FilteringFunctions/arm_fir_interpolate_q15.c ****       acc0 = 0;
 116              	 .loc 1 116 0
 117 0072 4FF00002 	 mov r2,#0
 118 0076 4FF00003 	 mov r3,#0
 119 007a C7E91223 	 strd r2,[r7,#72]
 117:../Dave/Generated/CMSIS_DSP/FilteringFunctions/arm_fir_interpolate_q15.c ****       acc1 = 0;
 120              	 .loc 1 117 0
 121 007e 4FF00002 	 mov r2,#0
 122 0082 4FF00003 	 mov r3,#0
 123 0086 C7E91023 	 strd r2,[r7,#64]
 118:../Dave/Generated/CMSIS_DSP/FilteringFunctions/arm_fir_interpolate_q15.c **** 
 119:../Dave/Generated/CMSIS_DSP/FilteringFunctions/arm_fir_interpolate_q15.c ****       /* Initialize state pointer */
 120:../Dave/Generated/CMSIS_DSP/FilteringFunctions/arm_fir_interpolate_q15.c ****       ptr1 = pState;
 124              	 .loc 1 120 0
 125 008a 7B69     	 ldr r3,[r7,#20]
 126 008c 7B67     	 str r3,[r7,#116]
 121:../Dave/Generated/CMSIS_DSP/FilteringFunctions/arm_fir_interpolate_q15.c **** 
 122:../Dave/Generated/CMSIS_DSP/FilteringFunctions/arm_fir_interpolate_q15.c ****       /* Initialize coefficient pointer */
 123:../Dave/Generated/CMSIS_DSP/FilteringFunctions/arm_fir_interpolate_q15.c ****       ptr2 = pCoeffs + (S->L - j);
 127              	 .loc 1 123 0
 128 008e FB68     	 ldr r3,[r7,#12]
 129 0090 1B78     	 ldrb r3,[r3]
 130 0092 1A46     	 mov r2,r3
 131 0094 BB6D     	 ldr r3,[r7,#88]
 132 0096 D31A     	 subs r3,r2,r3
 133 0098 5B00     	 lsls r3,r3,#1
 134 009a FA6B     	 ldr r2,[r7,#60]
 135 009c 1344     	 add r3,r3,r2
 136 009e 3B67     	 str r3,[r7,#112]
 124:../Dave/Generated/CMSIS_DSP/FilteringFunctions/arm_fir_interpolate_q15.c **** 
 125:../Dave/Generated/CMSIS_DSP/FilteringFunctions/arm_fir_interpolate_q15.c ****       /* Loop over the polyPhase length. Unroll by a factor of 4.        
 126:../Dave/Generated/CMSIS_DSP/FilteringFunctions/arm_fir_interpolate_q15.c ****        ** Repeat until we've computed numTaps-(4*S->L) coefficients. */
 127:../Dave/Generated/CMSIS_DSP/FilteringFunctions/arm_fir_interpolate_q15.c ****       tapCnt = phaseLen >> 2u;
 137              	 .loc 1 127 0
 138 00a0 7B8F     	 ldrh r3,[r7,#58]
 139 00a2 9B08     	 lsrs r3,r3,#2
 140 00a4 9BB2     	 uxth r3,r3
 141 00a6 7B65     	 str r3,[r7,#84]
 128:../Dave/Generated/CMSIS_DSP/FilteringFunctions/arm_fir_interpolate_q15.c **** 
 129:../Dave/Generated/CMSIS_DSP/FilteringFunctions/arm_fir_interpolate_q15.c ****       x0 = *(ptr1++);
 142              	 .loc 1 129 0
 143 00a8 7B6F     	 ldr r3,[r7,#116]
 144 00aa 9A1C     	 adds r2,r3,#2
 145 00ac 7A67     	 str r2,[r7,#116]
 146 00ae 1B88     	 ldrh r3,[r3]
 147 00b0 A7F86630 	 strh r3,[r7,#102]
 130:../Dave/Generated/CMSIS_DSP/FilteringFunctions/arm_fir_interpolate_q15.c **** 
 131:../Dave/Generated/CMSIS_DSP/FilteringFunctions/arm_fir_interpolate_q15.c ****       while(tapCnt > 0u)
 148              	 .loc 1 131 0
 149 00b4 FDE0     	 b .L4
 150              	.L5:
 132:../Dave/Generated/CMSIS_DSP/FilteringFunctions/arm_fir_interpolate_q15.c ****       {
 133:../Dave/Generated/CMSIS_DSP/FilteringFunctions/arm_fir_interpolate_q15.c **** 
 134:../Dave/Generated/CMSIS_DSP/FilteringFunctions/arm_fir_interpolate_q15.c ****         /* Read the input sample */
 135:../Dave/Generated/CMSIS_DSP/FilteringFunctions/arm_fir_interpolate_q15.c ****         x1 = *(ptr1++);
 151              	 .loc 1 135 0
 152 00b6 7B6F     	 ldr r3,[r7,#116]
 153 00b8 9A1C     	 adds r2,r3,#2
 154 00ba 7A67     	 str r2,[r7,#116]
 155 00bc 1B88     	 ldrh r3,[r3]
 156 00be 7B86     	 strh r3,[r7,#50]
 136:../Dave/Generated/CMSIS_DSP/FilteringFunctions/arm_fir_interpolate_q15.c **** 
 137:../Dave/Generated/CMSIS_DSP/FilteringFunctions/arm_fir_interpolate_q15.c ****         /* Read the coefficient */
 138:../Dave/Generated/CMSIS_DSP/FilteringFunctions/arm_fir_interpolate_q15.c ****         c0 = *(ptr2);
 157              	 .loc 1 138 0
 158 00c0 3B6F     	 ldr r3,[r7,#112]
 159 00c2 1B88     	 ldrh r3,[r3]
 160 00c4 3B86     	 strh r3,[r7,#48]
 139:../Dave/Generated/CMSIS_DSP/FilteringFunctions/arm_fir_interpolate_q15.c **** 
 140:../Dave/Generated/CMSIS_DSP/FilteringFunctions/arm_fir_interpolate_q15.c ****         /* Perform the multiply-accumulate */
 141:../Dave/Generated/CMSIS_DSP/FilteringFunctions/arm_fir_interpolate_q15.c ****         acc0 += (q63_t) x0 *c0;
 161              	 .loc 1 141 0
 162 00c6 B7F96600 	 ldrsh r0,[r7,#102]
 163 00ca 4FEAE071 	 asr r1,r0,#31
 164 00ce B7F93020 	 ldrsh r2,[r7,#48]
 165 00d2 4FEAE273 	 asr r3,r2,#31
 166 00d6 02FB01FE 	 mul lr,r2,r1
 167 00da 00FB03F6 	 mul r6,r0,r3
 168 00de 7644     	 add r6,r6,lr
 169 00e0 A0FB0223 	 umull r2,r3,r0,r2
 170 00e4 F118     	 adds r1,r6,r3
 171 00e6 0B46     	 mov r3,r1
 172 00e8 D7E91201 	 ldrd r0,[r7,#72]
 173 00ec 1218     	 adds r2,r2,r0
 174 00ee 43EB0103 	 adc r3,r3,r1
 175 00f2 C7E91223 	 strd r2,[r7,#72]
 142:../Dave/Generated/CMSIS_DSP/FilteringFunctions/arm_fir_interpolate_q15.c ****         acc1 += (q63_t) x1 *c0;
 176              	 .loc 1 142 0
 177 00f6 B7F93200 	 ldrsh r0,[r7,#50]
 178 00fa 4FEAE071 	 asr r1,r0,#31
 179 00fe B7F93020 	 ldrsh r2,[r7,#48]
 180 0102 4FEAE273 	 asr r3,r2,#31
 181 0106 02FB01FE 	 mul lr,r2,r1
 182 010a 00FB03F6 	 mul r6,r0,r3
 183 010e 7644     	 add r6,r6,lr
 184 0110 A0FB0223 	 umull r2,r3,r0,r2
 185 0114 F118     	 adds r1,r6,r3
 186 0116 0B46     	 mov r3,r1
 187 0118 D7E91001 	 ldrd r0,[r7,#64]
 188 011c 1218     	 adds r2,r2,r0
 189 011e 43EB0103 	 adc r3,r3,r1
 190 0122 C7E91023 	 strd r2,[r7,#64]
 143:../Dave/Generated/CMSIS_DSP/FilteringFunctions/arm_fir_interpolate_q15.c **** 
 144:../Dave/Generated/CMSIS_DSP/FilteringFunctions/arm_fir_interpolate_q15.c **** 
 145:../Dave/Generated/CMSIS_DSP/FilteringFunctions/arm_fir_interpolate_q15.c ****         /* Read the coefficient */
 146:../Dave/Generated/CMSIS_DSP/FilteringFunctions/arm_fir_interpolate_q15.c ****         c0 = *(ptr2 + S->L);
 191              	 .loc 1 146 0
 192 0126 FB68     	 ldr r3,[r7,#12]
 193 0128 1B78     	 ldrb r3,[r3]
 194 012a 5B00     	 lsls r3,r3,#1
 195 012c 3A6F     	 ldr r2,[r7,#112]
 196 012e 1344     	 add r3,r3,r2
 197 0130 1B88     	 ldrh r3,[r3]
 198 0132 3B86     	 strh r3,[r7,#48]
 147:../Dave/Generated/CMSIS_DSP/FilteringFunctions/arm_fir_interpolate_q15.c **** 
 148:../Dave/Generated/CMSIS_DSP/FilteringFunctions/arm_fir_interpolate_q15.c ****         /* Read the input sample */
 149:../Dave/Generated/CMSIS_DSP/FilteringFunctions/arm_fir_interpolate_q15.c ****         x0 = *(ptr1++);
 199              	 .loc 1 149 0
 200 0134 7B6F     	 ldr r3,[r7,#116]
 201 0136 9A1C     	 adds r2,r3,#2
 202 0138 7A67     	 str r2,[r7,#116]
 203 013a 1B88     	 ldrh r3,[r3]
 204 013c A7F86630 	 strh r3,[r7,#102]
 150:../Dave/Generated/CMSIS_DSP/FilteringFunctions/arm_fir_interpolate_q15.c **** 
 151:../Dave/Generated/CMSIS_DSP/FilteringFunctions/arm_fir_interpolate_q15.c ****         /* Perform the multiply-accumulate */
 152:../Dave/Generated/CMSIS_DSP/FilteringFunctions/arm_fir_interpolate_q15.c ****         acc0 += (q63_t) x1 *c0;
 205              	 .loc 1 152 0
 206 0140 B7F93200 	 ldrsh r0,[r7,#50]
 207 0144 4FEAE071 	 asr r1,r0,#31
 208 0148 B7F93020 	 ldrsh r2,[r7,#48]
 209 014c 4FEAE273 	 asr r3,r2,#31
 210 0150 02FB01FE 	 mul lr,r2,r1
 211 0154 00FB03F6 	 mul r6,r0,r3
 212 0158 7644     	 add r6,r6,lr
 213 015a A0FB0223 	 umull r2,r3,r0,r2
 214 015e F118     	 adds r1,r6,r3
 215 0160 0B46     	 mov r3,r1
 216 0162 D7E91201 	 ldrd r0,[r7,#72]
 217 0166 1218     	 adds r2,r2,r0
 218 0168 43EB0103 	 adc r3,r3,r1
 219 016c C7E91223 	 strd r2,[r7,#72]
 153:../Dave/Generated/CMSIS_DSP/FilteringFunctions/arm_fir_interpolate_q15.c ****         acc1 += (q63_t) x0 *c0;
 220              	 .loc 1 153 0
 221 0170 B7F96600 	 ldrsh r0,[r7,#102]
 222 0174 4FEAE071 	 asr r1,r0,#31
 223 0178 B7F93020 	 ldrsh r2,[r7,#48]
 224 017c 4FEAE273 	 asr r3,r2,#31
 225 0180 02FB01FE 	 mul lr,r2,r1
 226 0184 00FB03F6 	 mul r6,r0,r3
 227 0188 7644     	 add r6,r6,lr
 228 018a A0FB0223 	 umull r2,r3,r0,r2
 229 018e F118     	 adds r1,r6,r3
 230 0190 0B46     	 mov r3,r1
 231 0192 D7E91001 	 ldrd r0,[r7,#64]
 232 0196 1218     	 adds r2,r2,r0
 233 0198 43EB0103 	 adc r3,r3,r1
 234 019c C7E91023 	 strd r2,[r7,#64]
 154:../Dave/Generated/CMSIS_DSP/FilteringFunctions/arm_fir_interpolate_q15.c **** 
 155:../Dave/Generated/CMSIS_DSP/FilteringFunctions/arm_fir_interpolate_q15.c **** 
 156:../Dave/Generated/CMSIS_DSP/FilteringFunctions/arm_fir_interpolate_q15.c ****         /* Read the coefficient */
 157:../Dave/Generated/CMSIS_DSP/FilteringFunctions/arm_fir_interpolate_q15.c ****         c0 = *(ptr2 + S->L * 2);
 235              	 .loc 1 157 0
 236 01a0 FB68     	 ldr r3,[r7,#12]
 237 01a2 1B78     	 ldrb r3,[r3]
 238 01a4 9B00     	 lsls r3,r3,#2
 239 01a6 1A46     	 mov r2,r3
 240 01a8 3B6F     	 ldr r3,[r7,#112]
 241 01aa 1344     	 add r3,r3,r2
 242 01ac 1B88     	 ldrh r3,[r3]
 243 01ae 3B86     	 strh r3,[r7,#48]
 158:../Dave/Generated/CMSIS_DSP/FilteringFunctions/arm_fir_interpolate_q15.c **** 
 159:../Dave/Generated/CMSIS_DSP/FilteringFunctions/arm_fir_interpolate_q15.c ****         /* Read the input sample */
 160:../Dave/Generated/CMSIS_DSP/FilteringFunctions/arm_fir_interpolate_q15.c ****         x1 = *(ptr1++);
 244              	 .loc 1 160 0
 245 01b0 7B6F     	 ldr r3,[r7,#116]
 246 01b2 9A1C     	 adds r2,r3,#2
 247 01b4 7A67     	 str r2,[r7,#116]
 248 01b6 1B88     	 ldrh r3,[r3]
 249 01b8 7B86     	 strh r3,[r7,#50]
 161:../Dave/Generated/CMSIS_DSP/FilteringFunctions/arm_fir_interpolate_q15.c **** 
 162:../Dave/Generated/CMSIS_DSP/FilteringFunctions/arm_fir_interpolate_q15.c ****         /* Perform the multiply-accumulate */
 163:../Dave/Generated/CMSIS_DSP/FilteringFunctions/arm_fir_interpolate_q15.c ****         acc0 += (q63_t) x0 *c0;
 250              	 .loc 1 163 0
 251 01ba B7F96600 	 ldrsh r0,[r7,#102]
 252 01be 4FEAE071 	 asr r1,r0,#31
 253 01c2 B7F93020 	 ldrsh r2,[r7,#48]
 254 01c6 4FEAE273 	 asr r3,r2,#31
 255 01ca 02FB01FE 	 mul lr,r2,r1
 256 01ce 00FB03F6 	 mul r6,r0,r3
 257 01d2 7644     	 add r6,r6,lr
 258 01d4 A0FB0223 	 umull r2,r3,r0,r2
 259 01d8 F118     	 adds r1,r6,r3
 260 01da 0B46     	 mov r3,r1
 261 01dc D7E91201 	 ldrd r0,[r7,#72]
 262 01e0 1218     	 adds r2,r2,r0
 263 01e2 43EB0103 	 adc r3,r3,r1
 264 01e6 C7E91223 	 strd r2,[r7,#72]
 164:../Dave/Generated/CMSIS_DSP/FilteringFunctions/arm_fir_interpolate_q15.c ****         acc1 += (q63_t) x1 *c0;
 265              	 .loc 1 164 0
 266 01ea B7F93200 	 ldrsh r0,[r7,#50]
 267 01ee 4FEAE071 	 asr r1,r0,#31
 268 01f2 B7F93020 	 ldrsh r2,[r7,#48]
 269 01f6 4FEAE273 	 asr r3,r2,#31
 270 01fa 02FB01FE 	 mul lr,r2,r1
 271 01fe 00FB03F6 	 mul r6,r0,r3
 272 0202 7644     	 add r6,r6,lr
 273 0204 A0FB0223 	 umull r2,r3,r0,r2
 274 0208 F118     	 adds r1,r6,r3
 275 020a 0B46     	 mov r3,r1
 276 020c D7E91001 	 ldrd r0,[r7,#64]
 277 0210 1218     	 adds r2,r2,r0
 278 0212 43EB0103 	 adc r3,r3,r1
 279 0216 C7E91023 	 strd r2,[r7,#64]
 165:../Dave/Generated/CMSIS_DSP/FilteringFunctions/arm_fir_interpolate_q15.c **** 
 166:../Dave/Generated/CMSIS_DSP/FilteringFunctions/arm_fir_interpolate_q15.c ****         /* Read the coefficient */
 167:../Dave/Generated/CMSIS_DSP/FilteringFunctions/arm_fir_interpolate_q15.c ****         c0 = *(ptr2 + S->L * 3);
 280              	 .loc 1 167 0
 281 021a FB68     	 ldr r3,[r7,#12]
 282 021c 1B78     	 ldrb r3,[r3]
 283 021e 1A46     	 mov r2,r3
 284 0220 1346     	 mov r3,r2
 285 0222 5B00     	 lsls r3,r3,#1
 286 0224 1344     	 add r3,r3,r2
 287 0226 5B00     	 lsls r3,r3,#1
 288 0228 1A46     	 mov r2,r3
 289 022a 3B6F     	 ldr r3,[r7,#112]
 290 022c 1344     	 add r3,r3,r2
 291 022e 1B88     	 ldrh r3,[r3]
 292 0230 3B86     	 strh r3,[r7,#48]
 168:../Dave/Generated/CMSIS_DSP/FilteringFunctions/arm_fir_interpolate_q15.c **** 
 169:../Dave/Generated/CMSIS_DSP/FilteringFunctions/arm_fir_interpolate_q15.c ****         /* Read the input sample */
 170:../Dave/Generated/CMSIS_DSP/FilteringFunctions/arm_fir_interpolate_q15.c ****         x0 = *(ptr1++);
 293              	 .loc 1 170 0
 294 0232 7B6F     	 ldr r3,[r7,#116]
 295 0234 9A1C     	 adds r2,r3,#2
 296 0236 7A67     	 str r2,[r7,#116]
 297 0238 1B88     	 ldrh r3,[r3]
 298 023a A7F86630 	 strh r3,[r7,#102]
 171:../Dave/Generated/CMSIS_DSP/FilteringFunctions/arm_fir_interpolate_q15.c **** 
 172:../Dave/Generated/CMSIS_DSP/FilteringFunctions/arm_fir_interpolate_q15.c ****         /* Perform the multiply-accumulate */
 173:../Dave/Generated/CMSIS_DSP/FilteringFunctions/arm_fir_interpolate_q15.c ****         acc0 += (q63_t) x1 *c0;
 299              	 .loc 1 173 0
 300 023e B7F93200 	 ldrsh r0,[r7,#50]
 301 0242 4FEAE071 	 asr r1,r0,#31
 302 0246 B7F93020 	 ldrsh r2,[r7,#48]
 303 024a 4FEAE273 	 asr r3,r2,#31
 304 024e 02FB01FE 	 mul lr,r2,r1
 305 0252 00FB03F6 	 mul r6,r0,r3
 306 0256 7644     	 add r6,r6,lr
 307 0258 A0FB0223 	 umull r2,r3,r0,r2
 308 025c F118     	 adds r1,r6,r3
 309 025e 0B46     	 mov r3,r1
 310 0260 D7E91201 	 ldrd r0,[r7,#72]
 311 0264 1218     	 adds r2,r2,r0
 312 0266 43EB0103 	 adc r3,r3,r1
 313 026a C7E91223 	 strd r2,[r7,#72]
 174:../Dave/Generated/CMSIS_DSP/FilteringFunctions/arm_fir_interpolate_q15.c ****         acc1 += (q63_t) x0 *c0;
 314              	 .loc 1 174 0
 315 026e B7F96600 	 ldrsh r0,[r7,#102]
 316 0272 4FEAE071 	 asr r1,r0,#31
 317 0276 B7F93020 	 ldrsh r2,[r7,#48]
 318 027a 4FEAE273 	 asr r3,r2,#31
 319 027e 02FB01FE 	 mul lr,r2,r1
 320 0282 00FB03F6 	 mul r6,r0,r3
 321 0286 7644     	 add r6,r6,lr
 322 0288 A0FB0223 	 umull r2,r3,r0,r2
 323 028c F118     	 adds r1,r6,r3
 324 028e 0B46     	 mov r3,r1
 325 0290 D7E91001 	 ldrd r0,[r7,#64]
 326 0294 1218     	 adds r2,r2,r0
 327 0296 43EB0103 	 adc r3,r3,r1
 328 029a C7E91023 	 strd r2,[r7,#64]
 175:../Dave/Generated/CMSIS_DSP/FilteringFunctions/arm_fir_interpolate_q15.c **** 
 176:../Dave/Generated/CMSIS_DSP/FilteringFunctions/arm_fir_interpolate_q15.c **** 
 177:../Dave/Generated/CMSIS_DSP/FilteringFunctions/arm_fir_interpolate_q15.c ****         /* Upsampling is done by stuffing L-1 zeros between each sample.        
 178:../Dave/Generated/CMSIS_DSP/FilteringFunctions/arm_fir_interpolate_q15.c ****          * So instead of multiplying zeros with coefficients,        
 179:../Dave/Generated/CMSIS_DSP/FilteringFunctions/arm_fir_interpolate_q15.c ****          * Increment the coefficient pointer by interpolation factor times. */
 180:../Dave/Generated/CMSIS_DSP/FilteringFunctions/arm_fir_interpolate_q15.c ****         ptr2 += 4 * S->L;
 329              	 .loc 1 180 0
 330 029e FB68     	 ldr r3,[r7,#12]
 331 02a0 1B78     	 ldrb r3,[r3]
 332 02a2 DB00     	 lsls r3,r3,#3
 333 02a4 1A46     	 mov r2,r3
 334 02a6 3B6F     	 ldr r3,[r7,#112]
 335 02a8 1344     	 add r3,r3,r2
 336 02aa 3B67     	 str r3,[r7,#112]
 181:../Dave/Generated/CMSIS_DSP/FilteringFunctions/arm_fir_interpolate_q15.c **** 
 182:../Dave/Generated/CMSIS_DSP/FilteringFunctions/arm_fir_interpolate_q15.c ****         /* Decrement the loop counter */
 183:../Dave/Generated/CMSIS_DSP/FilteringFunctions/arm_fir_interpolate_q15.c ****         tapCnt--;
 337              	 .loc 1 183 0
 338 02ac 7B6D     	 ldr r3,[r7,#84]
 339 02ae 013B     	 subs r3,r3,#1
 340 02b0 7B65     	 str r3,[r7,#84]
 341              	.L4:
 131:../Dave/Generated/CMSIS_DSP/FilteringFunctions/arm_fir_interpolate_q15.c ****       {
 342              	 .loc 1 131 0
 343 02b2 7B6D     	 ldr r3,[r7,#84]
 344 02b4 002B     	 cmp r3,#0
 345 02b6 7FF4FEAE 	 bne .L5
 184:../Dave/Generated/CMSIS_DSP/FilteringFunctions/arm_fir_interpolate_q15.c ****       }
 185:../Dave/Generated/CMSIS_DSP/FilteringFunctions/arm_fir_interpolate_q15.c **** 
 186:../Dave/Generated/CMSIS_DSP/FilteringFunctions/arm_fir_interpolate_q15.c ****       /* If the polyPhase length is not a multiple of 4, compute the remaining filter taps */
 187:../Dave/Generated/CMSIS_DSP/FilteringFunctions/arm_fir_interpolate_q15.c ****       tapCnt = phaseLen % 0x4u;
 346              	 .loc 1 187 0
 347 02ba 7B8F     	 ldrh r3,[r7,#58]
 348 02bc 03F00303 	 and r3,r3,#3
 349 02c0 7B65     	 str r3,[r7,#84]
 188:../Dave/Generated/CMSIS_DSP/FilteringFunctions/arm_fir_interpolate_q15.c **** 
 189:../Dave/Generated/CMSIS_DSP/FilteringFunctions/arm_fir_interpolate_q15.c ****       while(tapCnt > 0u)
 350              	 .loc 1 189 0
 351 02c2 43E0     	 b .L6
 352              	.L7:
 190:../Dave/Generated/CMSIS_DSP/FilteringFunctions/arm_fir_interpolate_q15.c ****       {
 191:../Dave/Generated/CMSIS_DSP/FilteringFunctions/arm_fir_interpolate_q15.c **** 
 192:../Dave/Generated/CMSIS_DSP/FilteringFunctions/arm_fir_interpolate_q15.c ****         /* Read the input sample */
 193:../Dave/Generated/CMSIS_DSP/FilteringFunctions/arm_fir_interpolate_q15.c ****         x1 = *(ptr1++);
 353              	 .loc 1 193 0
 354 02c4 7B6F     	 ldr r3,[r7,#116]
 355 02c6 9A1C     	 adds r2,r3,#2
 356 02c8 7A67     	 str r2,[r7,#116]
 357 02ca 1B88     	 ldrh r3,[r3]
 358 02cc 7B86     	 strh r3,[r7,#50]
 194:../Dave/Generated/CMSIS_DSP/FilteringFunctions/arm_fir_interpolate_q15.c **** 
 195:../Dave/Generated/CMSIS_DSP/FilteringFunctions/arm_fir_interpolate_q15.c ****         /* Read the coefficient */
 196:../Dave/Generated/CMSIS_DSP/FilteringFunctions/arm_fir_interpolate_q15.c ****         c0 = *(ptr2);
 359              	 .loc 1 196 0
 360 02ce 3B6F     	 ldr r3,[r7,#112]
 361 02d0 1B88     	 ldrh r3,[r3]
 362 02d2 3B86     	 strh r3,[r7,#48]
 197:../Dave/Generated/CMSIS_DSP/FilteringFunctions/arm_fir_interpolate_q15.c **** 
 198:../Dave/Generated/CMSIS_DSP/FilteringFunctions/arm_fir_interpolate_q15.c ****         /* Perform the multiply-accumulate */
 199:../Dave/Generated/CMSIS_DSP/FilteringFunctions/arm_fir_interpolate_q15.c ****         acc0 += (q63_t) x0 *c0;
 363              	 .loc 1 199 0
 364 02d4 B7F96600 	 ldrsh r0,[r7,#102]
 365 02d8 4FEAE071 	 asr r1,r0,#31
 366 02dc B7F93020 	 ldrsh r2,[r7,#48]
 367 02e0 4FEAE273 	 asr r3,r2,#31
 368 02e4 02FB01FE 	 mul lr,r2,r1
 369 02e8 00FB03F6 	 mul r6,r0,r3
 370 02ec 7644     	 add r6,r6,lr
 371 02ee A0FB0223 	 umull r2,r3,r0,r2
 372 02f2 F118     	 adds r1,r6,r3
 373 02f4 0B46     	 mov r3,r1
 374 02f6 D7E91201 	 ldrd r0,[r7,#72]
 375 02fa 1218     	 adds r2,r2,r0
 376 02fc 43EB0103 	 adc r3,r3,r1
 377 0300 C7E91223 	 strd r2,[r7,#72]
 200:../Dave/Generated/CMSIS_DSP/FilteringFunctions/arm_fir_interpolate_q15.c ****         acc1 += (q63_t) x1 *c0;
 378              	 .loc 1 200 0
 379 0304 B7F93200 	 ldrsh r0,[r7,#50]
 380 0308 4FEAE071 	 asr r1,r0,#31
 381 030c B7F93020 	 ldrsh r2,[r7,#48]
 382 0310 4FEAE273 	 asr r3,r2,#31
 383 0314 02FB01FE 	 mul lr,r2,r1
 384 0318 00FB03F6 	 mul r6,r0,r3
 385 031c 7644     	 add r6,r6,lr
 386 031e A0FB0223 	 umull r2,r3,r0,r2
 387 0322 F118     	 adds r1,r6,r3
 388 0324 0B46     	 mov r3,r1
 389 0326 D7E91001 	 ldrd r0,[r7,#64]
 390 032a 1218     	 adds r2,r2,r0
 391 032c 43EB0103 	 adc r3,r3,r1
 392 0330 C7E91023 	 strd r2,[r7,#64]
 201:../Dave/Generated/CMSIS_DSP/FilteringFunctions/arm_fir_interpolate_q15.c **** 
 202:../Dave/Generated/CMSIS_DSP/FilteringFunctions/arm_fir_interpolate_q15.c ****         /* Increment the coefficient pointer by interpolation factor times. */
 203:../Dave/Generated/CMSIS_DSP/FilteringFunctions/arm_fir_interpolate_q15.c ****         ptr2 += S->L;
 393              	 .loc 1 203 0
 394 0334 FB68     	 ldr r3,[r7,#12]
 395 0336 1B78     	 ldrb r3,[r3]
 396 0338 5B00     	 lsls r3,r3,#1
 397 033a 3A6F     	 ldr r2,[r7,#112]
 398 033c 1344     	 add r3,r3,r2
 399 033e 3B67     	 str r3,[r7,#112]
 204:../Dave/Generated/CMSIS_DSP/FilteringFunctions/arm_fir_interpolate_q15.c **** 
 205:../Dave/Generated/CMSIS_DSP/FilteringFunctions/arm_fir_interpolate_q15.c ****         /* update states for next sample processing */
 206:../Dave/Generated/CMSIS_DSP/FilteringFunctions/arm_fir_interpolate_q15.c ****         x0 = x1;
 400              	 .loc 1 206 0
 401 0340 7B8E     	 ldrh r3,[r7,#50]
 402 0342 A7F86630 	 strh r3,[r7,#102]
 207:../Dave/Generated/CMSIS_DSP/FilteringFunctions/arm_fir_interpolate_q15.c **** 
 208:../Dave/Generated/CMSIS_DSP/FilteringFunctions/arm_fir_interpolate_q15.c ****         /* Decrement the loop counter */
 209:../Dave/Generated/CMSIS_DSP/FilteringFunctions/arm_fir_interpolate_q15.c ****         tapCnt--;
 403              	 .loc 1 209 0
 404 0346 7B6D     	 ldr r3,[r7,#84]
 405 0348 013B     	 subs r3,r3,#1
 406 034a 7B65     	 str r3,[r7,#84]
 407              	.L6:
 189:../Dave/Generated/CMSIS_DSP/FilteringFunctions/arm_fir_interpolate_q15.c ****       {
 408              	 .loc 1 189 0
 409 034c 7B6D     	 ldr r3,[r7,#84]
 410 034e 002B     	 cmp r3,#0
 411 0350 B8D1     	 bne .L7
 412              	.LBB2:
 210:../Dave/Generated/CMSIS_DSP/FilteringFunctions/arm_fir_interpolate_q15.c ****       }
 211:../Dave/Generated/CMSIS_DSP/FilteringFunctions/arm_fir_interpolate_q15.c **** 
 212:../Dave/Generated/CMSIS_DSP/FilteringFunctions/arm_fir_interpolate_q15.c ****       /* The result is in the accumulator, store in the destination buffer. */
 213:../Dave/Generated/CMSIS_DSP/FilteringFunctions/arm_fir_interpolate_q15.c ****       *pDst = (q15_t) (__SSAT((acc0 >> 15), 16));
 413              	 .loc 1 213 0
 414 0352 D7E91223 	 ldrd r2,[r7,#72]
 415 0356 4FEAD238 	 lsr r8,r2,#15
 416 035a 48EA4348 	 orr r8,r8,r3,lsl#17
 417 035e 4FEAE339 	 asr r9,r3,#15
 418 0362 4346     	 mov r3,r8
 419 0364 FB62     	 str r3,[r7,#44]
 420 0366 FB6A     	 ldr r3,[r7,#44]
 421              	
 422 0368 03F30F03 	 ssat r3,#16,r3
 423              	
 424              	 .thumb
 425 036c BB62     	 str r3,[r7,#40]
 426 036e BB6A     	 ldr r3,[r7,#40]
 427              	.LBE2:
 428 0370 9AB2     	 uxth r2,r3
 429 0372 7B68     	 ldr r3,[r7,#4]
 430 0374 1A80     	 strh r2,[r3]
 214:../Dave/Generated/CMSIS_DSP/FilteringFunctions/arm_fir_interpolate_q15.c ****       *(pDst + S->L) = (q15_t) (__SSAT((acc1 >> 15), 16));
 431              	 .loc 1 214 0
 432 0376 FB68     	 ldr r3,[r7,#12]
 433 0378 1B78     	 ldrb r3,[r3]
 434 037a 5B00     	 lsls r3,r3,#1
 435 037c 7A68     	 ldr r2,[r7,#4]
 436 037e D118     	 adds r1,r2,r3
 437              	.LBB3:
 438 0380 D7E91023 	 ldrd r2,[r7,#64]
 439 0384 4FEAD23A 	 lsr r10,r2,#15
 440 0388 4AEA434A 	 orr r10,r10,r3,lsl#17
 441 038c 4FEAE33B 	 asr fp,r3,#15
 442 0390 5346     	 mov r3,r10
 443 0392 7B62     	 str r3,[r7,#36]
 444 0394 7B6A     	 ldr r3,[r7,#36]
 445              	
 446 0396 03F30F03 	 ssat r3,#16,r3
 447              	
 448              	 .thumb
 449 039a 3B62     	 str r3,[r7,#32]
 450 039c 3B6A     	 ldr r3,[r7,#32]
 451              	.LBE3:
 452 039e 9BB2     	 uxth r3,r3
 453 03a0 0B80     	 strh r3,[r1]
 215:../Dave/Generated/CMSIS_DSP/FilteringFunctions/arm_fir_interpolate_q15.c **** 
 216:../Dave/Generated/CMSIS_DSP/FilteringFunctions/arm_fir_interpolate_q15.c ****       pDst++;
 454              	 .loc 1 216 0
 455 03a2 7B68     	 ldr r3,[r7,#4]
 456 03a4 0233     	 adds r3,r3,#2
 457 03a6 7B60     	 str r3,[r7,#4]
 217:../Dave/Generated/CMSIS_DSP/FilteringFunctions/arm_fir_interpolate_q15.c **** 
 218:../Dave/Generated/CMSIS_DSP/FilteringFunctions/arm_fir_interpolate_q15.c ****       /* Increment the address modifier index of coefficient buffer */
 219:../Dave/Generated/CMSIS_DSP/FilteringFunctions/arm_fir_interpolate_q15.c ****       j++;
 458              	 .loc 1 219 0
 459 03a8 BB6D     	 ldr r3,[r7,#88]
 460 03aa 0133     	 adds r3,r3,#1
 461 03ac BB65     	 str r3,[r7,#88]
 220:../Dave/Generated/CMSIS_DSP/FilteringFunctions/arm_fir_interpolate_q15.c **** 
 221:../Dave/Generated/CMSIS_DSP/FilteringFunctions/arm_fir_interpolate_q15.c ****       /* Decrement the loop counter */
 222:../Dave/Generated/CMSIS_DSP/FilteringFunctions/arm_fir_interpolate_q15.c ****       i--;
 462              	 .loc 1 222 0
 463 03ae 3B6E     	 ldr r3,[r7,#96]
 464 03b0 013B     	 subs r3,r3,#1
 465 03b2 3B66     	 str r3,[r7,#96]
 466              	.L3:
 113:../Dave/Generated/CMSIS_DSP/FilteringFunctions/arm_fir_interpolate_q15.c ****     {
 467              	 .loc 1 113 0
 468 03b4 3B6E     	 ldr r3,[r7,#96]
 469 03b6 002B     	 cmp r3,#0
 470 03b8 7FF45BAE 	 bne .L8
 223:../Dave/Generated/CMSIS_DSP/FilteringFunctions/arm_fir_interpolate_q15.c ****     }
 224:../Dave/Generated/CMSIS_DSP/FilteringFunctions/arm_fir_interpolate_q15.c **** 
 225:../Dave/Generated/CMSIS_DSP/FilteringFunctions/arm_fir_interpolate_q15.c ****     /* Advance the state pointer by 1        
 226:../Dave/Generated/CMSIS_DSP/FilteringFunctions/arm_fir_interpolate_q15.c ****      * to process the next group of interpolation factor number samples */
 227:../Dave/Generated/CMSIS_DSP/FilteringFunctions/arm_fir_interpolate_q15.c ****     pState = pState + 2;
 471              	 .loc 1 227 0
 472 03bc 7B69     	 ldr r3,[r7,#20]
 473 03be 0433     	 adds r3,r3,#4
 474 03c0 7B61     	 str r3,[r7,#20]
 228:../Dave/Generated/CMSIS_DSP/FilteringFunctions/arm_fir_interpolate_q15.c **** 
 229:../Dave/Generated/CMSIS_DSP/FilteringFunctions/arm_fir_interpolate_q15.c ****     pDst += S->L;
 475              	 .loc 1 229 0
 476 03c2 FB68     	 ldr r3,[r7,#12]
 477 03c4 1B78     	 ldrb r3,[r3]
 478 03c6 5B00     	 lsls r3,r3,#1
 479 03c8 7A68     	 ldr r2,[r7,#4]
 480 03ca 1344     	 add r3,r3,r2
 481 03cc 7B60     	 str r3,[r7,#4]
 230:../Dave/Generated/CMSIS_DSP/FilteringFunctions/arm_fir_interpolate_q15.c **** 
 231:../Dave/Generated/CMSIS_DSP/FilteringFunctions/arm_fir_interpolate_q15.c ****     /* Decrement the loop counter */
 232:../Dave/Generated/CMSIS_DSP/FilteringFunctions/arm_fir_interpolate_q15.c ****     blkCnt--;
 482              	 .loc 1 232 0
 483 03ce FB6D     	 ldr r3,[r7,#92]
 484 03d0 013B     	 subs r3,r3,#1
 485 03d2 FB65     	 str r3,[r7,#92]
 486              	.L2:
 101:../Dave/Generated/CMSIS_DSP/FilteringFunctions/arm_fir_interpolate_q15.c ****   {
 487              	 .loc 1 101 0
 488 03d4 FB6D     	 ldr r3,[r7,#92]
 489 03d6 002B     	 cmp r3,#0
 490 03d8 7FF435AE 	 bne .L9
 233:../Dave/Generated/CMSIS_DSP/FilteringFunctions/arm_fir_interpolate_q15.c ****   }
 234:../Dave/Generated/CMSIS_DSP/FilteringFunctions/arm_fir_interpolate_q15.c **** 
 235:../Dave/Generated/CMSIS_DSP/FilteringFunctions/arm_fir_interpolate_q15.c ****   /* If the blockSize is not a multiple of 2, compute any remaining output samples here.        
 236:../Dave/Generated/CMSIS_DSP/FilteringFunctions/arm_fir_interpolate_q15.c ****    ** No loop unrolling is used. */
 237:../Dave/Generated/CMSIS_DSP/FilteringFunctions/arm_fir_interpolate_q15.c ****   blkCnt = blkCntN2;
 491              	 .loc 1 237 0
 492 03dc 7B6B     	 ldr r3,[r7,#52]
 493 03de FB65     	 str r3,[r7,#92]
 238:../Dave/Generated/CMSIS_DSP/FilteringFunctions/arm_fir_interpolate_q15.c **** 
 239:../Dave/Generated/CMSIS_DSP/FilteringFunctions/arm_fir_interpolate_q15.c ****   /* Loop over the blockSize. */
 240:../Dave/Generated/CMSIS_DSP/FilteringFunctions/arm_fir_interpolate_q15.c ****   while(blkCnt > 0u)
 494              	 .loc 1 240 0
 495 03e0 1AE1     	 b .L10
 496              	.L17:
 241:../Dave/Generated/CMSIS_DSP/FilteringFunctions/arm_fir_interpolate_q15.c ****   {
 242:../Dave/Generated/CMSIS_DSP/FilteringFunctions/arm_fir_interpolate_q15.c ****     /* Copy new input sample into the state buffer */
 243:../Dave/Generated/CMSIS_DSP/FilteringFunctions/arm_fir_interpolate_q15.c ****     *pStateCurnt++ = *pSrc++;
 497              	 .loc 1 243 0
 498 03e2 3B69     	 ldr r3,[r7,#16]
 499 03e4 9A1C     	 adds r2,r3,#2
 500 03e6 3A61     	 str r2,[r7,#16]
 501 03e8 BA68     	 ldr r2,[r7,#8]
 502 03ea 911C     	 adds r1,r2,#2
 503 03ec B960     	 str r1,[r7,#8]
 504 03ee 1288     	 ldrh r2,[r2]
 505 03f0 1A80     	 strh r2,[r3]
 244:../Dave/Generated/CMSIS_DSP/FilteringFunctions/arm_fir_interpolate_q15.c **** 
 245:../Dave/Generated/CMSIS_DSP/FilteringFunctions/arm_fir_interpolate_q15.c ****     /* Address modifier index of coefficient buffer */
 246:../Dave/Generated/CMSIS_DSP/FilteringFunctions/arm_fir_interpolate_q15.c ****     j = 1u;
 506              	 .loc 1 246 0
 507 03f2 0123     	 movs r3,#1
 508 03f4 BB65     	 str r3,[r7,#88]
 247:../Dave/Generated/CMSIS_DSP/FilteringFunctions/arm_fir_interpolate_q15.c **** 
 248:../Dave/Generated/CMSIS_DSP/FilteringFunctions/arm_fir_interpolate_q15.c ****     /* Loop over the Interpolation factor. */
 249:../Dave/Generated/CMSIS_DSP/FilteringFunctions/arm_fir_interpolate_q15.c ****     i = S->L;
 509              	 .loc 1 249 0
 510 03f6 FB68     	 ldr r3,[r7,#12]
 511 03f8 1B78     	 ldrb r3,[r3]
 512 03fa 3B66     	 str r3,[r7,#96]
 250:../Dave/Generated/CMSIS_DSP/FilteringFunctions/arm_fir_interpolate_q15.c ****     while(i > 0u)
 513              	 .loc 1 250 0
 514 03fc 02E1     	 b .L11
 515              	.L16:
 251:../Dave/Generated/CMSIS_DSP/FilteringFunctions/arm_fir_interpolate_q15.c ****     {
 252:../Dave/Generated/CMSIS_DSP/FilteringFunctions/arm_fir_interpolate_q15.c ****       /* Set accumulator to zero */
 253:../Dave/Generated/CMSIS_DSP/FilteringFunctions/arm_fir_interpolate_q15.c ****       sum0 = 0;
 516              	 .loc 1 253 0
 517 03fe 4FF00002 	 mov r2,#0
 518 0402 4FF00003 	 mov r3,#0
 519 0406 C7E91A23 	 strd r2,[r7,#104]
 254:../Dave/Generated/CMSIS_DSP/FilteringFunctions/arm_fir_interpolate_q15.c **** 
 255:../Dave/Generated/CMSIS_DSP/FilteringFunctions/arm_fir_interpolate_q15.c ****       /* Initialize state pointer */
 256:../Dave/Generated/CMSIS_DSP/FilteringFunctions/arm_fir_interpolate_q15.c ****       ptr1 = pState;
 520              	 .loc 1 256 0
 521 040a 7B69     	 ldr r3,[r7,#20]
 522 040c 7B67     	 str r3,[r7,#116]
 257:../Dave/Generated/CMSIS_DSP/FilteringFunctions/arm_fir_interpolate_q15.c **** 
 258:../Dave/Generated/CMSIS_DSP/FilteringFunctions/arm_fir_interpolate_q15.c ****       /* Initialize coefficient pointer */
 259:../Dave/Generated/CMSIS_DSP/FilteringFunctions/arm_fir_interpolate_q15.c ****       ptr2 = pCoeffs + (S->L - j);
 523              	 .loc 1 259 0
 524 040e FB68     	 ldr r3,[r7,#12]
 525 0410 1B78     	 ldrb r3,[r3]
 526 0412 1A46     	 mov r2,r3
 527 0414 BB6D     	 ldr r3,[r7,#88]
 528 0416 D31A     	 subs r3,r2,r3
 529 0418 5B00     	 lsls r3,r3,#1
 530 041a FA6B     	 ldr r2,[r7,#60]
 531 041c 1344     	 add r3,r3,r2
 532 041e 3B67     	 str r3,[r7,#112]
 260:../Dave/Generated/CMSIS_DSP/FilteringFunctions/arm_fir_interpolate_q15.c **** 
 261:../Dave/Generated/CMSIS_DSP/FilteringFunctions/arm_fir_interpolate_q15.c ****       /* Loop over the polyPhase length. Unroll by a factor of 4.        
 262:../Dave/Generated/CMSIS_DSP/FilteringFunctions/arm_fir_interpolate_q15.c ****        ** Repeat until we've computed numTaps-(4*S->L) coefficients. */
 263:../Dave/Generated/CMSIS_DSP/FilteringFunctions/arm_fir_interpolate_q15.c ****       tapCnt = phaseLen >> 2;
 533              	 .loc 1 263 0
 534 0420 7B8F     	 ldrh r3,[r7,#58]
 535 0422 9B08     	 lsrs r3,r3,#2
 536 0424 9BB2     	 uxth r3,r3
 537 0426 7B65     	 str r3,[r7,#84]
 264:../Dave/Generated/CMSIS_DSP/FilteringFunctions/arm_fir_interpolate_q15.c ****       while(tapCnt > 0u)
 538              	 .loc 1 264 0
 539 0428 9EE0     	 b .L12
 540              	.L13:
 265:../Dave/Generated/CMSIS_DSP/FilteringFunctions/arm_fir_interpolate_q15.c ****       {
 266:../Dave/Generated/CMSIS_DSP/FilteringFunctions/arm_fir_interpolate_q15.c **** 
 267:../Dave/Generated/CMSIS_DSP/FilteringFunctions/arm_fir_interpolate_q15.c ****         /* Read the coefficient */
 268:../Dave/Generated/CMSIS_DSP/FilteringFunctions/arm_fir_interpolate_q15.c ****         c0 = *(ptr2);
 541              	 .loc 1 268 0
 542 042a 3B6F     	 ldr r3,[r7,#112]
 543 042c 1B88     	 ldrh r3,[r3]
 544 042e 3B86     	 strh r3,[r7,#48]
 269:../Dave/Generated/CMSIS_DSP/FilteringFunctions/arm_fir_interpolate_q15.c **** 
 270:../Dave/Generated/CMSIS_DSP/FilteringFunctions/arm_fir_interpolate_q15.c ****         /* Upsampling is done by stuffing L-1 zeros between each sample.        
 271:../Dave/Generated/CMSIS_DSP/FilteringFunctions/arm_fir_interpolate_q15.c ****          * So instead of multiplying zeros with coefficients,        
 272:../Dave/Generated/CMSIS_DSP/FilteringFunctions/arm_fir_interpolate_q15.c ****          * Increment the coefficient pointer by interpolation factor times. */
 273:../Dave/Generated/CMSIS_DSP/FilteringFunctions/arm_fir_interpolate_q15.c ****         ptr2 += S->L;
 545              	 .loc 1 273 0
 546 0430 FB68     	 ldr r3,[r7,#12]
 547 0432 1B78     	 ldrb r3,[r3]
 548 0434 5B00     	 lsls r3,r3,#1
 549 0436 3A6F     	 ldr r2,[r7,#112]
 550 0438 1344     	 add r3,r3,r2
 551 043a 3B67     	 str r3,[r7,#112]
 274:../Dave/Generated/CMSIS_DSP/FilteringFunctions/arm_fir_interpolate_q15.c **** 
 275:../Dave/Generated/CMSIS_DSP/FilteringFunctions/arm_fir_interpolate_q15.c ****         /* Read the input sample */
 276:../Dave/Generated/CMSIS_DSP/FilteringFunctions/arm_fir_interpolate_q15.c ****         x0 = *(ptr1++);
 552              	 .loc 1 276 0
 553 043c 7B6F     	 ldr r3,[r7,#116]
 554 043e 9A1C     	 adds r2,r3,#2
 555 0440 7A67     	 str r2,[r7,#116]
 556 0442 1B88     	 ldrh r3,[r3]
 557 0444 A7F86630 	 strh r3,[r7,#102]
 277:../Dave/Generated/CMSIS_DSP/FilteringFunctions/arm_fir_interpolate_q15.c **** 
 278:../Dave/Generated/CMSIS_DSP/FilteringFunctions/arm_fir_interpolate_q15.c ****         /* Perform the multiply-accumulate */
 279:../Dave/Generated/CMSIS_DSP/FilteringFunctions/arm_fir_interpolate_q15.c ****         sum0 += (q63_t) x0 *c0;
 558              	 .loc 1 279 0
 559 0448 B7F96600 	 ldrsh r0,[r7,#102]
 560 044c 4FEAE071 	 asr r1,r0,#31
 561 0450 B7F93020 	 ldrsh r2,[r7,#48]
 562 0454 4FEAE273 	 asr r3,r2,#31
 563 0458 02FB01FE 	 mul lr,r2,r1
 564 045c 00FB03F6 	 mul r6,r0,r3
 565 0460 7644     	 add r6,r6,lr
 566 0462 A0FB0223 	 umull r2,r3,r0,r2
 567 0466 F118     	 adds r1,r6,r3
 568 0468 0B46     	 mov r3,r1
 569 046a D7E91A01 	 ldrd r0,[r7,#104]
 570 046e 1218     	 adds r2,r2,r0
 571 0470 43EB0103 	 adc r3,r3,r1
 572 0474 C7E91A23 	 strd r2,[r7,#104]
 280:../Dave/Generated/CMSIS_DSP/FilteringFunctions/arm_fir_interpolate_q15.c **** 
 281:../Dave/Generated/CMSIS_DSP/FilteringFunctions/arm_fir_interpolate_q15.c ****         /* Read the coefficient */
 282:../Dave/Generated/CMSIS_DSP/FilteringFunctions/arm_fir_interpolate_q15.c ****         c0 = *(ptr2);
 573              	 .loc 1 282 0
 574 0478 3B6F     	 ldr r3,[r7,#112]
 575 047a 1B88     	 ldrh r3,[r3]
 576 047c 3B86     	 strh r3,[r7,#48]
 283:../Dave/Generated/CMSIS_DSP/FilteringFunctions/arm_fir_interpolate_q15.c **** 
 284:../Dave/Generated/CMSIS_DSP/FilteringFunctions/arm_fir_interpolate_q15.c ****         /* Increment the coefficient pointer by interpolation factor times. */
 285:../Dave/Generated/CMSIS_DSP/FilteringFunctions/arm_fir_interpolate_q15.c ****         ptr2 += S->L;
 577              	 .loc 1 285 0
 578 047e FB68     	 ldr r3,[r7,#12]
 579 0480 1B78     	 ldrb r3,[r3]
 580 0482 5B00     	 lsls r3,r3,#1
 581 0484 3A6F     	 ldr r2,[r7,#112]
 582 0486 1344     	 add r3,r3,r2
 583 0488 3B67     	 str r3,[r7,#112]
 286:../Dave/Generated/CMSIS_DSP/FilteringFunctions/arm_fir_interpolate_q15.c **** 
 287:../Dave/Generated/CMSIS_DSP/FilteringFunctions/arm_fir_interpolate_q15.c ****         /* Read the input sample */
 288:../Dave/Generated/CMSIS_DSP/FilteringFunctions/arm_fir_interpolate_q15.c ****         x0 = *(ptr1++);
 584              	 .loc 1 288 0
 585 048a 7B6F     	 ldr r3,[r7,#116]
 586 048c 9A1C     	 adds r2,r3,#2
 587 048e 7A67     	 str r2,[r7,#116]
 588 0490 1B88     	 ldrh r3,[r3]
 589 0492 A7F86630 	 strh r3,[r7,#102]
 289:../Dave/Generated/CMSIS_DSP/FilteringFunctions/arm_fir_interpolate_q15.c **** 
 290:../Dave/Generated/CMSIS_DSP/FilteringFunctions/arm_fir_interpolate_q15.c ****         /* Perform the multiply-accumulate */
 291:../Dave/Generated/CMSIS_DSP/FilteringFunctions/arm_fir_interpolate_q15.c ****         sum0 += (q63_t) x0 *c0;
 590              	 .loc 1 291 0
 591 0496 B7F96600 	 ldrsh r0,[r7,#102]
 592 049a 4FEAE071 	 asr r1,r0,#31
 593 049e B7F93020 	 ldrsh r2,[r7,#48]
 594 04a2 4FEAE273 	 asr r3,r2,#31
 595 04a6 02FB01FE 	 mul lr,r2,r1
 596 04aa 00FB03F6 	 mul r6,r0,r3
 597 04ae 7644     	 add r6,r6,lr
 598 04b0 A0FB0223 	 umull r2,r3,r0,r2
 599 04b4 F118     	 adds r1,r6,r3
 600 04b6 0B46     	 mov r3,r1
 601 04b8 D7E91A01 	 ldrd r0,[r7,#104]
 602 04bc 1218     	 adds r2,r2,r0
 603 04be 43EB0103 	 adc r3,r3,r1
 604 04c2 C7E91A23 	 strd r2,[r7,#104]
 292:../Dave/Generated/CMSIS_DSP/FilteringFunctions/arm_fir_interpolate_q15.c **** 
 293:../Dave/Generated/CMSIS_DSP/FilteringFunctions/arm_fir_interpolate_q15.c ****         /* Read the coefficient */
 294:../Dave/Generated/CMSIS_DSP/FilteringFunctions/arm_fir_interpolate_q15.c ****         c0 = *(ptr2);
 605              	 .loc 1 294 0
 606 04c6 3B6F     	 ldr r3,[r7,#112]
 607 04c8 1B88     	 ldrh r3,[r3]
 608 04ca 3B86     	 strh r3,[r7,#48]
 295:../Dave/Generated/CMSIS_DSP/FilteringFunctions/arm_fir_interpolate_q15.c **** 
 296:../Dave/Generated/CMSIS_DSP/FilteringFunctions/arm_fir_interpolate_q15.c ****         /* Increment the coefficient pointer by interpolation factor times. */
 297:../Dave/Generated/CMSIS_DSP/FilteringFunctions/arm_fir_interpolate_q15.c ****         ptr2 += S->L;
 609              	 .loc 1 297 0
 610 04cc FB68     	 ldr r3,[r7,#12]
 611 04ce 1B78     	 ldrb r3,[r3]
 612 04d0 5B00     	 lsls r3,r3,#1
 613 04d2 3A6F     	 ldr r2,[r7,#112]
 614 04d4 1344     	 add r3,r3,r2
 615 04d6 3B67     	 str r3,[r7,#112]
 298:../Dave/Generated/CMSIS_DSP/FilteringFunctions/arm_fir_interpolate_q15.c **** 
 299:../Dave/Generated/CMSIS_DSP/FilteringFunctions/arm_fir_interpolate_q15.c ****         /* Read the input sample */
 300:../Dave/Generated/CMSIS_DSP/FilteringFunctions/arm_fir_interpolate_q15.c ****         x0 = *(ptr1++);
 616              	 .loc 1 300 0
 617 04d8 7B6F     	 ldr r3,[r7,#116]
 618 04da 9A1C     	 adds r2,r3,#2
 619 04dc 7A67     	 str r2,[r7,#116]
 620 04de 1B88     	 ldrh r3,[r3]
 621 04e0 A7F86630 	 strh r3,[r7,#102]
 301:../Dave/Generated/CMSIS_DSP/FilteringFunctions/arm_fir_interpolate_q15.c **** 
 302:../Dave/Generated/CMSIS_DSP/FilteringFunctions/arm_fir_interpolate_q15.c ****         /* Perform the multiply-accumulate */
 303:../Dave/Generated/CMSIS_DSP/FilteringFunctions/arm_fir_interpolate_q15.c ****         sum0 += (q63_t) x0 *c0;
 622              	 .loc 1 303 0
 623 04e4 B7F96600 	 ldrsh r0,[r7,#102]
 624 04e8 4FEAE071 	 asr r1,r0,#31
 625 04ec B7F93020 	 ldrsh r2,[r7,#48]
 626 04f0 4FEAE273 	 asr r3,r2,#31
 627 04f4 02FB01FE 	 mul lr,r2,r1
 628 04f8 00FB03F6 	 mul r6,r0,r3
 629 04fc 7644     	 add r6,r6,lr
 630 04fe A0FB0223 	 umull r2,r3,r0,r2
 631 0502 F118     	 adds r1,r6,r3
 632 0504 0B46     	 mov r3,r1
 633 0506 D7E91A01 	 ldrd r0,[r7,#104]
 634 050a 1218     	 adds r2,r2,r0
 635 050c 43EB0103 	 adc r3,r3,r1
 636 0510 C7E91A23 	 strd r2,[r7,#104]
 304:../Dave/Generated/CMSIS_DSP/FilteringFunctions/arm_fir_interpolate_q15.c **** 
 305:../Dave/Generated/CMSIS_DSP/FilteringFunctions/arm_fir_interpolate_q15.c ****         /* Read the coefficient */
 306:../Dave/Generated/CMSIS_DSP/FilteringFunctions/arm_fir_interpolate_q15.c ****         c0 = *(ptr2);
 637              	 .loc 1 306 0
 638 0514 3B6F     	 ldr r3,[r7,#112]
 639 0516 1B88     	 ldrh r3,[r3]
 640 0518 3B86     	 strh r3,[r7,#48]
 307:../Dave/Generated/CMSIS_DSP/FilteringFunctions/arm_fir_interpolate_q15.c **** 
 308:../Dave/Generated/CMSIS_DSP/FilteringFunctions/arm_fir_interpolate_q15.c ****         /* Increment the coefficient pointer by interpolation factor times. */
 309:../Dave/Generated/CMSIS_DSP/FilteringFunctions/arm_fir_interpolate_q15.c ****         ptr2 += S->L;
 641              	 .loc 1 309 0
 642 051a FB68     	 ldr r3,[r7,#12]
 643 051c 1B78     	 ldrb r3,[r3]
 644 051e 5B00     	 lsls r3,r3,#1
 645 0520 3A6F     	 ldr r2,[r7,#112]
 646 0522 1344     	 add r3,r3,r2
 647 0524 3B67     	 str r3,[r7,#112]
 310:../Dave/Generated/CMSIS_DSP/FilteringFunctions/arm_fir_interpolate_q15.c **** 
 311:../Dave/Generated/CMSIS_DSP/FilteringFunctions/arm_fir_interpolate_q15.c ****         /* Read the input sample */
 312:../Dave/Generated/CMSIS_DSP/FilteringFunctions/arm_fir_interpolate_q15.c ****         x0 = *(ptr1++);
 648              	 .loc 1 312 0
 649 0526 7B6F     	 ldr r3,[r7,#116]
 650 0528 9A1C     	 adds r2,r3,#2
 651 052a 7A67     	 str r2,[r7,#116]
 652 052c 1B88     	 ldrh r3,[r3]
 653 052e A7F86630 	 strh r3,[r7,#102]
 313:../Dave/Generated/CMSIS_DSP/FilteringFunctions/arm_fir_interpolate_q15.c **** 
 314:../Dave/Generated/CMSIS_DSP/FilteringFunctions/arm_fir_interpolate_q15.c ****         /* Perform the multiply-accumulate */
 315:../Dave/Generated/CMSIS_DSP/FilteringFunctions/arm_fir_interpolate_q15.c ****         sum0 += (q63_t) x0 *c0;
 654              	 .loc 1 315 0
 655 0532 B7F96600 	 ldrsh r0,[r7,#102]
 656 0536 4FEAE071 	 asr r1,r0,#31
 657 053a B7F93020 	 ldrsh r2,[r7,#48]
 658 053e 4FEAE273 	 asr r3,r2,#31
 659 0542 02FB01FE 	 mul lr,r2,r1
 660 0546 00FB03F6 	 mul r6,r0,r3
 661 054a 7644     	 add r6,r6,lr
 662 054c A0FB0223 	 umull r2,r3,r0,r2
 663 0550 F118     	 adds r1,r6,r3
 664 0552 0B46     	 mov r3,r1
 665 0554 D7E91A01 	 ldrd r0,[r7,#104]
 666 0558 1218     	 adds r2,r2,r0
 667 055a 43EB0103 	 adc r3,r3,r1
 668 055e C7E91A23 	 strd r2,[r7,#104]
 316:../Dave/Generated/CMSIS_DSP/FilteringFunctions/arm_fir_interpolate_q15.c **** 
 317:../Dave/Generated/CMSIS_DSP/FilteringFunctions/arm_fir_interpolate_q15.c ****         /* Decrement the loop counter */
 318:../Dave/Generated/CMSIS_DSP/FilteringFunctions/arm_fir_interpolate_q15.c ****         tapCnt--;
 669              	 .loc 1 318 0
 670 0562 7B6D     	 ldr r3,[r7,#84]
 671 0564 013B     	 subs r3,r3,#1
 672 0566 7B65     	 str r3,[r7,#84]
 673              	.L12:
 264:../Dave/Generated/CMSIS_DSP/FilteringFunctions/arm_fir_interpolate_q15.c ****       {
 674              	 .loc 1 264 0
 675 0568 7B6D     	 ldr r3,[r7,#84]
 676 056a 002B     	 cmp r3,#0
 677 056c 7FF45DAF 	 bne .L13
 319:../Dave/Generated/CMSIS_DSP/FilteringFunctions/arm_fir_interpolate_q15.c ****       }
 320:../Dave/Generated/CMSIS_DSP/FilteringFunctions/arm_fir_interpolate_q15.c **** 
 321:../Dave/Generated/CMSIS_DSP/FilteringFunctions/arm_fir_interpolate_q15.c ****       /* If the polyPhase length is not a multiple of 4, compute the remaining filter taps */
 322:../Dave/Generated/CMSIS_DSP/FilteringFunctions/arm_fir_interpolate_q15.c ****       tapCnt = phaseLen & 0x3u;
 678              	 .loc 1 322 0
 679 0570 7B8F     	 ldrh r3,[r7,#58]
 680 0572 03F00303 	 and r3,r3,#3
 681 0576 7B65     	 str r3,[r7,#84]
 323:../Dave/Generated/CMSIS_DSP/FilteringFunctions/arm_fir_interpolate_q15.c **** 
 324:../Dave/Generated/CMSIS_DSP/FilteringFunctions/arm_fir_interpolate_q15.c ****       while(tapCnt > 0u)
 682              	 .loc 1 324 0
 683 0578 29E0     	 b .L14
 684              	.L15:
 325:../Dave/Generated/CMSIS_DSP/FilteringFunctions/arm_fir_interpolate_q15.c ****       {
 326:../Dave/Generated/CMSIS_DSP/FilteringFunctions/arm_fir_interpolate_q15.c ****         /* Read the coefficient */
 327:../Dave/Generated/CMSIS_DSP/FilteringFunctions/arm_fir_interpolate_q15.c ****         c0 = *(ptr2);
 685              	 .loc 1 327 0
 686 057a 3B6F     	 ldr r3,[r7,#112]
 687 057c 1B88     	 ldrh r3,[r3]
 688 057e 3B86     	 strh r3,[r7,#48]
 328:../Dave/Generated/CMSIS_DSP/FilteringFunctions/arm_fir_interpolate_q15.c **** 
 329:../Dave/Generated/CMSIS_DSP/FilteringFunctions/arm_fir_interpolate_q15.c ****         /* Increment the coefficient pointer by interpolation factor times. */
 330:../Dave/Generated/CMSIS_DSP/FilteringFunctions/arm_fir_interpolate_q15.c ****         ptr2 += S->L;
 689              	 .loc 1 330 0
 690 0580 FB68     	 ldr r3,[r7,#12]
 691 0582 1B78     	 ldrb r3,[r3]
 692 0584 5B00     	 lsls r3,r3,#1
 693 0586 3A6F     	 ldr r2,[r7,#112]
 694 0588 1344     	 add r3,r3,r2
 695 058a 3B67     	 str r3,[r7,#112]
 331:../Dave/Generated/CMSIS_DSP/FilteringFunctions/arm_fir_interpolate_q15.c **** 
 332:../Dave/Generated/CMSIS_DSP/FilteringFunctions/arm_fir_interpolate_q15.c ****         /* Read the input sample */
 333:../Dave/Generated/CMSIS_DSP/FilteringFunctions/arm_fir_interpolate_q15.c ****         x0 = *(ptr1++);
 696              	 .loc 1 333 0
 697 058c 7B6F     	 ldr r3,[r7,#116]
 698 058e 9A1C     	 adds r2,r3,#2
 699 0590 7A67     	 str r2,[r7,#116]
 700 0592 1B88     	 ldrh r3,[r3]
 701 0594 A7F86630 	 strh r3,[r7,#102]
 334:../Dave/Generated/CMSIS_DSP/FilteringFunctions/arm_fir_interpolate_q15.c **** 
 335:../Dave/Generated/CMSIS_DSP/FilteringFunctions/arm_fir_interpolate_q15.c ****         /* Perform the multiply-accumulate */
 336:../Dave/Generated/CMSIS_DSP/FilteringFunctions/arm_fir_interpolate_q15.c ****         sum0 += (q63_t) x0 *c0;
 702              	 .loc 1 336 0
 703 0598 B7F96600 	 ldrsh r0,[r7,#102]
 704 059c 4FEAE071 	 asr r1,r0,#31
 705 05a0 B7F93020 	 ldrsh r2,[r7,#48]
 706 05a4 4FEAE273 	 asr r3,r2,#31
 707 05a8 02FB01FE 	 mul lr,r2,r1
 708 05ac 00FB03F6 	 mul r6,r0,r3
 709 05b0 7644     	 add r6,r6,lr
 710 05b2 A0FB0223 	 umull r2,r3,r0,r2
 711 05b6 F118     	 adds r1,r6,r3
 712 05b8 0B46     	 mov r3,r1
 713 05ba D7E91A01 	 ldrd r0,[r7,#104]
 714 05be 1218     	 adds r2,r2,r0
 715 05c0 43EB0103 	 adc r3,r3,r1
 716 05c4 C7E91A23 	 strd r2,[r7,#104]
 337:../Dave/Generated/CMSIS_DSP/FilteringFunctions/arm_fir_interpolate_q15.c **** 
 338:../Dave/Generated/CMSIS_DSP/FilteringFunctions/arm_fir_interpolate_q15.c ****         /* Decrement the loop counter */
 339:../Dave/Generated/CMSIS_DSP/FilteringFunctions/arm_fir_interpolate_q15.c ****         tapCnt--;
 717              	 .loc 1 339 0
 718 05c8 7B6D     	 ldr r3,[r7,#84]
 719 05ca 013B     	 subs r3,r3,#1
 720 05cc 7B65     	 str r3,[r7,#84]
 721              	.L14:
 324:../Dave/Generated/CMSIS_DSP/FilteringFunctions/arm_fir_interpolate_q15.c ****       {
 722              	 .loc 1 324 0
 723 05ce 7B6D     	 ldr r3,[r7,#84]
 724 05d0 002B     	 cmp r3,#0
 725 05d2 D2D1     	 bne .L15
 340:../Dave/Generated/CMSIS_DSP/FilteringFunctions/arm_fir_interpolate_q15.c ****       }
 341:../Dave/Generated/CMSIS_DSP/FilteringFunctions/arm_fir_interpolate_q15.c **** 
 342:../Dave/Generated/CMSIS_DSP/FilteringFunctions/arm_fir_interpolate_q15.c ****       /* The result is in the accumulator, store in the destination buffer. */
 343:../Dave/Generated/CMSIS_DSP/FilteringFunctions/arm_fir_interpolate_q15.c ****       *pDst++ = (q15_t) (__SSAT((sum0 >> 15), 16));
 726              	 .loc 1 343 0
 727 05d4 7968     	 ldr r1,[r7,#4]
 728 05d6 8B1C     	 adds r3,r1,#2
 729 05d8 7B60     	 str r3,[r7,#4]
 730              	.LBB4:
 731 05da D7E91A23 	 ldrd r2,[r7,#104]
 732 05de D40B     	 lsrs r4,r2,#15
 733 05e0 44EA4344 	 orr r4,r4,r3,lsl#17
 734 05e4 DD13     	 asrs r5,r3,#15
 735 05e6 2346     	 mov r3,r4
 736 05e8 FB61     	 str r3,[r7,#28]
 737 05ea FB69     	 ldr r3,[r7,#28]
 738              	
 739 05ec 03F30F03 	 ssat r3,#16,r3
 740              	
 741              	 .thumb
 742 05f0 BB61     	 str r3,[r7,#24]
 743 05f2 BB69     	 ldr r3,[r7,#24]
 744              	.LBE4:
 745 05f4 9BB2     	 uxth r3,r3
 746 05f6 0B80     	 strh r3,[r1]
 344:../Dave/Generated/CMSIS_DSP/FilteringFunctions/arm_fir_interpolate_q15.c **** 
 345:../Dave/Generated/CMSIS_DSP/FilteringFunctions/arm_fir_interpolate_q15.c ****       j++;
 747              	 .loc 1 345 0
 748 05f8 BB6D     	 ldr r3,[r7,#88]
 749 05fa 0133     	 adds r3,r3,#1
 750 05fc BB65     	 str r3,[r7,#88]
 346:../Dave/Generated/CMSIS_DSP/FilteringFunctions/arm_fir_interpolate_q15.c **** 
 347:../Dave/Generated/CMSIS_DSP/FilteringFunctions/arm_fir_interpolate_q15.c ****       /* Decrement the loop counter */
 348:../Dave/Generated/CMSIS_DSP/FilteringFunctions/arm_fir_interpolate_q15.c ****       i--;
 751              	 .loc 1 348 0
 752 05fe 3B6E     	 ldr r3,[r7,#96]
 753 0600 013B     	 subs r3,r3,#1
 754 0602 3B66     	 str r3,[r7,#96]
 755              	.L11:
 250:../Dave/Generated/CMSIS_DSP/FilteringFunctions/arm_fir_interpolate_q15.c ****     {
 756              	 .loc 1 250 0
 757 0604 3B6E     	 ldr r3,[r7,#96]
 758 0606 002B     	 cmp r3,#0
 759 0608 7FF4F9AE 	 bne .L16
 349:../Dave/Generated/CMSIS_DSP/FilteringFunctions/arm_fir_interpolate_q15.c ****     }
 350:../Dave/Generated/CMSIS_DSP/FilteringFunctions/arm_fir_interpolate_q15.c **** 
 351:../Dave/Generated/CMSIS_DSP/FilteringFunctions/arm_fir_interpolate_q15.c ****     /* Advance the state pointer by 1        
 352:../Dave/Generated/CMSIS_DSP/FilteringFunctions/arm_fir_interpolate_q15.c ****      * to process the next group of interpolation factor number samples */
 353:../Dave/Generated/CMSIS_DSP/FilteringFunctions/arm_fir_interpolate_q15.c ****     pState = pState + 1;
 760              	 .loc 1 353 0
 761 060c 7B69     	 ldr r3,[r7,#20]
 762 060e 0233     	 adds r3,r3,#2
 763 0610 7B61     	 str r3,[r7,#20]
 354:../Dave/Generated/CMSIS_DSP/FilteringFunctions/arm_fir_interpolate_q15.c **** 
 355:../Dave/Generated/CMSIS_DSP/FilteringFunctions/arm_fir_interpolate_q15.c ****     /* Decrement the loop counter */
 356:../Dave/Generated/CMSIS_DSP/FilteringFunctions/arm_fir_interpolate_q15.c ****     blkCnt--;
 764              	 .loc 1 356 0
 765 0612 FB6D     	 ldr r3,[r7,#92]
 766 0614 013B     	 subs r3,r3,#1
 767 0616 FB65     	 str r3,[r7,#92]
 768              	.L10:
 240:../Dave/Generated/CMSIS_DSP/FilteringFunctions/arm_fir_interpolate_q15.c ****   {
 769              	 .loc 1 240 0
 770 0618 FB6D     	 ldr r3,[r7,#92]
 771 061a 002B     	 cmp r3,#0
 772 061c 7FF4E1AE 	 bne .L17
 357:../Dave/Generated/CMSIS_DSP/FilteringFunctions/arm_fir_interpolate_q15.c ****   }
 358:../Dave/Generated/CMSIS_DSP/FilteringFunctions/arm_fir_interpolate_q15.c **** 
 359:../Dave/Generated/CMSIS_DSP/FilteringFunctions/arm_fir_interpolate_q15.c **** 
 360:../Dave/Generated/CMSIS_DSP/FilteringFunctions/arm_fir_interpolate_q15.c ****   /* Processing is complete.    
 361:../Dave/Generated/CMSIS_DSP/FilteringFunctions/arm_fir_interpolate_q15.c ****    ** Now copy the last phaseLen - 1 samples to the satrt of the state buffer.    
 362:../Dave/Generated/CMSIS_DSP/FilteringFunctions/arm_fir_interpolate_q15.c ****    ** This prepares the state buffer for the next function call. */
 363:../Dave/Generated/CMSIS_DSP/FilteringFunctions/arm_fir_interpolate_q15.c **** 
 364:../Dave/Generated/CMSIS_DSP/FilteringFunctions/arm_fir_interpolate_q15.c ****   /* Points to the start of the state buffer */
 365:../Dave/Generated/CMSIS_DSP/FilteringFunctions/arm_fir_interpolate_q15.c ****   pStateCurnt = S->pState;
 773              	 .loc 1 365 0
 774 0620 FB68     	 ldr r3,[r7,#12]
 775 0622 9B68     	 ldr r3,[r3,#8]
 776 0624 3B61     	 str r3,[r7,#16]
 366:../Dave/Generated/CMSIS_DSP/FilteringFunctions/arm_fir_interpolate_q15.c **** 
 367:../Dave/Generated/CMSIS_DSP/FilteringFunctions/arm_fir_interpolate_q15.c ****   i = ((uint32_t) phaseLen - 1u) >> 2u;
 777              	 .loc 1 367 0
 778 0626 7B8F     	 ldrh r3,[r7,#58]
 779 0628 013B     	 subs r3,r3,#1
 780 062a 9B08     	 lsrs r3,r3,#2
 781 062c 3B66     	 str r3,[r7,#96]
 368:../Dave/Generated/CMSIS_DSP/FilteringFunctions/arm_fir_interpolate_q15.c **** 
 369:../Dave/Generated/CMSIS_DSP/FilteringFunctions/arm_fir_interpolate_q15.c ****   /* copy data */
 370:../Dave/Generated/CMSIS_DSP/FilteringFunctions/arm_fir_interpolate_q15.c ****   while(i > 0u)
 782              	 .loc 1 370 0
 783 062e 1AE0     	 b .L18
 784              	.L19:
 371:../Dave/Generated/CMSIS_DSP/FilteringFunctions/arm_fir_interpolate_q15.c ****   {
 372:../Dave/Generated/CMSIS_DSP/FilteringFunctions/arm_fir_interpolate_q15.c **** #ifndef UNALIGNED_SUPPORT_DISABLE
 373:../Dave/Generated/CMSIS_DSP/FilteringFunctions/arm_fir_interpolate_q15.c **** 
 374:../Dave/Generated/CMSIS_DSP/FilteringFunctions/arm_fir_interpolate_q15.c ****     *__SIMD32(pStateCurnt)++ = *__SIMD32(pState)++;
 785              	 .loc 1 374 0
 786 0630 07F11002 	 add r2,r7,#16
 787 0634 1368     	 ldr r3,[r2]
 788 0636 191D     	 adds r1,r3,#4
 789 0638 1160     	 str r1,[r2]
 790 063a 07F11401 	 add r1,r7,#20
 791 063e 0A68     	 ldr r2,[r1]
 792 0640 101D     	 adds r0,r2,#4
 793 0642 0860     	 str r0,[r1]
 794 0644 1268     	 ldr r2,[r2]
 795 0646 1A60     	 str r2,[r3]
 375:../Dave/Generated/CMSIS_DSP/FilteringFunctions/arm_fir_interpolate_q15.c ****     *__SIMD32(pStateCurnt)++ = *__SIMD32(pState)++;
 796              	 .loc 1 375 0
 797 0648 07F11002 	 add r2,r7,#16
 798 064c 1368     	 ldr r3,[r2]
 799 064e 191D     	 adds r1,r3,#4
 800 0650 1160     	 str r1,[r2]
 801 0652 07F11401 	 add r1,r7,#20
 802 0656 0A68     	 ldr r2,[r1]
 803 0658 101D     	 adds r0,r2,#4
 804 065a 0860     	 str r0,[r1]
 805 065c 1268     	 ldr r2,[r2]
 806 065e 1A60     	 str r2,[r3]
 376:../Dave/Generated/CMSIS_DSP/FilteringFunctions/arm_fir_interpolate_q15.c **** 
 377:../Dave/Generated/CMSIS_DSP/FilteringFunctions/arm_fir_interpolate_q15.c **** #else
 378:../Dave/Generated/CMSIS_DSP/FilteringFunctions/arm_fir_interpolate_q15.c **** 
 379:../Dave/Generated/CMSIS_DSP/FilteringFunctions/arm_fir_interpolate_q15.c ****     *pStateCurnt++ = *pState++;
 380:../Dave/Generated/CMSIS_DSP/FilteringFunctions/arm_fir_interpolate_q15.c **** 	*pStateCurnt++ = *pState++;
 381:../Dave/Generated/CMSIS_DSP/FilteringFunctions/arm_fir_interpolate_q15.c **** 	*pStateCurnt++ = *pState++;
 382:../Dave/Generated/CMSIS_DSP/FilteringFunctions/arm_fir_interpolate_q15.c **** 	*pStateCurnt++ = *pState++;
 383:../Dave/Generated/CMSIS_DSP/FilteringFunctions/arm_fir_interpolate_q15.c **** 	
 384:../Dave/Generated/CMSIS_DSP/FilteringFunctions/arm_fir_interpolate_q15.c **** #endif	/*	#ifndef UNALIGNED_SUPPORT_DISABLE	*/
 385:../Dave/Generated/CMSIS_DSP/FilteringFunctions/arm_fir_interpolate_q15.c **** 	
 386:../Dave/Generated/CMSIS_DSP/FilteringFunctions/arm_fir_interpolate_q15.c **** 	/* Decrement the loop counter */
 387:../Dave/Generated/CMSIS_DSP/FilteringFunctions/arm_fir_interpolate_q15.c ****     i--;
 807              	 .loc 1 387 0
 808 0660 3B6E     	 ldr r3,[r7,#96]
 809 0662 013B     	 subs r3,r3,#1
 810 0664 3B66     	 str r3,[r7,#96]
 811              	.L18:
 370:../Dave/Generated/CMSIS_DSP/FilteringFunctions/arm_fir_interpolate_q15.c ****   {
 812              	 .loc 1 370 0
 813 0666 3B6E     	 ldr r3,[r7,#96]
 814 0668 002B     	 cmp r3,#0
 815 066a E1D1     	 bne .L19
 388:../Dave/Generated/CMSIS_DSP/FilteringFunctions/arm_fir_interpolate_q15.c ****   }
 389:../Dave/Generated/CMSIS_DSP/FilteringFunctions/arm_fir_interpolate_q15.c **** 
 390:../Dave/Generated/CMSIS_DSP/FilteringFunctions/arm_fir_interpolate_q15.c ****   i = ((uint32_t) phaseLen - 1u) % 0x04u;
 816              	 .loc 1 390 0
 817 066c 7B8F     	 ldrh r3,[r7,#58]
 818 066e 013B     	 subs r3,r3,#1
 819 0670 03F00303 	 and r3,r3,#3
 820 0674 3B66     	 str r3,[r7,#96]
 391:../Dave/Generated/CMSIS_DSP/FilteringFunctions/arm_fir_interpolate_q15.c **** 
 392:../Dave/Generated/CMSIS_DSP/FilteringFunctions/arm_fir_interpolate_q15.c ****   while(i > 0u)
 821              	 .loc 1 392 0
 822 0676 0AE0     	 b .L20
 823              	.L21:
 393:../Dave/Generated/CMSIS_DSP/FilteringFunctions/arm_fir_interpolate_q15.c ****   {
 394:../Dave/Generated/CMSIS_DSP/FilteringFunctions/arm_fir_interpolate_q15.c ****     *pStateCurnt++ = *pState++;
 824              	 .loc 1 394 0
 825 0678 3B69     	 ldr r3,[r7,#16]
 826 067a 9A1C     	 adds r2,r3,#2
 827 067c 3A61     	 str r2,[r7,#16]
 828 067e 7A69     	 ldr r2,[r7,#20]
 829 0680 911C     	 adds r1,r2,#2
 830 0682 7961     	 str r1,[r7,#20]
 831 0684 1288     	 ldrh r2,[r2]
 832 0686 1A80     	 strh r2,[r3]
 395:../Dave/Generated/CMSIS_DSP/FilteringFunctions/arm_fir_interpolate_q15.c **** 
 396:../Dave/Generated/CMSIS_DSP/FilteringFunctions/arm_fir_interpolate_q15.c ****     /* Decrement the loop counter */
 397:../Dave/Generated/CMSIS_DSP/FilteringFunctions/arm_fir_interpolate_q15.c ****     i--;
 833              	 .loc 1 397 0
 834 0688 3B6E     	 ldr r3,[r7,#96]
 835 068a 013B     	 subs r3,r3,#1
 836 068c 3B66     	 str r3,[r7,#96]
 837              	.L20:
 392:../Dave/Generated/CMSIS_DSP/FilteringFunctions/arm_fir_interpolate_q15.c ****   {
 838              	 .loc 1 392 0
 839 068e 3B6E     	 ldr r3,[r7,#96]
 840 0690 002B     	 cmp r3,#0
 841 0692 F1D1     	 bne .L21
 398:../Dave/Generated/CMSIS_DSP/FilteringFunctions/arm_fir_interpolate_q15.c ****   }
 399:../Dave/Generated/CMSIS_DSP/FilteringFunctions/arm_fir_interpolate_q15.c **** }
 842              	 .loc 1 399 0
 843 0694 7C37     	 adds r7,r7,#124
 844              	.LCFI3:
 845              	 .cfi_def_cfa_offset 36
 846 0696 BD46     	 mov sp,r7
 847              	.LCFI4:
 848              	 .cfi_def_cfa_register 13
 849              	 
 850 0698 BDE8F08F 	 pop {r4,r5,r6,r7,r8,r9,r10,fp,pc}
 851              	 .cfi_endproc
 852              	.LFE139:
 854              	 .text
 855              	.Letext0:
 856              	 .file 2 "c:\\davev4\\dave-4.1.2\\eclipse\\arm-gcc-49\\arm-none-eabi\\include\\machine\\_default_types.h"
 857              	 .file 3 "c:\\davev4\\dave-4.1.2\\eclipse\\arm-gcc-49\\arm-none-eabi\\include\\stdint.h"
 858              	 .file 4 "C:\\Workspaces\\DAVE-4.1\\Flightcontroller_PWM_CopterRocks_Working\\Dave\\Generated/CMSIS_DSP/arm_math.h"