   1              	 .syntax unified
   2              	 .cpu cortex-m4
   3              	 .eabi_attribute 27,3
   4              	 .fpu fpv4-sp-d16
   5              	 .eabi_attribute 20,1
   6              	 .eabi_attribute 21,1
   7              	 .eabi_attribute 23,3
   8              	 .eabi_attribute 24,1
   9              	 .eabi_attribute 25,1
  10              	 .eabi_attribute 26,1
  11              	 .eabi_attribute 30,6
  12              	 .eabi_attribute 34,1
  13              	 .eabi_attribute 18,4
  14              	 .thumb
  15              	 .file "arm_conv_partial_q7.c"
  16              	 .text
  17              	.Ltext0:
  18              	 .cfi_sections .debug_frame
  19              	 .section .text.arm_conv_partial_q7,"ax",%progbits
  20              	 .align 2
  21              	 .global arm_conv_partial_q7
  22              	 .thumb
  23              	 .thumb_func
  25              	arm_conv_partial_q7:
  26              	.LFB139:
  27              	 .file 1 "../Dave/Generated/CMSIS_DSP/FilteringFunctions/arm_conv_partial_q7.c"
   1:../Dave/Generated/CMSIS_DSP/FilteringFunctions/arm_conv_partial_q7.c **** /* ----------------------------------------------------------------------   
   2:../Dave/Generated/CMSIS_DSP/FilteringFunctions/arm_conv_partial_q7.c **** * Copyright (C) 2010-2014 ARM Limited. All rights reserved.   
   3:../Dave/Generated/CMSIS_DSP/FilteringFunctions/arm_conv_partial_q7.c **** *   
   4:../Dave/Generated/CMSIS_DSP/FilteringFunctions/arm_conv_partial_q7.c **** * $Date:        12. March 2014
   5:../Dave/Generated/CMSIS_DSP/FilteringFunctions/arm_conv_partial_q7.c **** * $Revision: 	V1.4.4
   6:../Dave/Generated/CMSIS_DSP/FilteringFunctions/arm_conv_partial_q7.c **** *   
   7:../Dave/Generated/CMSIS_DSP/FilteringFunctions/arm_conv_partial_q7.c **** * Project: 	    CMSIS DSP Library   
   8:../Dave/Generated/CMSIS_DSP/FilteringFunctions/arm_conv_partial_q7.c **** * Title:		arm_conv_partial_q7.c   
   9:../Dave/Generated/CMSIS_DSP/FilteringFunctions/arm_conv_partial_q7.c **** *   
  10:../Dave/Generated/CMSIS_DSP/FilteringFunctions/arm_conv_partial_q7.c **** * Description:	Partial convolution of Q7 sequences.   
  11:../Dave/Generated/CMSIS_DSP/FilteringFunctions/arm_conv_partial_q7.c **** *   
  12:../Dave/Generated/CMSIS_DSP/FilteringFunctions/arm_conv_partial_q7.c **** * Target Processor: Cortex-M4/Cortex-M3/Cortex-M0
  13:../Dave/Generated/CMSIS_DSP/FilteringFunctions/arm_conv_partial_q7.c **** *  
  14:../Dave/Generated/CMSIS_DSP/FilteringFunctions/arm_conv_partial_q7.c **** * Redistribution and use in source and binary forms, with or without 
  15:../Dave/Generated/CMSIS_DSP/FilteringFunctions/arm_conv_partial_q7.c **** * modification, are permitted provided that the following conditions
  16:../Dave/Generated/CMSIS_DSP/FilteringFunctions/arm_conv_partial_q7.c **** * are met:
  17:../Dave/Generated/CMSIS_DSP/FilteringFunctions/arm_conv_partial_q7.c **** *   - Redistributions of source code must retain the above copyright
  18:../Dave/Generated/CMSIS_DSP/FilteringFunctions/arm_conv_partial_q7.c **** *     notice, this list of conditions and the following disclaimer.
  19:../Dave/Generated/CMSIS_DSP/FilteringFunctions/arm_conv_partial_q7.c **** *   - Redistributions in binary form must reproduce the above copyright
  20:../Dave/Generated/CMSIS_DSP/FilteringFunctions/arm_conv_partial_q7.c **** *     notice, this list of conditions and the following disclaimer in
  21:../Dave/Generated/CMSIS_DSP/FilteringFunctions/arm_conv_partial_q7.c **** *     the documentation and/or other materials provided with the 
  22:../Dave/Generated/CMSIS_DSP/FilteringFunctions/arm_conv_partial_q7.c **** *     distribution.
  23:../Dave/Generated/CMSIS_DSP/FilteringFunctions/arm_conv_partial_q7.c **** *   - Neither the name of ARM LIMITED nor the names of its contributors
  24:../Dave/Generated/CMSIS_DSP/FilteringFunctions/arm_conv_partial_q7.c **** *     may be used to endorse or promote products derived from this
  25:../Dave/Generated/CMSIS_DSP/FilteringFunctions/arm_conv_partial_q7.c **** *     software without specific prior written permission.
  26:../Dave/Generated/CMSIS_DSP/FilteringFunctions/arm_conv_partial_q7.c **** *
  27:../Dave/Generated/CMSIS_DSP/FilteringFunctions/arm_conv_partial_q7.c **** * THIS SOFTWARE IS PROVIDED BY THE COPYRIGHT HOLDERS AND CONTRIBUTORS
  28:../Dave/Generated/CMSIS_DSP/FilteringFunctions/arm_conv_partial_q7.c **** * "AS IS" AND ANY EXPRESS OR IMPLIED WARRANTIES, INCLUDING, BUT NOT
  29:../Dave/Generated/CMSIS_DSP/FilteringFunctions/arm_conv_partial_q7.c **** * LIMITED TO, THE IMPLIED WARRANTIES OF MERCHANTABILITY AND FITNESS
  30:../Dave/Generated/CMSIS_DSP/FilteringFunctions/arm_conv_partial_q7.c **** * FOR A PARTICULAR PURPOSE ARE DISCLAIMED. IN NO EVENT SHALL THE 
  31:../Dave/Generated/CMSIS_DSP/FilteringFunctions/arm_conv_partial_q7.c **** * COPYRIGHT OWNER OR CONTRIBUTORS BE LIABLE FOR ANY DIRECT, INDIRECT,
  32:../Dave/Generated/CMSIS_DSP/FilteringFunctions/arm_conv_partial_q7.c **** * INCIDENTAL, SPECIAL, EXEMPLARY, OR CONSEQUENTIAL DAMAGES (INCLUDING,
  33:../Dave/Generated/CMSIS_DSP/FilteringFunctions/arm_conv_partial_q7.c **** * BUT NOT LIMITED TO, PROCUREMENT OF SUBSTITUTE GOODS OR SERVICES;
  34:../Dave/Generated/CMSIS_DSP/FilteringFunctions/arm_conv_partial_q7.c **** * LOSS OF USE, DATA, OR PROFITS; OR BUSINESS INTERRUPTION) HOWEVER
  35:../Dave/Generated/CMSIS_DSP/FilteringFunctions/arm_conv_partial_q7.c **** * CAUSED AND ON ANY THEORY OF LIABILITY, WHETHER IN CONTRACT, STRICT
  36:../Dave/Generated/CMSIS_DSP/FilteringFunctions/arm_conv_partial_q7.c **** * LIABILITY, OR TORT (INCLUDING NEGLIGENCE OR OTHERWISE) ARISING IN
  37:../Dave/Generated/CMSIS_DSP/FilteringFunctions/arm_conv_partial_q7.c **** * ANY WAY OUT OF THE USE OF THIS SOFTWARE, EVEN IF ADVISED OF THE
  38:../Dave/Generated/CMSIS_DSP/FilteringFunctions/arm_conv_partial_q7.c **** * POSSIBILITY OF SUCH DAMAGE.    
  39:../Dave/Generated/CMSIS_DSP/FilteringFunctions/arm_conv_partial_q7.c **** * -------------------------------------------------------------------- */
  40:../Dave/Generated/CMSIS_DSP/FilteringFunctions/arm_conv_partial_q7.c **** 
  41:../Dave/Generated/CMSIS_DSP/FilteringFunctions/arm_conv_partial_q7.c **** #include "CMSIS_DSP/cmsis_dsp.h"
  42:../Dave/Generated/CMSIS_DSP/FilteringFunctions/arm_conv_partial_q7.c **** 
  43:../Dave/Generated/CMSIS_DSP/FilteringFunctions/arm_conv_partial_q7.c **** /**   
  44:../Dave/Generated/CMSIS_DSP/FilteringFunctions/arm_conv_partial_q7.c ****  * @ingroup groupFilters   
  45:../Dave/Generated/CMSIS_DSP/FilteringFunctions/arm_conv_partial_q7.c ****  */
  46:../Dave/Generated/CMSIS_DSP/FilteringFunctions/arm_conv_partial_q7.c **** 
  47:../Dave/Generated/CMSIS_DSP/FilteringFunctions/arm_conv_partial_q7.c **** /**   
  48:../Dave/Generated/CMSIS_DSP/FilteringFunctions/arm_conv_partial_q7.c ****  * @addtogroup PartialConv   
  49:../Dave/Generated/CMSIS_DSP/FilteringFunctions/arm_conv_partial_q7.c ****  * @{   
  50:../Dave/Generated/CMSIS_DSP/FilteringFunctions/arm_conv_partial_q7.c ****  */
  51:../Dave/Generated/CMSIS_DSP/FilteringFunctions/arm_conv_partial_q7.c **** 
  52:../Dave/Generated/CMSIS_DSP/FilteringFunctions/arm_conv_partial_q7.c **** /**   
  53:../Dave/Generated/CMSIS_DSP/FilteringFunctions/arm_conv_partial_q7.c ****  * @brief Partial convolution of Q7 sequences.   
  54:../Dave/Generated/CMSIS_DSP/FilteringFunctions/arm_conv_partial_q7.c ****  * @param[in]       *pSrcA points to the first input sequence.   
  55:../Dave/Generated/CMSIS_DSP/FilteringFunctions/arm_conv_partial_q7.c ****  * @param[in]       srcALen length of the first input sequence.   
  56:../Dave/Generated/CMSIS_DSP/FilteringFunctions/arm_conv_partial_q7.c ****  * @param[in]       *pSrcB points to the second input sequence.   
  57:../Dave/Generated/CMSIS_DSP/FilteringFunctions/arm_conv_partial_q7.c ****  * @param[in]       srcBLen length of the second input sequence.   
  58:../Dave/Generated/CMSIS_DSP/FilteringFunctions/arm_conv_partial_q7.c ****  * @param[out]      *pDst points to the location where the output result is written.   
  59:../Dave/Generated/CMSIS_DSP/FilteringFunctions/arm_conv_partial_q7.c ****  * @param[in]       firstIndex is the first output sample to start with.   
  60:../Dave/Generated/CMSIS_DSP/FilteringFunctions/arm_conv_partial_q7.c ****  * @param[in]       numPoints is the number of output points to be computed.   
  61:../Dave/Generated/CMSIS_DSP/FilteringFunctions/arm_conv_partial_q7.c ****  * @return  Returns either ARM_MATH_SUCCESS if the function completed correctly or ARM_MATH_ARGUMEN
  62:../Dave/Generated/CMSIS_DSP/FilteringFunctions/arm_conv_partial_q7.c ****  *  
  63:../Dave/Generated/CMSIS_DSP/FilteringFunctions/arm_conv_partial_q7.c ****  * \par    
  64:../Dave/Generated/CMSIS_DSP/FilteringFunctions/arm_conv_partial_q7.c ****  * Refer the function <code>arm_conv_partial_opt_q7()</code> for a faster implementation of this fu
  65:../Dave/Generated/CMSIS_DSP/FilteringFunctions/arm_conv_partial_q7.c ****  *  
  66:../Dave/Generated/CMSIS_DSP/FilteringFunctions/arm_conv_partial_q7.c ****  */
  67:../Dave/Generated/CMSIS_DSP/FilteringFunctions/arm_conv_partial_q7.c **** 
  68:../Dave/Generated/CMSIS_DSP/FilteringFunctions/arm_conv_partial_q7.c **** arm_status arm_conv_partial_q7(
  69:../Dave/Generated/CMSIS_DSP/FilteringFunctions/arm_conv_partial_q7.c ****   q7_t * pSrcA,
  70:../Dave/Generated/CMSIS_DSP/FilteringFunctions/arm_conv_partial_q7.c ****   uint32_t srcALen,
  71:../Dave/Generated/CMSIS_DSP/FilteringFunctions/arm_conv_partial_q7.c ****   q7_t * pSrcB,
  72:../Dave/Generated/CMSIS_DSP/FilteringFunctions/arm_conv_partial_q7.c ****   uint32_t srcBLen,
  73:../Dave/Generated/CMSIS_DSP/FilteringFunctions/arm_conv_partial_q7.c ****   q7_t * pDst,
  74:../Dave/Generated/CMSIS_DSP/FilteringFunctions/arm_conv_partial_q7.c ****   uint32_t firstIndex,
  75:../Dave/Generated/CMSIS_DSP/FilteringFunctions/arm_conv_partial_q7.c ****   uint32_t numPoints)
  76:../Dave/Generated/CMSIS_DSP/FilteringFunctions/arm_conv_partial_q7.c **** {
  28              	 .loc 1 76 0
  29              	 .cfi_startproc
  30              	 
  31              	 
  32              	 
  33 0000 90B4     	 push {r4,r7}
  34              	.LCFI0:
  35              	 .cfi_def_cfa_offset 8
  36              	 .cfi_offset 4,-8
  37              	 .cfi_offset 7,-4
  38 0002 E6B0     	 sub sp,sp,#408
  39              	.LCFI1:
  40              	 .cfi_def_cfa_offset 416
  41 0004 00AF     	 add r7,sp,#0
  42              	.LCFI2:
  43              	 .cfi_def_cfa_register 7
  44 0006 07F10C04 	 add r4,r7,#12
  45 000a 2060     	 str r0,[r4]
  46 000c 07F10800 	 add r0,r7,#8
  47 0010 0160     	 str r1,[r0]
  48 0012 391D     	 adds r1,r7,#4
  49 0014 0A60     	 str r2,[r1]
  50 0016 3A46     	 mov r2,r7
  51 0018 1360     	 str r3,[r2]
  77:../Dave/Generated/CMSIS_DSP/FilteringFunctions/arm_conv_partial_q7.c **** 
  78:../Dave/Generated/CMSIS_DSP/FilteringFunctions/arm_conv_partial_q7.c **** 
  79:../Dave/Generated/CMSIS_DSP/FilteringFunctions/arm_conv_partial_q7.c **** #ifndef ARM_MATH_CM0_FAMILY
  80:../Dave/Generated/CMSIS_DSP/FilteringFunctions/arm_conv_partial_q7.c **** 
  81:../Dave/Generated/CMSIS_DSP/FilteringFunctions/arm_conv_partial_q7.c ****   /* Run the below code for Cortex-M4 and Cortex-M3 */
  82:../Dave/Generated/CMSIS_DSP/FilteringFunctions/arm_conv_partial_q7.c **** 
  83:../Dave/Generated/CMSIS_DSP/FilteringFunctions/arm_conv_partial_q7.c ****   q7_t *pIn1;                                    /* inputA pointer */
  84:../Dave/Generated/CMSIS_DSP/FilteringFunctions/arm_conv_partial_q7.c ****   q7_t *pIn2;                                    /* inputB pointer */
  85:../Dave/Generated/CMSIS_DSP/FilteringFunctions/arm_conv_partial_q7.c ****   q7_t *pOut = pDst;                             /* output pointer */
  52              	 .loc 1 85 0
  53 001a D7F8A031 	 ldr r3,[r7,#416]
  54 001e C7F88C31 	 str r3,[r7,#396]
  86:../Dave/Generated/CMSIS_DSP/FilteringFunctions/arm_conv_partial_q7.c ****   q7_t *px;                                      /* Intermediate inputA pointer */
  87:../Dave/Generated/CMSIS_DSP/FilteringFunctions/arm_conv_partial_q7.c ****   q7_t *py;                                      /* Intermediate inputB pointer */
  88:../Dave/Generated/CMSIS_DSP/FilteringFunctions/arm_conv_partial_q7.c ****   q7_t *pSrc1, *pSrc2;                           /* Intermediate pointers */
  89:../Dave/Generated/CMSIS_DSP/FilteringFunctions/arm_conv_partial_q7.c ****   q31_t sum, acc0, acc1, acc2, acc3;             /* Accumulator */
  90:../Dave/Generated/CMSIS_DSP/FilteringFunctions/arm_conv_partial_q7.c ****   q31_t input1, input2;
  91:../Dave/Generated/CMSIS_DSP/FilteringFunctions/arm_conv_partial_q7.c ****   q15_t in1, in2;
  92:../Dave/Generated/CMSIS_DSP/FilteringFunctions/arm_conv_partial_q7.c ****   q7_t x0, x1, x2, x3, c0, c1;
  93:../Dave/Generated/CMSIS_DSP/FilteringFunctions/arm_conv_partial_q7.c ****   uint32_t j, k, count, check, blkCnt;
  94:../Dave/Generated/CMSIS_DSP/FilteringFunctions/arm_conv_partial_q7.c ****   int32_t blockSize1, blockSize2, blockSize3;    /* loop counter */
  95:../Dave/Generated/CMSIS_DSP/FilteringFunctions/arm_conv_partial_q7.c ****   arm_status status;
  96:../Dave/Generated/CMSIS_DSP/FilteringFunctions/arm_conv_partial_q7.c **** 
  97:../Dave/Generated/CMSIS_DSP/FilteringFunctions/arm_conv_partial_q7.c **** 
  98:../Dave/Generated/CMSIS_DSP/FilteringFunctions/arm_conv_partial_q7.c ****   /* Check for range of output samples to be calculated */
  99:../Dave/Generated/CMSIS_DSP/FilteringFunctions/arm_conv_partial_q7.c ****   if((firstIndex + numPoints) > ((srcALen + (srcBLen - 1u))))
  55              	 .loc 1 99 0
  56 0022 D7F8A421 	 ldr r2,[r7,#420]
  57 0026 D7F8A831 	 ldr r3,[r7,#424]
  58 002a 1A44     	 add r2,r2,r3
  59 002c 3946     	 mov r1,r7
  60 002e 07F10803 	 add r3,r7,#8
  61 0032 0968     	 ldr r1,[r1]
  62 0034 1B68     	 ldr r3,[r3]
  63 0036 0B44     	 add r3,r3,r1
  64 0038 013B     	 subs r3,r3,#1
  65 003a 9A42     	 cmp r2,r3
  66 003c 04D9     	 bls .L2
 100:../Dave/Generated/CMSIS_DSP/FilteringFunctions/arm_conv_partial_q7.c ****   {
 101:../Dave/Generated/CMSIS_DSP/FilteringFunctions/arm_conv_partial_q7.c ****     /* Set status as ARM_MATH_ARGUMENT_ERROR */
 102:../Dave/Generated/CMSIS_DSP/FilteringFunctions/arm_conv_partial_q7.c ****     status = ARM_MATH_ARGUMENT_ERROR;
  67              	 .loc 1 102 0
  68 003e FF23     	 movs r3,#255
  69 0040 87F84F31 	 strb r3,[r7,#335]
  70 0044 00F063BF 	 b .L3
  71              	.L2:
 103:../Dave/Generated/CMSIS_DSP/FilteringFunctions/arm_conv_partial_q7.c ****   }
 104:../Dave/Generated/CMSIS_DSP/FilteringFunctions/arm_conv_partial_q7.c ****   else
 105:../Dave/Generated/CMSIS_DSP/FilteringFunctions/arm_conv_partial_q7.c ****   {
 106:../Dave/Generated/CMSIS_DSP/FilteringFunctions/arm_conv_partial_q7.c **** 
 107:../Dave/Generated/CMSIS_DSP/FilteringFunctions/arm_conv_partial_q7.c ****     /* The algorithm implementation is based on the lengths of the inputs. */
 108:../Dave/Generated/CMSIS_DSP/FilteringFunctions/arm_conv_partial_q7.c ****     /* srcB is always made to slide across srcA. */
 109:../Dave/Generated/CMSIS_DSP/FilteringFunctions/arm_conv_partial_q7.c ****     /* So srcBLen is always considered as shorter or equal to srcALen */
 110:../Dave/Generated/CMSIS_DSP/FilteringFunctions/arm_conv_partial_q7.c ****     if(srcALen >= srcBLen)
  72              	 .loc 1 110 0
  73 0048 07F10802 	 add r2,r7,#8
  74 004c 3B46     	 mov r3,r7
  75 004e 1268     	 ldr r2,[r2]
  76 0050 1B68     	 ldr r3,[r3]
  77 0052 9A42     	 cmp r2,r3
  78 0054 09D3     	 bcc .L4
 111:../Dave/Generated/CMSIS_DSP/FilteringFunctions/arm_conv_partial_q7.c ****     {
 112:../Dave/Generated/CMSIS_DSP/FilteringFunctions/arm_conv_partial_q7.c ****       /* Initialization of inputA pointer */
 113:../Dave/Generated/CMSIS_DSP/FilteringFunctions/arm_conv_partial_q7.c ****       pIn1 = pSrcA;
  79              	 .loc 1 113 0
  80 0056 07F10C03 	 add r3,r7,#12
  81 005a 1B68     	 ldr r3,[r3]
  82 005c C7F89431 	 str r3,[r7,#404]
 114:../Dave/Generated/CMSIS_DSP/FilteringFunctions/arm_conv_partial_q7.c **** 
 115:../Dave/Generated/CMSIS_DSP/FilteringFunctions/arm_conv_partial_q7.c ****       /* Initialization of inputB pointer */
 116:../Dave/Generated/CMSIS_DSP/FilteringFunctions/arm_conv_partial_q7.c ****       pIn2 = pSrcB;
  83              	 .loc 1 116 0
  84 0060 3B1D     	 adds r3,r7,#4
  85 0062 1B68     	 ldr r3,[r3]
  86 0064 C7F89031 	 str r3,[r7,#400]
  87 0068 16E0     	 b .L5
  88              	.L4:
 117:../Dave/Generated/CMSIS_DSP/FilteringFunctions/arm_conv_partial_q7.c ****     }
 118:../Dave/Generated/CMSIS_DSP/FilteringFunctions/arm_conv_partial_q7.c ****     else
 119:../Dave/Generated/CMSIS_DSP/FilteringFunctions/arm_conv_partial_q7.c ****     {
 120:../Dave/Generated/CMSIS_DSP/FilteringFunctions/arm_conv_partial_q7.c ****       /* Initialization of inputA pointer */
 121:../Dave/Generated/CMSIS_DSP/FilteringFunctions/arm_conv_partial_q7.c ****       pIn1 = pSrcB;
  89              	 .loc 1 121 0
  90 006a 3B1D     	 adds r3,r7,#4
  91 006c 1B68     	 ldr r3,[r3]
  92 006e C7F89431 	 str r3,[r7,#404]
 122:../Dave/Generated/CMSIS_DSP/FilteringFunctions/arm_conv_partial_q7.c **** 
 123:../Dave/Generated/CMSIS_DSP/FilteringFunctions/arm_conv_partial_q7.c ****       /* Initialization of inputB pointer */
 124:../Dave/Generated/CMSIS_DSP/FilteringFunctions/arm_conv_partial_q7.c ****       pIn2 = pSrcA;
  93              	 .loc 1 124 0
  94 0072 07F10C03 	 add r3,r7,#12
  95 0076 1B68     	 ldr r3,[r3]
  96 0078 C7F89031 	 str r3,[r7,#400]
 125:../Dave/Generated/CMSIS_DSP/FilteringFunctions/arm_conv_partial_q7.c **** 
 126:../Dave/Generated/CMSIS_DSP/FilteringFunctions/arm_conv_partial_q7.c ****       /* srcBLen is always considered as shorter or equal to srcALen */
 127:../Dave/Generated/CMSIS_DSP/FilteringFunctions/arm_conv_partial_q7.c ****       j = srcBLen;
  97              	 .loc 1 127 0
  98 007c 3B46     	 mov r3,r7
  99 007e 1B68     	 ldr r3,[r3]
 100 0080 C7F84831 	 str r3,[r7,#328]
 128:../Dave/Generated/CMSIS_DSP/FilteringFunctions/arm_conv_partial_q7.c ****       srcBLen = srcALen;
 101              	 .loc 1 128 0
 102 0084 3B46     	 mov r3,r7
 103 0086 07F10802 	 add r2,r7,#8
 104 008a 1268     	 ldr r2,[r2]
 105 008c 1A60     	 str r2,[r3]
 129:../Dave/Generated/CMSIS_DSP/FilteringFunctions/arm_conv_partial_q7.c ****       srcALen = j;
 106              	 .loc 1 129 0
 107 008e 07F10803 	 add r3,r7,#8
 108 0092 D7F84821 	 ldr r2,[r7,#328]
 109 0096 1A60     	 str r2,[r3]
 110              	.L5:
 130:../Dave/Generated/CMSIS_DSP/FilteringFunctions/arm_conv_partial_q7.c ****     }
 131:../Dave/Generated/CMSIS_DSP/FilteringFunctions/arm_conv_partial_q7.c **** 
 132:../Dave/Generated/CMSIS_DSP/FilteringFunctions/arm_conv_partial_q7.c ****     /* Conditions to check which loopCounter holds   
 133:../Dave/Generated/CMSIS_DSP/FilteringFunctions/arm_conv_partial_q7.c ****      * the first and last indices of the output samples to be calculated. */
 134:../Dave/Generated/CMSIS_DSP/FilteringFunctions/arm_conv_partial_q7.c ****     check = firstIndex + numPoints;
 111              	 .loc 1 134 0
 112 0098 D7F8A421 	 ldr r2,[r7,#420]
 113 009c D7F8A831 	 ldr r3,[r7,#424]
 114 00a0 1344     	 add r3,r3,r2
 115 00a2 C7F84431 	 str r3,[r7,#324]
 135:../Dave/Generated/CMSIS_DSP/FilteringFunctions/arm_conv_partial_q7.c ****     blockSize3 = ((int32_t)check > (int32_t)srcALen) ? (int32_t)check - (int32_t)srcALen : 0;
 116              	 .loc 1 135 0
 117 00a6 D7F84421 	 ldr r2,[r7,#324]
 118 00aa 07F10803 	 add r3,r7,#8
 119 00ae 1B68     	 ldr r3,[r3]
 120 00b0 9A42     	 cmp r2,r3
 121 00b2 06DD     	 ble .L6
 122              	 .loc 1 135 0 is_stmt 0 discriminator 1
 123 00b4 D7F84421 	 ldr r2,[r7,#324]
 124 00b8 07F10803 	 add r3,r7,#8
 125 00bc 1B68     	 ldr r3,[r3]
 126 00be D31A     	 subs r3,r2,r3
 127 00c0 00E0     	 b .L7
 128              	.L6:
 129              	 .loc 1 135 0 discriminator 2
 130 00c2 0023     	 movs r3,#0
 131              	.L7:
 132              	 .loc 1 135 0 discriminator 4
 133 00c4 C7F85031 	 str r3,[r7,#336]
 136:../Dave/Generated/CMSIS_DSP/FilteringFunctions/arm_conv_partial_q7.c ****     blockSize3 = ((int32_t)firstIndex > (int32_t)srcALen - 1) ? blockSize3 - (int32_t)firstIndex + 
 134              	 .loc 1 136 0 is_stmt 1 discriminator 4
 135 00c8 D7F8A421 	 ldr r2,[r7,#420]
 136 00cc 07F10803 	 add r3,r7,#8
 137 00d0 1B68     	 ldr r3,[r3]
 138 00d2 013B     	 subs r3,r3,#1
 139 00d4 9A42     	 cmp r2,r3
 140 00d6 09DD     	 ble .L8
 141              	 .loc 1 136 0 is_stmt 0 discriminator 1
 142 00d8 D7F8A431 	 ldr r3,[r7,#420]
 143 00dc D7F85021 	 ldr r2,[r7,#336]
 144 00e0 D21A     	 subs r2,r2,r3
 145 00e2 07F10803 	 add r3,r7,#8
 146 00e6 1B68     	 ldr r3,[r3]
 147 00e8 1344     	 add r3,r3,r2
 148 00ea 01E0     	 b .L9
 149              	.L8:
 150              	 .loc 1 136 0 discriminator 2
 151 00ec D7F85031 	 ldr r3,[r7,#336]
 152              	.L9:
 153              	 .loc 1 136 0 discriminator 4
 154 00f0 C7F85031 	 str r3,[r7,#336]
 137:../Dave/Generated/CMSIS_DSP/FilteringFunctions/arm_conv_partial_q7.c ****     blockSize1 = (((int32_t) srcBLen - 1) - (int32_t) firstIndex);
 155              	 .loc 1 137 0 is_stmt 1 discriminator 4
 156 00f4 3B46     	 mov r3,r7
 157 00f6 1A68     	 ldr r2,[r3]
 158 00f8 D7F8A431 	 ldr r3,[r7,#420]
 159 00fc D31A     	 subs r3,r2,r3
 160 00fe 013B     	 subs r3,r3,#1
 161 0100 C7F85431 	 str r3,[r7,#340]
 138:../Dave/Generated/CMSIS_DSP/FilteringFunctions/arm_conv_partial_q7.c ****     blockSize1 = (blockSize1 > 0) ? ((check > (srcBLen - 1u)) ? blockSize1 :
 139:../Dave/Generated/CMSIS_DSP/FilteringFunctions/arm_conv_partial_q7.c ****                                      (int32_t) numPoints) : 0;
 162              	 .loc 1 139 0 discriminator 4
 163 0104 D7F85431 	 ldr r3,[r7,#340]
 164 0108 002B     	 cmp r3,#0
 165 010a 0CDD     	 ble .L10
 138:../Dave/Generated/CMSIS_DSP/FilteringFunctions/arm_conv_partial_q7.c ****     blockSize1 = (blockSize1 > 0) ? ((check > (srcBLen - 1u)) ? blockSize1 :
 166              	 .loc 1 138 0
 167 010c 3B46     	 mov r3,r7
 168 010e 1B68     	 ldr r3,[r3]
 169 0110 5A1E     	 subs r2,r3,#1
 170 0112 D7F84431 	 ldr r3,[r7,#324]
 171 0116 9A42     	 cmp r2,r3
 172 0118 02D3     	 bcc .L11
 138:../Dave/Generated/CMSIS_DSP/FilteringFunctions/arm_conv_partial_q7.c ****     blockSize1 = (blockSize1 > 0) ? ((check > (srcBLen - 1u)) ? blockSize1 :
 173              	 .loc 1 138 0 is_stmt 0 discriminator 1
 174 011a D7F8A831 	 ldr r3,[r7,#424]
 175 011e 03E0     	 b .L13
 176              	.L11:
 138:../Dave/Generated/CMSIS_DSP/FilteringFunctions/arm_conv_partial_q7.c ****     blockSize1 = (blockSize1 > 0) ? ((check > (srcBLen - 1u)) ? blockSize1 :
 177              	 .loc 1 138 0 discriminator 2
 178 0120 D7F85431 	 ldr r3,[r7,#340]
 179 0124 00E0     	 b .L13
 180              	.L10:
 181              	 .loc 1 139 0 is_stmt 1 discriminator 1
 182 0126 0023     	 movs r3,#0
 183              	.L13:
 138:../Dave/Generated/CMSIS_DSP/FilteringFunctions/arm_conv_partial_q7.c ****     blockSize1 = (blockSize1 > 0) ? ((check > (srcBLen - 1u)) ? blockSize1 :
 184              	 .loc 1 138 0
 185 0128 C7F85431 	 str r3,[r7,#340]
 140:../Dave/Generated/CMSIS_DSP/FilteringFunctions/arm_conv_partial_q7.c ****     blockSize2 = (int32_t) check - ((blockSize3 + blockSize1) +
 186              	 .loc 1 140 0
 187 012c D7F84421 	 ldr r2,[r7,#324]
 188 0130 D7F85011 	 ldr r1,[r7,#336]
 189 0134 D7F85431 	 ldr r3,[r7,#340]
 190 0138 1944     	 add r1,r1,r3
 141:../Dave/Generated/CMSIS_DSP/FilteringFunctions/arm_conv_partial_q7.c ****                                     (int32_t) firstIndex);
 191              	 .loc 1 141 0
 192 013a D7F8A431 	 ldr r3,[r7,#420]
 140:../Dave/Generated/CMSIS_DSP/FilteringFunctions/arm_conv_partial_q7.c ****     blockSize2 = (int32_t) check - ((blockSize3 + blockSize1) +
 193              	 .loc 1 140 0
 194 013e 0B44     	 add r3,r3,r1
 195 0140 D31A     	 subs r3,r2,r3
 196 0142 C7F84031 	 str r3,[r7,#320]
 142:../Dave/Generated/CMSIS_DSP/FilteringFunctions/arm_conv_partial_q7.c ****     blockSize2 = (blockSize2 > 0) ? blockSize2 : 0;
 197              	 .loc 1 142 0
 198 0146 D7F84031 	 ldr r3,[r7,#320]
 199 014a 23EAE373 	 bic r3,r3,r3,asr#31
 200 014e C7F84031 	 str r3,[r7,#320]
 143:../Dave/Generated/CMSIS_DSP/FilteringFunctions/arm_conv_partial_q7.c **** 
 144:../Dave/Generated/CMSIS_DSP/FilteringFunctions/arm_conv_partial_q7.c ****     /* conv(x,y) at n = x[n] * y[0] + x[n-1] * y[1] + x[n-2] * y[2] + ...+ x[n-N+1] * y[N -1] */
 145:../Dave/Generated/CMSIS_DSP/FilteringFunctions/arm_conv_partial_q7.c ****     /* The function is internally   
 146:../Dave/Generated/CMSIS_DSP/FilteringFunctions/arm_conv_partial_q7.c ****      * divided into three stages according to the number of multiplications that has to be   
 147:../Dave/Generated/CMSIS_DSP/FilteringFunctions/arm_conv_partial_q7.c ****      * taken place between inputA samples and inputB samples. In the first stage of the   
 148:../Dave/Generated/CMSIS_DSP/FilteringFunctions/arm_conv_partial_q7.c ****      * algorithm, the multiplications increase by one for every iteration.   
 149:../Dave/Generated/CMSIS_DSP/FilteringFunctions/arm_conv_partial_q7.c ****      * In the second stage of the algorithm, srcBLen number of multiplications are done.   
 150:../Dave/Generated/CMSIS_DSP/FilteringFunctions/arm_conv_partial_q7.c ****      * In the third stage of the algorithm, the multiplications decrease by one   
 151:../Dave/Generated/CMSIS_DSP/FilteringFunctions/arm_conv_partial_q7.c ****      * for every iteration. */
 152:../Dave/Generated/CMSIS_DSP/FilteringFunctions/arm_conv_partial_q7.c **** 
 153:../Dave/Generated/CMSIS_DSP/FilteringFunctions/arm_conv_partial_q7.c ****     /* Set the output pointer to point to the firstIndex   
 154:../Dave/Generated/CMSIS_DSP/FilteringFunctions/arm_conv_partial_q7.c ****      * of the output sample to be calculated. */
 155:../Dave/Generated/CMSIS_DSP/FilteringFunctions/arm_conv_partial_q7.c ****     pOut = pDst + firstIndex;
 201              	 .loc 1 155 0
 202 0152 D7F8A021 	 ldr r2,[r7,#416]
 203 0156 D7F8A431 	 ldr r3,[r7,#420]
 204 015a 1344     	 add r3,r3,r2
 205 015c C7F88C31 	 str r3,[r7,#396]
 156:../Dave/Generated/CMSIS_DSP/FilteringFunctions/arm_conv_partial_q7.c **** 
 157:../Dave/Generated/CMSIS_DSP/FilteringFunctions/arm_conv_partial_q7.c ****     /* --------------------------   
 158:../Dave/Generated/CMSIS_DSP/FilteringFunctions/arm_conv_partial_q7.c ****      * Initializations of stage1   
 159:../Dave/Generated/CMSIS_DSP/FilteringFunctions/arm_conv_partial_q7.c ****      * -------------------------*/
 160:../Dave/Generated/CMSIS_DSP/FilteringFunctions/arm_conv_partial_q7.c **** 
 161:../Dave/Generated/CMSIS_DSP/FilteringFunctions/arm_conv_partial_q7.c ****     /* sum = x[0] * y[0]   
 162:../Dave/Generated/CMSIS_DSP/FilteringFunctions/arm_conv_partial_q7.c ****      * sum = x[0] * y[1] + x[1] * y[0]   
 163:../Dave/Generated/CMSIS_DSP/FilteringFunctions/arm_conv_partial_q7.c ****      * ....   
 164:../Dave/Generated/CMSIS_DSP/FilteringFunctions/arm_conv_partial_q7.c ****      * sum = x[0] * y[srcBlen - 1] + x[1] * y[srcBlen - 2] +...+ x[srcBLen - 1] * y[0]   
 165:../Dave/Generated/CMSIS_DSP/FilteringFunctions/arm_conv_partial_q7.c ****      */
 166:../Dave/Generated/CMSIS_DSP/FilteringFunctions/arm_conv_partial_q7.c **** 
 167:../Dave/Generated/CMSIS_DSP/FilteringFunctions/arm_conv_partial_q7.c ****     /* In this stage the MAC operations are increased by 1 for every iteration.   
 168:../Dave/Generated/CMSIS_DSP/FilteringFunctions/arm_conv_partial_q7.c ****        The count variable holds the number of MAC operations performed.   
 169:../Dave/Generated/CMSIS_DSP/FilteringFunctions/arm_conv_partial_q7.c ****        Since the partial convolution starts from from firstIndex   
 170:../Dave/Generated/CMSIS_DSP/FilteringFunctions/arm_conv_partial_q7.c ****        Number of Macs to be performed is firstIndex + 1 */
 171:../Dave/Generated/CMSIS_DSP/FilteringFunctions/arm_conv_partial_q7.c ****     count = 1u + firstIndex;
 206              	 .loc 1 171 0
 207 0160 D7F8A431 	 ldr r3,[r7,#420]
 208 0164 0133     	 adds r3,r3,#1
 209 0166 C7F85C31 	 str r3,[r7,#348]
 172:../Dave/Generated/CMSIS_DSP/FilteringFunctions/arm_conv_partial_q7.c **** 
 173:../Dave/Generated/CMSIS_DSP/FilteringFunctions/arm_conv_partial_q7.c ****     /* Working pointer of inputA */
 174:../Dave/Generated/CMSIS_DSP/FilteringFunctions/arm_conv_partial_q7.c ****     px = pIn1;
 210              	 .loc 1 174 0
 211 016a D7F89431 	 ldr r3,[r7,#404]
 212 016e C7F88831 	 str r3,[r7,#392]
 175:../Dave/Generated/CMSIS_DSP/FilteringFunctions/arm_conv_partial_q7.c **** 
 176:../Dave/Generated/CMSIS_DSP/FilteringFunctions/arm_conv_partial_q7.c ****     /* Working pointer of inputB */
 177:../Dave/Generated/CMSIS_DSP/FilteringFunctions/arm_conv_partial_q7.c ****     pSrc2 = pIn2 + firstIndex;
 213              	 .loc 1 177 0
 214 0172 D7F89021 	 ldr r2,[r7,#400]
 215 0176 D7F8A431 	 ldr r3,[r7,#420]
 216 017a 1344     	 add r3,r3,r2
 217 017c C7F87C31 	 str r3,[r7,#380]
 178:../Dave/Generated/CMSIS_DSP/FilteringFunctions/arm_conv_partial_q7.c ****     py = pSrc2;
 218              	 .loc 1 178 0
 219 0180 D7F87C31 	 ldr r3,[r7,#380]
 220 0184 C7F88431 	 str r3,[r7,#388]
 179:../Dave/Generated/CMSIS_DSP/FilteringFunctions/arm_conv_partial_q7.c **** 
 180:../Dave/Generated/CMSIS_DSP/FilteringFunctions/arm_conv_partial_q7.c ****     /* ------------------------   
 181:../Dave/Generated/CMSIS_DSP/FilteringFunctions/arm_conv_partial_q7.c ****      * Stage1 process   
 182:../Dave/Generated/CMSIS_DSP/FilteringFunctions/arm_conv_partial_q7.c ****      * ----------------------*/
 183:../Dave/Generated/CMSIS_DSP/FilteringFunctions/arm_conv_partial_q7.c **** 
 184:../Dave/Generated/CMSIS_DSP/FilteringFunctions/arm_conv_partial_q7.c ****     /* The first stage starts here */
 185:../Dave/Generated/CMSIS_DSP/FilteringFunctions/arm_conv_partial_q7.c ****     while(blockSize1 > 0)
 221              	 .loc 1 185 0
 222 0188 02E1     	 b .L14
 223              	.L21:
 186:../Dave/Generated/CMSIS_DSP/FilteringFunctions/arm_conv_partial_q7.c ****     {
 187:../Dave/Generated/CMSIS_DSP/FilteringFunctions/arm_conv_partial_q7.c ****       /* Accumulator is made zero for every iteration */
 188:../Dave/Generated/CMSIS_DSP/FilteringFunctions/arm_conv_partial_q7.c ****       sum = 0;
 224              	 .loc 1 188 0
 225 018a 0023     	 movs r3,#0
 226 018c C7F87831 	 str r3,[r7,#376]
 189:../Dave/Generated/CMSIS_DSP/FilteringFunctions/arm_conv_partial_q7.c **** 
 190:../Dave/Generated/CMSIS_DSP/FilteringFunctions/arm_conv_partial_q7.c ****       /* Apply loop unrolling and compute 4 MACs simultaneously. */
 191:../Dave/Generated/CMSIS_DSP/FilteringFunctions/arm_conv_partial_q7.c ****       k = count >> 2u;
 227              	 .loc 1 191 0
 228 0190 D7F85C31 	 ldr r3,[r7,#348]
 229 0194 9B08     	 lsrs r3,r3,#2
 230 0196 C7F86031 	 str r3,[r7,#352]
 192:../Dave/Generated/CMSIS_DSP/FilteringFunctions/arm_conv_partial_q7.c **** 
 193:../Dave/Generated/CMSIS_DSP/FilteringFunctions/arm_conv_partial_q7.c ****       /* First part of the processing with loop unrolling.  Compute 4 MACs at a time.   
 194:../Dave/Generated/CMSIS_DSP/FilteringFunctions/arm_conv_partial_q7.c ****        ** a second loop below computes MACs for the remaining 1 to 3 samples. */
 195:../Dave/Generated/CMSIS_DSP/FilteringFunctions/arm_conv_partial_q7.c ****       while(k > 0u)
 231              	 .loc 1 195 0
 232 019a A4E0     	 b .L15
 233              	.L18:
 196:../Dave/Generated/CMSIS_DSP/FilteringFunctions/arm_conv_partial_q7.c ****       {
 197:../Dave/Generated/CMSIS_DSP/FilteringFunctions/arm_conv_partial_q7.c ****         /* x[0] , x[1] */
 198:../Dave/Generated/CMSIS_DSP/FilteringFunctions/arm_conv_partial_q7.c ****         in1 = (q15_t) * px++;
 234              	 .loc 1 198 0
 235 019c D7F88831 	 ldr r3,[r7,#392]
 236 01a0 5A1C     	 adds r2,r3,#1
 237 01a2 C7F88821 	 str r2,[r7,#392]
 238 01a6 1B78     	 ldrb r3,[r3]
 239 01a8 5BB2     	 sxtb r3,r3
 240 01aa A7F83E31 	 strh r3,[r7,#318]
 199:../Dave/Generated/CMSIS_DSP/FilteringFunctions/arm_conv_partial_q7.c ****         in2 = (q15_t) * px++;
 241              	 .loc 1 199 0
 242 01ae D7F88831 	 ldr r3,[r7,#392]
 243 01b2 5A1C     	 adds r2,r3,#1
 244 01b4 C7F88821 	 str r2,[r7,#392]
 245 01b8 1B78     	 ldrb r3,[r3]
 246 01ba 5BB2     	 sxtb r3,r3
 247 01bc A7F83C31 	 strh r3,[r7,#316]
 200:../Dave/Generated/CMSIS_DSP/FilteringFunctions/arm_conv_partial_q7.c ****         input1 = ((q31_t) in1 & 0x0000FFFF) | ((q31_t) in2 << 16);
 248              	 .loc 1 200 0
 249 01c0 B7F93E31 	 ldrsh r3,[r7,#318]
 250 01c4 9AB2     	 uxth r2,r3
 251 01c6 B7F93C31 	 ldrsh r3,[r7,#316]
 252 01ca 1B04     	 lsls r3,r3,#16
 253 01cc 1343     	 orrs r3,r3,r2
 254 01ce C7F83831 	 str r3,[r7,#312]
 201:../Dave/Generated/CMSIS_DSP/FilteringFunctions/arm_conv_partial_q7.c **** 
 202:../Dave/Generated/CMSIS_DSP/FilteringFunctions/arm_conv_partial_q7.c ****         /* y[srcBLen - 1] , y[srcBLen - 2] */
 203:../Dave/Generated/CMSIS_DSP/FilteringFunctions/arm_conv_partial_q7.c ****         in1 = (q15_t) * py--;
 255              	 .loc 1 203 0
 256 01d2 D7F88431 	 ldr r3,[r7,#388]
 257 01d6 5A1E     	 subs r2,r3,#1
 258 01d8 C7F88421 	 str r2,[r7,#388]
 259 01dc 1B78     	 ldrb r3,[r3]
 260 01de 5BB2     	 sxtb r3,r3
 261 01e0 A7F83E31 	 strh r3,[r7,#318]
 204:../Dave/Generated/CMSIS_DSP/FilteringFunctions/arm_conv_partial_q7.c ****         in2 = (q15_t) * py--;
 262              	 .loc 1 204 0
 263 01e4 D7F88431 	 ldr r3,[r7,#388]
 264 01e8 5A1E     	 subs r2,r3,#1
 265 01ea C7F88421 	 str r2,[r7,#388]
 266 01ee 1B78     	 ldrb r3,[r3]
 267 01f0 5BB2     	 sxtb r3,r3
 268 01f2 A7F83C31 	 strh r3,[r7,#316]
 205:../Dave/Generated/CMSIS_DSP/FilteringFunctions/arm_conv_partial_q7.c ****         input2 = ((q31_t) in1 & 0x0000FFFF) | ((q31_t) in2 << 16);
 269              	 .loc 1 205 0
 270 01f6 B7F93E31 	 ldrsh r3,[r7,#318]
 271 01fa 9AB2     	 uxth r2,r3
 272 01fc B7F93C31 	 ldrsh r3,[r7,#316]
 273 0200 1B04     	 lsls r3,r3,#16
 274 0202 1343     	 orrs r3,r3,r2
 275 0204 C7F83431 	 str r3,[r7,#308]
 206:../Dave/Generated/CMSIS_DSP/FilteringFunctions/arm_conv_partial_q7.c **** 
 207:../Dave/Generated/CMSIS_DSP/FilteringFunctions/arm_conv_partial_q7.c ****         /* x[0] * y[srcBLen - 1] */
 208:../Dave/Generated/CMSIS_DSP/FilteringFunctions/arm_conv_partial_q7.c ****         /* x[1] * y[srcBLen - 2] */
 209:../Dave/Generated/CMSIS_DSP/FilteringFunctions/arm_conv_partial_q7.c ****         sum = __SMLAD(input1, input2, sum);
 276              	 .loc 1 209 0
 277 0208 D7F83811 	 ldr r1,[r7,#312]
 278 020c D7F83421 	 ldr r2,[r7,#308]
 279 0210 D7F87831 	 ldr r3,[r7,#376]
 280 0214 C7F8EC10 	 str r1,[r7,#236]
 281 0218 C7F8E820 	 str r2,[r7,#232]
 282 021c C7F8E430 	 str r3,[r7,#228]
 283              	.LBB38:
 284              	.LBB39:
 285              	 .file 2 "C:\\Workspaces\\DAVE-4.1\\Flightcontroller_PWM_CopterRocks_Working/Libraries/CMSIS/Include/cmsis_gcc.h"
   1:C:\Workspaces\DAVE-4.1\Flightcontroller_PWM_CopterRocks_Working/Libraries/CMSIS/Include\cmsis_gcc.h **** /**************************************************************************//**
   2:C:\Workspaces\DAVE-4.1\Flightcontroller_PWM_CopterRocks_Working/Libraries/CMSIS/Include\cmsis_gcc.h ****  * @file     cmsis_gcc.h
   3:C:\Workspaces\DAVE-4.1\Flightcontroller_PWM_CopterRocks_Working/Libraries/CMSIS/Include\cmsis_gcc.h ****  * @brief    CMSIS Cortex-M Core Function/Instruction Header File
   4:C:\Workspaces\DAVE-4.1\Flightcontroller_PWM_CopterRocks_Working/Libraries/CMSIS/Include\cmsis_gcc.h ****  * @version  V4.30
   5:C:\Workspaces\DAVE-4.1\Flightcontroller_PWM_CopterRocks_Working/Libraries/CMSIS/Include\cmsis_gcc.h ****  * @date     20. October 2015
   6:C:\Workspaces\DAVE-4.1\Flightcontroller_PWM_CopterRocks_Working/Libraries/CMSIS/Include\cmsis_gcc.h ****  ******************************************************************************/
   7:C:\Workspaces\DAVE-4.1\Flightcontroller_PWM_CopterRocks_Working/Libraries/CMSIS/Include\cmsis_gcc.h **** /* Copyright (c) 2009 - 2015 ARM LIMITED
   8:C:\Workspaces\DAVE-4.1\Flightcontroller_PWM_CopterRocks_Working/Libraries/CMSIS/Include\cmsis_gcc.h **** 
   9:C:\Workspaces\DAVE-4.1\Flightcontroller_PWM_CopterRocks_Working/Libraries/CMSIS/Include\cmsis_gcc.h ****    All rights reserved.
  10:C:\Workspaces\DAVE-4.1\Flightcontroller_PWM_CopterRocks_Working/Libraries/CMSIS/Include\cmsis_gcc.h ****    Redistribution and use in source and binary forms, with or without
  11:C:\Workspaces\DAVE-4.1\Flightcontroller_PWM_CopterRocks_Working/Libraries/CMSIS/Include\cmsis_gcc.h ****    modification, are permitted provided that the following conditions are met:
  12:C:\Workspaces\DAVE-4.1\Flightcontroller_PWM_CopterRocks_Working/Libraries/CMSIS/Include\cmsis_gcc.h ****    - Redistributions of source code must retain the above copyright
  13:C:\Workspaces\DAVE-4.1\Flightcontroller_PWM_CopterRocks_Working/Libraries/CMSIS/Include\cmsis_gcc.h ****      notice, this list of conditions and the following disclaimer.
  14:C:\Workspaces\DAVE-4.1\Flightcontroller_PWM_CopterRocks_Working/Libraries/CMSIS/Include\cmsis_gcc.h ****    - Redistributions in binary form must reproduce the above copyright
  15:C:\Workspaces\DAVE-4.1\Flightcontroller_PWM_CopterRocks_Working/Libraries/CMSIS/Include\cmsis_gcc.h ****      notice, this list of conditions and the following disclaimer in the
  16:C:\Workspaces\DAVE-4.1\Flightcontroller_PWM_CopterRocks_Working/Libraries/CMSIS/Include\cmsis_gcc.h ****      documentation and/or other materials provided with the distribution.
  17:C:\Workspaces\DAVE-4.1\Flightcontroller_PWM_CopterRocks_Working/Libraries/CMSIS/Include\cmsis_gcc.h ****    - Neither the name of ARM nor the names of its contributors may be used
  18:C:\Workspaces\DAVE-4.1\Flightcontroller_PWM_CopterRocks_Working/Libraries/CMSIS/Include\cmsis_gcc.h ****      to endorse or promote products derived from this software without
  19:C:\Workspaces\DAVE-4.1\Flightcontroller_PWM_CopterRocks_Working/Libraries/CMSIS/Include\cmsis_gcc.h ****      specific prior written permission.
  20:C:\Workspaces\DAVE-4.1\Flightcontroller_PWM_CopterRocks_Working/Libraries/CMSIS/Include\cmsis_gcc.h ****    *
  21:C:\Workspaces\DAVE-4.1\Flightcontroller_PWM_CopterRocks_Working/Libraries/CMSIS/Include\cmsis_gcc.h ****    THIS SOFTWARE IS PROVIDED BY THE COPYRIGHT HOLDERS AND CONTRIBUTORS "AS IS"
  22:C:\Workspaces\DAVE-4.1\Flightcontroller_PWM_CopterRocks_Working/Libraries/CMSIS/Include\cmsis_gcc.h ****    AND ANY EXPRESS OR IMPLIED WARRANTIES, INCLUDING, BUT NOT LIMITED TO, THE
  23:C:\Workspaces\DAVE-4.1\Flightcontroller_PWM_CopterRocks_Working/Libraries/CMSIS/Include\cmsis_gcc.h ****    IMPLIED WARRANTIES OF MERCHANTABILITY AND FITNESS FOR A PARTICULAR PURPOSE
  24:C:\Workspaces\DAVE-4.1\Flightcontroller_PWM_CopterRocks_Working/Libraries/CMSIS/Include\cmsis_gcc.h ****    ARE DISCLAIMED. IN NO EVENT SHALL COPYRIGHT HOLDERS AND CONTRIBUTORS BE
  25:C:\Workspaces\DAVE-4.1\Flightcontroller_PWM_CopterRocks_Working/Libraries/CMSIS/Include\cmsis_gcc.h ****    LIABLE FOR ANY DIRECT, INDIRECT, INCIDENTAL, SPECIAL, EXEMPLARY, OR
  26:C:\Workspaces\DAVE-4.1\Flightcontroller_PWM_CopterRocks_Working/Libraries/CMSIS/Include\cmsis_gcc.h ****    CONSEQUENTIAL DAMAGES (INCLUDING, BUT NOT LIMITED TO, PROCUREMENT OF
  27:C:\Workspaces\DAVE-4.1\Flightcontroller_PWM_CopterRocks_Working/Libraries/CMSIS/Include\cmsis_gcc.h ****    SUBSTITUTE GOODS OR SERVICES; LOSS OF USE, DATA, OR PROFITS; OR BUSINESS
  28:C:\Workspaces\DAVE-4.1\Flightcontroller_PWM_CopterRocks_Working/Libraries/CMSIS/Include\cmsis_gcc.h ****    INTERRUPTION) HOWEVER CAUSED AND ON ANY THEORY OF LIABILITY, WHETHER IN
  29:C:\Workspaces\DAVE-4.1\Flightcontroller_PWM_CopterRocks_Working/Libraries/CMSIS/Include\cmsis_gcc.h ****    CONTRACT, STRICT LIABILITY, OR TORT (INCLUDING NEGLIGENCE OR OTHERWISE)
  30:C:\Workspaces\DAVE-4.1\Flightcontroller_PWM_CopterRocks_Working/Libraries/CMSIS/Include\cmsis_gcc.h ****    ARISING IN ANY WAY OUT OF THE USE OF THIS SOFTWARE, EVEN IF ADVISED OF THE
  31:C:\Workspaces\DAVE-4.1\Flightcontroller_PWM_CopterRocks_Working/Libraries/CMSIS/Include\cmsis_gcc.h ****    POSSIBILITY OF SUCH DAMAGE.
  32:C:\Workspaces\DAVE-4.1\Flightcontroller_PWM_CopterRocks_Working/Libraries/CMSIS/Include\cmsis_gcc.h ****    ---------------------------------------------------------------------------*/
  33:C:\Workspaces\DAVE-4.1\Flightcontroller_PWM_CopterRocks_Working/Libraries/CMSIS/Include\cmsis_gcc.h **** 
  34:C:\Workspaces\DAVE-4.1\Flightcontroller_PWM_CopterRocks_Working/Libraries/CMSIS/Include\cmsis_gcc.h **** 
  35:C:\Workspaces\DAVE-4.1\Flightcontroller_PWM_CopterRocks_Working/Libraries/CMSIS/Include\cmsis_gcc.h **** #ifndef __CMSIS_GCC_H
  36:C:\Workspaces\DAVE-4.1\Flightcontroller_PWM_CopterRocks_Working/Libraries/CMSIS/Include\cmsis_gcc.h **** #define __CMSIS_GCC_H
  37:C:\Workspaces\DAVE-4.1\Flightcontroller_PWM_CopterRocks_Working/Libraries/CMSIS/Include\cmsis_gcc.h **** 
  38:C:\Workspaces\DAVE-4.1\Flightcontroller_PWM_CopterRocks_Working/Libraries/CMSIS/Include\cmsis_gcc.h **** /* ignore some GCC warnings */
  39:C:\Workspaces\DAVE-4.1\Flightcontroller_PWM_CopterRocks_Working/Libraries/CMSIS/Include\cmsis_gcc.h **** #if defined ( __GNUC__ )
  40:C:\Workspaces\DAVE-4.1\Flightcontroller_PWM_CopterRocks_Working/Libraries/CMSIS/Include\cmsis_gcc.h **** #pragma GCC diagnostic push
  41:C:\Workspaces\DAVE-4.1\Flightcontroller_PWM_CopterRocks_Working/Libraries/CMSIS/Include\cmsis_gcc.h **** #pragma GCC diagnostic ignored "-Wsign-conversion"
  42:C:\Workspaces\DAVE-4.1\Flightcontroller_PWM_CopterRocks_Working/Libraries/CMSIS/Include\cmsis_gcc.h **** #pragma GCC diagnostic ignored "-Wconversion"
  43:C:\Workspaces\DAVE-4.1\Flightcontroller_PWM_CopterRocks_Working/Libraries/CMSIS/Include\cmsis_gcc.h **** #pragma GCC diagnostic ignored "-Wunused-parameter"
  44:C:\Workspaces\DAVE-4.1\Flightcontroller_PWM_CopterRocks_Working/Libraries/CMSIS/Include\cmsis_gcc.h **** #endif
  45:C:\Workspaces\DAVE-4.1\Flightcontroller_PWM_CopterRocks_Working/Libraries/CMSIS/Include\cmsis_gcc.h **** 
  46:C:\Workspaces\DAVE-4.1\Flightcontroller_PWM_CopterRocks_Working/Libraries/CMSIS/Include\cmsis_gcc.h **** 
  47:C:\Workspaces\DAVE-4.1\Flightcontroller_PWM_CopterRocks_Working/Libraries/CMSIS/Include\cmsis_gcc.h **** /* ###########################  Core Function Access  ########################### */
  48:C:\Workspaces\DAVE-4.1\Flightcontroller_PWM_CopterRocks_Working/Libraries/CMSIS/Include\cmsis_gcc.h **** /** \ingroup  CMSIS_Core_FunctionInterface
  49:C:\Workspaces\DAVE-4.1\Flightcontroller_PWM_CopterRocks_Working/Libraries/CMSIS/Include\cmsis_gcc.h ****     \defgroup CMSIS_Core_RegAccFunctions CMSIS Core Register Access Functions
  50:C:\Workspaces\DAVE-4.1\Flightcontroller_PWM_CopterRocks_Working/Libraries/CMSIS/Include\cmsis_gcc.h ****   @{
  51:C:\Workspaces\DAVE-4.1\Flightcontroller_PWM_CopterRocks_Working/Libraries/CMSIS/Include\cmsis_gcc.h ****  */
  52:C:\Workspaces\DAVE-4.1\Flightcontroller_PWM_CopterRocks_Working/Libraries/CMSIS/Include\cmsis_gcc.h **** 
  53:C:\Workspaces\DAVE-4.1\Flightcontroller_PWM_CopterRocks_Working/Libraries/CMSIS/Include\cmsis_gcc.h **** /**
  54:C:\Workspaces\DAVE-4.1\Flightcontroller_PWM_CopterRocks_Working/Libraries/CMSIS/Include\cmsis_gcc.h ****   \brief   Enable IRQ Interrupts
  55:C:\Workspaces\DAVE-4.1\Flightcontroller_PWM_CopterRocks_Working/Libraries/CMSIS/Include\cmsis_gcc.h ****   \details Enables IRQ interrupts by clearing the I-bit in the CPSR.
  56:C:\Workspaces\DAVE-4.1\Flightcontroller_PWM_CopterRocks_Working/Libraries/CMSIS/Include\cmsis_gcc.h ****            Can only be executed in Privileged modes.
  57:C:\Workspaces\DAVE-4.1\Flightcontroller_PWM_CopterRocks_Working/Libraries/CMSIS/Include\cmsis_gcc.h ****  */
  58:C:\Workspaces\DAVE-4.1\Flightcontroller_PWM_CopterRocks_Working/Libraries/CMSIS/Include\cmsis_gcc.h **** __attribute__( ( always_inline ) ) __STATIC_INLINE void __enable_irq(void)
  59:C:\Workspaces\DAVE-4.1\Flightcontroller_PWM_CopterRocks_Working/Libraries/CMSIS/Include\cmsis_gcc.h **** {
  60:C:\Workspaces\DAVE-4.1\Flightcontroller_PWM_CopterRocks_Working/Libraries/CMSIS/Include\cmsis_gcc.h ****   __ASM volatile ("cpsie i" : : : "memory");
  61:C:\Workspaces\DAVE-4.1\Flightcontroller_PWM_CopterRocks_Working/Libraries/CMSIS/Include\cmsis_gcc.h **** }
  62:C:\Workspaces\DAVE-4.1\Flightcontroller_PWM_CopterRocks_Working/Libraries/CMSIS/Include\cmsis_gcc.h **** 
  63:C:\Workspaces\DAVE-4.1\Flightcontroller_PWM_CopterRocks_Working/Libraries/CMSIS/Include\cmsis_gcc.h **** 
  64:C:\Workspaces\DAVE-4.1\Flightcontroller_PWM_CopterRocks_Working/Libraries/CMSIS/Include\cmsis_gcc.h **** /**
  65:C:\Workspaces\DAVE-4.1\Flightcontroller_PWM_CopterRocks_Working/Libraries/CMSIS/Include\cmsis_gcc.h ****   \brief   Disable IRQ Interrupts
  66:C:\Workspaces\DAVE-4.1\Flightcontroller_PWM_CopterRocks_Working/Libraries/CMSIS/Include\cmsis_gcc.h ****   \details Disables IRQ interrupts by setting the I-bit in the CPSR.
  67:C:\Workspaces\DAVE-4.1\Flightcontroller_PWM_CopterRocks_Working/Libraries/CMSIS/Include\cmsis_gcc.h ****   Can only be executed in Privileged modes.
  68:C:\Workspaces\DAVE-4.1\Flightcontroller_PWM_CopterRocks_Working/Libraries/CMSIS/Include\cmsis_gcc.h ****  */
  69:C:\Workspaces\DAVE-4.1\Flightcontroller_PWM_CopterRocks_Working/Libraries/CMSIS/Include\cmsis_gcc.h **** __attribute__( ( always_inline ) ) __STATIC_INLINE void __disable_irq(void)
  70:C:\Workspaces\DAVE-4.1\Flightcontroller_PWM_CopterRocks_Working/Libraries/CMSIS/Include\cmsis_gcc.h **** {
  71:C:\Workspaces\DAVE-4.1\Flightcontroller_PWM_CopterRocks_Working/Libraries/CMSIS/Include\cmsis_gcc.h ****   __ASM volatile ("cpsid i" : : : "memory");
  72:C:\Workspaces\DAVE-4.1\Flightcontroller_PWM_CopterRocks_Working/Libraries/CMSIS/Include\cmsis_gcc.h **** }
  73:C:\Workspaces\DAVE-4.1\Flightcontroller_PWM_CopterRocks_Working/Libraries/CMSIS/Include\cmsis_gcc.h **** 
  74:C:\Workspaces\DAVE-4.1\Flightcontroller_PWM_CopterRocks_Working/Libraries/CMSIS/Include\cmsis_gcc.h **** 
  75:C:\Workspaces\DAVE-4.1\Flightcontroller_PWM_CopterRocks_Working/Libraries/CMSIS/Include\cmsis_gcc.h **** /**
  76:C:\Workspaces\DAVE-4.1\Flightcontroller_PWM_CopterRocks_Working/Libraries/CMSIS/Include\cmsis_gcc.h ****   \brief   Get Control Register
  77:C:\Workspaces\DAVE-4.1\Flightcontroller_PWM_CopterRocks_Working/Libraries/CMSIS/Include\cmsis_gcc.h ****   \details Returns the content of the Control Register.
  78:C:\Workspaces\DAVE-4.1\Flightcontroller_PWM_CopterRocks_Working/Libraries/CMSIS/Include\cmsis_gcc.h ****   \return               Control Register value
  79:C:\Workspaces\DAVE-4.1\Flightcontroller_PWM_CopterRocks_Working/Libraries/CMSIS/Include\cmsis_gcc.h ****  */
  80:C:\Workspaces\DAVE-4.1\Flightcontroller_PWM_CopterRocks_Working/Libraries/CMSIS/Include\cmsis_gcc.h **** __attribute__( ( always_inline ) ) __STATIC_INLINE uint32_t __get_CONTROL(void)
  81:C:\Workspaces\DAVE-4.1\Flightcontroller_PWM_CopterRocks_Working/Libraries/CMSIS/Include\cmsis_gcc.h **** {
  82:C:\Workspaces\DAVE-4.1\Flightcontroller_PWM_CopterRocks_Working/Libraries/CMSIS/Include\cmsis_gcc.h ****   uint32_t result;
  83:C:\Workspaces\DAVE-4.1\Flightcontroller_PWM_CopterRocks_Working/Libraries/CMSIS/Include\cmsis_gcc.h **** 
  84:C:\Workspaces\DAVE-4.1\Flightcontroller_PWM_CopterRocks_Working/Libraries/CMSIS/Include\cmsis_gcc.h ****   __ASM volatile ("MRS %0, control" : "=r" (result) );
  85:C:\Workspaces\DAVE-4.1\Flightcontroller_PWM_CopterRocks_Working/Libraries/CMSIS/Include\cmsis_gcc.h ****   return(result);
  86:C:\Workspaces\DAVE-4.1\Flightcontroller_PWM_CopterRocks_Working/Libraries/CMSIS/Include\cmsis_gcc.h **** }
  87:C:\Workspaces\DAVE-4.1\Flightcontroller_PWM_CopterRocks_Working/Libraries/CMSIS/Include\cmsis_gcc.h **** 
  88:C:\Workspaces\DAVE-4.1\Flightcontroller_PWM_CopterRocks_Working/Libraries/CMSIS/Include\cmsis_gcc.h **** 
  89:C:\Workspaces\DAVE-4.1\Flightcontroller_PWM_CopterRocks_Working/Libraries/CMSIS/Include\cmsis_gcc.h **** /**
  90:C:\Workspaces\DAVE-4.1\Flightcontroller_PWM_CopterRocks_Working/Libraries/CMSIS/Include\cmsis_gcc.h ****   \brief   Set Control Register
  91:C:\Workspaces\DAVE-4.1\Flightcontroller_PWM_CopterRocks_Working/Libraries/CMSIS/Include\cmsis_gcc.h ****   \details Writes the given value to the Control Register.
  92:C:\Workspaces\DAVE-4.1\Flightcontroller_PWM_CopterRocks_Working/Libraries/CMSIS/Include\cmsis_gcc.h ****   \param [in]    control  Control Register value to set
  93:C:\Workspaces\DAVE-4.1\Flightcontroller_PWM_CopterRocks_Working/Libraries/CMSIS/Include\cmsis_gcc.h ****  */
  94:C:\Workspaces\DAVE-4.1\Flightcontroller_PWM_CopterRocks_Working/Libraries/CMSIS/Include\cmsis_gcc.h **** __attribute__( ( always_inline ) ) __STATIC_INLINE void __set_CONTROL(uint32_t control)
  95:C:\Workspaces\DAVE-4.1\Flightcontroller_PWM_CopterRocks_Working/Libraries/CMSIS/Include\cmsis_gcc.h **** {
  96:C:\Workspaces\DAVE-4.1\Flightcontroller_PWM_CopterRocks_Working/Libraries/CMSIS/Include\cmsis_gcc.h ****   __ASM volatile ("MSR control, %0" : : "r" (control) : "memory");
  97:C:\Workspaces\DAVE-4.1\Flightcontroller_PWM_CopterRocks_Working/Libraries/CMSIS/Include\cmsis_gcc.h **** }
  98:C:\Workspaces\DAVE-4.1\Flightcontroller_PWM_CopterRocks_Working/Libraries/CMSIS/Include\cmsis_gcc.h **** 
  99:C:\Workspaces\DAVE-4.1\Flightcontroller_PWM_CopterRocks_Working/Libraries/CMSIS/Include\cmsis_gcc.h **** 
 100:C:\Workspaces\DAVE-4.1\Flightcontroller_PWM_CopterRocks_Working/Libraries/CMSIS/Include\cmsis_gcc.h **** /**
 101:C:\Workspaces\DAVE-4.1\Flightcontroller_PWM_CopterRocks_Working/Libraries/CMSIS/Include\cmsis_gcc.h ****   \brief   Get IPSR Register
 102:C:\Workspaces\DAVE-4.1\Flightcontroller_PWM_CopterRocks_Working/Libraries/CMSIS/Include\cmsis_gcc.h ****   \details Returns the content of the IPSR Register.
 103:C:\Workspaces\DAVE-4.1\Flightcontroller_PWM_CopterRocks_Working/Libraries/CMSIS/Include\cmsis_gcc.h ****   \return               IPSR Register value
 104:C:\Workspaces\DAVE-4.1\Flightcontroller_PWM_CopterRocks_Working/Libraries/CMSIS/Include\cmsis_gcc.h ****  */
 105:C:\Workspaces\DAVE-4.1\Flightcontroller_PWM_CopterRocks_Working/Libraries/CMSIS/Include\cmsis_gcc.h **** __attribute__( ( always_inline ) ) __STATIC_INLINE uint32_t __get_IPSR(void)
 106:C:\Workspaces\DAVE-4.1\Flightcontroller_PWM_CopterRocks_Working/Libraries/CMSIS/Include\cmsis_gcc.h **** {
 107:C:\Workspaces\DAVE-4.1\Flightcontroller_PWM_CopterRocks_Working/Libraries/CMSIS/Include\cmsis_gcc.h ****   uint32_t result;
 108:C:\Workspaces\DAVE-4.1\Flightcontroller_PWM_CopterRocks_Working/Libraries/CMSIS/Include\cmsis_gcc.h **** 
 109:C:\Workspaces\DAVE-4.1\Flightcontroller_PWM_CopterRocks_Working/Libraries/CMSIS/Include\cmsis_gcc.h ****   __ASM volatile ("MRS %0, ipsr" : "=r" (result) );
 110:C:\Workspaces\DAVE-4.1\Flightcontroller_PWM_CopterRocks_Working/Libraries/CMSIS/Include\cmsis_gcc.h ****   return(result);
 111:C:\Workspaces\DAVE-4.1\Flightcontroller_PWM_CopterRocks_Working/Libraries/CMSIS/Include\cmsis_gcc.h **** }
 112:C:\Workspaces\DAVE-4.1\Flightcontroller_PWM_CopterRocks_Working/Libraries/CMSIS/Include\cmsis_gcc.h **** 
 113:C:\Workspaces\DAVE-4.1\Flightcontroller_PWM_CopterRocks_Working/Libraries/CMSIS/Include\cmsis_gcc.h **** 
 114:C:\Workspaces\DAVE-4.1\Flightcontroller_PWM_CopterRocks_Working/Libraries/CMSIS/Include\cmsis_gcc.h **** /**
 115:C:\Workspaces\DAVE-4.1\Flightcontroller_PWM_CopterRocks_Working/Libraries/CMSIS/Include\cmsis_gcc.h ****   \brief   Get APSR Register
 116:C:\Workspaces\DAVE-4.1\Flightcontroller_PWM_CopterRocks_Working/Libraries/CMSIS/Include\cmsis_gcc.h ****   \details Returns the content of the APSR Register.
 117:C:\Workspaces\DAVE-4.1\Flightcontroller_PWM_CopterRocks_Working/Libraries/CMSIS/Include\cmsis_gcc.h ****   \return               APSR Register value
 118:C:\Workspaces\DAVE-4.1\Flightcontroller_PWM_CopterRocks_Working/Libraries/CMSIS/Include\cmsis_gcc.h ****  */
 119:C:\Workspaces\DAVE-4.1\Flightcontroller_PWM_CopterRocks_Working/Libraries/CMSIS/Include\cmsis_gcc.h **** __attribute__( ( always_inline ) ) __STATIC_INLINE uint32_t __get_APSR(void)
 120:C:\Workspaces\DAVE-4.1\Flightcontroller_PWM_CopterRocks_Working/Libraries/CMSIS/Include\cmsis_gcc.h **** {
 121:C:\Workspaces\DAVE-4.1\Flightcontroller_PWM_CopterRocks_Working/Libraries/CMSIS/Include\cmsis_gcc.h ****   uint32_t result;
 122:C:\Workspaces\DAVE-4.1\Flightcontroller_PWM_CopterRocks_Working/Libraries/CMSIS/Include\cmsis_gcc.h **** 
 123:C:\Workspaces\DAVE-4.1\Flightcontroller_PWM_CopterRocks_Working/Libraries/CMSIS/Include\cmsis_gcc.h ****   __ASM volatile ("MRS %0, apsr" : "=r" (result) );
 124:C:\Workspaces\DAVE-4.1\Flightcontroller_PWM_CopterRocks_Working/Libraries/CMSIS/Include\cmsis_gcc.h ****   return(result);
 125:C:\Workspaces\DAVE-4.1\Flightcontroller_PWM_CopterRocks_Working/Libraries/CMSIS/Include\cmsis_gcc.h **** }
 126:C:\Workspaces\DAVE-4.1\Flightcontroller_PWM_CopterRocks_Working/Libraries/CMSIS/Include\cmsis_gcc.h **** 
 127:C:\Workspaces\DAVE-4.1\Flightcontroller_PWM_CopterRocks_Working/Libraries/CMSIS/Include\cmsis_gcc.h **** 
 128:C:\Workspaces\DAVE-4.1\Flightcontroller_PWM_CopterRocks_Working/Libraries/CMSIS/Include\cmsis_gcc.h **** /**
 129:C:\Workspaces\DAVE-4.1\Flightcontroller_PWM_CopterRocks_Working/Libraries/CMSIS/Include\cmsis_gcc.h ****   \brief   Get xPSR Register
 130:C:\Workspaces\DAVE-4.1\Flightcontroller_PWM_CopterRocks_Working/Libraries/CMSIS/Include\cmsis_gcc.h ****   \details Returns the content of the xPSR Register.
 131:C:\Workspaces\DAVE-4.1\Flightcontroller_PWM_CopterRocks_Working/Libraries/CMSIS/Include\cmsis_gcc.h **** 
 132:C:\Workspaces\DAVE-4.1\Flightcontroller_PWM_CopterRocks_Working/Libraries/CMSIS/Include\cmsis_gcc.h ****     \return               xPSR Register value
 133:C:\Workspaces\DAVE-4.1\Flightcontroller_PWM_CopterRocks_Working/Libraries/CMSIS/Include\cmsis_gcc.h ****  */
 134:C:\Workspaces\DAVE-4.1\Flightcontroller_PWM_CopterRocks_Working/Libraries/CMSIS/Include\cmsis_gcc.h **** __attribute__( ( always_inline ) ) __STATIC_INLINE uint32_t __get_xPSR(void)
 135:C:\Workspaces\DAVE-4.1\Flightcontroller_PWM_CopterRocks_Working/Libraries/CMSIS/Include\cmsis_gcc.h **** {
 136:C:\Workspaces\DAVE-4.1\Flightcontroller_PWM_CopterRocks_Working/Libraries/CMSIS/Include\cmsis_gcc.h ****   uint32_t result;
 137:C:\Workspaces\DAVE-4.1\Flightcontroller_PWM_CopterRocks_Working/Libraries/CMSIS/Include\cmsis_gcc.h **** 
 138:C:\Workspaces\DAVE-4.1\Flightcontroller_PWM_CopterRocks_Working/Libraries/CMSIS/Include\cmsis_gcc.h ****   __ASM volatile ("MRS %0, xpsr" : "=r" (result) );
 139:C:\Workspaces\DAVE-4.1\Flightcontroller_PWM_CopterRocks_Working/Libraries/CMSIS/Include\cmsis_gcc.h ****   return(result);
 140:C:\Workspaces\DAVE-4.1\Flightcontroller_PWM_CopterRocks_Working/Libraries/CMSIS/Include\cmsis_gcc.h **** }
 141:C:\Workspaces\DAVE-4.1\Flightcontroller_PWM_CopterRocks_Working/Libraries/CMSIS/Include\cmsis_gcc.h **** 
 142:C:\Workspaces\DAVE-4.1\Flightcontroller_PWM_CopterRocks_Working/Libraries/CMSIS/Include\cmsis_gcc.h **** 
 143:C:\Workspaces\DAVE-4.1\Flightcontroller_PWM_CopterRocks_Working/Libraries/CMSIS/Include\cmsis_gcc.h **** /**
 144:C:\Workspaces\DAVE-4.1\Flightcontroller_PWM_CopterRocks_Working/Libraries/CMSIS/Include\cmsis_gcc.h ****   \brief   Get Process Stack Pointer
 145:C:\Workspaces\DAVE-4.1\Flightcontroller_PWM_CopterRocks_Working/Libraries/CMSIS/Include\cmsis_gcc.h ****   \details Returns the current value of the Process Stack Pointer (PSP).
 146:C:\Workspaces\DAVE-4.1\Flightcontroller_PWM_CopterRocks_Working/Libraries/CMSIS/Include\cmsis_gcc.h ****   \return               PSP Register value
 147:C:\Workspaces\DAVE-4.1\Flightcontroller_PWM_CopterRocks_Working/Libraries/CMSIS/Include\cmsis_gcc.h ****  */
 148:C:\Workspaces\DAVE-4.1\Flightcontroller_PWM_CopterRocks_Working/Libraries/CMSIS/Include\cmsis_gcc.h **** __attribute__( ( always_inline ) ) __STATIC_INLINE uint32_t __get_PSP(void)
 149:C:\Workspaces\DAVE-4.1\Flightcontroller_PWM_CopterRocks_Working/Libraries/CMSIS/Include\cmsis_gcc.h **** {
 150:C:\Workspaces\DAVE-4.1\Flightcontroller_PWM_CopterRocks_Working/Libraries/CMSIS/Include\cmsis_gcc.h ****   register uint32_t result;
 151:C:\Workspaces\DAVE-4.1\Flightcontroller_PWM_CopterRocks_Working/Libraries/CMSIS/Include\cmsis_gcc.h **** 
 152:C:\Workspaces\DAVE-4.1\Flightcontroller_PWM_CopterRocks_Working/Libraries/CMSIS/Include\cmsis_gcc.h ****   __ASM volatile ("MRS %0, psp\n"  : "=r" (result) );
 153:C:\Workspaces\DAVE-4.1\Flightcontroller_PWM_CopterRocks_Working/Libraries/CMSIS/Include\cmsis_gcc.h ****   return(result);
 154:C:\Workspaces\DAVE-4.1\Flightcontroller_PWM_CopterRocks_Working/Libraries/CMSIS/Include\cmsis_gcc.h **** }
 155:C:\Workspaces\DAVE-4.1\Flightcontroller_PWM_CopterRocks_Working/Libraries/CMSIS/Include\cmsis_gcc.h **** 
 156:C:\Workspaces\DAVE-4.1\Flightcontroller_PWM_CopterRocks_Working/Libraries/CMSIS/Include\cmsis_gcc.h **** 
 157:C:\Workspaces\DAVE-4.1\Flightcontroller_PWM_CopterRocks_Working/Libraries/CMSIS/Include\cmsis_gcc.h **** /**
 158:C:\Workspaces\DAVE-4.1\Flightcontroller_PWM_CopterRocks_Working/Libraries/CMSIS/Include\cmsis_gcc.h ****   \brief   Set Process Stack Pointer
 159:C:\Workspaces\DAVE-4.1\Flightcontroller_PWM_CopterRocks_Working/Libraries/CMSIS/Include\cmsis_gcc.h ****   \details Assigns the given value to the Process Stack Pointer (PSP).
 160:C:\Workspaces\DAVE-4.1\Flightcontroller_PWM_CopterRocks_Working/Libraries/CMSIS/Include\cmsis_gcc.h ****   \param [in]    topOfProcStack  Process Stack Pointer value to set
 161:C:\Workspaces\DAVE-4.1\Flightcontroller_PWM_CopterRocks_Working/Libraries/CMSIS/Include\cmsis_gcc.h ****  */
 162:C:\Workspaces\DAVE-4.1\Flightcontroller_PWM_CopterRocks_Working/Libraries/CMSIS/Include\cmsis_gcc.h **** __attribute__( ( always_inline ) ) __STATIC_INLINE void __set_PSP(uint32_t topOfProcStack)
 163:C:\Workspaces\DAVE-4.1\Flightcontroller_PWM_CopterRocks_Working/Libraries/CMSIS/Include\cmsis_gcc.h **** {
 164:C:\Workspaces\DAVE-4.1\Flightcontroller_PWM_CopterRocks_Working/Libraries/CMSIS/Include\cmsis_gcc.h ****   __ASM volatile ("MSR psp, %0\n" : : "r" (topOfProcStack) : "sp");
 165:C:\Workspaces\DAVE-4.1\Flightcontroller_PWM_CopterRocks_Working/Libraries/CMSIS/Include\cmsis_gcc.h **** }
 166:C:\Workspaces\DAVE-4.1\Flightcontroller_PWM_CopterRocks_Working/Libraries/CMSIS/Include\cmsis_gcc.h **** 
 167:C:\Workspaces\DAVE-4.1\Flightcontroller_PWM_CopterRocks_Working/Libraries/CMSIS/Include\cmsis_gcc.h **** 
 168:C:\Workspaces\DAVE-4.1\Flightcontroller_PWM_CopterRocks_Working/Libraries/CMSIS/Include\cmsis_gcc.h **** /**
 169:C:\Workspaces\DAVE-4.1\Flightcontroller_PWM_CopterRocks_Working/Libraries/CMSIS/Include\cmsis_gcc.h ****   \brief   Get Main Stack Pointer
 170:C:\Workspaces\DAVE-4.1\Flightcontroller_PWM_CopterRocks_Working/Libraries/CMSIS/Include\cmsis_gcc.h ****   \details Returns the current value of the Main Stack Pointer (MSP).
 171:C:\Workspaces\DAVE-4.1\Flightcontroller_PWM_CopterRocks_Working/Libraries/CMSIS/Include\cmsis_gcc.h ****   \return               MSP Register value
 172:C:\Workspaces\DAVE-4.1\Flightcontroller_PWM_CopterRocks_Working/Libraries/CMSIS/Include\cmsis_gcc.h ****  */
 173:C:\Workspaces\DAVE-4.1\Flightcontroller_PWM_CopterRocks_Working/Libraries/CMSIS/Include\cmsis_gcc.h **** __attribute__( ( always_inline ) ) __STATIC_INLINE uint32_t __get_MSP(void)
 174:C:\Workspaces\DAVE-4.1\Flightcontroller_PWM_CopterRocks_Working/Libraries/CMSIS/Include\cmsis_gcc.h **** {
 175:C:\Workspaces\DAVE-4.1\Flightcontroller_PWM_CopterRocks_Working/Libraries/CMSIS/Include\cmsis_gcc.h ****   register uint32_t result;
 176:C:\Workspaces\DAVE-4.1\Flightcontroller_PWM_CopterRocks_Working/Libraries/CMSIS/Include\cmsis_gcc.h **** 
 177:C:\Workspaces\DAVE-4.1\Flightcontroller_PWM_CopterRocks_Working/Libraries/CMSIS/Include\cmsis_gcc.h ****   __ASM volatile ("MRS %0, msp\n" : "=r" (result) );
 178:C:\Workspaces\DAVE-4.1\Flightcontroller_PWM_CopterRocks_Working/Libraries/CMSIS/Include\cmsis_gcc.h ****   return(result);
 179:C:\Workspaces\DAVE-4.1\Flightcontroller_PWM_CopterRocks_Working/Libraries/CMSIS/Include\cmsis_gcc.h **** }
 180:C:\Workspaces\DAVE-4.1\Flightcontroller_PWM_CopterRocks_Working/Libraries/CMSIS/Include\cmsis_gcc.h **** 
 181:C:\Workspaces\DAVE-4.1\Flightcontroller_PWM_CopterRocks_Working/Libraries/CMSIS/Include\cmsis_gcc.h **** 
 182:C:\Workspaces\DAVE-4.1\Flightcontroller_PWM_CopterRocks_Working/Libraries/CMSIS/Include\cmsis_gcc.h **** /**
 183:C:\Workspaces\DAVE-4.1\Flightcontroller_PWM_CopterRocks_Working/Libraries/CMSIS/Include\cmsis_gcc.h ****   \brief   Set Main Stack Pointer
 184:C:\Workspaces\DAVE-4.1\Flightcontroller_PWM_CopterRocks_Working/Libraries/CMSIS/Include\cmsis_gcc.h ****   \details Assigns the given value to the Main Stack Pointer (MSP).
 185:C:\Workspaces\DAVE-4.1\Flightcontroller_PWM_CopterRocks_Working/Libraries/CMSIS/Include\cmsis_gcc.h **** 
 186:C:\Workspaces\DAVE-4.1\Flightcontroller_PWM_CopterRocks_Working/Libraries/CMSIS/Include\cmsis_gcc.h ****     \param [in]    topOfMainStack  Main Stack Pointer value to set
 187:C:\Workspaces\DAVE-4.1\Flightcontroller_PWM_CopterRocks_Working/Libraries/CMSIS/Include\cmsis_gcc.h ****  */
 188:C:\Workspaces\DAVE-4.1\Flightcontroller_PWM_CopterRocks_Working/Libraries/CMSIS/Include\cmsis_gcc.h **** __attribute__( ( always_inline ) ) __STATIC_INLINE void __set_MSP(uint32_t topOfMainStack)
 189:C:\Workspaces\DAVE-4.1\Flightcontroller_PWM_CopterRocks_Working/Libraries/CMSIS/Include\cmsis_gcc.h **** {
 190:C:\Workspaces\DAVE-4.1\Flightcontroller_PWM_CopterRocks_Working/Libraries/CMSIS/Include\cmsis_gcc.h ****   __ASM volatile ("MSR msp, %0\n" : : "r" (topOfMainStack) : "sp");
 191:C:\Workspaces\DAVE-4.1\Flightcontroller_PWM_CopterRocks_Working/Libraries/CMSIS/Include\cmsis_gcc.h **** }
 192:C:\Workspaces\DAVE-4.1\Flightcontroller_PWM_CopterRocks_Working/Libraries/CMSIS/Include\cmsis_gcc.h **** 
 193:C:\Workspaces\DAVE-4.1\Flightcontroller_PWM_CopterRocks_Working/Libraries/CMSIS/Include\cmsis_gcc.h **** 
 194:C:\Workspaces\DAVE-4.1\Flightcontroller_PWM_CopterRocks_Working/Libraries/CMSIS/Include\cmsis_gcc.h **** /**
 195:C:\Workspaces\DAVE-4.1\Flightcontroller_PWM_CopterRocks_Working/Libraries/CMSIS/Include\cmsis_gcc.h ****   \brief   Get Priority Mask
 196:C:\Workspaces\DAVE-4.1\Flightcontroller_PWM_CopterRocks_Working/Libraries/CMSIS/Include\cmsis_gcc.h ****   \details Returns the current state of the priority mask bit from the Priority Mask Register.
 197:C:\Workspaces\DAVE-4.1\Flightcontroller_PWM_CopterRocks_Working/Libraries/CMSIS/Include\cmsis_gcc.h ****   \return               Priority Mask value
 198:C:\Workspaces\DAVE-4.1\Flightcontroller_PWM_CopterRocks_Working/Libraries/CMSIS/Include\cmsis_gcc.h ****  */
 199:C:\Workspaces\DAVE-4.1\Flightcontroller_PWM_CopterRocks_Working/Libraries/CMSIS/Include\cmsis_gcc.h **** __attribute__( ( always_inline ) ) __STATIC_INLINE uint32_t __get_PRIMASK(void)
 200:C:\Workspaces\DAVE-4.1\Flightcontroller_PWM_CopterRocks_Working/Libraries/CMSIS/Include\cmsis_gcc.h **** {
 201:C:\Workspaces\DAVE-4.1\Flightcontroller_PWM_CopterRocks_Working/Libraries/CMSIS/Include\cmsis_gcc.h ****   uint32_t result;
 202:C:\Workspaces\DAVE-4.1\Flightcontroller_PWM_CopterRocks_Working/Libraries/CMSIS/Include\cmsis_gcc.h **** 
 203:C:\Workspaces\DAVE-4.1\Flightcontroller_PWM_CopterRocks_Working/Libraries/CMSIS/Include\cmsis_gcc.h ****   __ASM volatile ("MRS %0, primask" : "=r" (result) );
 204:C:\Workspaces\DAVE-4.1\Flightcontroller_PWM_CopterRocks_Working/Libraries/CMSIS/Include\cmsis_gcc.h ****   return(result);
 205:C:\Workspaces\DAVE-4.1\Flightcontroller_PWM_CopterRocks_Working/Libraries/CMSIS/Include\cmsis_gcc.h **** }
 206:C:\Workspaces\DAVE-4.1\Flightcontroller_PWM_CopterRocks_Working/Libraries/CMSIS/Include\cmsis_gcc.h **** 
 207:C:\Workspaces\DAVE-4.1\Flightcontroller_PWM_CopterRocks_Working/Libraries/CMSIS/Include\cmsis_gcc.h **** 
 208:C:\Workspaces\DAVE-4.1\Flightcontroller_PWM_CopterRocks_Working/Libraries/CMSIS/Include\cmsis_gcc.h **** /**
 209:C:\Workspaces\DAVE-4.1\Flightcontroller_PWM_CopterRocks_Working/Libraries/CMSIS/Include\cmsis_gcc.h ****   \brief   Set Priority Mask
 210:C:\Workspaces\DAVE-4.1\Flightcontroller_PWM_CopterRocks_Working/Libraries/CMSIS/Include\cmsis_gcc.h ****   \details Assigns the given value to the Priority Mask Register.
 211:C:\Workspaces\DAVE-4.1\Flightcontroller_PWM_CopterRocks_Working/Libraries/CMSIS/Include\cmsis_gcc.h ****   \param [in]    priMask  Priority Mask
 212:C:\Workspaces\DAVE-4.1\Flightcontroller_PWM_CopterRocks_Working/Libraries/CMSIS/Include\cmsis_gcc.h ****  */
 213:C:\Workspaces\DAVE-4.1\Flightcontroller_PWM_CopterRocks_Working/Libraries/CMSIS/Include\cmsis_gcc.h **** __attribute__( ( always_inline ) ) __STATIC_INLINE void __set_PRIMASK(uint32_t priMask)
 214:C:\Workspaces\DAVE-4.1\Flightcontroller_PWM_CopterRocks_Working/Libraries/CMSIS/Include\cmsis_gcc.h **** {
 215:C:\Workspaces\DAVE-4.1\Flightcontroller_PWM_CopterRocks_Working/Libraries/CMSIS/Include\cmsis_gcc.h ****   __ASM volatile ("MSR primask, %0" : : "r" (priMask) : "memory");
 216:C:\Workspaces\DAVE-4.1\Flightcontroller_PWM_CopterRocks_Working/Libraries/CMSIS/Include\cmsis_gcc.h **** }
 217:C:\Workspaces\DAVE-4.1\Flightcontroller_PWM_CopterRocks_Working/Libraries/CMSIS/Include\cmsis_gcc.h **** 
 218:C:\Workspaces\DAVE-4.1\Flightcontroller_PWM_CopterRocks_Working/Libraries/CMSIS/Include\cmsis_gcc.h **** 
 219:C:\Workspaces\DAVE-4.1\Flightcontroller_PWM_CopterRocks_Working/Libraries/CMSIS/Include\cmsis_gcc.h **** #if       (__CORTEX_M >= 0x03U)
 220:C:\Workspaces\DAVE-4.1\Flightcontroller_PWM_CopterRocks_Working/Libraries/CMSIS/Include\cmsis_gcc.h **** 
 221:C:\Workspaces\DAVE-4.1\Flightcontroller_PWM_CopterRocks_Working/Libraries/CMSIS/Include\cmsis_gcc.h **** /**
 222:C:\Workspaces\DAVE-4.1\Flightcontroller_PWM_CopterRocks_Working/Libraries/CMSIS/Include\cmsis_gcc.h ****   \brief   Enable FIQ
 223:C:\Workspaces\DAVE-4.1\Flightcontroller_PWM_CopterRocks_Working/Libraries/CMSIS/Include\cmsis_gcc.h ****   \details Enables FIQ interrupts by clearing the F-bit in the CPSR.
 224:C:\Workspaces\DAVE-4.1\Flightcontroller_PWM_CopterRocks_Working/Libraries/CMSIS/Include\cmsis_gcc.h ****            Can only be executed in Privileged modes.
 225:C:\Workspaces\DAVE-4.1\Flightcontroller_PWM_CopterRocks_Working/Libraries/CMSIS/Include\cmsis_gcc.h ****  */
 226:C:\Workspaces\DAVE-4.1\Flightcontroller_PWM_CopterRocks_Working/Libraries/CMSIS/Include\cmsis_gcc.h **** __attribute__( ( always_inline ) ) __STATIC_INLINE void __enable_fault_irq(void)
 227:C:\Workspaces\DAVE-4.1\Flightcontroller_PWM_CopterRocks_Working/Libraries/CMSIS/Include\cmsis_gcc.h **** {
 228:C:\Workspaces\DAVE-4.1\Flightcontroller_PWM_CopterRocks_Working/Libraries/CMSIS/Include\cmsis_gcc.h ****   __ASM volatile ("cpsie f" : : : "memory");
 229:C:\Workspaces\DAVE-4.1\Flightcontroller_PWM_CopterRocks_Working/Libraries/CMSIS/Include\cmsis_gcc.h **** }
 230:C:\Workspaces\DAVE-4.1\Flightcontroller_PWM_CopterRocks_Working/Libraries/CMSIS/Include\cmsis_gcc.h **** 
 231:C:\Workspaces\DAVE-4.1\Flightcontroller_PWM_CopterRocks_Working/Libraries/CMSIS/Include\cmsis_gcc.h **** 
 232:C:\Workspaces\DAVE-4.1\Flightcontroller_PWM_CopterRocks_Working/Libraries/CMSIS/Include\cmsis_gcc.h **** /**
 233:C:\Workspaces\DAVE-4.1\Flightcontroller_PWM_CopterRocks_Working/Libraries/CMSIS/Include\cmsis_gcc.h ****   \brief   Disable FIQ
 234:C:\Workspaces\DAVE-4.1\Flightcontroller_PWM_CopterRocks_Working/Libraries/CMSIS/Include\cmsis_gcc.h ****   \details Disables FIQ interrupts by setting the F-bit in the CPSR.
 235:C:\Workspaces\DAVE-4.1\Flightcontroller_PWM_CopterRocks_Working/Libraries/CMSIS/Include\cmsis_gcc.h ****            Can only be executed in Privileged modes.
 236:C:\Workspaces\DAVE-4.1\Flightcontroller_PWM_CopterRocks_Working/Libraries/CMSIS/Include\cmsis_gcc.h ****  */
 237:C:\Workspaces\DAVE-4.1\Flightcontroller_PWM_CopterRocks_Working/Libraries/CMSIS/Include\cmsis_gcc.h **** __attribute__( ( always_inline ) ) __STATIC_INLINE void __disable_fault_irq(void)
 238:C:\Workspaces\DAVE-4.1\Flightcontroller_PWM_CopterRocks_Working/Libraries/CMSIS/Include\cmsis_gcc.h **** {
 239:C:\Workspaces\DAVE-4.1\Flightcontroller_PWM_CopterRocks_Working/Libraries/CMSIS/Include\cmsis_gcc.h ****   __ASM volatile ("cpsid f" : : : "memory");
 240:C:\Workspaces\DAVE-4.1\Flightcontroller_PWM_CopterRocks_Working/Libraries/CMSIS/Include\cmsis_gcc.h **** }
 241:C:\Workspaces\DAVE-4.1\Flightcontroller_PWM_CopterRocks_Working/Libraries/CMSIS/Include\cmsis_gcc.h **** 
 242:C:\Workspaces\DAVE-4.1\Flightcontroller_PWM_CopterRocks_Working/Libraries/CMSIS/Include\cmsis_gcc.h **** 
 243:C:\Workspaces\DAVE-4.1\Flightcontroller_PWM_CopterRocks_Working/Libraries/CMSIS/Include\cmsis_gcc.h **** /**
 244:C:\Workspaces\DAVE-4.1\Flightcontroller_PWM_CopterRocks_Working/Libraries/CMSIS/Include\cmsis_gcc.h ****   \brief   Get Base Priority
 245:C:\Workspaces\DAVE-4.1\Flightcontroller_PWM_CopterRocks_Working/Libraries/CMSIS/Include\cmsis_gcc.h ****   \details Returns the current value of the Base Priority register.
 246:C:\Workspaces\DAVE-4.1\Flightcontroller_PWM_CopterRocks_Working/Libraries/CMSIS/Include\cmsis_gcc.h ****   \return               Base Priority register value
 247:C:\Workspaces\DAVE-4.1\Flightcontroller_PWM_CopterRocks_Working/Libraries/CMSIS/Include\cmsis_gcc.h ****  */
 248:C:\Workspaces\DAVE-4.1\Flightcontroller_PWM_CopterRocks_Working/Libraries/CMSIS/Include\cmsis_gcc.h **** __attribute__( ( always_inline ) ) __STATIC_INLINE uint32_t __get_BASEPRI(void)
 249:C:\Workspaces\DAVE-4.1\Flightcontroller_PWM_CopterRocks_Working/Libraries/CMSIS/Include\cmsis_gcc.h **** {
 250:C:\Workspaces\DAVE-4.1\Flightcontroller_PWM_CopterRocks_Working/Libraries/CMSIS/Include\cmsis_gcc.h ****   uint32_t result;
 251:C:\Workspaces\DAVE-4.1\Flightcontroller_PWM_CopterRocks_Working/Libraries/CMSIS/Include\cmsis_gcc.h **** 
 252:C:\Workspaces\DAVE-4.1\Flightcontroller_PWM_CopterRocks_Working/Libraries/CMSIS/Include\cmsis_gcc.h ****   __ASM volatile ("MRS %0, basepri" : "=r" (result) );
 253:C:\Workspaces\DAVE-4.1\Flightcontroller_PWM_CopterRocks_Working/Libraries/CMSIS/Include\cmsis_gcc.h ****   return(result);
 254:C:\Workspaces\DAVE-4.1\Flightcontroller_PWM_CopterRocks_Working/Libraries/CMSIS/Include\cmsis_gcc.h **** }
 255:C:\Workspaces\DAVE-4.1\Flightcontroller_PWM_CopterRocks_Working/Libraries/CMSIS/Include\cmsis_gcc.h **** 
 256:C:\Workspaces\DAVE-4.1\Flightcontroller_PWM_CopterRocks_Working/Libraries/CMSIS/Include\cmsis_gcc.h **** 
 257:C:\Workspaces\DAVE-4.1\Flightcontroller_PWM_CopterRocks_Working/Libraries/CMSIS/Include\cmsis_gcc.h **** /**
 258:C:\Workspaces\DAVE-4.1\Flightcontroller_PWM_CopterRocks_Working/Libraries/CMSIS/Include\cmsis_gcc.h ****   \brief   Set Base Priority
 259:C:\Workspaces\DAVE-4.1\Flightcontroller_PWM_CopterRocks_Working/Libraries/CMSIS/Include\cmsis_gcc.h ****   \details Assigns the given value to the Base Priority register.
 260:C:\Workspaces\DAVE-4.1\Flightcontroller_PWM_CopterRocks_Working/Libraries/CMSIS/Include\cmsis_gcc.h ****   \param [in]    basePri  Base Priority value to set
 261:C:\Workspaces\DAVE-4.1\Flightcontroller_PWM_CopterRocks_Working/Libraries/CMSIS/Include\cmsis_gcc.h ****  */
 262:C:\Workspaces\DAVE-4.1\Flightcontroller_PWM_CopterRocks_Working/Libraries/CMSIS/Include\cmsis_gcc.h **** __attribute__( ( always_inline ) ) __STATIC_INLINE void __set_BASEPRI(uint32_t value)
 263:C:\Workspaces\DAVE-4.1\Flightcontroller_PWM_CopterRocks_Working/Libraries/CMSIS/Include\cmsis_gcc.h **** {
 264:C:\Workspaces\DAVE-4.1\Flightcontroller_PWM_CopterRocks_Working/Libraries/CMSIS/Include\cmsis_gcc.h ****   __ASM volatile ("MSR basepri, %0" : : "r" (value) : "memory");
 265:C:\Workspaces\DAVE-4.1\Flightcontroller_PWM_CopterRocks_Working/Libraries/CMSIS/Include\cmsis_gcc.h **** }
 266:C:\Workspaces\DAVE-4.1\Flightcontroller_PWM_CopterRocks_Working/Libraries/CMSIS/Include\cmsis_gcc.h **** 
 267:C:\Workspaces\DAVE-4.1\Flightcontroller_PWM_CopterRocks_Working/Libraries/CMSIS/Include\cmsis_gcc.h **** 
 268:C:\Workspaces\DAVE-4.1\Flightcontroller_PWM_CopterRocks_Working/Libraries/CMSIS/Include\cmsis_gcc.h **** /**
 269:C:\Workspaces\DAVE-4.1\Flightcontroller_PWM_CopterRocks_Working/Libraries/CMSIS/Include\cmsis_gcc.h ****   \brief   Set Base Priority with condition
 270:C:\Workspaces\DAVE-4.1\Flightcontroller_PWM_CopterRocks_Working/Libraries/CMSIS/Include\cmsis_gcc.h ****   \details Assigns the given value to the Base Priority register only if BASEPRI masking is disable
 271:C:\Workspaces\DAVE-4.1\Flightcontroller_PWM_CopterRocks_Working/Libraries/CMSIS/Include\cmsis_gcc.h ****            or the new value increases the BASEPRI priority level.
 272:C:\Workspaces\DAVE-4.1\Flightcontroller_PWM_CopterRocks_Working/Libraries/CMSIS/Include\cmsis_gcc.h ****   \param [in]    basePri  Base Priority value to set
 273:C:\Workspaces\DAVE-4.1\Flightcontroller_PWM_CopterRocks_Working/Libraries/CMSIS/Include\cmsis_gcc.h ****  */
 274:C:\Workspaces\DAVE-4.1\Flightcontroller_PWM_CopterRocks_Working/Libraries/CMSIS/Include\cmsis_gcc.h **** __attribute__( ( always_inline ) ) __STATIC_INLINE void __set_BASEPRI_MAX(uint32_t value)
 275:C:\Workspaces\DAVE-4.1\Flightcontroller_PWM_CopterRocks_Working/Libraries/CMSIS/Include\cmsis_gcc.h **** {
 276:C:\Workspaces\DAVE-4.1\Flightcontroller_PWM_CopterRocks_Working/Libraries/CMSIS/Include\cmsis_gcc.h ****   __ASM volatile ("MSR basepri_max, %0" : : "r" (value) : "memory");
 277:C:\Workspaces\DAVE-4.1\Flightcontroller_PWM_CopterRocks_Working/Libraries/CMSIS/Include\cmsis_gcc.h **** }
 278:C:\Workspaces\DAVE-4.1\Flightcontroller_PWM_CopterRocks_Working/Libraries/CMSIS/Include\cmsis_gcc.h **** 
 279:C:\Workspaces\DAVE-4.1\Flightcontroller_PWM_CopterRocks_Working/Libraries/CMSIS/Include\cmsis_gcc.h **** 
 280:C:\Workspaces\DAVE-4.1\Flightcontroller_PWM_CopterRocks_Working/Libraries/CMSIS/Include\cmsis_gcc.h **** /**
 281:C:\Workspaces\DAVE-4.1\Flightcontroller_PWM_CopterRocks_Working/Libraries/CMSIS/Include\cmsis_gcc.h ****   \brief   Get Fault Mask
 282:C:\Workspaces\DAVE-4.1\Flightcontroller_PWM_CopterRocks_Working/Libraries/CMSIS/Include\cmsis_gcc.h ****   \details Returns the current value of the Fault Mask register.
 283:C:\Workspaces\DAVE-4.1\Flightcontroller_PWM_CopterRocks_Working/Libraries/CMSIS/Include\cmsis_gcc.h ****   \return               Fault Mask register value
 284:C:\Workspaces\DAVE-4.1\Flightcontroller_PWM_CopterRocks_Working/Libraries/CMSIS/Include\cmsis_gcc.h ****  */
 285:C:\Workspaces\DAVE-4.1\Flightcontroller_PWM_CopterRocks_Working/Libraries/CMSIS/Include\cmsis_gcc.h **** __attribute__( ( always_inline ) ) __STATIC_INLINE uint32_t __get_FAULTMASK(void)
 286:C:\Workspaces\DAVE-4.1\Flightcontroller_PWM_CopterRocks_Working/Libraries/CMSIS/Include\cmsis_gcc.h **** {
 287:C:\Workspaces\DAVE-4.1\Flightcontroller_PWM_CopterRocks_Working/Libraries/CMSIS/Include\cmsis_gcc.h ****   uint32_t result;
 288:C:\Workspaces\DAVE-4.1\Flightcontroller_PWM_CopterRocks_Working/Libraries/CMSIS/Include\cmsis_gcc.h **** 
 289:C:\Workspaces\DAVE-4.1\Flightcontroller_PWM_CopterRocks_Working/Libraries/CMSIS/Include\cmsis_gcc.h ****   __ASM volatile ("MRS %0, faultmask" : "=r" (result) );
 290:C:\Workspaces\DAVE-4.1\Flightcontroller_PWM_CopterRocks_Working/Libraries/CMSIS/Include\cmsis_gcc.h ****   return(result);
 291:C:\Workspaces\DAVE-4.1\Flightcontroller_PWM_CopterRocks_Working/Libraries/CMSIS/Include\cmsis_gcc.h **** }
 292:C:\Workspaces\DAVE-4.1\Flightcontroller_PWM_CopterRocks_Working/Libraries/CMSIS/Include\cmsis_gcc.h **** 
 293:C:\Workspaces\DAVE-4.1\Flightcontroller_PWM_CopterRocks_Working/Libraries/CMSIS/Include\cmsis_gcc.h **** 
 294:C:\Workspaces\DAVE-4.1\Flightcontroller_PWM_CopterRocks_Working/Libraries/CMSIS/Include\cmsis_gcc.h **** /**
 295:C:\Workspaces\DAVE-4.1\Flightcontroller_PWM_CopterRocks_Working/Libraries/CMSIS/Include\cmsis_gcc.h ****   \brief   Set Fault Mask
 296:C:\Workspaces\DAVE-4.1\Flightcontroller_PWM_CopterRocks_Working/Libraries/CMSIS/Include\cmsis_gcc.h ****   \details Assigns the given value to the Fault Mask register.
 297:C:\Workspaces\DAVE-4.1\Flightcontroller_PWM_CopterRocks_Working/Libraries/CMSIS/Include\cmsis_gcc.h ****   \param [in]    faultMask  Fault Mask value to set
 298:C:\Workspaces\DAVE-4.1\Flightcontroller_PWM_CopterRocks_Working/Libraries/CMSIS/Include\cmsis_gcc.h ****  */
 299:C:\Workspaces\DAVE-4.1\Flightcontroller_PWM_CopterRocks_Working/Libraries/CMSIS/Include\cmsis_gcc.h **** __attribute__( ( always_inline ) ) __STATIC_INLINE void __set_FAULTMASK(uint32_t faultMask)
 300:C:\Workspaces\DAVE-4.1\Flightcontroller_PWM_CopterRocks_Working/Libraries/CMSIS/Include\cmsis_gcc.h **** {
 301:C:\Workspaces\DAVE-4.1\Flightcontroller_PWM_CopterRocks_Working/Libraries/CMSIS/Include\cmsis_gcc.h ****   __ASM volatile ("MSR faultmask, %0" : : "r" (faultMask) : "memory");
 302:C:\Workspaces\DAVE-4.1\Flightcontroller_PWM_CopterRocks_Working/Libraries/CMSIS/Include\cmsis_gcc.h **** }
 303:C:\Workspaces\DAVE-4.1\Flightcontroller_PWM_CopterRocks_Working/Libraries/CMSIS/Include\cmsis_gcc.h **** 
 304:C:\Workspaces\DAVE-4.1\Flightcontroller_PWM_CopterRocks_Working/Libraries/CMSIS/Include\cmsis_gcc.h **** #endif /* (__CORTEX_M >= 0x03U) */
 305:C:\Workspaces\DAVE-4.1\Flightcontroller_PWM_CopterRocks_Working/Libraries/CMSIS/Include\cmsis_gcc.h **** 
 306:C:\Workspaces\DAVE-4.1\Flightcontroller_PWM_CopterRocks_Working/Libraries/CMSIS/Include\cmsis_gcc.h **** 
 307:C:\Workspaces\DAVE-4.1\Flightcontroller_PWM_CopterRocks_Working/Libraries/CMSIS/Include\cmsis_gcc.h **** #if       (__CORTEX_M == 0x04U) || (__CORTEX_M == 0x07U)
 308:C:\Workspaces\DAVE-4.1\Flightcontroller_PWM_CopterRocks_Working/Libraries/CMSIS/Include\cmsis_gcc.h **** 
 309:C:\Workspaces\DAVE-4.1\Flightcontroller_PWM_CopterRocks_Working/Libraries/CMSIS/Include\cmsis_gcc.h **** /**
 310:C:\Workspaces\DAVE-4.1\Flightcontroller_PWM_CopterRocks_Working/Libraries/CMSIS/Include\cmsis_gcc.h ****   \brief   Get FPSCR
 311:C:\Workspaces\DAVE-4.1\Flightcontroller_PWM_CopterRocks_Working/Libraries/CMSIS/Include\cmsis_gcc.h ****   \details Returns the current value of the Floating Point Status/Control register.
 312:C:\Workspaces\DAVE-4.1\Flightcontroller_PWM_CopterRocks_Working/Libraries/CMSIS/Include\cmsis_gcc.h ****   \return               Floating Point Status/Control register value
 313:C:\Workspaces\DAVE-4.1\Flightcontroller_PWM_CopterRocks_Working/Libraries/CMSIS/Include\cmsis_gcc.h ****  */
 314:C:\Workspaces\DAVE-4.1\Flightcontroller_PWM_CopterRocks_Working/Libraries/CMSIS/Include\cmsis_gcc.h **** __attribute__( ( always_inline ) ) __STATIC_INLINE uint32_t __get_FPSCR(void)
 315:C:\Workspaces\DAVE-4.1\Flightcontroller_PWM_CopterRocks_Working/Libraries/CMSIS/Include\cmsis_gcc.h **** {
 316:C:\Workspaces\DAVE-4.1\Flightcontroller_PWM_CopterRocks_Working/Libraries/CMSIS/Include\cmsis_gcc.h **** #if (__FPU_PRESENT == 1U) && (__FPU_USED == 1U)
 317:C:\Workspaces\DAVE-4.1\Flightcontroller_PWM_CopterRocks_Working/Libraries/CMSIS/Include\cmsis_gcc.h ****   uint32_t result;
 318:C:\Workspaces\DAVE-4.1\Flightcontroller_PWM_CopterRocks_Working/Libraries/CMSIS/Include\cmsis_gcc.h **** 
 319:C:\Workspaces\DAVE-4.1\Flightcontroller_PWM_CopterRocks_Working/Libraries/CMSIS/Include\cmsis_gcc.h ****   /* Empty asm statement works as a scheduling barrier */
 320:C:\Workspaces\DAVE-4.1\Flightcontroller_PWM_CopterRocks_Working/Libraries/CMSIS/Include\cmsis_gcc.h ****   __ASM volatile ("");
 321:C:\Workspaces\DAVE-4.1\Flightcontroller_PWM_CopterRocks_Working/Libraries/CMSIS/Include\cmsis_gcc.h ****   __ASM volatile ("VMRS %0, fpscr" : "=r" (result) );
 322:C:\Workspaces\DAVE-4.1\Flightcontroller_PWM_CopterRocks_Working/Libraries/CMSIS/Include\cmsis_gcc.h ****   __ASM volatile ("");
 323:C:\Workspaces\DAVE-4.1\Flightcontroller_PWM_CopterRocks_Working/Libraries/CMSIS/Include\cmsis_gcc.h ****   return(result);
 324:C:\Workspaces\DAVE-4.1\Flightcontroller_PWM_CopterRocks_Working/Libraries/CMSIS/Include\cmsis_gcc.h **** #else
 325:C:\Workspaces\DAVE-4.1\Flightcontroller_PWM_CopterRocks_Working/Libraries/CMSIS/Include\cmsis_gcc.h ****    return(0);
 326:C:\Workspaces\DAVE-4.1\Flightcontroller_PWM_CopterRocks_Working/Libraries/CMSIS/Include\cmsis_gcc.h **** #endif
 327:C:\Workspaces\DAVE-4.1\Flightcontroller_PWM_CopterRocks_Working/Libraries/CMSIS/Include\cmsis_gcc.h **** }
 328:C:\Workspaces\DAVE-4.1\Flightcontroller_PWM_CopterRocks_Working/Libraries/CMSIS/Include\cmsis_gcc.h **** 
 329:C:\Workspaces\DAVE-4.1\Flightcontroller_PWM_CopterRocks_Working/Libraries/CMSIS/Include\cmsis_gcc.h **** 
 330:C:\Workspaces\DAVE-4.1\Flightcontroller_PWM_CopterRocks_Working/Libraries/CMSIS/Include\cmsis_gcc.h **** /**
 331:C:\Workspaces\DAVE-4.1\Flightcontroller_PWM_CopterRocks_Working/Libraries/CMSIS/Include\cmsis_gcc.h ****   \brief   Set FPSCR
 332:C:\Workspaces\DAVE-4.1\Flightcontroller_PWM_CopterRocks_Working/Libraries/CMSIS/Include\cmsis_gcc.h ****   \details Assigns the given value to the Floating Point Status/Control register.
 333:C:\Workspaces\DAVE-4.1\Flightcontroller_PWM_CopterRocks_Working/Libraries/CMSIS/Include\cmsis_gcc.h ****   \param [in]    fpscr  Floating Point Status/Control value to set
 334:C:\Workspaces\DAVE-4.1\Flightcontroller_PWM_CopterRocks_Working/Libraries/CMSIS/Include\cmsis_gcc.h ****  */
 335:C:\Workspaces\DAVE-4.1\Flightcontroller_PWM_CopterRocks_Working/Libraries/CMSIS/Include\cmsis_gcc.h **** __attribute__( ( always_inline ) ) __STATIC_INLINE void __set_FPSCR(uint32_t fpscr)
 336:C:\Workspaces\DAVE-4.1\Flightcontroller_PWM_CopterRocks_Working/Libraries/CMSIS/Include\cmsis_gcc.h **** {
 337:C:\Workspaces\DAVE-4.1\Flightcontroller_PWM_CopterRocks_Working/Libraries/CMSIS/Include\cmsis_gcc.h **** #if (__FPU_PRESENT == 1U) && (__FPU_USED == 1U)
 338:C:\Workspaces\DAVE-4.1\Flightcontroller_PWM_CopterRocks_Working/Libraries/CMSIS/Include\cmsis_gcc.h ****   /* Empty asm statement works as a scheduling barrier */
 339:C:\Workspaces\DAVE-4.1\Flightcontroller_PWM_CopterRocks_Working/Libraries/CMSIS/Include\cmsis_gcc.h ****   __ASM volatile ("");
 340:C:\Workspaces\DAVE-4.1\Flightcontroller_PWM_CopterRocks_Working/Libraries/CMSIS/Include\cmsis_gcc.h ****   __ASM volatile ("VMSR fpscr, %0" : : "r" (fpscr) : "vfpcc");
 341:C:\Workspaces\DAVE-4.1\Flightcontroller_PWM_CopterRocks_Working/Libraries/CMSIS/Include\cmsis_gcc.h ****   __ASM volatile ("");
 342:C:\Workspaces\DAVE-4.1\Flightcontroller_PWM_CopterRocks_Working/Libraries/CMSIS/Include\cmsis_gcc.h **** #endif
 343:C:\Workspaces\DAVE-4.1\Flightcontroller_PWM_CopterRocks_Working/Libraries/CMSIS/Include\cmsis_gcc.h **** }
 344:C:\Workspaces\DAVE-4.1\Flightcontroller_PWM_CopterRocks_Working/Libraries/CMSIS/Include\cmsis_gcc.h **** 
 345:C:\Workspaces\DAVE-4.1\Flightcontroller_PWM_CopterRocks_Working/Libraries/CMSIS/Include\cmsis_gcc.h **** #endif /* (__CORTEX_M == 0x04U) || (__CORTEX_M == 0x07U) */
 346:C:\Workspaces\DAVE-4.1\Flightcontroller_PWM_CopterRocks_Working/Libraries/CMSIS/Include\cmsis_gcc.h **** 
 347:C:\Workspaces\DAVE-4.1\Flightcontroller_PWM_CopterRocks_Working/Libraries/CMSIS/Include\cmsis_gcc.h **** 
 348:C:\Workspaces\DAVE-4.1\Flightcontroller_PWM_CopterRocks_Working/Libraries/CMSIS/Include\cmsis_gcc.h **** 
 349:C:\Workspaces\DAVE-4.1\Flightcontroller_PWM_CopterRocks_Working/Libraries/CMSIS/Include\cmsis_gcc.h **** /*@} end of CMSIS_Core_RegAccFunctions */
 350:C:\Workspaces\DAVE-4.1\Flightcontroller_PWM_CopterRocks_Working/Libraries/CMSIS/Include\cmsis_gcc.h **** 
 351:C:\Workspaces\DAVE-4.1\Flightcontroller_PWM_CopterRocks_Working/Libraries/CMSIS/Include\cmsis_gcc.h **** 
 352:C:\Workspaces\DAVE-4.1\Flightcontroller_PWM_CopterRocks_Working/Libraries/CMSIS/Include\cmsis_gcc.h **** /* ##########################  Core Instruction Access  ######################### */
 353:C:\Workspaces\DAVE-4.1\Flightcontroller_PWM_CopterRocks_Working/Libraries/CMSIS/Include\cmsis_gcc.h **** /** \defgroup CMSIS_Core_InstructionInterface CMSIS Core Instruction Interface
 354:C:\Workspaces\DAVE-4.1\Flightcontroller_PWM_CopterRocks_Working/Libraries/CMSIS/Include\cmsis_gcc.h ****   Access to dedicated instructions
 355:C:\Workspaces\DAVE-4.1\Flightcontroller_PWM_CopterRocks_Working/Libraries/CMSIS/Include\cmsis_gcc.h ****   @{
 356:C:\Workspaces\DAVE-4.1\Flightcontroller_PWM_CopterRocks_Working/Libraries/CMSIS/Include\cmsis_gcc.h **** */
 357:C:\Workspaces\DAVE-4.1\Flightcontroller_PWM_CopterRocks_Working/Libraries/CMSIS/Include\cmsis_gcc.h **** 
 358:C:\Workspaces\DAVE-4.1\Flightcontroller_PWM_CopterRocks_Working/Libraries/CMSIS/Include\cmsis_gcc.h **** /* Define macros for porting to both thumb1 and thumb2.
 359:C:\Workspaces\DAVE-4.1\Flightcontroller_PWM_CopterRocks_Working/Libraries/CMSIS/Include\cmsis_gcc.h ****  * For thumb1, use low register (r0-r7), specified by constraint "l"
 360:C:\Workspaces\DAVE-4.1\Flightcontroller_PWM_CopterRocks_Working/Libraries/CMSIS/Include\cmsis_gcc.h ****  * Otherwise, use general registers, specified by constraint "r" */
 361:C:\Workspaces\DAVE-4.1\Flightcontroller_PWM_CopterRocks_Working/Libraries/CMSIS/Include\cmsis_gcc.h **** #if defined (__thumb__) && !defined (__thumb2__)
 362:C:\Workspaces\DAVE-4.1\Flightcontroller_PWM_CopterRocks_Working/Libraries/CMSIS/Include\cmsis_gcc.h **** #define __CMSIS_GCC_OUT_REG(r) "=l" (r)
 363:C:\Workspaces\DAVE-4.1\Flightcontroller_PWM_CopterRocks_Working/Libraries/CMSIS/Include\cmsis_gcc.h **** #define __CMSIS_GCC_USE_REG(r) "l" (r)
 364:C:\Workspaces\DAVE-4.1\Flightcontroller_PWM_CopterRocks_Working/Libraries/CMSIS/Include\cmsis_gcc.h **** #else
 365:C:\Workspaces\DAVE-4.1\Flightcontroller_PWM_CopterRocks_Working/Libraries/CMSIS/Include\cmsis_gcc.h **** #define __CMSIS_GCC_OUT_REG(r) "=r" (r)
 366:C:\Workspaces\DAVE-4.1\Flightcontroller_PWM_CopterRocks_Working/Libraries/CMSIS/Include\cmsis_gcc.h **** #define __CMSIS_GCC_USE_REG(r) "r" (r)
 367:C:\Workspaces\DAVE-4.1\Flightcontroller_PWM_CopterRocks_Working/Libraries/CMSIS/Include\cmsis_gcc.h **** #endif
 368:C:\Workspaces\DAVE-4.1\Flightcontroller_PWM_CopterRocks_Working/Libraries/CMSIS/Include\cmsis_gcc.h **** 
 369:C:\Workspaces\DAVE-4.1\Flightcontroller_PWM_CopterRocks_Working/Libraries/CMSIS/Include\cmsis_gcc.h **** /**
 370:C:\Workspaces\DAVE-4.1\Flightcontroller_PWM_CopterRocks_Working/Libraries/CMSIS/Include\cmsis_gcc.h ****   \brief   No Operation
 371:C:\Workspaces\DAVE-4.1\Flightcontroller_PWM_CopterRocks_Working/Libraries/CMSIS/Include\cmsis_gcc.h ****   \details No Operation does nothing. This instruction can be used for code alignment purposes.
 372:C:\Workspaces\DAVE-4.1\Flightcontroller_PWM_CopterRocks_Working/Libraries/CMSIS/Include\cmsis_gcc.h ****  */
 373:C:\Workspaces\DAVE-4.1\Flightcontroller_PWM_CopterRocks_Working/Libraries/CMSIS/Include\cmsis_gcc.h **** __attribute__((always_inline)) __STATIC_INLINE void __NOP(void)
 374:C:\Workspaces\DAVE-4.1\Flightcontroller_PWM_CopterRocks_Working/Libraries/CMSIS/Include\cmsis_gcc.h **** {
 375:C:\Workspaces\DAVE-4.1\Flightcontroller_PWM_CopterRocks_Working/Libraries/CMSIS/Include\cmsis_gcc.h ****   __ASM volatile ("nop");
 376:C:\Workspaces\DAVE-4.1\Flightcontroller_PWM_CopterRocks_Working/Libraries/CMSIS/Include\cmsis_gcc.h **** }
 377:C:\Workspaces\DAVE-4.1\Flightcontroller_PWM_CopterRocks_Working/Libraries/CMSIS/Include\cmsis_gcc.h **** 
 378:C:\Workspaces\DAVE-4.1\Flightcontroller_PWM_CopterRocks_Working/Libraries/CMSIS/Include\cmsis_gcc.h **** 
 379:C:\Workspaces\DAVE-4.1\Flightcontroller_PWM_CopterRocks_Working/Libraries/CMSIS/Include\cmsis_gcc.h **** /**
 380:C:\Workspaces\DAVE-4.1\Flightcontroller_PWM_CopterRocks_Working/Libraries/CMSIS/Include\cmsis_gcc.h ****   \brief   Wait For Interrupt
 381:C:\Workspaces\DAVE-4.1\Flightcontroller_PWM_CopterRocks_Working/Libraries/CMSIS/Include\cmsis_gcc.h ****   \details Wait For Interrupt is a hint instruction that suspends execution until one of a number o
 382:C:\Workspaces\DAVE-4.1\Flightcontroller_PWM_CopterRocks_Working/Libraries/CMSIS/Include\cmsis_gcc.h ****  */
 383:C:\Workspaces\DAVE-4.1\Flightcontroller_PWM_CopterRocks_Working/Libraries/CMSIS/Include\cmsis_gcc.h **** __attribute__((always_inline)) __STATIC_INLINE void __WFI(void)
 384:C:\Workspaces\DAVE-4.1\Flightcontroller_PWM_CopterRocks_Working/Libraries/CMSIS/Include\cmsis_gcc.h **** {
 385:C:\Workspaces\DAVE-4.1\Flightcontroller_PWM_CopterRocks_Working/Libraries/CMSIS/Include\cmsis_gcc.h ****   __ASM volatile ("wfi");
 386:C:\Workspaces\DAVE-4.1\Flightcontroller_PWM_CopterRocks_Working/Libraries/CMSIS/Include\cmsis_gcc.h **** }
 387:C:\Workspaces\DAVE-4.1\Flightcontroller_PWM_CopterRocks_Working/Libraries/CMSIS/Include\cmsis_gcc.h **** 
 388:C:\Workspaces\DAVE-4.1\Flightcontroller_PWM_CopterRocks_Working/Libraries/CMSIS/Include\cmsis_gcc.h **** 
 389:C:\Workspaces\DAVE-4.1\Flightcontroller_PWM_CopterRocks_Working/Libraries/CMSIS/Include\cmsis_gcc.h **** /**
 390:C:\Workspaces\DAVE-4.1\Flightcontroller_PWM_CopterRocks_Working/Libraries/CMSIS/Include\cmsis_gcc.h ****   \brief   Wait For Event
 391:C:\Workspaces\DAVE-4.1\Flightcontroller_PWM_CopterRocks_Working/Libraries/CMSIS/Include\cmsis_gcc.h ****   \details Wait For Event is a hint instruction that permits the processor to enter
 392:C:\Workspaces\DAVE-4.1\Flightcontroller_PWM_CopterRocks_Working/Libraries/CMSIS/Include\cmsis_gcc.h ****     a low-power state until one of a number of events occurs.
 393:C:\Workspaces\DAVE-4.1\Flightcontroller_PWM_CopterRocks_Working/Libraries/CMSIS/Include\cmsis_gcc.h ****  */
 394:C:\Workspaces\DAVE-4.1\Flightcontroller_PWM_CopterRocks_Working/Libraries/CMSIS/Include\cmsis_gcc.h **** __attribute__((always_inline)) __STATIC_INLINE void __WFE(void)
 395:C:\Workspaces\DAVE-4.1\Flightcontroller_PWM_CopterRocks_Working/Libraries/CMSIS/Include\cmsis_gcc.h **** {
 396:C:\Workspaces\DAVE-4.1\Flightcontroller_PWM_CopterRocks_Working/Libraries/CMSIS/Include\cmsis_gcc.h ****   __ASM volatile ("wfe");
 397:C:\Workspaces\DAVE-4.1\Flightcontroller_PWM_CopterRocks_Working/Libraries/CMSIS/Include\cmsis_gcc.h **** }
 398:C:\Workspaces\DAVE-4.1\Flightcontroller_PWM_CopterRocks_Working/Libraries/CMSIS/Include\cmsis_gcc.h **** 
 399:C:\Workspaces\DAVE-4.1\Flightcontroller_PWM_CopterRocks_Working/Libraries/CMSIS/Include\cmsis_gcc.h **** 
 400:C:\Workspaces\DAVE-4.1\Flightcontroller_PWM_CopterRocks_Working/Libraries/CMSIS/Include\cmsis_gcc.h **** /**
 401:C:\Workspaces\DAVE-4.1\Flightcontroller_PWM_CopterRocks_Working/Libraries/CMSIS/Include\cmsis_gcc.h ****   \brief   Send Event
 402:C:\Workspaces\DAVE-4.1\Flightcontroller_PWM_CopterRocks_Working/Libraries/CMSIS/Include\cmsis_gcc.h ****   \details Send Event is a hint instruction. It causes an event to be signaled to the CPU.
 403:C:\Workspaces\DAVE-4.1\Flightcontroller_PWM_CopterRocks_Working/Libraries/CMSIS/Include\cmsis_gcc.h ****  */
 404:C:\Workspaces\DAVE-4.1\Flightcontroller_PWM_CopterRocks_Working/Libraries/CMSIS/Include\cmsis_gcc.h **** __attribute__((always_inline)) __STATIC_INLINE void __SEV(void)
 405:C:\Workspaces\DAVE-4.1\Flightcontroller_PWM_CopterRocks_Working/Libraries/CMSIS/Include\cmsis_gcc.h **** {
 406:C:\Workspaces\DAVE-4.1\Flightcontroller_PWM_CopterRocks_Working/Libraries/CMSIS/Include\cmsis_gcc.h ****   __ASM volatile ("sev");
 407:C:\Workspaces\DAVE-4.1\Flightcontroller_PWM_CopterRocks_Working/Libraries/CMSIS/Include\cmsis_gcc.h **** }
 408:C:\Workspaces\DAVE-4.1\Flightcontroller_PWM_CopterRocks_Working/Libraries/CMSIS/Include\cmsis_gcc.h **** 
 409:C:\Workspaces\DAVE-4.1\Flightcontroller_PWM_CopterRocks_Working/Libraries/CMSIS/Include\cmsis_gcc.h **** 
 410:C:\Workspaces\DAVE-4.1\Flightcontroller_PWM_CopterRocks_Working/Libraries/CMSIS/Include\cmsis_gcc.h **** /**
 411:C:\Workspaces\DAVE-4.1\Flightcontroller_PWM_CopterRocks_Working/Libraries/CMSIS/Include\cmsis_gcc.h ****   \brief   Instruction Synchronization Barrier
 412:C:\Workspaces\DAVE-4.1\Flightcontroller_PWM_CopterRocks_Working/Libraries/CMSIS/Include\cmsis_gcc.h ****   \details Instruction Synchronization Barrier flushes the pipeline in the processor,
 413:C:\Workspaces\DAVE-4.1\Flightcontroller_PWM_CopterRocks_Working/Libraries/CMSIS/Include\cmsis_gcc.h ****            so that all instructions following the ISB are fetched from cache or memory,
 414:C:\Workspaces\DAVE-4.1\Flightcontroller_PWM_CopterRocks_Working/Libraries/CMSIS/Include\cmsis_gcc.h ****            after the instruction has been completed.
 415:C:\Workspaces\DAVE-4.1\Flightcontroller_PWM_CopterRocks_Working/Libraries/CMSIS/Include\cmsis_gcc.h ****  */
 416:C:\Workspaces\DAVE-4.1\Flightcontroller_PWM_CopterRocks_Working/Libraries/CMSIS/Include\cmsis_gcc.h **** __attribute__((always_inline)) __STATIC_INLINE void __ISB(void)
 417:C:\Workspaces\DAVE-4.1\Flightcontroller_PWM_CopterRocks_Working/Libraries/CMSIS/Include\cmsis_gcc.h **** {
 418:C:\Workspaces\DAVE-4.1\Flightcontroller_PWM_CopterRocks_Working/Libraries/CMSIS/Include\cmsis_gcc.h ****   __ASM volatile ("isb 0xF":::"memory");
 419:C:\Workspaces\DAVE-4.1\Flightcontroller_PWM_CopterRocks_Working/Libraries/CMSIS/Include\cmsis_gcc.h **** }
 420:C:\Workspaces\DAVE-4.1\Flightcontroller_PWM_CopterRocks_Working/Libraries/CMSIS/Include\cmsis_gcc.h **** 
 421:C:\Workspaces\DAVE-4.1\Flightcontroller_PWM_CopterRocks_Working/Libraries/CMSIS/Include\cmsis_gcc.h **** 
 422:C:\Workspaces\DAVE-4.1\Flightcontroller_PWM_CopterRocks_Working/Libraries/CMSIS/Include\cmsis_gcc.h **** /**
 423:C:\Workspaces\DAVE-4.1\Flightcontroller_PWM_CopterRocks_Working/Libraries/CMSIS/Include\cmsis_gcc.h ****   \brief   Data Synchronization Barrier
 424:C:\Workspaces\DAVE-4.1\Flightcontroller_PWM_CopterRocks_Working/Libraries/CMSIS/Include\cmsis_gcc.h ****   \details Acts as a special kind of Data Memory Barrier.
 425:C:\Workspaces\DAVE-4.1\Flightcontroller_PWM_CopterRocks_Working/Libraries/CMSIS/Include\cmsis_gcc.h ****            It completes when all explicit memory accesses before this instruction complete.
 426:C:\Workspaces\DAVE-4.1\Flightcontroller_PWM_CopterRocks_Working/Libraries/CMSIS/Include\cmsis_gcc.h ****  */
 427:C:\Workspaces\DAVE-4.1\Flightcontroller_PWM_CopterRocks_Working/Libraries/CMSIS/Include\cmsis_gcc.h **** __attribute__((always_inline)) __STATIC_INLINE void __DSB(void)
 428:C:\Workspaces\DAVE-4.1\Flightcontroller_PWM_CopterRocks_Working/Libraries/CMSIS/Include\cmsis_gcc.h **** {
 429:C:\Workspaces\DAVE-4.1\Flightcontroller_PWM_CopterRocks_Working/Libraries/CMSIS/Include\cmsis_gcc.h ****   __ASM volatile ("dsb 0xF":::"memory");
 430:C:\Workspaces\DAVE-4.1\Flightcontroller_PWM_CopterRocks_Working/Libraries/CMSIS/Include\cmsis_gcc.h **** }
 431:C:\Workspaces\DAVE-4.1\Flightcontroller_PWM_CopterRocks_Working/Libraries/CMSIS/Include\cmsis_gcc.h **** 
 432:C:\Workspaces\DAVE-4.1\Flightcontroller_PWM_CopterRocks_Working/Libraries/CMSIS/Include\cmsis_gcc.h **** 
 433:C:\Workspaces\DAVE-4.1\Flightcontroller_PWM_CopterRocks_Working/Libraries/CMSIS/Include\cmsis_gcc.h **** /**
 434:C:\Workspaces\DAVE-4.1\Flightcontroller_PWM_CopterRocks_Working/Libraries/CMSIS/Include\cmsis_gcc.h ****   \brief   Data Memory Barrier
 435:C:\Workspaces\DAVE-4.1\Flightcontroller_PWM_CopterRocks_Working/Libraries/CMSIS/Include\cmsis_gcc.h ****   \details Ensures the apparent order of the explicit memory operations before
 436:C:\Workspaces\DAVE-4.1\Flightcontroller_PWM_CopterRocks_Working/Libraries/CMSIS/Include\cmsis_gcc.h ****            and after the instruction, without ensuring their completion.
 437:C:\Workspaces\DAVE-4.1\Flightcontroller_PWM_CopterRocks_Working/Libraries/CMSIS/Include\cmsis_gcc.h ****  */
 438:C:\Workspaces\DAVE-4.1\Flightcontroller_PWM_CopterRocks_Working/Libraries/CMSIS/Include\cmsis_gcc.h **** __attribute__((always_inline)) __STATIC_INLINE void __DMB(void)
 439:C:\Workspaces\DAVE-4.1\Flightcontroller_PWM_CopterRocks_Working/Libraries/CMSIS/Include\cmsis_gcc.h **** {
 440:C:\Workspaces\DAVE-4.1\Flightcontroller_PWM_CopterRocks_Working/Libraries/CMSIS/Include\cmsis_gcc.h ****   __ASM volatile ("dmb 0xF":::"memory");
 441:C:\Workspaces\DAVE-4.1\Flightcontroller_PWM_CopterRocks_Working/Libraries/CMSIS/Include\cmsis_gcc.h **** }
 442:C:\Workspaces\DAVE-4.1\Flightcontroller_PWM_CopterRocks_Working/Libraries/CMSIS/Include\cmsis_gcc.h **** 
 443:C:\Workspaces\DAVE-4.1\Flightcontroller_PWM_CopterRocks_Working/Libraries/CMSIS/Include\cmsis_gcc.h **** 
 444:C:\Workspaces\DAVE-4.1\Flightcontroller_PWM_CopterRocks_Working/Libraries/CMSIS/Include\cmsis_gcc.h **** /**
 445:C:\Workspaces\DAVE-4.1\Flightcontroller_PWM_CopterRocks_Working/Libraries/CMSIS/Include\cmsis_gcc.h ****   \brief   Reverse byte order (32 bit)
 446:C:\Workspaces\DAVE-4.1\Flightcontroller_PWM_CopterRocks_Working/Libraries/CMSIS/Include\cmsis_gcc.h ****   \details Reverses the byte order in integer value.
 447:C:\Workspaces\DAVE-4.1\Flightcontroller_PWM_CopterRocks_Working/Libraries/CMSIS/Include\cmsis_gcc.h ****   \param [in]    value  Value to reverse
 448:C:\Workspaces\DAVE-4.1\Flightcontroller_PWM_CopterRocks_Working/Libraries/CMSIS/Include\cmsis_gcc.h ****   \return               Reversed value
 449:C:\Workspaces\DAVE-4.1\Flightcontroller_PWM_CopterRocks_Working/Libraries/CMSIS/Include\cmsis_gcc.h ****  */
 450:C:\Workspaces\DAVE-4.1\Flightcontroller_PWM_CopterRocks_Working/Libraries/CMSIS/Include\cmsis_gcc.h **** __attribute__((always_inline)) __STATIC_INLINE uint32_t __REV(uint32_t value)
 451:C:\Workspaces\DAVE-4.1\Flightcontroller_PWM_CopterRocks_Working/Libraries/CMSIS/Include\cmsis_gcc.h **** {
 452:C:\Workspaces\DAVE-4.1\Flightcontroller_PWM_CopterRocks_Working/Libraries/CMSIS/Include\cmsis_gcc.h **** #if (__GNUC__ > 4) || (__GNUC__ == 4 && __GNUC_MINOR__ >= 5)
 453:C:\Workspaces\DAVE-4.1\Flightcontroller_PWM_CopterRocks_Working/Libraries/CMSIS/Include\cmsis_gcc.h ****   return __builtin_bswap32(value);
 454:C:\Workspaces\DAVE-4.1\Flightcontroller_PWM_CopterRocks_Working/Libraries/CMSIS/Include\cmsis_gcc.h **** #else
 455:C:\Workspaces\DAVE-4.1\Flightcontroller_PWM_CopterRocks_Working/Libraries/CMSIS/Include\cmsis_gcc.h ****   uint32_t result;
 456:C:\Workspaces\DAVE-4.1\Flightcontroller_PWM_CopterRocks_Working/Libraries/CMSIS/Include\cmsis_gcc.h **** 
 457:C:\Workspaces\DAVE-4.1\Flightcontroller_PWM_CopterRocks_Working/Libraries/CMSIS/Include\cmsis_gcc.h ****   __ASM volatile ("rev %0, %1" : __CMSIS_GCC_OUT_REG (result) : __CMSIS_GCC_USE_REG (value) );
 458:C:\Workspaces\DAVE-4.1\Flightcontroller_PWM_CopterRocks_Working/Libraries/CMSIS/Include\cmsis_gcc.h ****   return(result);
 459:C:\Workspaces\DAVE-4.1\Flightcontroller_PWM_CopterRocks_Working/Libraries/CMSIS/Include\cmsis_gcc.h **** #endif
 460:C:\Workspaces\DAVE-4.1\Flightcontroller_PWM_CopterRocks_Working/Libraries/CMSIS/Include\cmsis_gcc.h **** }
 461:C:\Workspaces\DAVE-4.1\Flightcontroller_PWM_CopterRocks_Working/Libraries/CMSIS/Include\cmsis_gcc.h **** 
 462:C:\Workspaces\DAVE-4.1\Flightcontroller_PWM_CopterRocks_Working/Libraries/CMSIS/Include\cmsis_gcc.h **** 
 463:C:\Workspaces\DAVE-4.1\Flightcontroller_PWM_CopterRocks_Working/Libraries/CMSIS/Include\cmsis_gcc.h **** /**
 464:C:\Workspaces\DAVE-4.1\Flightcontroller_PWM_CopterRocks_Working/Libraries/CMSIS/Include\cmsis_gcc.h ****   \brief   Reverse byte order (16 bit)
 465:C:\Workspaces\DAVE-4.1\Flightcontroller_PWM_CopterRocks_Working/Libraries/CMSIS/Include\cmsis_gcc.h ****   \details Reverses the byte order in two unsigned short values.
 466:C:\Workspaces\DAVE-4.1\Flightcontroller_PWM_CopterRocks_Working/Libraries/CMSIS/Include\cmsis_gcc.h ****   \param [in]    value  Value to reverse
 467:C:\Workspaces\DAVE-4.1\Flightcontroller_PWM_CopterRocks_Working/Libraries/CMSIS/Include\cmsis_gcc.h ****   \return               Reversed value
 468:C:\Workspaces\DAVE-4.1\Flightcontroller_PWM_CopterRocks_Working/Libraries/CMSIS/Include\cmsis_gcc.h ****  */
 469:C:\Workspaces\DAVE-4.1\Flightcontroller_PWM_CopterRocks_Working/Libraries/CMSIS/Include\cmsis_gcc.h **** __attribute__((always_inline)) __STATIC_INLINE uint32_t __REV16(uint32_t value)
 470:C:\Workspaces\DAVE-4.1\Flightcontroller_PWM_CopterRocks_Working/Libraries/CMSIS/Include\cmsis_gcc.h **** {
 471:C:\Workspaces\DAVE-4.1\Flightcontroller_PWM_CopterRocks_Working/Libraries/CMSIS/Include\cmsis_gcc.h ****   uint32_t result;
 472:C:\Workspaces\DAVE-4.1\Flightcontroller_PWM_CopterRocks_Working/Libraries/CMSIS/Include\cmsis_gcc.h **** 
 473:C:\Workspaces\DAVE-4.1\Flightcontroller_PWM_CopterRocks_Working/Libraries/CMSIS/Include\cmsis_gcc.h ****   __ASM volatile ("rev16 %0, %1" : __CMSIS_GCC_OUT_REG (result) : __CMSIS_GCC_USE_REG (value) );
 474:C:\Workspaces\DAVE-4.1\Flightcontroller_PWM_CopterRocks_Working/Libraries/CMSIS/Include\cmsis_gcc.h ****   return(result);
 475:C:\Workspaces\DAVE-4.1\Flightcontroller_PWM_CopterRocks_Working/Libraries/CMSIS/Include\cmsis_gcc.h **** }
 476:C:\Workspaces\DAVE-4.1\Flightcontroller_PWM_CopterRocks_Working/Libraries/CMSIS/Include\cmsis_gcc.h **** 
 477:C:\Workspaces\DAVE-4.1\Flightcontroller_PWM_CopterRocks_Working/Libraries/CMSIS/Include\cmsis_gcc.h **** 
 478:C:\Workspaces\DAVE-4.1\Flightcontroller_PWM_CopterRocks_Working/Libraries/CMSIS/Include\cmsis_gcc.h **** /**
 479:C:\Workspaces\DAVE-4.1\Flightcontroller_PWM_CopterRocks_Working/Libraries/CMSIS/Include\cmsis_gcc.h ****   \brief   Reverse byte order in signed short value
 480:C:\Workspaces\DAVE-4.1\Flightcontroller_PWM_CopterRocks_Working/Libraries/CMSIS/Include\cmsis_gcc.h ****   \details Reverses the byte order in a signed short value with sign extension to integer.
 481:C:\Workspaces\DAVE-4.1\Flightcontroller_PWM_CopterRocks_Working/Libraries/CMSIS/Include\cmsis_gcc.h ****   \param [in]    value  Value to reverse
 482:C:\Workspaces\DAVE-4.1\Flightcontroller_PWM_CopterRocks_Working/Libraries/CMSIS/Include\cmsis_gcc.h ****   \return               Reversed value
 483:C:\Workspaces\DAVE-4.1\Flightcontroller_PWM_CopterRocks_Working/Libraries/CMSIS/Include\cmsis_gcc.h ****  */
 484:C:\Workspaces\DAVE-4.1\Flightcontroller_PWM_CopterRocks_Working/Libraries/CMSIS/Include\cmsis_gcc.h **** __attribute__((always_inline)) __STATIC_INLINE int32_t __REVSH(int32_t value)
 485:C:\Workspaces\DAVE-4.1\Flightcontroller_PWM_CopterRocks_Working/Libraries/CMSIS/Include\cmsis_gcc.h **** {
 486:C:\Workspaces\DAVE-4.1\Flightcontroller_PWM_CopterRocks_Working/Libraries/CMSIS/Include\cmsis_gcc.h **** #if (__GNUC__ > 4) || (__GNUC__ == 4 && __GNUC_MINOR__ >= 8)
 487:C:\Workspaces\DAVE-4.1\Flightcontroller_PWM_CopterRocks_Working/Libraries/CMSIS/Include\cmsis_gcc.h ****   return (short)__builtin_bswap16(value);
 488:C:\Workspaces\DAVE-4.1\Flightcontroller_PWM_CopterRocks_Working/Libraries/CMSIS/Include\cmsis_gcc.h **** #else
 489:C:\Workspaces\DAVE-4.1\Flightcontroller_PWM_CopterRocks_Working/Libraries/CMSIS/Include\cmsis_gcc.h ****   int32_t result;
 490:C:\Workspaces\DAVE-4.1\Flightcontroller_PWM_CopterRocks_Working/Libraries/CMSIS/Include\cmsis_gcc.h **** 
 491:C:\Workspaces\DAVE-4.1\Flightcontroller_PWM_CopterRocks_Working/Libraries/CMSIS/Include\cmsis_gcc.h ****   __ASM volatile ("revsh %0, %1" : __CMSIS_GCC_OUT_REG (result) : __CMSIS_GCC_USE_REG (value) );
 492:C:\Workspaces\DAVE-4.1\Flightcontroller_PWM_CopterRocks_Working/Libraries/CMSIS/Include\cmsis_gcc.h ****   return(result);
 493:C:\Workspaces\DAVE-4.1\Flightcontroller_PWM_CopterRocks_Working/Libraries/CMSIS/Include\cmsis_gcc.h **** #endif
 494:C:\Workspaces\DAVE-4.1\Flightcontroller_PWM_CopterRocks_Working/Libraries/CMSIS/Include\cmsis_gcc.h **** }
 495:C:\Workspaces\DAVE-4.1\Flightcontroller_PWM_CopterRocks_Working/Libraries/CMSIS/Include\cmsis_gcc.h **** 
 496:C:\Workspaces\DAVE-4.1\Flightcontroller_PWM_CopterRocks_Working/Libraries/CMSIS/Include\cmsis_gcc.h **** 
 497:C:\Workspaces\DAVE-4.1\Flightcontroller_PWM_CopterRocks_Working/Libraries/CMSIS/Include\cmsis_gcc.h **** /**
 498:C:\Workspaces\DAVE-4.1\Flightcontroller_PWM_CopterRocks_Working/Libraries/CMSIS/Include\cmsis_gcc.h ****   \brief   Rotate Right in unsigned value (32 bit)
 499:C:\Workspaces\DAVE-4.1\Flightcontroller_PWM_CopterRocks_Working/Libraries/CMSIS/Include\cmsis_gcc.h ****   \details Rotate Right (immediate) provides the value of the contents of a register rotated by a v
 500:C:\Workspaces\DAVE-4.1\Flightcontroller_PWM_CopterRocks_Working/Libraries/CMSIS/Include\cmsis_gcc.h ****   \param [in]    value  Value to rotate
 501:C:\Workspaces\DAVE-4.1\Flightcontroller_PWM_CopterRocks_Working/Libraries/CMSIS/Include\cmsis_gcc.h ****   \param [in]    value  Number of Bits to rotate
 502:C:\Workspaces\DAVE-4.1\Flightcontroller_PWM_CopterRocks_Working/Libraries/CMSIS/Include\cmsis_gcc.h ****   \return               Rotated value
 503:C:\Workspaces\DAVE-4.1\Flightcontroller_PWM_CopterRocks_Working/Libraries/CMSIS/Include\cmsis_gcc.h ****  */
 504:C:\Workspaces\DAVE-4.1\Flightcontroller_PWM_CopterRocks_Working/Libraries/CMSIS/Include\cmsis_gcc.h **** __attribute__((always_inline)) __STATIC_INLINE uint32_t __ROR(uint32_t op1, uint32_t op2)
 505:C:\Workspaces\DAVE-4.1\Flightcontroller_PWM_CopterRocks_Working/Libraries/CMSIS/Include\cmsis_gcc.h **** {
 506:C:\Workspaces\DAVE-4.1\Flightcontroller_PWM_CopterRocks_Working/Libraries/CMSIS/Include\cmsis_gcc.h ****   return (op1 >> op2) | (op1 << (32U - op2));
 507:C:\Workspaces\DAVE-4.1\Flightcontroller_PWM_CopterRocks_Working/Libraries/CMSIS/Include\cmsis_gcc.h **** }
 508:C:\Workspaces\DAVE-4.1\Flightcontroller_PWM_CopterRocks_Working/Libraries/CMSIS/Include\cmsis_gcc.h **** 
 509:C:\Workspaces\DAVE-4.1\Flightcontroller_PWM_CopterRocks_Working/Libraries/CMSIS/Include\cmsis_gcc.h **** 
 510:C:\Workspaces\DAVE-4.1\Flightcontroller_PWM_CopterRocks_Working/Libraries/CMSIS/Include\cmsis_gcc.h **** /**
 511:C:\Workspaces\DAVE-4.1\Flightcontroller_PWM_CopterRocks_Working/Libraries/CMSIS/Include\cmsis_gcc.h ****   \brief   Breakpoint
 512:C:\Workspaces\DAVE-4.1\Flightcontroller_PWM_CopterRocks_Working/Libraries/CMSIS/Include\cmsis_gcc.h ****   \details Causes the processor to enter Debug state.
 513:C:\Workspaces\DAVE-4.1\Flightcontroller_PWM_CopterRocks_Working/Libraries/CMSIS/Include\cmsis_gcc.h ****            Debug tools can use this to investigate system state when the instruction at a particula
 514:C:\Workspaces\DAVE-4.1\Flightcontroller_PWM_CopterRocks_Working/Libraries/CMSIS/Include\cmsis_gcc.h ****   \param [in]    value  is ignored by the processor.
 515:C:\Workspaces\DAVE-4.1\Flightcontroller_PWM_CopterRocks_Working/Libraries/CMSIS/Include\cmsis_gcc.h ****                  If required, a debugger can use it to store additional information about the break
 516:C:\Workspaces\DAVE-4.1\Flightcontroller_PWM_CopterRocks_Working/Libraries/CMSIS/Include\cmsis_gcc.h ****  */
 517:C:\Workspaces\DAVE-4.1\Flightcontroller_PWM_CopterRocks_Working/Libraries/CMSIS/Include\cmsis_gcc.h **** #define __BKPT(value)                       __ASM volatile ("bkpt "#value)
 518:C:\Workspaces\DAVE-4.1\Flightcontroller_PWM_CopterRocks_Working/Libraries/CMSIS/Include\cmsis_gcc.h **** 
 519:C:\Workspaces\DAVE-4.1\Flightcontroller_PWM_CopterRocks_Working/Libraries/CMSIS/Include\cmsis_gcc.h **** 
 520:C:\Workspaces\DAVE-4.1\Flightcontroller_PWM_CopterRocks_Working/Libraries/CMSIS/Include\cmsis_gcc.h **** /**
 521:C:\Workspaces\DAVE-4.1\Flightcontroller_PWM_CopterRocks_Working/Libraries/CMSIS/Include\cmsis_gcc.h ****   \brief   Reverse bit order of value
 522:C:\Workspaces\DAVE-4.1\Flightcontroller_PWM_CopterRocks_Working/Libraries/CMSIS/Include\cmsis_gcc.h ****   \details Reverses the bit order of the given value.
 523:C:\Workspaces\DAVE-4.1\Flightcontroller_PWM_CopterRocks_Working/Libraries/CMSIS/Include\cmsis_gcc.h ****   \param [in]    value  Value to reverse
 524:C:\Workspaces\DAVE-4.1\Flightcontroller_PWM_CopterRocks_Working/Libraries/CMSIS/Include\cmsis_gcc.h ****   \return               Reversed value
 525:C:\Workspaces\DAVE-4.1\Flightcontroller_PWM_CopterRocks_Working/Libraries/CMSIS/Include\cmsis_gcc.h ****  */
 526:C:\Workspaces\DAVE-4.1\Flightcontroller_PWM_CopterRocks_Working/Libraries/CMSIS/Include\cmsis_gcc.h **** __attribute__((always_inline)) __STATIC_INLINE uint32_t __RBIT(uint32_t value)
 527:C:\Workspaces\DAVE-4.1\Flightcontroller_PWM_CopterRocks_Working/Libraries/CMSIS/Include\cmsis_gcc.h **** {
 528:C:\Workspaces\DAVE-4.1\Flightcontroller_PWM_CopterRocks_Working/Libraries/CMSIS/Include\cmsis_gcc.h ****   uint32_t result;
 529:C:\Workspaces\DAVE-4.1\Flightcontroller_PWM_CopterRocks_Working/Libraries/CMSIS/Include\cmsis_gcc.h **** 
 530:C:\Workspaces\DAVE-4.1\Flightcontroller_PWM_CopterRocks_Working/Libraries/CMSIS/Include\cmsis_gcc.h **** #if       (__CORTEX_M >= 0x03U) || (__CORTEX_SC >= 300U)
 531:C:\Workspaces\DAVE-4.1\Flightcontroller_PWM_CopterRocks_Working/Libraries/CMSIS/Include\cmsis_gcc.h ****    __ASM volatile ("rbit %0, %1" : "=r" (result) : "r" (value) );
 532:C:\Workspaces\DAVE-4.1\Flightcontroller_PWM_CopterRocks_Working/Libraries/CMSIS/Include\cmsis_gcc.h **** #else
 533:C:\Workspaces\DAVE-4.1\Flightcontroller_PWM_CopterRocks_Working/Libraries/CMSIS/Include\cmsis_gcc.h ****   int32_t s = 4 /*sizeof(v)*/ * 8 - 1; /* extra shift needed at end */
 534:C:\Workspaces\DAVE-4.1\Flightcontroller_PWM_CopterRocks_Working/Libraries/CMSIS/Include\cmsis_gcc.h **** 
 535:C:\Workspaces\DAVE-4.1\Flightcontroller_PWM_CopterRocks_Working/Libraries/CMSIS/Include\cmsis_gcc.h ****   result = value;                      /* r will be reversed bits of v; first get LSB of v */
 536:C:\Workspaces\DAVE-4.1\Flightcontroller_PWM_CopterRocks_Working/Libraries/CMSIS/Include\cmsis_gcc.h ****   for (value >>= 1U; value; value >>= 1U)
 537:C:\Workspaces\DAVE-4.1\Flightcontroller_PWM_CopterRocks_Working/Libraries/CMSIS/Include\cmsis_gcc.h ****   {
 538:C:\Workspaces\DAVE-4.1\Flightcontroller_PWM_CopterRocks_Working/Libraries/CMSIS/Include\cmsis_gcc.h ****     result <<= 1U;
 539:C:\Workspaces\DAVE-4.1\Flightcontroller_PWM_CopterRocks_Working/Libraries/CMSIS/Include\cmsis_gcc.h ****     result |= value & 1U;
 540:C:\Workspaces\DAVE-4.1\Flightcontroller_PWM_CopterRocks_Working/Libraries/CMSIS/Include\cmsis_gcc.h ****     s--;
 541:C:\Workspaces\DAVE-4.1\Flightcontroller_PWM_CopterRocks_Working/Libraries/CMSIS/Include\cmsis_gcc.h ****   }
 542:C:\Workspaces\DAVE-4.1\Flightcontroller_PWM_CopterRocks_Working/Libraries/CMSIS/Include\cmsis_gcc.h ****   result <<= s;                        /* shift when v's highest bits are zero */
 543:C:\Workspaces\DAVE-4.1\Flightcontroller_PWM_CopterRocks_Working/Libraries/CMSIS/Include\cmsis_gcc.h **** #endif
 544:C:\Workspaces\DAVE-4.1\Flightcontroller_PWM_CopterRocks_Working/Libraries/CMSIS/Include\cmsis_gcc.h ****   return(result);
 545:C:\Workspaces\DAVE-4.1\Flightcontroller_PWM_CopterRocks_Working/Libraries/CMSIS/Include\cmsis_gcc.h **** }
 546:C:\Workspaces\DAVE-4.1\Flightcontroller_PWM_CopterRocks_Working/Libraries/CMSIS/Include\cmsis_gcc.h **** 
 547:C:\Workspaces\DAVE-4.1\Flightcontroller_PWM_CopterRocks_Working/Libraries/CMSIS/Include\cmsis_gcc.h **** 
 548:C:\Workspaces\DAVE-4.1\Flightcontroller_PWM_CopterRocks_Working/Libraries/CMSIS/Include\cmsis_gcc.h **** /**
 549:C:\Workspaces\DAVE-4.1\Flightcontroller_PWM_CopterRocks_Working/Libraries/CMSIS/Include\cmsis_gcc.h ****   \brief   Count leading zeros
 550:C:\Workspaces\DAVE-4.1\Flightcontroller_PWM_CopterRocks_Working/Libraries/CMSIS/Include\cmsis_gcc.h ****   \details Counts the number of leading zeros of a data value.
 551:C:\Workspaces\DAVE-4.1\Flightcontroller_PWM_CopterRocks_Working/Libraries/CMSIS/Include\cmsis_gcc.h ****   \param [in]  value  Value to count the leading zeros
 552:C:\Workspaces\DAVE-4.1\Flightcontroller_PWM_CopterRocks_Working/Libraries/CMSIS/Include\cmsis_gcc.h ****   \return             number of leading zeros in value
 553:C:\Workspaces\DAVE-4.1\Flightcontroller_PWM_CopterRocks_Working/Libraries/CMSIS/Include\cmsis_gcc.h ****  */
 554:C:\Workspaces\DAVE-4.1\Flightcontroller_PWM_CopterRocks_Working/Libraries/CMSIS/Include\cmsis_gcc.h **** #define __CLZ             __builtin_clz
 555:C:\Workspaces\DAVE-4.1\Flightcontroller_PWM_CopterRocks_Working/Libraries/CMSIS/Include\cmsis_gcc.h **** 
 556:C:\Workspaces\DAVE-4.1\Flightcontroller_PWM_CopterRocks_Working/Libraries/CMSIS/Include\cmsis_gcc.h **** 
 557:C:\Workspaces\DAVE-4.1\Flightcontroller_PWM_CopterRocks_Working/Libraries/CMSIS/Include\cmsis_gcc.h **** #if       (__CORTEX_M >= 0x03U) || (__CORTEX_SC >= 300U)
 558:C:\Workspaces\DAVE-4.1\Flightcontroller_PWM_CopterRocks_Working/Libraries/CMSIS/Include\cmsis_gcc.h **** 
 559:C:\Workspaces\DAVE-4.1\Flightcontroller_PWM_CopterRocks_Working/Libraries/CMSIS/Include\cmsis_gcc.h **** /**
 560:C:\Workspaces\DAVE-4.1\Flightcontroller_PWM_CopterRocks_Working/Libraries/CMSIS/Include\cmsis_gcc.h ****   \brief   LDR Exclusive (8 bit)
 561:C:\Workspaces\DAVE-4.1\Flightcontroller_PWM_CopterRocks_Working/Libraries/CMSIS/Include\cmsis_gcc.h ****   \details Executes a exclusive LDR instruction for 8 bit value.
 562:C:\Workspaces\DAVE-4.1\Flightcontroller_PWM_CopterRocks_Working/Libraries/CMSIS/Include\cmsis_gcc.h ****   \param [in]    ptr  Pointer to data
 563:C:\Workspaces\DAVE-4.1\Flightcontroller_PWM_CopterRocks_Working/Libraries/CMSIS/Include\cmsis_gcc.h ****   \return             value of type uint8_t at (*ptr)
 564:C:\Workspaces\DAVE-4.1\Flightcontroller_PWM_CopterRocks_Working/Libraries/CMSIS/Include\cmsis_gcc.h ****  */
 565:C:\Workspaces\DAVE-4.1\Flightcontroller_PWM_CopterRocks_Working/Libraries/CMSIS/Include\cmsis_gcc.h **** __attribute__((always_inline)) __STATIC_INLINE uint8_t __LDREXB(volatile uint8_t *addr)
 566:C:\Workspaces\DAVE-4.1\Flightcontroller_PWM_CopterRocks_Working/Libraries/CMSIS/Include\cmsis_gcc.h **** {
 567:C:\Workspaces\DAVE-4.1\Flightcontroller_PWM_CopterRocks_Working/Libraries/CMSIS/Include\cmsis_gcc.h ****     uint32_t result;
 568:C:\Workspaces\DAVE-4.1\Flightcontroller_PWM_CopterRocks_Working/Libraries/CMSIS/Include\cmsis_gcc.h **** 
 569:C:\Workspaces\DAVE-4.1\Flightcontroller_PWM_CopterRocks_Working/Libraries/CMSIS/Include\cmsis_gcc.h **** #if (__GNUC__ > 4) || (__GNUC__ == 4 && __GNUC_MINOR__ >= 8)
 570:C:\Workspaces\DAVE-4.1\Flightcontroller_PWM_CopterRocks_Working/Libraries/CMSIS/Include\cmsis_gcc.h ****    __ASM volatile ("ldrexb %0, %1" : "=r" (result) : "Q" (*addr) );
 571:C:\Workspaces\DAVE-4.1\Flightcontroller_PWM_CopterRocks_Working/Libraries/CMSIS/Include\cmsis_gcc.h **** #else
 572:C:\Workspaces\DAVE-4.1\Flightcontroller_PWM_CopterRocks_Working/Libraries/CMSIS/Include\cmsis_gcc.h ****     /* Prior to GCC 4.8, "Q" will be expanded to [rx, #0] which is not
 573:C:\Workspaces\DAVE-4.1\Flightcontroller_PWM_CopterRocks_Working/Libraries/CMSIS/Include\cmsis_gcc.h ****        accepted by assembler. So has to use following less efficient pattern.
 574:C:\Workspaces\DAVE-4.1\Flightcontroller_PWM_CopterRocks_Working/Libraries/CMSIS/Include\cmsis_gcc.h ****     */
 575:C:\Workspaces\DAVE-4.1\Flightcontroller_PWM_CopterRocks_Working/Libraries/CMSIS/Include\cmsis_gcc.h ****    __ASM volatile ("ldrexb %0, [%1]" : "=r" (result) : "r" (addr) : "memory" );
 576:C:\Workspaces\DAVE-4.1\Flightcontroller_PWM_CopterRocks_Working/Libraries/CMSIS/Include\cmsis_gcc.h **** #endif
 577:C:\Workspaces\DAVE-4.1\Flightcontroller_PWM_CopterRocks_Working/Libraries/CMSIS/Include\cmsis_gcc.h ****    return ((uint8_t) result);    /* Add explicit type cast here */
 578:C:\Workspaces\DAVE-4.1\Flightcontroller_PWM_CopterRocks_Working/Libraries/CMSIS/Include\cmsis_gcc.h **** }
 579:C:\Workspaces\DAVE-4.1\Flightcontroller_PWM_CopterRocks_Working/Libraries/CMSIS/Include\cmsis_gcc.h **** 
 580:C:\Workspaces\DAVE-4.1\Flightcontroller_PWM_CopterRocks_Working/Libraries/CMSIS/Include\cmsis_gcc.h **** 
 581:C:\Workspaces\DAVE-4.1\Flightcontroller_PWM_CopterRocks_Working/Libraries/CMSIS/Include\cmsis_gcc.h **** /**
 582:C:\Workspaces\DAVE-4.1\Flightcontroller_PWM_CopterRocks_Working/Libraries/CMSIS/Include\cmsis_gcc.h ****   \brief   LDR Exclusive (16 bit)
 583:C:\Workspaces\DAVE-4.1\Flightcontroller_PWM_CopterRocks_Working/Libraries/CMSIS/Include\cmsis_gcc.h ****   \details Executes a exclusive LDR instruction for 16 bit values.
 584:C:\Workspaces\DAVE-4.1\Flightcontroller_PWM_CopterRocks_Working/Libraries/CMSIS/Include\cmsis_gcc.h ****   \param [in]    ptr  Pointer to data
 585:C:\Workspaces\DAVE-4.1\Flightcontroller_PWM_CopterRocks_Working/Libraries/CMSIS/Include\cmsis_gcc.h ****   \return        value of type uint16_t at (*ptr)
 586:C:\Workspaces\DAVE-4.1\Flightcontroller_PWM_CopterRocks_Working/Libraries/CMSIS/Include\cmsis_gcc.h ****  */
 587:C:\Workspaces\DAVE-4.1\Flightcontroller_PWM_CopterRocks_Working/Libraries/CMSIS/Include\cmsis_gcc.h **** __attribute__((always_inline)) __STATIC_INLINE uint16_t __LDREXH(volatile uint16_t *addr)
 588:C:\Workspaces\DAVE-4.1\Flightcontroller_PWM_CopterRocks_Working/Libraries/CMSIS/Include\cmsis_gcc.h **** {
 589:C:\Workspaces\DAVE-4.1\Flightcontroller_PWM_CopterRocks_Working/Libraries/CMSIS/Include\cmsis_gcc.h ****     uint32_t result;
 590:C:\Workspaces\DAVE-4.1\Flightcontroller_PWM_CopterRocks_Working/Libraries/CMSIS/Include\cmsis_gcc.h **** 
 591:C:\Workspaces\DAVE-4.1\Flightcontroller_PWM_CopterRocks_Working/Libraries/CMSIS/Include\cmsis_gcc.h **** #if (__GNUC__ > 4) || (__GNUC__ == 4 && __GNUC_MINOR__ >= 8)
 592:C:\Workspaces\DAVE-4.1\Flightcontroller_PWM_CopterRocks_Working/Libraries/CMSIS/Include\cmsis_gcc.h ****    __ASM volatile ("ldrexh %0, %1" : "=r" (result) : "Q" (*addr) );
 593:C:\Workspaces\DAVE-4.1\Flightcontroller_PWM_CopterRocks_Working/Libraries/CMSIS/Include\cmsis_gcc.h **** #else
 594:C:\Workspaces\DAVE-4.1\Flightcontroller_PWM_CopterRocks_Working/Libraries/CMSIS/Include\cmsis_gcc.h ****     /* Prior to GCC 4.8, "Q" will be expanded to [rx, #0] which is not
 595:C:\Workspaces\DAVE-4.1\Flightcontroller_PWM_CopterRocks_Working/Libraries/CMSIS/Include\cmsis_gcc.h ****        accepted by assembler. So has to use following less efficient pattern.
 596:C:\Workspaces\DAVE-4.1\Flightcontroller_PWM_CopterRocks_Working/Libraries/CMSIS/Include\cmsis_gcc.h ****     */
 597:C:\Workspaces\DAVE-4.1\Flightcontroller_PWM_CopterRocks_Working/Libraries/CMSIS/Include\cmsis_gcc.h ****    __ASM volatile ("ldrexh %0, [%1]" : "=r" (result) : "r" (addr) : "memory" );
 598:C:\Workspaces\DAVE-4.1\Flightcontroller_PWM_CopterRocks_Working/Libraries/CMSIS/Include\cmsis_gcc.h **** #endif
 599:C:\Workspaces\DAVE-4.1\Flightcontroller_PWM_CopterRocks_Working/Libraries/CMSIS/Include\cmsis_gcc.h ****    return ((uint16_t) result);    /* Add explicit type cast here */
 600:C:\Workspaces\DAVE-4.1\Flightcontroller_PWM_CopterRocks_Working/Libraries/CMSIS/Include\cmsis_gcc.h **** }
 601:C:\Workspaces\DAVE-4.1\Flightcontroller_PWM_CopterRocks_Working/Libraries/CMSIS/Include\cmsis_gcc.h **** 
 602:C:\Workspaces\DAVE-4.1\Flightcontroller_PWM_CopterRocks_Working/Libraries/CMSIS/Include\cmsis_gcc.h **** 
 603:C:\Workspaces\DAVE-4.1\Flightcontroller_PWM_CopterRocks_Working/Libraries/CMSIS/Include\cmsis_gcc.h **** /**
 604:C:\Workspaces\DAVE-4.1\Flightcontroller_PWM_CopterRocks_Working/Libraries/CMSIS/Include\cmsis_gcc.h ****   \brief   LDR Exclusive (32 bit)
 605:C:\Workspaces\DAVE-4.1\Flightcontroller_PWM_CopterRocks_Working/Libraries/CMSIS/Include\cmsis_gcc.h ****   \details Executes a exclusive LDR instruction for 32 bit values.
 606:C:\Workspaces\DAVE-4.1\Flightcontroller_PWM_CopterRocks_Working/Libraries/CMSIS/Include\cmsis_gcc.h ****   \param [in]    ptr  Pointer to data
 607:C:\Workspaces\DAVE-4.1\Flightcontroller_PWM_CopterRocks_Working/Libraries/CMSIS/Include\cmsis_gcc.h ****   \return        value of type uint32_t at (*ptr)
 608:C:\Workspaces\DAVE-4.1\Flightcontroller_PWM_CopterRocks_Working/Libraries/CMSIS/Include\cmsis_gcc.h ****  */
 609:C:\Workspaces\DAVE-4.1\Flightcontroller_PWM_CopterRocks_Working/Libraries/CMSIS/Include\cmsis_gcc.h **** __attribute__((always_inline)) __STATIC_INLINE uint32_t __LDREXW(volatile uint32_t *addr)
 610:C:\Workspaces\DAVE-4.1\Flightcontroller_PWM_CopterRocks_Working/Libraries/CMSIS/Include\cmsis_gcc.h **** {
 611:C:\Workspaces\DAVE-4.1\Flightcontroller_PWM_CopterRocks_Working/Libraries/CMSIS/Include\cmsis_gcc.h ****     uint32_t result;
 612:C:\Workspaces\DAVE-4.1\Flightcontroller_PWM_CopterRocks_Working/Libraries/CMSIS/Include\cmsis_gcc.h **** 
 613:C:\Workspaces\DAVE-4.1\Flightcontroller_PWM_CopterRocks_Working/Libraries/CMSIS/Include\cmsis_gcc.h ****    __ASM volatile ("ldrex %0, %1" : "=r" (result) : "Q" (*addr) );
 614:C:\Workspaces\DAVE-4.1\Flightcontroller_PWM_CopterRocks_Working/Libraries/CMSIS/Include\cmsis_gcc.h ****    return(result);
 615:C:\Workspaces\DAVE-4.1\Flightcontroller_PWM_CopterRocks_Working/Libraries/CMSIS/Include\cmsis_gcc.h **** }
 616:C:\Workspaces\DAVE-4.1\Flightcontroller_PWM_CopterRocks_Working/Libraries/CMSIS/Include\cmsis_gcc.h **** 
 617:C:\Workspaces\DAVE-4.1\Flightcontroller_PWM_CopterRocks_Working/Libraries/CMSIS/Include\cmsis_gcc.h **** 
 618:C:\Workspaces\DAVE-4.1\Flightcontroller_PWM_CopterRocks_Working/Libraries/CMSIS/Include\cmsis_gcc.h **** /**
 619:C:\Workspaces\DAVE-4.1\Flightcontroller_PWM_CopterRocks_Working/Libraries/CMSIS/Include\cmsis_gcc.h ****   \brief   STR Exclusive (8 bit)
 620:C:\Workspaces\DAVE-4.1\Flightcontroller_PWM_CopterRocks_Working/Libraries/CMSIS/Include\cmsis_gcc.h ****   \details Executes a exclusive STR instruction for 8 bit values.
 621:C:\Workspaces\DAVE-4.1\Flightcontroller_PWM_CopterRocks_Working/Libraries/CMSIS/Include\cmsis_gcc.h ****   \param [in]  value  Value to store
 622:C:\Workspaces\DAVE-4.1\Flightcontroller_PWM_CopterRocks_Working/Libraries/CMSIS/Include\cmsis_gcc.h ****   \param [in]    ptr  Pointer to location
 623:C:\Workspaces\DAVE-4.1\Flightcontroller_PWM_CopterRocks_Working/Libraries/CMSIS/Include\cmsis_gcc.h ****   \return          0  Function succeeded
 624:C:\Workspaces\DAVE-4.1\Flightcontroller_PWM_CopterRocks_Working/Libraries/CMSIS/Include\cmsis_gcc.h ****   \return          1  Function failed
 625:C:\Workspaces\DAVE-4.1\Flightcontroller_PWM_CopterRocks_Working/Libraries/CMSIS/Include\cmsis_gcc.h ****  */
 626:C:\Workspaces\DAVE-4.1\Flightcontroller_PWM_CopterRocks_Working/Libraries/CMSIS/Include\cmsis_gcc.h **** __attribute__((always_inline)) __STATIC_INLINE uint32_t __STREXB(uint8_t value, volatile uint8_t *a
 627:C:\Workspaces\DAVE-4.1\Flightcontroller_PWM_CopterRocks_Working/Libraries/CMSIS/Include\cmsis_gcc.h **** {
 628:C:\Workspaces\DAVE-4.1\Flightcontroller_PWM_CopterRocks_Working/Libraries/CMSIS/Include\cmsis_gcc.h ****    uint32_t result;
 629:C:\Workspaces\DAVE-4.1\Flightcontroller_PWM_CopterRocks_Working/Libraries/CMSIS/Include\cmsis_gcc.h **** 
 630:C:\Workspaces\DAVE-4.1\Flightcontroller_PWM_CopterRocks_Working/Libraries/CMSIS/Include\cmsis_gcc.h ****    __ASM volatile ("strexb %0, %2, %1" : "=&r" (result), "=Q" (*addr) : "r" ((uint32_t)value) );
 631:C:\Workspaces\DAVE-4.1\Flightcontroller_PWM_CopterRocks_Working/Libraries/CMSIS/Include\cmsis_gcc.h ****    return(result);
 632:C:\Workspaces\DAVE-4.1\Flightcontroller_PWM_CopterRocks_Working/Libraries/CMSIS/Include\cmsis_gcc.h **** }
 633:C:\Workspaces\DAVE-4.1\Flightcontroller_PWM_CopterRocks_Working/Libraries/CMSIS/Include\cmsis_gcc.h **** 
 634:C:\Workspaces\DAVE-4.1\Flightcontroller_PWM_CopterRocks_Working/Libraries/CMSIS/Include\cmsis_gcc.h **** 
 635:C:\Workspaces\DAVE-4.1\Flightcontroller_PWM_CopterRocks_Working/Libraries/CMSIS/Include\cmsis_gcc.h **** /**
 636:C:\Workspaces\DAVE-4.1\Flightcontroller_PWM_CopterRocks_Working/Libraries/CMSIS/Include\cmsis_gcc.h ****   \brief   STR Exclusive (16 bit)
 637:C:\Workspaces\DAVE-4.1\Flightcontroller_PWM_CopterRocks_Working/Libraries/CMSIS/Include\cmsis_gcc.h ****   \details Executes a exclusive STR instruction for 16 bit values.
 638:C:\Workspaces\DAVE-4.1\Flightcontroller_PWM_CopterRocks_Working/Libraries/CMSIS/Include\cmsis_gcc.h ****   \param [in]  value  Value to store
 639:C:\Workspaces\DAVE-4.1\Flightcontroller_PWM_CopterRocks_Working/Libraries/CMSIS/Include\cmsis_gcc.h ****   \param [in]    ptr  Pointer to location
 640:C:\Workspaces\DAVE-4.1\Flightcontroller_PWM_CopterRocks_Working/Libraries/CMSIS/Include\cmsis_gcc.h ****   \return          0  Function succeeded
 641:C:\Workspaces\DAVE-4.1\Flightcontroller_PWM_CopterRocks_Working/Libraries/CMSIS/Include\cmsis_gcc.h ****   \return          1  Function failed
 642:C:\Workspaces\DAVE-4.1\Flightcontroller_PWM_CopterRocks_Working/Libraries/CMSIS/Include\cmsis_gcc.h ****  */
 643:C:\Workspaces\DAVE-4.1\Flightcontroller_PWM_CopterRocks_Working/Libraries/CMSIS/Include\cmsis_gcc.h **** __attribute__((always_inline)) __STATIC_INLINE uint32_t __STREXH(uint16_t value, volatile uint16_t 
 644:C:\Workspaces\DAVE-4.1\Flightcontroller_PWM_CopterRocks_Working/Libraries/CMSIS/Include\cmsis_gcc.h **** {
 645:C:\Workspaces\DAVE-4.1\Flightcontroller_PWM_CopterRocks_Working/Libraries/CMSIS/Include\cmsis_gcc.h ****    uint32_t result;
 646:C:\Workspaces\DAVE-4.1\Flightcontroller_PWM_CopterRocks_Working/Libraries/CMSIS/Include\cmsis_gcc.h **** 
 647:C:\Workspaces\DAVE-4.1\Flightcontroller_PWM_CopterRocks_Working/Libraries/CMSIS/Include\cmsis_gcc.h ****    __ASM volatile ("strexh %0, %2, %1" : "=&r" (result), "=Q" (*addr) : "r" ((uint32_t)value) );
 648:C:\Workspaces\DAVE-4.1\Flightcontroller_PWM_CopterRocks_Working/Libraries/CMSIS/Include\cmsis_gcc.h ****    return(result);
 649:C:\Workspaces\DAVE-4.1\Flightcontroller_PWM_CopterRocks_Working/Libraries/CMSIS/Include\cmsis_gcc.h **** }
 650:C:\Workspaces\DAVE-4.1\Flightcontroller_PWM_CopterRocks_Working/Libraries/CMSIS/Include\cmsis_gcc.h **** 
 651:C:\Workspaces\DAVE-4.1\Flightcontroller_PWM_CopterRocks_Working/Libraries/CMSIS/Include\cmsis_gcc.h **** 
 652:C:\Workspaces\DAVE-4.1\Flightcontroller_PWM_CopterRocks_Working/Libraries/CMSIS/Include\cmsis_gcc.h **** /**
 653:C:\Workspaces\DAVE-4.1\Flightcontroller_PWM_CopterRocks_Working/Libraries/CMSIS/Include\cmsis_gcc.h ****   \brief   STR Exclusive (32 bit)
 654:C:\Workspaces\DAVE-4.1\Flightcontroller_PWM_CopterRocks_Working/Libraries/CMSIS/Include\cmsis_gcc.h ****   \details Executes a exclusive STR instruction for 32 bit values.
 655:C:\Workspaces\DAVE-4.1\Flightcontroller_PWM_CopterRocks_Working/Libraries/CMSIS/Include\cmsis_gcc.h ****   \param [in]  value  Value to store
 656:C:\Workspaces\DAVE-4.1\Flightcontroller_PWM_CopterRocks_Working/Libraries/CMSIS/Include\cmsis_gcc.h ****   \param [in]    ptr  Pointer to location
 657:C:\Workspaces\DAVE-4.1\Flightcontroller_PWM_CopterRocks_Working/Libraries/CMSIS/Include\cmsis_gcc.h ****   \return          0  Function succeeded
 658:C:\Workspaces\DAVE-4.1\Flightcontroller_PWM_CopterRocks_Working/Libraries/CMSIS/Include\cmsis_gcc.h ****   \return          1  Function failed
 659:C:\Workspaces\DAVE-4.1\Flightcontroller_PWM_CopterRocks_Working/Libraries/CMSIS/Include\cmsis_gcc.h ****  */
 660:C:\Workspaces\DAVE-4.1\Flightcontroller_PWM_CopterRocks_Working/Libraries/CMSIS/Include\cmsis_gcc.h **** __attribute__((always_inline)) __STATIC_INLINE uint32_t __STREXW(uint32_t value, volatile uint32_t 
 661:C:\Workspaces\DAVE-4.1\Flightcontroller_PWM_CopterRocks_Working/Libraries/CMSIS/Include\cmsis_gcc.h **** {
 662:C:\Workspaces\DAVE-4.1\Flightcontroller_PWM_CopterRocks_Working/Libraries/CMSIS/Include\cmsis_gcc.h ****    uint32_t result;
 663:C:\Workspaces\DAVE-4.1\Flightcontroller_PWM_CopterRocks_Working/Libraries/CMSIS/Include\cmsis_gcc.h **** 
 664:C:\Workspaces\DAVE-4.1\Flightcontroller_PWM_CopterRocks_Working/Libraries/CMSIS/Include\cmsis_gcc.h ****    __ASM volatile ("strex %0, %2, %1" : "=&r" (result), "=Q" (*addr) : "r" (value) );
 665:C:\Workspaces\DAVE-4.1\Flightcontroller_PWM_CopterRocks_Working/Libraries/CMSIS/Include\cmsis_gcc.h ****    return(result);
 666:C:\Workspaces\DAVE-4.1\Flightcontroller_PWM_CopterRocks_Working/Libraries/CMSIS/Include\cmsis_gcc.h **** }
 667:C:\Workspaces\DAVE-4.1\Flightcontroller_PWM_CopterRocks_Working/Libraries/CMSIS/Include\cmsis_gcc.h **** 
 668:C:\Workspaces\DAVE-4.1\Flightcontroller_PWM_CopterRocks_Working/Libraries/CMSIS/Include\cmsis_gcc.h **** 
 669:C:\Workspaces\DAVE-4.1\Flightcontroller_PWM_CopterRocks_Working/Libraries/CMSIS/Include\cmsis_gcc.h **** /**
 670:C:\Workspaces\DAVE-4.1\Flightcontroller_PWM_CopterRocks_Working/Libraries/CMSIS/Include\cmsis_gcc.h ****   \brief   Remove the exclusive lock
 671:C:\Workspaces\DAVE-4.1\Flightcontroller_PWM_CopterRocks_Working/Libraries/CMSIS/Include\cmsis_gcc.h ****   \details Removes the exclusive lock which is created by LDREX.
 672:C:\Workspaces\DAVE-4.1\Flightcontroller_PWM_CopterRocks_Working/Libraries/CMSIS/Include\cmsis_gcc.h ****  */
 673:C:\Workspaces\DAVE-4.1\Flightcontroller_PWM_CopterRocks_Working/Libraries/CMSIS/Include\cmsis_gcc.h **** __attribute__((always_inline)) __STATIC_INLINE void __CLREX(void)
 674:C:\Workspaces\DAVE-4.1\Flightcontroller_PWM_CopterRocks_Working/Libraries/CMSIS/Include\cmsis_gcc.h **** {
 675:C:\Workspaces\DAVE-4.1\Flightcontroller_PWM_CopterRocks_Working/Libraries/CMSIS/Include\cmsis_gcc.h ****   __ASM volatile ("clrex" ::: "memory");
 676:C:\Workspaces\DAVE-4.1\Flightcontroller_PWM_CopterRocks_Working/Libraries/CMSIS/Include\cmsis_gcc.h **** }
 677:C:\Workspaces\DAVE-4.1\Flightcontroller_PWM_CopterRocks_Working/Libraries/CMSIS/Include\cmsis_gcc.h **** 
 678:C:\Workspaces\DAVE-4.1\Flightcontroller_PWM_CopterRocks_Working/Libraries/CMSIS/Include\cmsis_gcc.h **** 
 679:C:\Workspaces\DAVE-4.1\Flightcontroller_PWM_CopterRocks_Working/Libraries/CMSIS/Include\cmsis_gcc.h **** /**
 680:C:\Workspaces\DAVE-4.1\Flightcontroller_PWM_CopterRocks_Working/Libraries/CMSIS/Include\cmsis_gcc.h ****   \brief   Signed Saturate
 681:C:\Workspaces\DAVE-4.1\Flightcontroller_PWM_CopterRocks_Working/Libraries/CMSIS/Include\cmsis_gcc.h ****   \details Saturates a signed value.
 682:C:\Workspaces\DAVE-4.1\Flightcontroller_PWM_CopterRocks_Working/Libraries/CMSIS/Include\cmsis_gcc.h ****   \param [in]  value  Value to be saturated
 683:C:\Workspaces\DAVE-4.1\Flightcontroller_PWM_CopterRocks_Working/Libraries/CMSIS/Include\cmsis_gcc.h ****   \param [in]    sat  Bit position to saturate to (1..32)
 684:C:\Workspaces\DAVE-4.1\Flightcontroller_PWM_CopterRocks_Working/Libraries/CMSIS/Include\cmsis_gcc.h ****   \return             Saturated value
 685:C:\Workspaces\DAVE-4.1\Flightcontroller_PWM_CopterRocks_Working/Libraries/CMSIS/Include\cmsis_gcc.h ****  */
 686:C:\Workspaces\DAVE-4.1\Flightcontroller_PWM_CopterRocks_Working/Libraries/CMSIS/Include\cmsis_gcc.h **** #define __SSAT(ARG1,ARG2) \
 687:C:\Workspaces\DAVE-4.1\Flightcontroller_PWM_CopterRocks_Working/Libraries/CMSIS/Include\cmsis_gcc.h **** ({                          \
 688:C:\Workspaces\DAVE-4.1\Flightcontroller_PWM_CopterRocks_Working/Libraries/CMSIS/Include\cmsis_gcc.h ****   uint32_t __RES, __ARG1 = (ARG1); \
 689:C:\Workspaces\DAVE-4.1\Flightcontroller_PWM_CopterRocks_Working/Libraries/CMSIS/Include\cmsis_gcc.h ****   __ASM ("ssat %0, %1, %2" : "=r" (__RES) :  "I" (ARG2), "r" (__ARG1) ); \
 690:C:\Workspaces\DAVE-4.1\Flightcontroller_PWM_CopterRocks_Working/Libraries/CMSIS/Include\cmsis_gcc.h ****   __RES; \
 691:C:\Workspaces\DAVE-4.1\Flightcontroller_PWM_CopterRocks_Working/Libraries/CMSIS/Include\cmsis_gcc.h ****  })
 692:C:\Workspaces\DAVE-4.1\Flightcontroller_PWM_CopterRocks_Working/Libraries/CMSIS/Include\cmsis_gcc.h **** 
 693:C:\Workspaces\DAVE-4.1\Flightcontroller_PWM_CopterRocks_Working/Libraries/CMSIS/Include\cmsis_gcc.h **** 
 694:C:\Workspaces\DAVE-4.1\Flightcontroller_PWM_CopterRocks_Working/Libraries/CMSIS/Include\cmsis_gcc.h **** /**
 695:C:\Workspaces\DAVE-4.1\Flightcontroller_PWM_CopterRocks_Working/Libraries/CMSIS/Include\cmsis_gcc.h ****   \brief   Unsigned Saturate
 696:C:\Workspaces\DAVE-4.1\Flightcontroller_PWM_CopterRocks_Working/Libraries/CMSIS/Include\cmsis_gcc.h ****   \details Saturates an unsigned value.
 697:C:\Workspaces\DAVE-4.1\Flightcontroller_PWM_CopterRocks_Working/Libraries/CMSIS/Include\cmsis_gcc.h ****   \param [in]  value  Value to be saturated
 698:C:\Workspaces\DAVE-4.1\Flightcontroller_PWM_CopterRocks_Working/Libraries/CMSIS/Include\cmsis_gcc.h ****   \param [in]    sat  Bit position to saturate to (0..31)
 699:C:\Workspaces\DAVE-4.1\Flightcontroller_PWM_CopterRocks_Working/Libraries/CMSIS/Include\cmsis_gcc.h ****   \return             Saturated value
 700:C:\Workspaces\DAVE-4.1\Flightcontroller_PWM_CopterRocks_Working/Libraries/CMSIS/Include\cmsis_gcc.h ****  */
 701:C:\Workspaces\DAVE-4.1\Flightcontroller_PWM_CopterRocks_Working/Libraries/CMSIS/Include\cmsis_gcc.h **** #define __USAT(ARG1,ARG2) \
 702:C:\Workspaces\DAVE-4.1\Flightcontroller_PWM_CopterRocks_Working/Libraries/CMSIS/Include\cmsis_gcc.h **** ({                          \
 703:C:\Workspaces\DAVE-4.1\Flightcontroller_PWM_CopterRocks_Working/Libraries/CMSIS/Include\cmsis_gcc.h ****   uint32_t __RES, __ARG1 = (ARG1); \
 704:C:\Workspaces\DAVE-4.1\Flightcontroller_PWM_CopterRocks_Working/Libraries/CMSIS/Include\cmsis_gcc.h ****   __ASM ("usat %0, %1, %2" : "=r" (__RES) :  "I" (ARG2), "r" (__ARG1) ); \
 705:C:\Workspaces\DAVE-4.1\Flightcontroller_PWM_CopterRocks_Working/Libraries/CMSIS/Include\cmsis_gcc.h ****   __RES; \
 706:C:\Workspaces\DAVE-4.1\Flightcontroller_PWM_CopterRocks_Working/Libraries/CMSIS/Include\cmsis_gcc.h ****  })
 707:C:\Workspaces\DAVE-4.1\Flightcontroller_PWM_CopterRocks_Working/Libraries/CMSIS/Include\cmsis_gcc.h **** 
 708:C:\Workspaces\DAVE-4.1\Flightcontroller_PWM_CopterRocks_Working/Libraries/CMSIS/Include\cmsis_gcc.h **** 
 709:C:\Workspaces\DAVE-4.1\Flightcontroller_PWM_CopterRocks_Working/Libraries/CMSIS/Include\cmsis_gcc.h **** /**
 710:C:\Workspaces\DAVE-4.1\Flightcontroller_PWM_CopterRocks_Working/Libraries/CMSIS/Include\cmsis_gcc.h ****   \brief   Rotate Right with Extend (32 bit)
 711:C:\Workspaces\DAVE-4.1\Flightcontroller_PWM_CopterRocks_Working/Libraries/CMSIS/Include\cmsis_gcc.h ****   \details Moves each bit of a bitstring right by one bit.
 712:C:\Workspaces\DAVE-4.1\Flightcontroller_PWM_CopterRocks_Working/Libraries/CMSIS/Include\cmsis_gcc.h ****            The carry input is shifted in at the left end of the bitstring.
 713:C:\Workspaces\DAVE-4.1\Flightcontroller_PWM_CopterRocks_Working/Libraries/CMSIS/Include\cmsis_gcc.h ****   \param [in]    value  Value to rotate
 714:C:\Workspaces\DAVE-4.1\Flightcontroller_PWM_CopterRocks_Working/Libraries/CMSIS/Include\cmsis_gcc.h ****   \return               Rotated value
 715:C:\Workspaces\DAVE-4.1\Flightcontroller_PWM_CopterRocks_Working/Libraries/CMSIS/Include\cmsis_gcc.h ****  */
 716:C:\Workspaces\DAVE-4.1\Flightcontroller_PWM_CopterRocks_Working/Libraries/CMSIS/Include\cmsis_gcc.h **** __attribute__((always_inline)) __STATIC_INLINE uint32_t __RRX(uint32_t value)
 717:C:\Workspaces\DAVE-4.1\Flightcontroller_PWM_CopterRocks_Working/Libraries/CMSIS/Include\cmsis_gcc.h **** {
 718:C:\Workspaces\DAVE-4.1\Flightcontroller_PWM_CopterRocks_Working/Libraries/CMSIS/Include\cmsis_gcc.h ****   uint32_t result;
 719:C:\Workspaces\DAVE-4.1\Flightcontroller_PWM_CopterRocks_Working/Libraries/CMSIS/Include\cmsis_gcc.h **** 
 720:C:\Workspaces\DAVE-4.1\Flightcontroller_PWM_CopterRocks_Working/Libraries/CMSIS/Include\cmsis_gcc.h ****   __ASM volatile ("rrx %0, %1" : __CMSIS_GCC_OUT_REG (result) : __CMSIS_GCC_USE_REG (value) );
 721:C:\Workspaces\DAVE-4.1\Flightcontroller_PWM_CopterRocks_Working/Libraries/CMSIS/Include\cmsis_gcc.h ****   return(result);
 722:C:\Workspaces\DAVE-4.1\Flightcontroller_PWM_CopterRocks_Working/Libraries/CMSIS/Include\cmsis_gcc.h **** }
 723:C:\Workspaces\DAVE-4.1\Flightcontroller_PWM_CopterRocks_Working/Libraries/CMSIS/Include\cmsis_gcc.h **** 
 724:C:\Workspaces\DAVE-4.1\Flightcontroller_PWM_CopterRocks_Working/Libraries/CMSIS/Include\cmsis_gcc.h **** 
 725:C:\Workspaces\DAVE-4.1\Flightcontroller_PWM_CopterRocks_Working/Libraries/CMSIS/Include\cmsis_gcc.h **** /**
 726:C:\Workspaces\DAVE-4.1\Flightcontroller_PWM_CopterRocks_Working/Libraries/CMSIS/Include\cmsis_gcc.h ****   \brief   LDRT Unprivileged (8 bit)
 727:C:\Workspaces\DAVE-4.1\Flightcontroller_PWM_CopterRocks_Working/Libraries/CMSIS/Include\cmsis_gcc.h ****   \details Executes a Unprivileged LDRT instruction for 8 bit value.
 728:C:\Workspaces\DAVE-4.1\Flightcontroller_PWM_CopterRocks_Working/Libraries/CMSIS/Include\cmsis_gcc.h ****   \param [in]    ptr  Pointer to data
 729:C:\Workspaces\DAVE-4.1\Flightcontroller_PWM_CopterRocks_Working/Libraries/CMSIS/Include\cmsis_gcc.h ****   \return             value of type uint8_t at (*ptr)
 730:C:\Workspaces\DAVE-4.1\Flightcontroller_PWM_CopterRocks_Working/Libraries/CMSIS/Include\cmsis_gcc.h ****  */
 731:C:\Workspaces\DAVE-4.1\Flightcontroller_PWM_CopterRocks_Working/Libraries/CMSIS/Include\cmsis_gcc.h **** __attribute__((always_inline)) __STATIC_INLINE uint8_t __LDRBT(volatile uint8_t *addr)
 732:C:\Workspaces\DAVE-4.1\Flightcontroller_PWM_CopterRocks_Working/Libraries/CMSIS/Include\cmsis_gcc.h **** {
 733:C:\Workspaces\DAVE-4.1\Flightcontroller_PWM_CopterRocks_Working/Libraries/CMSIS/Include\cmsis_gcc.h ****     uint32_t result;
 734:C:\Workspaces\DAVE-4.1\Flightcontroller_PWM_CopterRocks_Working/Libraries/CMSIS/Include\cmsis_gcc.h **** 
 735:C:\Workspaces\DAVE-4.1\Flightcontroller_PWM_CopterRocks_Working/Libraries/CMSIS/Include\cmsis_gcc.h **** #if (__GNUC__ > 4) || (__GNUC__ == 4 && __GNUC_MINOR__ >= 8)
 736:C:\Workspaces\DAVE-4.1\Flightcontroller_PWM_CopterRocks_Working/Libraries/CMSIS/Include\cmsis_gcc.h ****    __ASM volatile ("ldrbt %0, %1" : "=r" (result) : "Q" (*addr) );
 737:C:\Workspaces\DAVE-4.1\Flightcontroller_PWM_CopterRocks_Working/Libraries/CMSIS/Include\cmsis_gcc.h **** #else
 738:C:\Workspaces\DAVE-4.1\Flightcontroller_PWM_CopterRocks_Working/Libraries/CMSIS/Include\cmsis_gcc.h ****     /* Prior to GCC 4.8, "Q" will be expanded to [rx, #0] which is not
 739:C:\Workspaces\DAVE-4.1\Flightcontroller_PWM_CopterRocks_Working/Libraries/CMSIS/Include\cmsis_gcc.h ****        accepted by assembler. So has to use following less efficient pattern.
 740:C:\Workspaces\DAVE-4.1\Flightcontroller_PWM_CopterRocks_Working/Libraries/CMSIS/Include\cmsis_gcc.h ****     */
 741:C:\Workspaces\DAVE-4.1\Flightcontroller_PWM_CopterRocks_Working/Libraries/CMSIS/Include\cmsis_gcc.h ****    __ASM volatile ("ldrbt %0, [%1]" : "=r" (result) : "r" (addr) : "memory" );
 742:C:\Workspaces\DAVE-4.1\Flightcontroller_PWM_CopterRocks_Working/Libraries/CMSIS/Include\cmsis_gcc.h **** #endif
 743:C:\Workspaces\DAVE-4.1\Flightcontroller_PWM_CopterRocks_Working/Libraries/CMSIS/Include\cmsis_gcc.h ****    return ((uint8_t) result);    /* Add explicit type cast here */
 744:C:\Workspaces\DAVE-4.1\Flightcontroller_PWM_CopterRocks_Working/Libraries/CMSIS/Include\cmsis_gcc.h **** }
 745:C:\Workspaces\DAVE-4.1\Flightcontroller_PWM_CopterRocks_Working/Libraries/CMSIS/Include\cmsis_gcc.h **** 
 746:C:\Workspaces\DAVE-4.1\Flightcontroller_PWM_CopterRocks_Working/Libraries/CMSIS/Include\cmsis_gcc.h **** 
 747:C:\Workspaces\DAVE-4.1\Flightcontroller_PWM_CopterRocks_Working/Libraries/CMSIS/Include\cmsis_gcc.h **** /**
 748:C:\Workspaces\DAVE-4.1\Flightcontroller_PWM_CopterRocks_Working/Libraries/CMSIS/Include\cmsis_gcc.h ****   \brief   LDRT Unprivileged (16 bit)
 749:C:\Workspaces\DAVE-4.1\Flightcontroller_PWM_CopterRocks_Working/Libraries/CMSIS/Include\cmsis_gcc.h ****   \details Executes a Unprivileged LDRT instruction for 16 bit values.
 750:C:\Workspaces\DAVE-4.1\Flightcontroller_PWM_CopterRocks_Working/Libraries/CMSIS/Include\cmsis_gcc.h ****   \param [in]    ptr  Pointer to data
 751:C:\Workspaces\DAVE-4.1\Flightcontroller_PWM_CopterRocks_Working/Libraries/CMSIS/Include\cmsis_gcc.h ****   \return        value of type uint16_t at (*ptr)
 752:C:\Workspaces\DAVE-4.1\Flightcontroller_PWM_CopterRocks_Working/Libraries/CMSIS/Include\cmsis_gcc.h ****  */
 753:C:\Workspaces\DAVE-4.1\Flightcontroller_PWM_CopterRocks_Working/Libraries/CMSIS/Include\cmsis_gcc.h **** __attribute__((always_inline)) __STATIC_INLINE uint16_t __LDRHT(volatile uint16_t *addr)
 754:C:\Workspaces\DAVE-4.1\Flightcontroller_PWM_CopterRocks_Working/Libraries/CMSIS/Include\cmsis_gcc.h **** {
 755:C:\Workspaces\DAVE-4.1\Flightcontroller_PWM_CopterRocks_Working/Libraries/CMSIS/Include\cmsis_gcc.h ****     uint32_t result;
 756:C:\Workspaces\DAVE-4.1\Flightcontroller_PWM_CopterRocks_Working/Libraries/CMSIS/Include\cmsis_gcc.h **** 
 757:C:\Workspaces\DAVE-4.1\Flightcontroller_PWM_CopterRocks_Working/Libraries/CMSIS/Include\cmsis_gcc.h **** #if (__GNUC__ > 4) || (__GNUC__ == 4 && __GNUC_MINOR__ >= 8)
 758:C:\Workspaces\DAVE-4.1\Flightcontroller_PWM_CopterRocks_Working/Libraries/CMSIS/Include\cmsis_gcc.h ****    __ASM volatile ("ldrht %0, %1" : "=r" (result) : "Q" (*addr) );
 759:C:\Workspaces\DAVE-4.1\Flightcontroller_PWM_CopterRocks_Working/Libraries/CMSIS/Include\cmsis_gcc.h **** #else
 760:C:\Workspaces\DAVE-4.1\Flightcontroller_PWM_CopterRocks_Working/Libraries/CMSIS/Include\cmsis_gcc.h ****     /* Prior to GCC 4.8, "Q" will be expanded to [rx, #0] which is not
 761:C:\Workspaces\DAVE-4.1\Flightcontroller_PWM_CopterRocks_Working/Libraries/CMSIS/Include\cmsis_gcc.h ****        accepted by assembler. So has to use following less efficient pattern.
 762:C:\Workspaces\DAVE-4.1\Flightcontroller_PWM_CopterRocks_Working/Libraries/CMSIS/Include\cmsis_gcc.h ****     */
 763:C:\Workspaces\DAVE-4.1\Flightcontroller_PWM_CopterRocks_Working/Libraries/CMSIS/Include\cmsis_gcc.h ****    __ASM volatile ("ldrht %0, [%1]" : "=r" (result) : "r" (addr) : "memory" );
 764:C:\Workspaces\DAVE-4.1\Flightcontroller_PWM_CopterRocks_Working/Libraries/CMSIS/Include\cmsis_gcc.h **** #endif
 765:C:\Workspaces\DAVE-4.1\Flightcontroller_PWM_CopterRocks_Working/Libraries/CMSIS/Include\cmsis_gcc.h ****    return ((uint16_t) result);    /* Add explicit type cast here */
 766:C:\Workspaces\DAVE-4.1\Flightcontroller_PWM_CopterRocks_Working/Libraries/CMSIS/Include\cmsis_gcc.h **** }
 767:C:\Workspaces\DAVE-4.1\Flightcontroller_PWM_CopterRocks_Working/Libraries/CMSIS/Include\cmsis_gcc.h **** 
 768:C:\Workspaces\DAVE-4.1\Flightcontroller_PWM_CopterRocks_Working/Libraries/CMSIS/Include\cmsis_gcc.h **** 
 769:C:\Workspaces\DAVE-4.1\Flightcontroller_PWM_CopterRocks_Working/Libraries/CMSIS/Include\cmsis_gcc.h **** /**
 770:C:\Workspaces\DAVE-4.1\Flightcontroller_PWM_CopterRocks_Working/Libraries/CMSIS/Include\cmsis_gcc.h ****   \brief   LDRT Unprivileged (32 bit)
 771:C:\Workspaces\DAVE-4.1\Flightcontroller_PWM_CopterRocks_Working/Libraries/CMSIS/Include\cmsis_gcc.h ****   \details Executes a Unprivileged LDRT instruction for 32 bit values.
 772:C:\Workspaces\DAVE-4.1\Flightcontroller_PWM_CopterRocks_Working/Libraries/CMSIS/Include\cmsis_gcc.h ****   \param [in]    ptr  Pointer to data
 773:C:\Workspaces\DAVE-4.1\Flightcontroller_PWM_CopterRocks_Working/Libraries/CMSIS/Include\cmsis_gcc.h ****   \return        value of type uint32_t at (*ptr)
 774:C:\Workspaces\DAVE-4.1\Flightcontroller_PWM_CopterRocks_Working/Libraries/CMSIS/Include\cmsis_gcc.h ****  */
 775:C:\Workspaces\DAVE-4.1\Flightcontroller_PWM_CopterRocks_Working/Libraries/CMSIS/Include\cmsis_gcc.h **** __attribute__((always_inline)) __STATIC_INLINE uint32_t __LDRT(volatile uint32_t *addr)
 776:C:\Workspaces\DAVE-4.1\Flightcontroller_PWM_CopterRocks_Working/Libraries/CMSIS/Include\cmsis_gcc.h **** {
 777:C:\Workspaces\DAVE-4.1\Flightcontroller_PWM_CopterRocks_Working/Libraries/CMSIS/Include\cmsis_gcc.h ****     uint32_t result;
 778:C:\Workspaces\DAVE-4.1\Flightcontroller_PWM_CopterRocks_Working/Libraries/CMSIS/Include\cmsis_gcc.h **** 
 779:C:\Workspaces\DAVE-4.1\Flightcontroller_PWM_CopterRocks_Working/Libraries/CMSIS/Include\cmsis_gcc.h ****    __ASM volatile ("ldrt %0, %1" : "=r" (result) : "Q" (*addr) );
 780:C:\Workspaces\DAVE-4.1\Flightcontroller_PWM_CopterRocks_Working/Libraries/CMSIS/Include\cmsis_gcc.h ****    return(result);
 781:C:\Workspaces\DAVE-4.1\Flightcontroller_PWM_CopterRocks_Working/Libraries/CMSIS/Include\cmsis_gcc.h **** }
 782:C:\Workspaces\DAVE-4.1\Flightcontroller_PWM_CopterRocks_Working/Libraries/CMSIS/Include\cmsis_gcc.h **** 
 783:C:\Workspaces\DAVE-4.1\Flightcontroller_PWM_CopterRocks_Working/Libraries/CMSIS/Include\cmsis_gcc.h **** 
 784:C:\Workspaces\DAVE-4.1\Flightcontroller_PWM_CopterRocks_Working/Libraries/CMSIS/Include\cmsis_gcc.h **** /**
 785:C:\Workspaces\DAVE-4.1\Flightcontroller_PWM_CopterRocks_Working/Libraries/CMSIS/Include\cmsis_gcc.h ****   \brief   STRT Unprivileged (8 bit)
 786:C:\Workspaces\DAVE-4.1\Flightcontroller_PWM_CopterRocks_Working/Libraries/CMSIS/Include\cmsis_gcc.h ****   \details Executes a Unprivileged STRT instruction for 8 bit values.
 787:C:\Workspaces\DAVE-4.1\Flightcontroller_PWM_CopterRocks_Working/Libraries/CMSIS/Include\cmsis_gcc.h ****   \param [in]  value  Value to store
 788:C:\Workspaces\DAVE-4.1\Flightcontroller_PWM_CopterRocks_Working/Libraries/CMSIS/Include\cmsis_gcc.h ****   \param [in]    ptr  Pointer to location
 789:C:\Workspaces\DAVE-4.1\Flightcontroller_PWM_CopterRocks_Working/Libraries/CMSIS/Include\cmsis_gcc.h ****  */
 790:C:\Workspaces\DAVE-4.1\Flightcontroller_PWM_CopterRocks_Working/Libraries/CMSIS/Include\cmsis_gcc.h **** __attribute__((always_inline)) __STATIC_INLINE void __STRBT(uint8_t value, volatile uint8_t *addr)
 791:C:\Workspaces\DAVE-4.1\Flightcontroller_PWM_CopterRocks_Working/Libraries/CMSIS/Include\cmsis_gcc.h **** {
 792:C:\Workspaces\DAVE-4.1\Flightcontroller_PWM_CopterRocks_Working/Libraries/CMSIS/Include\cmsis_gcc.h ****    __ASM volatile ("strbt %1, %0" : "=Q" (*addr) : "r" ((uint32_t)value) );
 793:C:\Workspaces\DAVE-4.1\Flightcontroller_PWM_CopterRocks_Working/Libraries/CMSIS/Include\cmsis_gcc.h **** }
 794:C:\Workspaces\DAVE-4.1\Flightcontroller_PWM_CopterRocks_Working/Libraries/CMSIS/Include\cmsis_gcc.h **** 
 795:C:\Workspaces\DAVE-4.1\Flightcontroller_PWM_CopterRocks_Working/Libraries/CMSIS/Include\cmsis_gcc.h **** 
 796:C:\Workspaces\DAVE-4.1\Flightcontroller_PWM_CopterRocks_Working/Libraries/CMSIS/Include\cmsis_gcc.h **** /**
 797:C:\Workspaces\DAVE-4.1\Flightcontroller_PWM_CopterRocks_Working/Libraries/CMSIS/Include\cmsis_gcc.h ****   \brief   STRT Unprivileged (16 bit)
 798:C:\Workspaces\DAVE-4.1\Flightcontroller_PWM_CopterRocks_Working/Libraries/CMSIS/Include\cmsis_gcc.h ****   \details Executes a Unprivileged STRT instruction for 16 bit values.
 799:C:\Workspaces\DAVE-4.1\Flightcontroller_PWM_CopterRocks_Working/Libraries/CMSIS/Include\cmsis_gcc.h ****   \param [in]  value  Value to store
 800:C:\Workspaces\DAVE-4.1\Flightcontroller_PWM_CopterRocks_Working/Libraries/CMSIS/Include\cmsis_gcc.h ****   \param [in]    ptr  Pointer to location
 801:C:\Workspaces\DAVE-4.1\Flightcontroller_PWM_CopterRocks_Working/Libraries/CMSIS/Include\cmsis_gcc.h ****  */
 802:C:\Workspaces\DAVE-4.1\Flightcontroller_PWM_CopterRocks_Working/Libraries/CMSIS/Include\cmsis_gcc.h **** __attribute__((always_inline)) __STATIC_INLINE void __STRHT(uint16_t value, volatile uint16_t *addr
 803:C:\Workspaces\DAVE-4.1\Flightcontroller_PWM_CopterRocks_Working/Libraries/CMSIS/Include\cmsis_gcc.h **** {
 804:C:\Workspaces\DAVE-4.1\Flightcontroller_PWM_CopterRocks_Working/Libraries/CMSIS/Include\cmsis_gcc.h ****    __ASM volatile ("strht %1, %0" : "=Q" (*addr) : "r" ((uint32_t)value) );
 805:C:\Workspaces\DAVE-4.1\Flightcontroller_PWM_CopterRocks_Working/Libraries/CMSIS/Include\cmsis_gcc.h **** }
 806:C:\Workspaces\DAVE-4.1\Flightcontroller_PWM_CopterRocks_Working/Libraries/CMSIS/Include\cmsis_gcc.h **** 
 807:C:\Workspaces\DAVE-4.1\Flightcontroller_PWM_CopterRocks_Working/Libraries/CMSIS/Include\cmsis_gcc.h **** 
 808:C:\Workspaces\DAVE-4.1\Flightcontroller_PWM_CopterRocks_Working/Libraries/CMSIS/Include\cmsis_gcc.h **** /**
 809:C:\Workspaces\DAVE-4.1\Flightcontroller_PWM_CopterRocks_Working/Libraries/CMSIS/Include\cmsis_gcc.h ****   \brief   STRT Unprivileged (32 bit)
 810:C:\Workspaces\DAVE-4.1\Flightcontroller_PWM_CopterRocks_Working/Libraries/CMSIS/Include\cmsis_gcc.h ****   \details Executes a Unprivileged STRT instruction for 32 bit values.
 811:C:\Workspaces\DAVE-4.1\Flightcontroller_PWM_CopterRocks_Working/Libraries/CMSIS/Include\cmsis_gcc.h ****   \param [in]  value  Value to store
 812:C:\Workspaces\DAVE-4.1\Flightcontroller_PWM_CopterRocks_Working/Libraries/CMSIS/Include\cmsis_gcc.h ****   \param [in]    ptr  Pointer to location
 813:C:\Workspaces\DAVE-4.1\Flightcontroller_PWM_CopterRocks_Working/Libraries/CMSIS/Include\cmsis_gcc.h ****  */
 814:C:\Workspaces\DAVE-4.1\Flightcontroller_PWM_CopterRocks_Working/Libraries/CMSIS/Include\cmsis_gcc.h **** __attribute__((always_inline)) __STATIC_INLINE void __STRT(uint32_t value, volatile uint32_t *addr)
 815:C:\Workspaces\DAVE-4.1\Flightcontroller_PWM_CopterRocks_Working/Libraries/CMSIS/Include\cmsis_gcc.h **** {
 816:C:\Workspaces\DAVE-4.1\Flightcontroller_PWM_CopterRocks_Working/Libraries/CMSIS/Include\cmsis_gcc.h ****    __ASM volatile ("strt %1, %0" : "=Q" (*addr) : "r" (value) );
 817:C:\Workspaces\DAVE-4.1\Flightcontroller_PWM_CopterRocks_Working/Libraries/CMSIS/Include\cmsis_gcc.h **** }
 818:C:\Workspaces\DAVE-4.1\Flightcontroller_PWM_CopterRocks_Working/Libraries/CMSIS/Include\cmsis_gcc.h **** 
 819:C:\Workspaces\DAVE-4.1\Flightcontroller_PWM_CopterRocks_Working/Libraries/CMSIS/Include\cmsis_gcc.h **** #endif /* (__CORTEX_M >= 0x03U) || (__CORTEX_SC >= 300U) */
 820:C:\Workspaces\DAVE-4.1\Flightcontroller_PWM_CopterRocks_Working/Libraries/CMSIS/Include\cmsis_gcc.h **** 
 821:C:\Workspaces\DAVE-4.1\Flightcontroller_PWM_CopterRocks_Working/Libraries/CMSIS/Include\cmsis_gcc.h **** /*@}*/ /* end of group CMSIS_Core_InstructionInterface */
 822:C:\Workspaces\DAVE-4.1\Flightcontroller_PWM_CopterRocks_Working/Libraries/CMSIS/Include\cmsis_gcc.h **** 
 823:C:\Workspaces\DAVE-4.1\Flightcontroller_PWM_CopterRocks_Working/Libraries/CMSIS/Include\cmsis_gcc.h **** 
 824:C:\Workspaces\DAVE-4.1\Flightcontroller_PWM_CopterRocks_Working/Libraries/CMSIS/Include\cmsis_gcc.h **** /* ###################  Compiler specific Intrinsics  ########################### */
 825:C:\Workspaces\DAVE-4.1\Flightcontroller_PWM_CopterRocks_Working/Libraries/CMSIS/Include\cmsis_gcc.h **** /** \defgroup CMSIS_SIMD_intrinsics CMSIS SIMD Intrinsics
 826:C:\Workspaces\DAVE-4.1\Flightcontroller_PWM_CopterRocks_Working/Libraries/CMSIS/Include\cmsis_gcc.h ****   Access to dedicated SIMD instructions
 827:C:\Workspaces\DAVE-4.1\Flightcontroller_PWM_CopterRocks_Working/Libraries/CMSIS/Include\cmsis_gcc.h ****   @{
 828:C:\Workspaces\DAVE-4.1\Flightcontroller_PWM_CopterRocks_Working/Libraries/CMSIS/Include\cmsis_gcc.h **** */
 829:C:\Workspaces\DAVE-4.1\Flightcontroller_PWM_CopterRocks_Working/Libraries/CMSIS/Include\cmsis_gcc.h **** 
 830:C:\Workspaces\DAVE-4.1\Flightcontroller_PWM_CopterRocks_Working/Libraries/CMSIS/Include\cmsis_gcc.h **** #if (__CORTEX_M >= 0x04U)  /* only for Cortex-M4 and above */
 831:C:\Workspaces\DAVE-4.1\Flightcontroller_PWM_CopterRocks_Working/Libraries/CMSIS/Include\cmsis_gcc.h **** 
 832:C:\Workspaces\DAVE-4.1\Flightcontroller_PWM_CopterRocks_Working/Libraries/CMSIS/Include\cmsis_gcc.h **** __attribute__( ( always_inline ) ) __STATIC_INLINE uint32_t __SADD8(uint32_t op1, uint32_t op2)
 833:C:\Workspaces\DAVE-4.1\Flightcontroller_PWM_CopterRocks_Working/Libraries/CMSIS/Include\cmsis_gcc.h **** {
 834:C:\Workspaces\DAVE-4.1\Flightcontroller_PWM_CopterRocks_Working/Libraries/CMSIS/Include\cmsis_gcc.h ****   uint32_t result;
 835:C:\Workspaces\DAVE-4.1\Flightcontroller_PWM_CopterRocks_Working/Libraries/CMSIS/Include\cmsis_gcc.h **** 
 836:C:\Workspaces\DAVE-4.1\Flightcontroller_PWM_CopterRocks_Working/Libraries/CMSIS/Include\cmsis_gcc.h ****   __ASM volatile ("sadd8 %0, %1, %2" : "=r" (result) : "r" (op1), "r" (op2) );
 837:C:\Workspaces\DAVE-4.1\Flightcontroller_PWM_CopterRocks_Working/Libraries/CMSIS/Include\cmsis_gcc.h ****   return(result);
 838:C:\Workspaces\DAVE-4.1\Flightcontroller_PWM_CopterRocks_Working/Libraries/CMSIS/Include\cmsis_gcc.h **** }
 839:C:\Workspaces\DAVE-4.1\Flightcontroller_PWM_CopterRocks_Working/Libraries/CMSIS/Include\cmsis_gcc.h **** 
 840:C:\Workspaces\DAVE-4.1\Flightcontroller_PWM_CopterRocks_Working/Libraries/CMSIS/Include\cmsis_gcc.h **** __attribute__( ( always_inline ) ) __STATIC_INLINE uint32_t __QADD8(uint32_t op1, uint32_t op2)
 841:C:\Workspaces\DAVE-4.1\Flightcontroller_PWM_CopterRocks_Working/Libraries/CMSIS/Include\cmsis_gcc.h **** {
 842:C:\Workspaces\DAVE-4.1\Flightcontroller_PWM_CopterRocks_Working/Libraries/CMSIS/Include\cmsis_gcc.h ****   uint32_t result;
 843:C:\Workspaces\DAVE-4.1\Flightcontroller_PWM_CopterRocks_Working/Libraries/CMSIS/Include\cmsis_gcc.h **** 
 844:C:\Workspaces\DAVE-4.1\Flightcontroller_PWM_CopterRocks_Working/Libraries/CMSIS/Include\cmsis_gcc.h ****   __ASM volatile ("qadd8 %0, %1, %2" : "=r" (result) : "r" (op1), "r" (op2) );
 845:C:\Workspaces\DAVE-4.1\Flightcontroller_PWM_CopterRocks_Working/Libraries/CMSIS/Include\cmsis_gcc.h ****   return(result);
 846:C:\Workspaces\DAVE-4.1\Flightcontroller_PWM_CopterRocks_Working/Libraries/CMSIS/Include\cmsis_gcc.h **** }
 847:C:\Workspaces\DAVE-4.1\Flightcontroller_PWM_CopterRocks_Working/Libraries/CMSIS/Include\cmsis_gcc.h **** 
 848:C:\Workspaces\DAVE-4.1\Flightcontroller_PWM_CopterRocks_Working/Libraries/CMSIS/Include\cmsis_gcc.h **** __attribute__( ( always_inline ) ) __STATIC_INLINE uint32_t __SHADD8(uint32_t op1, uint32_t op2)
 849:C:\Workspaces\DAVE-4.1\Flightcontroller_PWM_CopterRocks_Working/Libraries/CMSIS/Include\cmsis_gcc.h **** {
 850:C:\Workspaces\DAVE-4.1\Flightcontroller_PWM_CopterRocks_Working/Libraries/CMSIS/Include\cmsis_gcc.h ****   uint32_t result;
 851:C:\Workspaces\DAVE-4.1\Flightcontroller_PWM_CopterRocks_Working/Libraries/CMSIS/Include\cmsis_gcc.h **** 
 852:C:\Workspaces\DAVE-4.1\Flightcontroller_PWM_CopterRocks_Working/Libraries/CMSIS/Include\cmsis_gcc.h ****   __ASM volatile ("shadd8 %0, %1, %2" : "=r" (result) : "r" (op1), "r" (op2) );
 853:C:\Workspaces\DAVE-4.1\Flightcontroller_PWM_CopterRocks_Working/Libraries/CMSIS/Include\cmsis_gcc.h ****   return(result);
 854:C:\Workspaces\DAVE-4.1\Flightcontroller_PWM_CopterRocks_Working/Libraries/CMSIS/Include\cmsis_gcc.h **** }
 855:C:\Workspaces\DAVE-4.1\Flightcontroller_PWM_CopterRocks_Working/Libraries/CMSIS/Include\cmsis_gcc.h **** 
 856:C:\Workspaces\DAVE-4.1\Flightcontroller_PWM_CopterRocks_Working/Libraries/CMSIS/Include\cmsis_gcc.h **** __attribute__( ( always_inline ) ) __STATIC_INLINE uint32_t __UADD8(uint32_t op1, uint32_t op2)
 857:C:\Workspaces\DAVE-4.1\Flightcontroller_PWM_CopterRocks_Working/Libraries/CMSIS/Include\cmsis_gcc.h **** {
 858:C:\Workspaces\DAVE-4.1\Flightcontroller_PWM_CopterRocks_Working/Libraries/CMSIS/Include\cmsis_gcc.h ****   uint32_t result;
 859:C:\Workspaces\DAVE-4.1\Flightcontroller_PWM_CopterRocks_Working/Libraries/CMSIS/Include\cmsis_gcc.h **** 
 860:C:\Workspaces\DAVE-4.1\Flightcontroller_PWM_CopterRocks_Working/Libraries/CMSIS/Include\cmsis_gcc.h ****   __ASM volatile ("uadd8 %0, %1, %2" : "=r" (result) : "r" (op1), "r" (op2) );
 861:C:\Workspaces\DAVE-4.1\Flightcontroller_PWM_CopterRocks_Working/Libraries/CMSIS/Include\cmsis_gcc.h ****   return(result);
 862:C:\Workspaces\DAVE-4.1\Flightcontroller_PWM_CopterRocks_Working/Libraries/CMSIS/Include\cmsis_gcc.h **** }
 863:C:\Workspaces\DAVE-4.1\Flightcontroller_PWM_CopterRocks_Working/Libraries/CMSIS/Include\cmsis_gcc.h **** 
 864:C:\Workspaces\DAVE-4.1\Flightcontroller_PWM_CopterRocks_Working/Libraries/CMSIS/Include\cmsis_gcc.h **** __attribute__( ( always_inline ) ) __STATIC_INLINE uint32_t __UQADD8(uint32_t op1, uint32_t op2)
 865:C:\Workspaces\DAVE-4.1\Flightcontroller_PWM_CopterRocks_Working/Libraries/CMSIS/Include\cmsis_gcc.h **** {
 866:C:\Workspaces\DAVE-4.1\Flightcontroller_PWM_CopterRocks_Working/Libraries/CMSIS/Include\cmsis_gcc.h ****   uint32_t result;
 867:C:\Workspaces\DAVE-4.1\Flightcontroller_PWM_CopterRocks_Working/Libraries/CMSIS/Include\cmsis_gcc.h **** 
 868:C:\Workspaces\DAVE-4.1\Flightcontroller_PWM_CopterRocks_Working/Libraries/CMSIS/Include\cmsis_gcc.h ****   __ASM volatile ("uqadd8 %0, %1, %2" : "=r" (result) : "r" (op1), "r" (op2) );
 869:C:\Workspaces\DAVE-4.1\Flightcontroller_PWM_CopterRocks_Working/Libraries/CMSIS/Include\cmsis_gcc.h ****   return(result);
 870:C:\Workspaces\DAVE-4.1\Flightcontroller_PWM_CopterRocks_Working/Libraries/CMSIS/Include\cmsis_gcc.h **** }
 871:C:\Workspaces\DAVE-4.1\Flightcontroller_PWM_CopterRocks_Working/Libraries/CMSIS/Include\cmsis_gcc.h **** 
 872:C:\Workspaces\DAVE-4.1\Flightcontroller_PWM_CopterRocks_Working/Libraries/CMSIS/Include\cmsis_gcc.h **** __attribute__( ( always_inline ) ) __STATIC_INLINE uint32_t __UHADD8(uint32_t op1, uint32_t op2)
 873:C:\Workspaces\DAVE-4.1\Flightcontroller_PWM_CopterRocks_Working/Libraries/CMSIS/Include\cmsis_gcc.h **** {
 874:C:\Workspaces\DAVE-4.1\Flightcontroller_PWM_CopterRocks_Working/Libraries/CMSIS/Include\cmsis_gcc.h ****   uint32_t result;
 875:C:\Workspaces\DAVE-4.1\Flightcontroller_PWM_CopterRocks_Working/Libraries/CMSIS/Include\cmsis_gcc.h **** 
 876:C:\Workspaces\DAVE-4.1\Flightcontroller_PWM_CopterRocks_Working/Libraries/CMSIS/Include\cmsis_gcc.h ****   __ASM volatile ("uhadd8 %0, %1, %2" : "=r" (result) : "r" (op1), "r" (op2) );
 877:C:\Workspaces\DAVE-4.1\Flightcontroller_PWM_CopterRocks_Working/Libraries/CMSIS/Include\cmsis_gcc.h ****   return(result);
 878:C:\Workspaces\DAVE-4.1\Flightcontroller_PWM_CopterRocks_Working/Libraries/CMSIS/Include\cmsis_gcc.h **** }
 879:C:\Workspaces\DAVE-4.1\Flightcontroller_PWM_CopterRocks_Working/Libraries/CMSIS/Include\cmsis_gcc.h **** 
 880:C:\Workspaces\DAVE-4.1\Flightcontroller_PWM_CopterRocks_Working/Libraries/CMSIS/Include\cmsis_gcc.h **** 
 881:C:\Workspaces\DAVE-4.1\Flightcontroller_PWM_CopterRocks_Working/Libraries/CMSIS/Include\cmsis_gcc.h **** __attribute__( ( always_inline ) ) __STATIC_INLINE uint32_t __SSUB8(uint32_t op1, uint32_t op2)
 882:C:\Workspaces\DAVE-4.1\Flightcontroller_PWM_CopterRocks_Working/Libraries/CMSIS/Include\cmsis_gcc.h **** {
 883:C:\Workspaces\DAVE-4.1\Flightcontroller_PWM_CopterRocks_Working/Libraries/CMSIS/Include\cmsis_gcc.h ****   uint32_t result;
 884:C:\Workspaces\DAVE-4.1\Flightcontroller_PWM_CopterRocks_Working/Libraries/CMSIS/Include\cmsis_gcc.h **** 
 885:C:\Workspaces\DAVE-4.1\Flightcontroller_PWM_CopterRocks_Working/Libraries/CMSIS/Include\cmsis_gcc.h ****   __ASM volatile ("ssub8 %0, %1, %2" : "=r" (result) : "r" (op1), "r" (op2) );
 886:C:\Workspaces\DAVE-4.1\Flightcontroller_PWM_CopterRocks_Working/Libraries/CMSIS/Include\cmsis_gcc.h ****   return(result);
 887:C:\Workspaces\DAVE-4.1\Flightcontroller_PWM_CopterRocks_Working/Libraries/CMSIS/Include\cmsis_gcc.h **** }
 888:C:\Workspaces\DAVE-4.1\Flightcontroller_PWM_CopterRocks_Working/Libraries/CMSIS/Include\cmsis_gcc.h **** 
 889:C:\Workspaces\DAVE-4.1\Flightcontroller_PWM_CopterRocks_Working/Libraries/CMSIS/Include\cmsis_gcc.h **** __attribute__( ( always_inline ) ) __STATIC_INLINE uint32_t __QSUB8(uint32_t op1, uint32_t op2)
 890:C:\Workspaces\DAVE-4.1\Flightcontroller_PWM_CopterRocks_Working/Libraries/CMSIS/Include\cmsis_gcc.h **** {
 891:C:\Workspaces\DAVE-4.1\Flightcontroller_PWM_CopterRocks_Working/Libraries/CMSIS/Include\cmsis_gcc.h ****   uint32_t result;
 892:C:\Workspaces\DAVE-4.1\Flightcontroller_PWM_CopterRocks_Working/Libraries/CMSIS/Include\cmsis_gcc.h **** 
 893:C:\Workspaces\DAVE-4.1\Flightcontroller_PWM_CopterRocks_Working/Libraries/CMSIS/Include\cmsis_gcc.h ****   __ASM volatile ("qsub8 %0, %1, %2" : "=r" (result) : "r" (op1), "r" (op2) );
 894:C:\Workspaces\DAVE-4.1\Flightcontroller_PWM_CopterRocks_Working/Libraries/CMSIS/Include\cmsis_gcc.h ****   return(result);
 895:C:\Workspaces\DAVE-4.1\Flightcontroller_PWM_CopterRocks_Working/Libraries/CMSIS/Include\cmsis_gcc.h **** }
 896:C:\Workspaces\DAVE-4.1\Flightcontroller_PWM_CopterRocks_Working/Libraries/CMSIS/Include\cmsis_gcc.h **** 
 897:C:\Workspaces\DAVE-4.1\Flightcontroller_PWM_CopterRocks_Working/Libraries/CMSIS/Include\cmsis_gcc.h **** __attribute__( ( always_inline ) ) __STATIC_INLINE uint32_t __SHSUB8(uint32_t op1, uint32_t op2)
 898:C:\Workspaces\DAVE-4.1\Flightcontroller_PWM_CopterRocks_Working/Libraries/CMSIS/Include\cmsis_gcc.h **** {
 899:C:\Workspaces\DAVE-4.1\Flightcontroller_PWM_CopterRocks_Working/Libraries/CMSIS/Include\cmsis_gcc.h ****   uint32_t result;
 900:C:\Workspaces\DAVE-4.1\Flightcontroller_PWM_CopterRocks_Working/Libraries/CMSIS/Include\cmsis_gcc.h **** 
 901:C:\Workspaces\DAVE-4.1\Flightcontroller_PWM_CopterRocks_Working/Libraries/CMSIS/Include\cmsis_gcc.h ****   __ASM volatile ("shsub8 %0, %1, %2" : "=r" (result) : "r" (op1), "r" (op2) );
 902:C:\Workspaces\DAVE-4.1\Flightcontroller_PWM_CopterRocks_Working/Libraries/CMSIS/Include\cmsis_gcc.h ****   return(result);
 903:C:\Workspaces\DAVE-4.1\Flightcontroller_PWM_CopterRocks_Working/Libraries/CMSIS/Include\cmsis_gcc.h **** }
 904:C:\Workspaces\DAVE-4.1\Flightcontroller_PWM_CopterRocks_Working/Libraries/CMSIS/Include\cmsis_gcc.h **** 
 905:C:\Workspaces\DAVE-4.1\Flightcontroller_PWM_CopterRocks_Working/Libraries/CMSIS/Include\cmsis_gcc.h **** __attribute__( ( always_inline ) ) __STATIC_INLINE uint32_t __USUB8(uint32_t op1, uint32_t op2)
 906:C:\Workspaces\DAVE-4.1\Flightcontroller_PWM_CopterRocks_Working/Libraries/CMSIS/Include\cmsis_gcc.h **** {
 907:C:\Workspaces\DAVE-4.1\Flightcontroller_PWM_CopterRocks_Working/Libraries/CMSIS/Include\cmsis_gcc.h ****   uint32_t result;
 908:C:\Workspaces\DAVE-4.1\Flightcontroller_PWM_CopterRocks_Working/Libraries/CMSIS/Include\cmsis_gcc.h **** 
 909:C:\Workspaces\DAVE-4.1\Flightcontroller_PWM_CopterRocks_Working/Libraries/CMSIS/Include\cmsis_gcc.h ****   __ASM volatile ("usub8 %0, %1, %2" : "=r" (result) : "r" (op1), "r" (op2) );
 910:C:\Workspaces\DAVE-4.1\Flightcontroller_PWM_CopterRocks_Working/Libraries/CMSIS/Include\cmsis_gcc.h ****   return(result);
 911:C:\Workspaces\DAVE-4.1\Flightcontroller_PWM_CopterRocks_Working/Libraries/CMSIS/Include\cmsis_gcc.h **** }
 912:C:\Workspaces\DAVE-4.1\Flightcontroller_PWM_CopterRocks_Working/Libraries/CMSIS/Include\cmsis_gcc.h **** 
 913:C:\Workspaces\DAVE-4.1\Flightcontroller_PWM_CopterRocks_Working/Libraries/CMSIS/Include\cmsis_gcc.h **** __attribute__( ( always_inline ) ) __STATIC_INLINE uint32_t __UQSUB8(uint32_t op1, uint32_t op2)
 914:C:\Workspaces\DAVE-4.1\Flightcontroller_PWM_CopterRocks_Working/Libraries/CMSIS/Include\cmsis_gcc.h **** {
 915:C:\Workspaces\DAVE-4.1\Flightcontroller_PWM_CopterRocks_Working/Libraries/CMSIS/Include\cmsis_gcc.h ****   uint32_t result;
 916:C:\Workspaces\DAVE-4.1\Flightcontroller_PWM_CopterRocks_Working/Libraries/CMSIS/Include\cmsis_gcc.h **** 
 917:C:\Workspaces\DAVE-4.1\Flightcontroller_PWM_CopterRocks_Working/Libraries/CMSIS/Include\cmsis_gcc.h ****   __ASM volatile ("uqsub8 %0, %1, %2" : "=r" (result) : "r" (op1), "r" (op2) );
 918:C:\Workspaces\DAVE-4.1\Flightcontroller_PWM_CopterRocks_Working/Libraries/CMSIS/Include\cmsis_gcc.h ****   return(result);
 919:C:\Workspaces\DAVE-4.1\Flightcontroller_PWM_CopterRocks_Working/Libraries/CMSIS/Include\cmsis_gcc.h **** }
 920:C:\Workspaces\DAVE-4.1\Flightcontroller_PWM_CopterRocks_Working/Libraries/CMSIS/Include\cmsis_gcc.h **** 
 921:C:\Workspaces\DAVE-4.1\Flightcontroller_PWM_CopterRocks_Working/Libraries/CMSIS/Include\cmsis_gcc.h **** __attribute__( ( always_inline ) ) __STATIC_INLINE uint32_t __UHSUB8(uint32_t op1, uint32_t op2)
 922:C:\Workspaces\DAVE-4.1\Flightcontroller_PWM_CopterRocks_Working/Libraries/CMSIS/Include\cmsis_gcc.h **** {
 923:C:\Workspaces\DAVE-4.1\Flightcontroller_PWM_CopterRocks_Working/Libraries/CMSIS/Include\cmsis_gcc.h ****   uint32_t result;
 924:C:\Workspaces\DAVE-4.1\Flightcontroller_PWM_CopterRocks_Working/Libraries/CMSIS/Include\cmsis_gcc.h **** 
 925:C:\Workspaces\DAVE-4.1\Flightcontroller_PWM_CopterRocks_Working/Libraries/CMSIS/Include\cmsis_gcc.h ****   __ASM volatile ("uhsub8 %0, %1, %2" : "=r" (result) : "r" (op1), "r" (op2) );
 926:C:\Workspaces\DAVE-4.1\Flightcontroller_PWM_CopterRocks_Working/Libraries/CMSIS/Include\cmsis_gcc.h ****   return(result);
 927:C:\Workspaces\DAVE-4.1\Flightcontroller_PWM_CopterRocks_Working/Libraries/CMSIS/Include\cmsis_gcc.h **** }
 928:C:\Workspaces\DAVE-4.1\Flightcontroller_PWM_CopterRocks_Working/Libraries/CMSIS/Include\cmsis_gcc.h **** 
 929:C:\Workspaces\DAVE-4.1\Flightcontroller_PWM_CopterRocks_Working/Libraries/CMSIS/Include\cmsis_gcc.h **** 
 930:C:\Workspaces\DAVE-4.1\Flightcontroller_PWM_CopterRocks_Working/Libraries/CMSIS/Include\cmsis_gcc.h **** __attribute__( ( always_inline ) ) __STATIC_INLINE uint32_t __SADD16(uint32_t op1, uint32_t op2)
 931:C:\Workspaces\DAVE-4.1\Flightcontroller_PWM_CopterRocks_Working/Libraries/CMSIS/Include\cmsis_gcc.h **** {
 932:C:\Workspaces\DAVE-4.1\Flightcontroller_PWM_CopterRocks_Working/Libraries/CMSIS/Include\cmsis_gcc.h ****   uint32_t result;
 933:C:\Workspaces\DAVE-4.1\Flightcontroller_PWM_CopterRocks_Working/Libraries/CMSIS/Include\cmsis_gcc.h **** 
 934:C:\Workspaces\DAVE-4.1\Flightcontroller_PWM_CopterRocks_Working/Libraries/CMSIS/Include\cmsis_gcc.h ****   __ASM volatile ("sadd16 %0, %1, %2" : "=r" (result) : "r" (op1), "r" (op2) );
 935:C:\Workspaces\DAVE-4.1\Flightcontroller_PWM_CopterRocks_Working/Libraries/CMSIS/Include\cmsis_gcc.h ****   return(result);
 936:C:\Workspaces\DAVE-4.1\Flightcontroller_PWM_CopterRocks_Working/Libraries/CMSIS/Include\cmsis_gcc.h **** }
 937:C:\Workspaces\DAVE-4.1\Flightcontroller_PWM_CopterRocks_Working/Libraries/CMSIS/Include\cmsis_gcc.h **** 
 938:C:\Workspaces\DAVE-4.1\Flightcontroller_PWM_CopterRocks_Working/Libraries/CMSIS/Include\cmsis_gcc.h **** __attribute__( ( always_inline ) ) __STATIC_INLINE uint32_t __QADD16(uint32_t op1, uint32_t op2)
 939:C:\Workspaces\DAVE-4.1\Flightcontroller_PWM_CopterRocks_Working/Libraries/CMSIS/Include\cmsis_gcc.h **** {
 940:C:\Workspaces\DAVE-4.1\Flightcontroller_PWM_CopterRocks_Working/Libraries/CMSIS/Include\cmsis_gcc.h ****   uint32_t result;
 941:C:\Workspaces\DAVE-4.1\Flightcontroller_PWM_CopterRocks_Working/Libraries/CMSIS/Include\cmsis_gcc.h **** 
 942:C:\Workspaces\DAVE-4.1\Flightcontroller_PWM_CopterRocks_Working/Libraries/CMSIS/Include\cmsis_gcc.h ****   __ASM volatile ("qadd16 %0, %1, %2" : "=r" (result) : "r" (op1), "r" (op2) );
 943:C:\Workspaces\DAVE-4.1\Flightcontroller_PWM_CopterRocks_Working/Libraries/CMSIS/Include\cmsis_gcc.h ****   return(result);
 944:C:\Workspaces\DAVE-4.1\Flightcontroller_PWM_CopterRocks_Working/Libraries/CMSIS/Include\cmsis_gcc.h **** }
 945:C:\Workspaces\DAVE-4.1\Flightcontroller_PWM_CopterRocks_Working/Libraries/CMSIS/Include\cmsis_gcc.h **** 
 946:C:\Workspaces\DAVE-4.1\Flightcontroller_PWM_CopterRocks_Working/Libraries/CMSIS/Include\cmsis_gcc.h **** __attribute__( ( always_inline ) ) __STATIC_INLINE uint32_t __SHADD16(uint32_t op1, uint32_t op2)
 947:C:\Workspaces\DAVE-4.1\Flightcontroller_PWM_CopterRocks_Working/Libraries/CMSIS/Include\cmsis_gcc.h **** {
 948:C:\Workspaces\DAVE-4.1\Flightcontroller_PWM_CopterRocks_Working/Libraries/CMSIS/Include\cmsis_gcc.h ****   uint32_t result;
 949:C:\Workspaces\DAVE-4.1\Flightcontroller_PWM_CopterRocks_Working/Libraries/CMSIS/Include\cmsis_gcc.h **** 
 950:C:\Workspaces\DAVE-4.1\Flightcontroller_PWM_CopterRocks_Working/Libraries/CMSIS/Include\cmsis_gcc.h ****   __ASM volatile ("shadd16 %0, %1, %2" : "=r" (result) : "r" (op1), "r" (op2) );
 951:C:\Workspaces\DAVE-4.1\Flightcontroller_PWM_CopterRocks_Working/Libraries/CMSIS/Include\cmsis_gcc.h ****   return(result);
 952:C:\Workspaces\DAVE-4.1\Flightcontroller_PWM_CopterRocks_Working/Libraries/CMSIS/Include\cmsis_gcc.h **** }
 953:C:\Workspaces\DAVE-4.1\Flightcontroller_PWM_CopterRocks_Working/Libraries/CMSIS/Include\cmsis_gcc.h **** 
 954:C:\Workspaces\DAVE-4.1\Flightcontroller_PWM_CopterRocks_Working/Libraries/CMSIS/Include\cmsis_gcc.h **** __attribute__( ( always_inline ) ) __STATIC_INLINE uint32_t __UADD16(uint32_t op1, uint32_t op2)
 955:C:\Workspaces\DAVE-4.1\Flightcontroller_PWM_CopterRocks_Working/Libraries/CMSIS/Include\cmsis_gcc.h **** {
 956:C:\Workspaces\DAVE-4.1\Flightcontroller_PWM_CopterRocks_Working/Libraries/CMSIS/Include\cmsis_gcc.h ****   uint32_t result;
 957:C:\Workspaces\DAVE-4.1\Flightcontroller_PWM_CopterRocks_Working/Libraries/CMSIS/Include\cmsis_gcc.h **** 
 958:C:\Workspaces\DAVE-4.1\Flightcontroller_PWM_CopterRocks_Working/Libraries/CMSIS/Include\cmsis_gcc.h ****   __ASM volatile ("uadd16 %0, %1, %2" : "=r" (result) : "r" (op1), "r" (op2) );
 959:C:\Workspaces\DAVE-4.1\Flightcontroller_PWM_CopterRocks_Working/Libraries/CMSIS/Include\cmsis_gcc.h ****   return(result);
 960:C:\Workspaces\DAVE-4.1\Flightcontroller_PWM_CopterRocks_Working/Libraries/CMSIS/Include\cmsis_gcc.h **** }
 961:C:\Workspaces\DAVE-4.1\Flightcontroller_PWM_CopterRocks_Working/Libraries/CMSIS/Include\cmsis_gcc.h **** 
 962:C:\Workspaces\DAVE-4.1\Flightcontroller_PWM_CopterRocks_Working/Libraries/CMSIS/Include\cmsis_gcc.h **** __attribute__( ( always_inline ) ) __STATIC_INLINE uint32_t __UQADD16(uint32_t op1, uint32_t op2)
 963:C:\Workspaces\DAVE-4.1\Flightcontroller_PWM_CopterRocks_Working/Libraries/CMSIS/Include\cmsis_gcc.h **** {
 964:C:\Workspaces\DAVE-4.1\Flightcontroller_PWM_CopterRocks_Working/Libraries/CMSIS/Include\cmsis_gcc.h ****   uint32_t result;
 965:C:\Workspaces\DAVE-4.1\Flightcontroller_PWM_CopterRocks_Working/Libraries/CMSIS/Include\cmsis_gcc.h **** 
 966:C:\Workspaces\DAVE-4.1\Flightcontroller_PWM_CopterRocks_Working/Libraries/CMSIS/Include\cmsis_gcc.h ****   __ASM volatile ("uqadd16 %0, %1, %2" : "=r" (result) : "r" (op1), "r" (op2) );
 967:C:\Workspaces\DAVE-4.1\Flightcontroller_PWM_CopterRocks_Working/Libraries/CMSIS/Include\cmsis_gcc.h ****   return(result);
 968:C:\Workspaces\DAVE-4.1\Flightcontroller_PWM_CopterRocks_Working/Libraries/CMSIS/Include\cmsis_gcc.h **** }
 969:C:\Workspaces\DAVE-4.1\Flightcontroller_PWM_CopterRocks_Working/Libraries/CMSIS/Include\cmsis_gcc.h **** 
 970:C:\Workspaces\DAVE-4.1\Flightcontroller_PWM_CopterRocks_Working/Libraries/CMSIS/Include\cmsis_gcc.h **** __attribute__( ( always_inline ) ) __STATIC_INLINE uint32_t __UHADD16(uint32_t op1, uint32_t op2)
 971:C:\Workspaces\DAVE-4.1\Flightcontroller_PWM_CopterRocks_Working/Libraries/CMSIS/Include\cmsis_gcc.h **** {
 972:C:\Workspaces\DAVE-4.1\Flightcontroller_PWM_CopterRocks_Working/Libraries/CMSIS/Include\cmsis_gcc.h ****   uint32_t result;
 973:C:\Workspaces\DAVE-4.1\Flightcontroller_PWM_CopterRocks_Working/Libraries/CMSIS/Include\cmsis_gcc.h **** 
 974:C:\Workspaces\DAVE-4.1\Flightcontroller_PWM_CopterRocks_Working/Libraries/CMSIS/Include\cmsis_gcc.h ****   __ASM volatile ("uhadd16 %0, %1, %2" : "=r" (result) : "r" (op1), "r" (op2) );
 975:C:\Workspaces\DAVE-4.1\Flightcontroller_PWM_CopterRocks_Working/Libraries/CMSIS/Include\cmsis_gcc.h ****   return(result);
 976:C:\Workspaces\DAVE-4.1\Flightcontroller_PWM_CopterRocks_Working/Libraries/CMSIS/Include\cmsis_gcc.h **** }
 977:C:\Workspaces\DAVE-4.1\Flightcontroller_PWM_CopterRocks_Working/Libraries/CMSIS/Include\cmsis_gcc.h **** 
 978:C:\Workspaces\DAVE-4.1\Flightcontroller_PWM_CopterRocks_Working/Libraries/CMSIS/Include\cmsis_gcc.h **** __attribute__( ( always_inline ) ) __STATIC_INLINE uint32_t __SSUB16(uint32_t op1, uint32_t op2)
 979:C:\Workspaces\DAVE-4.1\Flightcontroller_PWM_CopterRocks_Working/Libraries/CMSIS/Include\cmsis_gcc.h **** {
 980:C:\Workspaces\DAVE-4.1\Flightcontroller_PWM_CopterRocks_Working/Libraries/CMSIS/Include\cmsis_gcc.h ****   uint32_t result;
 981:C:\Workspaces\DAVE-4.1\Flightcontroller_PWM_CopterRocks_Working/Libraries/CMSIS/Include\cmsis_gcc.h **** 
 982:C:\Workspaces\DAVE-4.1\Flightcontroller_PWM_CopterRocks_Working/Libraries/CMSIS/Include\cmsis_gcc.h ****   __ASM volatile ("ssub16 %0, %1, %2" : "=r" (result) : "r" (op1), "r" (op2) );
 983:C:\Workspaces\DAVE-4.1\Flightcontroller_PWM_CopterRocks_Working/Libraries/CMSIS/Include\cmsis_gcc.h ****   return(result);
 984:C:\Workspaces\DAVE-4.1\Flightcontroller_PWM_CopterRocks_Working/Libraries/CMSIS/Include\cmsis_gcc.h **** }
 985:C:\Workspaces\DAVE-4.1\Flightcontroller_PWM_CopterRocks_Working/Libraries/CMSIS/Include\cmsis_gcc.h **** 
 986:C:\Workspaces\DAVE-4.1\Flightcontroller_PWM_CopterRocks_Working/Libraries/CMSIS/Include\cmsis_gcc.h **** __attribute__( ( always_inline ) ) __STATIC_INLINE uint32_t __QSUB16(uint32_t op1, uint32_t op2)
 987:C:\Workspaces\DAVE-4.1\Flightcontroller_PWM_CopterRocks_Working/Libraries/CMSIS/Include\cmsis_gcc.h **** {
 988:C:\Workspaces\DAVE-4.1\Flightcontroller_PWM_CopterRocks_Working/Libraries/CMSIS/Include\cmsis_gcc.h ****   uint32_t result;
 989:C:\Workspaces\DAVE-4.1\Flightcontroller_PWM_CopterRocks_Working/Libraries/CMSIS/Include\cmsis_gcc.h **** 
 990:C:\Workspaces\DAVE-4.1\Flightcontroller_PWM_CopterRocks_Working/Libraries/CMSIS/Include\cmsis_gcc.h ****   __ASM volatile ("qsub16 %0, %1, %2" : "=r" (result) : "r" (op1), "r" (op2) );
 991:C:\Workspaces\DAVE-4.1\Flightcontroller_PWM_CopterRocks_Working/Libraries/CMSIS/Include\cmsis_gcc.h ****   return(result);
 992:C:\Workspaces\DAVE-4.1\Flightcontroller_PWM_CopterRocks_Working/Libraries/CMSIS/Include\cmsis_gcc.h **** }
 993:C:\Workspaces\DAVE-4.1\Flightcontroller_PWM_CopterRocks_Working/Libraries/CMSIS/Include\cmsis_gcc.h **** 
 994:C:\Workspaces\DAVE-4.1\Flightcontroller_PWM_CopterRocks_Working/Libraries/CMSIS/Include\cmsis_gcc.h **** __attribute__( ( always_inline ) ) __STATIC_INLINE uint32_t __SHSUB16(uint32_t op1, uint32_t op2)
 995:C:\Workspaces\DAVE-4.1\Flightcontroller_PWM_CopterRocks_Working/Libraries/CMSIS/Include\cmsis_gcc.h **** {
 996:C:\Workspaces\DAVE-4.1\Flightcontroller_PWM_CopterRocks_Working/Libraries/CMSIS/Include\cmsis_gcc.h ****   uint32_t result;
 997:C:\Workspaces\DAVE-4.1\Flightcontroller_PWM_CopterRocks_Working/Libraries/CMSIS/Include\cmsis_gcc.h **** 
 998:C:\Workspaces\DAVE-4.1\Flightcontroller_PWM_CopterRocks_Working/Libraries/CMSIS/Include\cmsis_gcc.h ****   __ASM volatile ("shsub16 %0, %1, %2" : "=r" (result) : "r" (op1), "r" (op2) );
 999:C:\Workspaces\DAVE-4.1\Flightcontroller_PWM_CopterRocks_Working/Libraries/CMSIS/Include\cmsis_gcc.h ****   return(result);
1000:C:\Workspaces\DAVE-4.1\Flightcontroller_PWM_CopterRocks_Working/Libraries/CMSIS/Include\cmsis_gcc.h **** }
1001:C:\Workspaces\DAVE-4.1\Flightcontroller_PWM_CopterRocks_Working/Libraries/CMSIS/Include\cmsis_gcc.h **** 
1002:C:\Workspaces\DAVE-4.1\Flightcontroller_PWM_CopterRocks_Working/Libraries/CMSIS/Include\cmsis_gcc.h **** __attribute__( ( always_inline ) ) __STATIC_INLINE uint32_t __USUB16(uint32_t op1, uint32_t op2)
1003:C:\Workspaces\DAVE-4.1\Flightcontroller_PWM_CopterRocks_Working/Libraries/CMSIS/Include\cmsis_gcc.h **** {
1004:C:\Workspaces\DAVE-4.1\Flightcontroller_PWM_CopterRocks_Working/Libraries/CMSIS/Include\cmsis_gcc.h ****   uint32_t result;
1005:C:\Workspaces\DAVE-4.1\Flightcontroller_PWM_CopterRocks_Working/Libraries/CMSIS/Include\cmsis_gcc.h **** 
1006:C:\Workspaces\DAVE-4.1\Flightcontroller_PWM_CopterRocks_Working/Libraries/CMSIS/Include\cmsis_gcc.h ****   __ASM volatile ("usub16 %0, %1, %2" : "=r" (result) : "r" (op1), "r" (op2) );
1007:C:\Workspaces\DAVE-4.1\Flightcontroller_PWM_CopterRocks_Working/Libraries/CMSIS/Include\cmsis_gcc.h ****   return(result);
1008:C:\Workspaces\DAVE-4.1\Flightcontroller_PWM_CopterRocks_Working/Libraries/CMSIS/Include\cmsis_gcc.h **** }
1009:C:\Workspaces\DAVE-4.1\Flightcontroller_PWM_CopterRocks_Working/Libraries/CMSIS/Include\cmsis_gcc.h **** 
1010:C:\Workspaces\DAVE-4.1\Flightcontroller_PWM_CopterRocks_Working/Libraries/CMSIS/Include\cmsis_gcc.h **** __attribute__( ( always_inline ) ) __STATIC_INLINE uint32_t __UQSUB16(uint32_t op1, uint32_t op2)
1011:C:\Workspaces\DAVE-4.1\Flightcontroller_PWM_CopterRocks_Working/Libraries/CMSIS/Include\cmsis_gcc.h **** {
1012:C:\Workspaces\DAVE-4.1\Flightcontroller_PWM_CopterRocks_Working/Libraries/CMSIS/Include\cmsis_gcc.h ****   uint32_t result;
1013:C:\Workspaces\DAVE-4.1\Flightcontroller_PWM_CopterRocks_Working/Libraries/CMSIS/Include\cmsis_gcc.h **** 
1014:C:\Workspaces\DAVE-4.1\Flightcontroller_PWM_CopterRocks_Working/Libraries/CMSIS/Include\cmsis_gcc.h ****   __ASM volatile ("uqsub16 %0, %1, %2" : "=r" (result) : "r" (op1), "r" (op2) );
1015:C:\Workspaces\DAVE-4.1\Flightcontroller_PWM_CopterRocks_Working/Libraries/CMSIS/Include\cmsis_gcc.h ****   return(result);
1016:C:\Workspaces\DAVE-4.1\Flightcontroller_PWM_CopterRocks_Working/Libraries/CMSIS/Include\cmsis_gcc.h **** }
1017:C:\Workspaces\DAVE-4.1\Flightcontroller_PWM_CopterRocks_Working/Libraries/CMSIS/Include\cmsis_gcc.h **** 
1018:C:\Workspaces\DAVE-4.1\Flightcontroller_PWM_CopterRocks_Working/Libraries/CMSIS/Include\cmsis_gcc.h **** __attribute__( ( always_inline ) ) __STATIC_INLINE uint32_t __UHSUB16(uint32_t op1, uint32_t op2)
1019:C:\Workspaces\DAVE-4.1\Flightcontroller_PWM_CopterRocks_Working/Libraries/CMSIS/Include\cmsis_gcc.h **** {
1020:C:\Workspaces\DAVE-4.1\Flightcontroller_PWM_CopterRocks_Working/Libraries/CMSIS/Include\cmsis_gcc.h ****   uint32_t result;
1021:C:\Workspaces\DAVE-4.1\Flightcontroller_PWM_CopterRocks_Working/Libraries/CMSIS/Include\cmsis_gcc.h **** 
1022:C:\Workspaces\DAVE-4.1\Flightcontroller_PWM_CopterRocks_Working/Libraries/CMSIS/Include\cmsis_gcc.h ****   __ASM volatile ("uhsub16 %0, %1, %2" : "=r" (result) : "r" (op1), "r" (op2) );
1023:C:\Workspaces\DAVE-4.1\Flightcontroller_PWM_CopterRocks_Working/Libraries/CMSIS/Include\cmsis_gcc.h ****   return(result);
1024:C:\Workspaces\DAVE-4.1\Flightcontroller_PWM_CopterRocks_Working/Libraries/CMSIS/Include\cmsis_gcc.h **** }
1025:C:\Workspaces\DAVE-4.1\Flightcontroller_PWM_CopterRocks_Working/Libraries/CMSIS/Include\cmsis_gcc.h **** 
1026:C:\Workspaces\DAVE-4.1\Flightcontroller_PWM_CopterRocks_Working/Libraries/CMSIS/Include\cmsis_gcc.h **** __attribute__( ( always_inline ) ) __STATIC_INLINE uint32_t __SASX(uint32_t op1, uint32_t op2)
1027:C:\Workspaces\DAVE-4.1\Flightcontroller_PWM_CopterRocks_Working/Libraries/CMSIS/Include\cmsis_gcc.h **** {
1028:C:\Workspaces\DAVE-4.1\Flightcontroller_PWM_CopterRocks_Working/Libraries/CMSIS/Include\cmsis_gcc.h ****   uint32_t result;
1029:C:\Workspaces\DAVE-4.1\Flightcontroller_PWM_CopterRocks_Working/Libraries/CMSIS/Include\cmsis_gcc.h **** 
1030:C:\Workspaces\DAVE-4.1\Flightcontroller_PWM_CopterRocks_Working/Libraries/CMSIS/Include\cmsis_gcc.h ****   __ASM volatile ("sasx %0, %1, %2" : "=r" (result) : "r" (op1), "r" (op2) );
1031:C:\Workspaces\DAVE-4.1\Flightcontroller_PWM_CopterRocks_Working/Libraries/CMSIS/Include\cmsis_gcc.h ****   return(result);
1032:C:\Workspaces\DAVE-4.1\Flightcontroller_PWM_CopterRocks_Working/Libraries/CMSIS/Include\cmsis_gcc.h **** }
1033:C:\Workspaces\DAVE-4.1\Flightcontroller_PWM_CopterRocks_Working/Libraries/CMSIS/Include\cmsis_gcc.h **** 
1034:C:\Workspaces\DAVE-4.1\Flightcontroller_PWM_CopterRocks_Working/Libraries/CMSIS/Include\cmsis_gcc.h **** __attribute__( ( always_inline ) ) __STATIC_INLINE uint32_t __QASX(uint32_t op1, uint32_t op2)
1035:C:\Workspaces\DAVE-4.1\Flightcontroller_PWM_CopterRocks_Working/Libraries/CMSIS/Include\cmsis_gcc.h **** {
1036:C:\Workspaces\DAVE-4.1\Flightcontroller_PWM_CopterRocks_Working/Libraries/CMSIS/Include\cmsis_gcc.h ****   uint32_t result;
1037:C:\Workspaces\DAVE-4.1\Flightcontroller_PWM_CopterRocks_Working/Libraries/CMSIS/Include\cmsis_gcc.h **** 
1038:C:\Workspaces\DAVE-4.1\Flightcontroller_PWM_CopterRocks_Working/Libraries/CMSIS/Include\cmsis_gcc.h ****   __ASM volatile ("qasx %0, %1, %2" : "=r" (result) : "r" (op1), "r" (op2) );
1039:C:\Workspaces\DAVE-4.1\Flightcontroller_PWM_CopterRocks_Working/Libraries/CMSIS/Include\cmsis_gcc.h ****   return(result);
1040:C:\Workspaces\DAVE-4.1\Flightcontroller_PWM_CopterRocks_Working/Libraries/CMSIS/Include\cmsis_gcc.h **** }
1041:C:\Workspaces\DAVE-4.1\Flightcontroller_PWM_CopterRocks_Working/Libraries/CMSIS/Include\cmsis_gcc.h **** 
1042:C:\Workspaces\DAVE-4.1\Flightcontroller_PWM_CopterRocks_Working/Libraries/CMSIS/Include\cmsis_gcc.h **** __attribute__( ( always_inline ) ) __STATIC_INLINE uint32_t __SHASX(uint32_t op1, uint32_t op2)
1043:C:\Workspaces\DAVE-4.1\Flightcontroller_PWM_CopterRocks_Working/Libraries/CMSIS/Include\cmsis_gcc.h **** {
1044:C:\Workspaces\DAVE-4.1\Flightcontroller_PWM_CopterRocks_Working/Libraries/CMSIS/Include\cmsis_gcc.h ****   uint32_t result;
1045:C:\Workspaces\DAVE-4.1\Flightcontroller_PWM_CopterRocks_Working/Libraries/CMSIS/Include\cmsis_gcc.h **** 
1046:C:\Workspaces\DAVE-4.1\Flightcontroller_PWM_CopterRocks_Working/Libraries/CMSIS/Include\cmsis_gcc.h ****   __ASM volatile ("shasx %0, %1, %2" : "=r" (result) : "r" (op1), "r" (op2) );
1047:C:\Workspaces\DAVE-4.1\Flightcontroller_PWM_CopterRocks_Working/Libraries/CMSIS/Include\cmsis_gcc.h ****   return(result);
1048:C:\Workspaces\DAVE-4.1\Flightcontroller_PWM_CopterRocks_Working/Libraries/CMSIS/Include\cmsis_gcc.h **** }
1049:C:\Workspaces\DAVE-4.1\Flightcontroller_PWM_CopterRocks_Working/Libraries/CMSIS/Include\cmsis_gcc.h **** 
1050:C:\Workspaces\DAVE-4.1\Flightcontroller_PWM_CopterRocks_Working/Libraries/CMSIS/Include\cmsis_gcc.h **** __attribute__( ( always_inline ) ) __STATIC_INLINE uint32_t __UASX(uint32_t op1, uint32_t op2)
1051:C:\Workspaces\DAVE-4.1\Flightcontroller_PWM_CopterRocks_Working/Libraries/CMSIS/Include\cmsis_gcc.h **** {
1052:C:\Workspaces\DAVE-4.1\Flightcontroller_PWM_CopterRocks_Working/Libraries/CMSIS/Include\cmsis_gcc.h ****   uint32_t result;
1053:C:\Workspaces\DAVE-4.1\Flightcontroller_PWM_CopterRocks_Working/Libraries/CMSIS/Include\cmsis_gcc.h **** 
1054:C:\Workspaces\DAVE-4.1\Flightcontroller_PWM_CopterRocks_Working/Libraries/CMSIS/Include\cmsis_gcc.h ****   __ASM volatile ("uasx %0, %1, %2" : "=r" (result) : "r" (op1), "r" (op2) );
1055:C:\Workspaces\DAVE-4.1\Flightcontroller_PWM_CopterRocks_Working/Libraries/CMSIS/Include\cmsis_gcc.h ****   return(result);
1056:C:\Workspaces\DAVE-4.1\Flightcontroller_PWM_CopterRocks_Working/Libraries/CMSIS/Include\cmsis_gcc.h **** }
1057:C:\Workspaces\DAVE-4.1\Flightcontroller_PWM_CopterRocks_Working/Libraries/CMSIS/Include\cmsis_gcc.h **** 
1058:C:\Workspaces\DAVE-4.1\Flightcontroller_PWM_CopterRocks_Working/Libraries/CMSIS/Include\cmsis_gcc.h **** __attribute__( ( always_inline ) ) __STATIC_INLINE uint32_t __UQASX(uint32_t op1, uint32_t op2)
1059:C:\Workspaces\DAVE-4.1\Flightcontroller_PWM_CopterRocks_Working/Libraries/CMSIS/Include\cmsis_gcc.h **** {
1060:C:\Workspaces\DAVE-4.1\Flightcontroller_PWM_CopterRocks_Working/Libraries/CMSIS/Include\cmsis_gcc.h ****   uint32_t result;
1061:C:\Workspaces\DAVE-4.1\Flightcontroller_PWM_CopterRocks_Working/Libraries/CMSIS/Include\cmsis_gcc.h **** 
1062:C:\Workspaces\DAVE-4.1\Flightcontroller_PWM_CopterRocks_Working/Libraries/CMSIS/Include\cmsis_gcc.h ****   __ASM volatile ("uqasx %0, %1, %2" : "=r" (result) : "r" (op1), "r" (op2) );
1063:C:\Workspaces\DAVE-4.1\Flightcontroller_PWM_CopterRocks_Working/Libraries/CMSIS/Include\cmsis_gcc.h ****   return(result);
1064:C:\Workspaces\DAVE-4.1\Flightcontroller_PWM_CopterRocks_Working/Libraries/CMSIS/Include\cmsis_gcc.h **** }
1065:C:\Workspaces\DAVE-4.1\Flightcontroller_PWM_CopterRocks_Working/Libraries/CMSIS/Include\cmsis_gcc.h **** 
1066:C:\Workspaces\DAVE-4.1\Flightcontroller_PWM_CopterRocks_Working/Libraries/CMSIS/Include\cmsis_gcc.h **** __attribute__( ( always_inline ) ) __STATIC_INLINE uint32_t __UHASX(uint32_t op1, uint32_t op2)
1067:C:\Workspaces\DAVE-4.1\Flightcontroller_PWM_CopterRocks_Working/Libraries/CMSIS/Include\cmsis_gcc.h **** {
1068:C:\Workspaces\DAVE-4.1\Flightcontroller_PWM_CopterRocks_Working/Libraries/CMSIS/Include\cmsis_gcc.h ****   uint32_t result;
1069:C:\Workspaces\DAVE-4.1\Flightcontroller_PWM_CopterRocks_Working/Libraries/CMSIS/Include\cmsis_gcc.h **** 
1070:C:\Workspaces\DAVE-4.1\Flightcontroller_PWM_CopterRocks_Working/Libraries/CMSIS/Include\cmsis_gcc.h ****   __ASM volatile ("uhasx %0, %1, %2" : "=r" (result) : "r" (op1), "r" (op2) );
1071:C:\Workspaces\DAVE-4.1\Flightcontroller_PWM_CopterRocks_Working/Libraries/CMSIS/Include\cmsis_gcc.h ****   return(result);
1072:C:\Workspaces\DAVE-4.1\Flightcontroller_PWM_CopterRocks_Working/Libraries/CMSIS/Include\cmsis_gcc.h **** }
1073:C:\Workspaces\DAVE-4.1\Flightcontroller_PWM_CopterRocks_Working/Libraries/CMSIS/Include\cmsis_gcc.h **** 
1074:C:\Workspaces\DAVE-4.1\Flightcontroller_PWM_CopterRocks_Working/Libraries/CMSIS/Include\cmsis_gcc.h **** __attribute__( ( always_inline ) ) __STATIC_INLINE uint32_t __SSAX(uint32_t op1, uint32_t op2)
1075:C:\Workspaces\DAVE-4.1\Flightcontroller_PWM_CopterRocks_Working/Libraries/CMSIS/Include\cmsis_gcc.h **** {
1076:C:\Workspaces\DAVE-4.1\Flightcontroller_PWM_CopterRocks_Working/Libraries/CMSIS/Include\cmsis_gcc.h ****   uint32_t result;
1077:C:\Workspaces\DAVE-4.1\Flightcontroller_PWM_CopterRocks_Working/Libraries/CMSIS/Include\cmsis_gcc.h **** 
1078:C:\Workspaces\DAVE-4.1\Flightcontroller_PWM_CopterRocks_Working/Libraries/CMSIS/Include\cmsis_gcc.h ****   __ASM volatile ("ssax %0, %1, %2" : "=r" (result) : "r" (op1), "r" (op2) );
1079:C:\Workspaces\DAVE-4.1\Flightcontroller_PWM_CopterRocks_Working/Libraries/CMSIS/Include\cmsis_gcc.h ****   return(result);
1080:C:\Workspaces\DAVE-4.1\Flightcontroller_PWM_CopterRocks_Working/Libraries/CMSIS/Include\cmsis_gcc.h **** }
1081:C:\Workspaces\DAVE-4.1\Flightcontroller_PWM_CopterRocks_Working/Libraries/CMSIS/Include\cmsis_gcc.h **** 
1082:C:\Workspaces\DAVE-4.1\Flightcontroller_PWM_CopterRocks_Working/Libraries/CMSIS/Include\cmsis_gcc.h **** __attribute__( ( always_inline ) ) __STATIC_INLINE uint32_t __QSAX(uint32_t op1, uint32_t op2)
1083:C:\Workspaces\DAVE-4.1\Flightcontroller_PWM_CopterRocks_Working/Libraries/CMSIS/Include\cmsis_gcc.h **** {
1084:C:\Workspaces\DAVE-4.1\Flightcontroller_PWM_CopterRocks_Working/Libraries/CMSIS/Include\cmsis_gcc.h ****   uint32_t result;
1085:C:\Workspaces\DAVE-4.1\Flightcontroller_PWM_CopterRocks_Working/Libraries/CMSIS/Include\cmsis_gcc.h **** 
1086:C:\Workspaces\DAVE-4.1\Flightcontroller_PWM_CopterRocks_Working/Libraries/CMSIS/Include\cmsis_gcc.h ****   __ASM volatile ("qsax %0, %1, %2" : "=r" (result) : "r" (op1), "r" (op2) );
1087:C:\Workspaces\DAVE-4.1\Flightcontroller_PWM_CopterRocks_Working/Libraries/CMSIS/Include\cmsis_gcc.h ****   return(result);
1088:C:\Workspaces\DAVE-4.1\Flightcontroller_PWM_CopterRocks_Working/Libraries/CMSIS/Include\cmsis_gcc.h **** }
1089:C:\Workspaces\DAVE-4.1\Flightcontroller_PWM_CopterRocks_Working/Libraries/CMSIS/Include\cmsis_gcc.h **** 
1090:C:\Workspaces\DAVE-4.1\Flightcontroller_PWM_CopterRocks_Working/Libraries/CMSIS/Include\cmsis_gcc.h **** __attribute__( ( always_inline ) ) __STATIC_INLINE uint32_t __SHSAX(uint32_t op1, uint32_t op2)
1091:C:\Workspaces\DAVE-4.1\Flightcontroller_PWM_CopterRocks_Working/Libraries/CMSIS/Include\cmsis_gcc.h **** {
1092:C:\Workspaces\DAVE-4.1\Flightcontroller_PWM_CopterRocks_Working/Libraries/CMSIS/Include\cmsis_gcc.h ****   uint32_t result;
1093:C:\Workspaces\DAVE-4.1\Flightcontroller_PWM_CopterRocks_Working/Libraries/CMSIS/Include\cmsis_gcc.h **** 
1094:C:\Workspaces\DAVE-4.1\Flightcontroller_PWM_CopterRocks_Working/Libraries/CMSIS/Include\cmsis_gcc.h ****   __ASM volatile ("shsax %0, %1, %2" : "=r" (result) : "r" (op1), "r" (op2) );
1095:C:\Workspaces\DAVE-4.1\Flightcontroller_PWM_CopterRocks_Working/Libraries/CMSIS/Include\cmsis_gcc.h ****   return(result);
1096:C:\Workspaces\DAVE-4.1\Flightcontroller_PWM_CopterRocks_Working/Libraries/CMSIS/Include\cmsis_gcc.h **** }
1097:C:\Workspaces\DAVE-4.1\Flightcontroller_PWM_CopterRocks_Working/Libraries/CMSIS/Include\cmsis_gcc.h **** 
1098:C:\Workspaces\DAVE-4.1\Flightcontroller_PWM_CopterRocks_Working/Libraries/CMSIS/Include\cmsis_gcc.h **** __attribute__( ( always_inline ) ) __STATIC_INLINE uint32_t __USAX(uint32_t op1, uint32_t op2)
1099:C:\Workspaces\DAVE-4.1\Flightcontroller_PWM_CopterRocks_Working/Libraries/CMSIS/Include\cmsis_gcc.h **** {
1100:C:\Workspaces\DAVE-4.1\Flightcontroller_PWM_CopterRocks_Working/Libraries/CMSIS/Include\cmsis_gcc.h ****   uint32_t result;
1101:C:\Workspaces\DAVE-4.1\Flightcontroller_PWM_CopterRocks_Working/Libraries/CMSIS/Include\cmsis_gcc.h **** 
1102:C:\Workspaces\DAVE-4.1\Flightcontroller_PWM_CopterRocks_Working/Libraries/CMSIS/Include\cmsis_gcc.h ****   __ASM volatile ("usax %0, %1, %2" : "=r" (result) : "r" (op1), "r" (op2) );
1103:C:\Workspaces\DAVE-4.1\Flightcontroller_PWM_CopterRocks_Working/Libraries/CMSIS/Include\cmsis_gcc.h ****   return(result);
1104:C:\Workspaces\DAVE-4.1\Flightcontroller_PWM_CopterRocks_Working/Libraries/CMSIS/Include\cmsis_gcc.h **** }
1105:C:\Workspaces\DAVE-4.1\Flightcontroller_PWM_CopterRocks_Working/Libraries/CMSIS/Include\cmsis_gcc.h **** 
1106:C:\Workspaces\DAVE-4.1\Flightcontroller_PWM_CopterRocks_Working/Libraries/CMSIS/Include\cmsis_gcc.h **** __attribute__( ( always_inline ) ) __STATIC_INLINE uint32_t __UQSAX(uint32_t op1, uint32_t op2)
1107:C:\Workspaces\DAVE-4.1\Flightcontroller_PWM_CopterRocks_Working/Libraries/CMSIS/Include\cmsis_gcc.h **** {
1108:C:\Workspaces\DAVE-4.1\Flightcontroller_PWM_CopterRocks_Working/Libraries/CMSIS/Include\cmsis_gcc.h ****   uint32_t result;
1109:C:\Workspaces\DAVE-4.1\Flightcontroller_PWM_CopterRocks_Working/Libraries/CMSIS/Include\cmsis_gcc.h **** 
1110:C:\Workspaces\DAVE-4.1\Flightcontroller_PWM_CopterRocks_Working/Libraries/CMSIS/Include\cmsis_gcc.h ****   __ASM volatile ("uqsax %0, %1, %2" : "=r" (result) : "r" (op1), "r" (op2) );
1111:C:\Workspaces\DAVE-4.1\Flightcontroller_PWM_CopterRocks_Working/Libraries/CMSIS/Include\cmsis_gcc.h ****   return(result);
1112:C:\Workspaces\DAVE-4.1\Flightcontroller_PWM_CopterRocks_Working/Libraries/CMSIS/Include\cmsis_gcc.h **** }
1113:C:\Workspaces\DAVE-4.1\Flightcontroller_PWM_CopterRocks_Working/Libraries/CMSIS/Include\cmsis_gcc.h **** 
1114:C:\Workspaces\DAVE-4.1\Flightcontroller_PWM_CopterRocks_Working/Libraries/CMSIS/Include\cmsis_gcc.h **** __attribute__( ( always_inline ) ) __STATIC_INLINE uint32_t __UHSAX(uint32_t op1, uint32_t op2)
1115:C:\Workspaces\DAVE-4.1\Flightcontroller_PWM_CopterRocks_Working/Libraries/CMSIS/Include\cmsis_gcc.h **** {
1116:C:\Workspaces\DAVE-4.1\Flightcontroller_PWM_CopterRocks_Working/Libraries/CMSIS/Include\cmsis_gcc.h ****   uint32_t result;
1117:C:\Workspaces\DAVE-4.1\Flightcontroller_PWM_CopterRocks_Working/Libraries/CMSIS/Include\cmsis_gcc.h **** 
1118:C:\Workspaces\DAVE-4.1\Flightcontroller_PWM_CopterRocks_Working/Libraries/CMSIS/Include\cmsis_gcc.h ****   __ASM volatile ("uhsax %0, %1, %2" : "=r" (result) : "r" (op1), "r" (op2) );
1119:C:\Workspaces\DAVE-4.1\Flightcontroller_PWM_CopterRocks_Working/Libraries/CMSIS/Include\cmsis_gcc.h ****   return(result);
1120:C:\Workspaces\DAVE-4.1\Flightcontroller_PWM_CopterRocks_Working/Libraries/CMSIS/Include\cmsis_gcc.h **** }
1121:C:\Workspaces\DAVE-4.1\Flightcontroller_PWM_CopterRocks_Working/Libraries/CMSIS/Include\cmsis_gcc.h **** 
1122:C:\Workspaces\DAVE-4.1\Flightcontroller_PWM_CopterRocks_Working/Libraries/CMSIS/Include\cmsis_gcc.h **** __attribute__( ( always_inline ) ) __STATIC_INLINE uint32_t __USAD8(uint32_t op1, uint32_t op2)
1123:C:\Workspaces\DAVE-4.1\Flightcontroller_PWM_CopterRocks_Working/Libraries/CMSIS/Include\cmsis_gcc.h **** {
1124:C:\Workspaces\DAVE-4.1\Flightcontroller_PWM_CopterRocks_Working/Libraries/CMSIS/Include\cmsis_gcc.h ****   uint32_t result;
1125:C:\Workspaces\DAVE-4.1\Flightcontroller_PWM_CopterRocks_Working/Libraries/CMSIS/Include\cmsis_gcc.h **** 
1126:C:\Workspaces\DAVE-4.1\Flightcontroller_PWM_CopterRocks_Working/Libraries/CMSIS/Include\cmsis_gcc.h ****   __ASM volatile ("usad8 %0, %1, %2" : "=r" (result) : "r" (op1), "r" (op2) );
1127:C:\Workspaces\DAVE-4.1\Flightcontroller_PWM_CopterRocks_Working/Libraries/CMSIS/Include\cmsis_gcc.h ****   return(result);
1128:C:\Workspaces\DAVE-4.1\Flightcontroller_PWM_CopterRocks_Working/Libraries/CMSIS/Include\cmsis_gcc.h **** }
1129:C:\Workspaces\DAVE-4.1\Flightcontroller_PWM_CopterRocks_Working/Libraries/CMSIS/Include\cmsis_gcc.h **** 
1130:C:\Workspaces\DAVE-4.1\Flightcontroller_PWM_CopterRocks_Working/Libraries/CMSIS/Include\cmsis_gcc.h **** __attribute__( ( always_inline ) ) __STATIC_INLINE uint32_t __USADA8(uint32_t op1, uint32_t op2, ui
1131:C:\Workspaces\DAVE-4.1\Flightcontroller_PWM_CopterRocks_Working/Libraries/CMSIS/Include\cmsis_gcc.h **** {
1132:C:\Workspaces\DAVE-4.1\Flightcontroller_PWM_CopterRocks_Working/Libraries/CMSIS/Include\cmsis_gcc.h ****   uint32_t result;
1133:C:\Workspaces\DAVE-4.1\Flightcontroller_PWM_CopterRocks_Working/Libraries/CMSIS/Include\cmsis_gcc.h **** 
1134:C:\Workspaces\DAVE-4.1\Flightcontroller_PWM_CopterRocks_Working/Libraries/CMSIS/Include\cmsis_gcc.h ****   __ASM volatile ("usada8 %0, %1, %2, %3" : "=r" (result) : "r" (op1), "r" (op2), "r" (op3) );
1135:C:\Workspaces\DAVE-4.1\Flightcontroller_PWM_CopterRocks_Working/Libraries/CMSIS/Include\cmsis_gcc.h ****   return(result);
1136:C:\Workspaces\DAVE-4.1\Flightcontroller_PWM_CopterRocks_Working/Libraries/CMSIS/Include\cmsis_gcc.h **** }
1137:C:\Workspaces\DAVE-4.1\Flightcontroller_PWM_CopterRocks_Working/Libraries/CMSIS/Include\cmsis_gcc.h **** 
1138:C:\Workspaces\DAVE-4.1\Flightcontroller_PWM_CopterRocks_Working/Libraries/CMSIS/Include\cmsis_gcc.h **** #define __SSAT16(ARG1,ARG2) \
1139:C:\Workspaces\DAVE-4.1\Flightcontroller_PWM_CopterRocks_Working/Libraries/CMSIS/Include\cmsis_gcc.h **** ({                          \
1140:C:\Workspaces\DAVE-4.1\Flightcontroller_PWM_CopterRocks_Working/Libraries/CMSIS/Include\cmsis_gcc.h ****   int32_t __RES, __ARG1 = (ARG1); \
1141:C:\Workspaces\DAVE-4.1\Flightcontroller_PWM_CopterRocks_Working/Libraries/CMSIS/Include\cmsis_gcc.h ****   __ASM ("ssat16 %0, %1, %2" : "=r" (__RES) :  "I" (ARG2), "r" (__ARG1) ); \
1142:C:\Workspaces\DAVE-4.1\Flightcontroller_PWM_CopterRocks_Working/Libraries/CMSIS/Include\cmsis_gcc.h ****   __RES; \
1143:C:\Workspaces\DAVE-4.1\Flightcontroller_PWM_CopterRocks_Working/Libraries/CMSIS/Include\cmsis_gcc.h ****  })
1144:C:\Workspaces\DAVE-4.1\Flightcontroller_PWM_CopterRocks_Working/Libraries/CMSIS/Include\cmsis_gcc.h **** 
1145:C:\Workspaces\DAVE-4.1\Flightcontroller_PWM_CopterRocks_Working/Libraries/CMSIS/Include\cmsis_gcc.h **** #define __USAT16(ARG1,ARG2) \
1146:C:\Workspaces\DAVE-4.1\Flightcontroller_PWM_CopterRocks_Working/Libraries/CMSIS/Include\cmsis_gcc.h **** ({                          \
1147:C:\Workspaces\DAVE-4.1\Flightcontroller_PWM_CopterRocks_Working/Libraries/CMSIS/Include\cmsis_gcc.h ****   uint32_t __RES, __ARG1 = (ARG1); \
1148:C:\Workspaces\DAVE-4.1\Flightcontroller_PWM_CopterRocks_Working/Libraries/CMSIS/Include\cmsis_gcc.h ****   __ASM ("usat16 %0, %1, %2" : "=r" (__RES) :  "I" (ARG2), "r" (__ARG1) ); \
1149:C:\Workspaces\DAVE-4.1\Flightcontroller_PWM_CopterRocks_Working/Libraries/CMSIS/Include\cmsis_gcc.h ****   __RES; \
1150:C:\Workspaces\DAVE-4.1\Flightcontroller_PWM_CopterRocks_Working/Libraries/CMSIS/Include\cmsis_gcc.h ****  })
1151:C:\Workspaces\DAVE-4.1\Flightcontroller_PWM_CopterRocks_Working/Libraries/CMSIS/Include\cmsis_gcc.h **** 
1152:C:\Workspaces\DAVE-4.1\Flightcontroller_PWM_CopterRocks_Working/Libraries/CMSIS/Include\cmsis_gcc.h **** __attribute__( ( always_inline ) ) __STATIC_INLINE uint32_t __UXTB16(uint32_t op1)
1153:C:\Workspaces\DAVE-4.1\Flightcontroller_PWM_CopterRocks_Working/Libraries/CMSIS/Include\cmsis_gcc.h **** {
1154:C:\Workspaces\DAVE-4.1\Flightcontroller_PWM_CopterRocks_Working/Libraries/CMSIS/Include\cmsis_gcc.h ****   uint32_t result;
1155:C:\Workspaces\DAVE-4.1\Flightcontroller_PWM_CopterRocks_Working/Libraries/CMSIS/Include\cmsis_gcc.h **** 
1156:C:\Workspaces\DAVE-4.1\Flightcontroller_PWM_CopterRocks_Working/Libraries/CMSIS/Include\cmsis_gcc.h ****   __ASM volatile ("uxtb16 %0, %1" : "=r" (result) : "r" (op1));
1157:C:\Workspaces\DAVE-4.1\Flightcontroller_PWM_CopterRocks_Working/Libraries/CMSIS/Include\cmsis_gcc.h ****   return(result);
1158:C:\Workspaces\DAVE-4.1\Flightcontroller_PWM_CopterRocks_Working/Libraries/CMSIS/Include\cmsis_gcc.h **** }
1159:C:\Workspaces\DAVE-4.1\Flightcontroller_PWM_CopterRocks_Working/Libraries/CMSIS/Include\cmsis_gcc.h **** 
1160:C:\Workspaces\DAVE-4.1\Flightcontroller_PWM_CopterRocks_Working/Libraries/CMSIS/Include\cmsis_gcc.h **** __attribute__( ( always_inline ) ) __STATIC_INLINE uint32_t __UXTAB16(uint32_t op1, uint32_t op2)
1161:C:\Workspaces\DAVE-4.1\Flightcontroller_PWM_CopterRocks_Working/Libraries/CMSIS/Include\cmsis_gcc.h **** {
1162:C:\Workspaces\DAVE-4.1\Flightcontroller_PWM_CopterRocks_Working/Libraries/CMSIS/Include\cmsis_gcc.h ****   uint32_t result;
1163:C:\Workspaces\DAVE-4.1\Flightcontroller_PWM_CopterRocks_Working/Libraries/CMSIS/Include\cmsis_gcc.h **** 
1164:C:\Workspaces\DAVE-4.1\Flightcontroller_PWM_CopterRocks_Working/Libraries/CMSIS/Include\cmsis_gcc.h ****   __ASM volatile ("uxtab16 %0, %1, %2" : "=r" (result) : "r" (op1), "r" (op2) );
1165:C:\Workspaces\DAVE-4.1\Flightcontroller_PWM_CopterRocks_Working/Libraries/CMSIS/Include\cmsis_gcc.h ****   return(result);
1166:C:\Workspaces\DAVE-4.1\Flightcontroller_PWM_CopterRocks_Working/Libraries/CMSIS/Include\cmsis_gcc.h **** }
1167:C:\Workspaces\DAVE-4.1\Flightcontroller_PWM_CopterRocks_Working/Libraries/CMSIS/Include\cmsis_gcc.h **** 
1168:C:\Workspaces\DAVE-4.1\Flightcontroller_PWM_CopterRocks_Working/Libraries/CMSIS/Include\cmsis_gcc.h **** __attribute__( ( always_inline ) ) __STATIC_INLINE uint32_t __SXTB16(uint32_t op1)
1169:C:\Workspaces\DAVE-4.1\Flightcontroller_PWM_CopterRocks_Working/Libraries/CMSIS/Include\cmsis_gcc.h **** {
1170:C:\Workspaces\DAVE-4.1\Flightcontroller_PWM_CopterRocks_Working/Libraries/CMSIS/Include\cmsis_gcc.h ****   uint32_t result;
1171:C:\Workspaces\DAVE-4.1\Flightcontroller_PWM_CopterRocks_Working/Libraries/CMSIS/Include\cmsis_gcc.h **** 
1172:C:\Workspaces\DAVE-4.1\Flightcontroller_PWM_CopterRocks_Working/Libraries/CMSIS/Include\cmsis_gcc.h ****   __ASM volatile ("sxtb16 %0, %1" : "=r" (result) : "r" (op1));
1173:C:\Workspaces\DAVE-4.1\Flightcontroller_PWM_CopterRocks_Working/Libraries/CMSIS/Include\cmsis_gcc.h ****   return(result);
1174:C:\Workspaces\DAVE-4.1\Flightcontroller_PWM_CopterRocks_Working/Libraries/CMSIS/Include\cmsis_gcc.h **** }
1175:C:\Workspaces\DAVE-4.1\Flightcontroller_PWM_CopterRocks_Working/Libraries/CMSIS/Include\cmsis_gcc.h **** 
1176:C:\Workspaces\DAVE-4.1\Flightcontroller_PWM_CopterRocks_Working/Libraries/CMSIS/Include\cmsis_gcc.h **** __attribute__( ( always_inline ) ) __STATIC_INLINE uint32_t __SXTAB16(uint32_t op1, uint32_t op2)
1177:C:\Workspaces\DAVE-4.1\Flightcontroller_PWM_CopterRocks_Working/Libraries/CMSIS/Include\cmsis_gcc.h **** {
1178:C:\Workspaces\DAVE-4.1\Flightcontroller_PWM_CopterRocks_Working/Libraries/CMSIS/Include\cmsis_gcc.h ****   uint32_t result;
1179:C:\Workspaces\DAVE-4.1\Flightcontroller_PWM_CopterRocks_Working/Libraries/CMSIS/Include\cmsis_gcc.h **** 
1180:C:\Workspaces\DAVE-4.1\Flightcontroller_PWM_CopterRocks_Working/Libraries/CMSIS/Include\cmsis_gcc.h ****   __ASM volatile ("sxtab16 %0, %1, %2" : "=r" (result) : "r" (op1), "r" (op2) );
1181:C:\Workspaces\DAVE-4.1\Flightcontroller_PWM_CopterRocks_Working/Libraries/CMSIS/Include\cmsis_gcc.h ****   return(result);
1182:C:\Workspaces\DAVE-4.1\Flightcontroller_PWM_CopterRocks_Working/Libraries/CMSIS/Include\cmsis_gcc.h **** }
1183:C:\Workspaces\DAVE-4.1\Flightcontroller_PWM_CopterRocks_Working/Libraries/CMSIS/Include\cmsis_gcc.h **** 
1184:C:\Workspaces\DAVE-4.1\Flightcontroller_PWM_CopterRocks_Working/Libraries/CMSIS/Include\cmsis_gcc.h **** __attribute__( ( always_inline ) ) __STATIC_INLINE uint32_t __SMUAD  (uint32_t op1, uint32_t op2)
1185:C:\Workspaces\DAVE-4.1\Flightcontroller_PWM_CopterRocks_Working/Libraries/CMSIS/Include\cmsis_gcc.h **** {
1186:C:\Workspaces\DAVE-4.1\Flightcontroller_PWM_CopterRocks_Working/Libraries/CMSIS/Include\cmsis_gcc.h ****   uint32_t result;
1187:C:\Workspaces\DAVE-4.1\Flightcontroller_PWM_CopterRocks_Working/Libraries/CMSIS/Include\cmsis_gcc.h **** 
1188:C:\Workspaces\DAVE-4.1\Flightcontroller_PWM_CopterRocks_Working/Libraries/CMSIS/Include\cmsis_gcc.h ****   __ASM volatile ("smuad %0, %1, %2" : "=r" (result) : "r" (op1), "r" (op2) );
1189:C:\Workspaces\DAVE-4.1\Flightcontroller_PWM_CopterRocks_Working/Libraries/CMSIS/Include\cmsis_gcc.h ****   return(result);
1190:C:\Workspaces\DAVE-4.1\Flightcontroller_PWM_CopterRocks_Working/Libraries/CMSIS/Include\cmsis_gcc.h **** }
1191:C:\Workspaces\DAVE-4.1\Flightcontroller_PWM_CopterRocks_Working/Libraries/CMSIS/Include\cmsis_gcc.h **** 
1192:C:\Workspaces\DAVE-4.1\Flightcontroller_PWM_CopterRocks_Working/Libraries/CMSIS/Include\cmsis_gcc.h **** __attribute__( ( always_inline ) ) __STATIC_INLINE uint32_t __SMUADX (uint32_t op1, uint32_t op2)
1193:C:\Workspaces\DAVE-4.1\Flightcontroller_PWM_CopterRocks_Working/Libraries/CMSIS/Include\cmsis_gcc.h **** {
1194:C:\Workspaces\DAVE-4.1\Flightcontroller_PWM_CopterRocks_Working/Libraries/CMSIS/Include\cmsis_gcc.h ****   uint32_t result;
1195:C:\Workspaces\DAVE-4.1\Flightcontroller_PWM_CopterRocks_Working/Libraries/CMSIS/Include\cmsis_gcc.h **** 
1196:C:\Workspaces\DAVE-4.1\Flightcontroller_PWM_CopterRocks_Working/Libraries/CMSIS/Include\cmsis_gcc.h ****   __ASM volatile ("smuadx %0, %1, %2" : "=r" (result) : "r" (op1), "r" (op2) );
1197:C:\Workspaces\DAVE-4.1\Flightcontroller_PWM_CopterRocks_Working/Libraries/CMSIS/Include\cmsis_gcc.h ****   return(result);
1198:C:\Workspaces\DAVE-4.1\Flightcontroller_PWM_CopterRocks_Working/Libraries/CMSIS/Include\cmsis_gcc.h **** }
1199:C:\Workspaces\DAVE-4.1\Flightcontroller_PWM_CopterRocks_Working/Libraries/CMSIS/Include\cmsis_gcc.h **** 
1200:C:\Workspaces\DAVE-4.1\Flightcontroller_PWM_CopterRocks_Working/Libraries/CMSIS/Include\cmsis_gcc.h **** __attribute__( ( always_inline ) ) __STATIC_INLINE uint32_t __SMLAD (uint32_t op1, uint32_t op2, ui
1201:C:\Workspaces\DAVE-4.1\Flightcontroller_PWM_CopterRocks_Working/Libraries/CMSIS/Include\cmsis_gcc.h **** {
1202:C:\Workspaces\DAVE-4.1\Flightcontroller_PWM_CopterRocks_Working/Libraries/CMSIS/Include\cmsis_gcc.h ****   uint32_t result;
1203:C:\Workspaces\DAVE-4.1\Flightcontroller_PWM_CopterRocks_Working/Libraries/CMSIS/Include\cmsis_gcc.h **** 
1204:C:\Workspaces\DAVE-4.1\Flightcontroller_PWM_CopterRocks_Working/Libraries/CMSIS/Include\cmsis_gcc.h ****   __ASM volatile ("smlad %0, %1, %2, %3" : "=r" (result) : "r" (op1), "r" (op2), "r" (op3) );
 286              	 .loc 2 1204 0
 287 0220 D7F8EC30 	 ldr r3,[r7,#236]
 288 0224 D7F8E820 	 ldr r2,[r7,#232]
 289 0228 D7F8E410 	 ldr r1,[r7,#228]
 290              	
 291 022c 23FB0213 	 smlad r3,r3,r2,r1
 292              	
 293              	 .thumb
 294 0230 C7F8E030 	 str r3,[r7,#224]
1205:C:\Workspaces\DAVE-4.1\Flightcontroller_PWM_CopterRocks_Working/Libraries/CMSIS/Include\cmsis_gcc.h ****   return(result);
 295              	 .loc 2 1205 0
 296 0234 D7F8E030 	 ldr r3,[r7,#224]
 297              	.LBE39:
 298              	.LBE38:
 299              	 .loc 1 209 0
 300 0238 C7F87831 	 str r3,[r7,#376]
 210:../Dave/Generated/CMSIS_DSP/FilteringFunctions/arm_conv_partial_q7.c **** 
 211:../Dave/Generated/CMSIS_DSP/FilteringFunctions/arm_conv_partial_q7.c ****         /* x[2] , x[3] */
 212:../Dave/Generated/CMSIS_DSP/FilteringFunctions/arm_conv_partial_q7.c ****         in1 = (q15_t) * px++;
 301              	 .loc 1 212 0
 302 023c D7F88831 	 ldr r3,[r7,#392]
 303 0240 5A1C     	 adds r2,r3,#1
 304 0242 C7F88821 	 str r2,[r7,#392]
 305 0246 1B78     	 ldrb r3,[r3]
 306 0248 5BB2     	 sxtb r3,r3
 307 024a A7F83E31 	 strh r3,[r7,#318]
 213:../Dave/Generated/CMSIS_DSP/FilteringFunctions/arm_conv_partial_q7.c ****         in2 = (q15_t) * px++;
 308              	 .loc 1 213 0
 309 024e D7F88831 	 ldr r3,[r7,#392]
 310 0252 5A1C     	 adds r2,r3,#1
 311 0254 C7F88821 	 str r2,[r7,#392]
 312 0258 1B78     	 ldrb r3,[r3]
 313 025a 5BB2     	 sxtb r3,r3
 314 025c A7F83C31 	 strh r3,[r7,#316]
 214:../Dave/Generated/CMSIS_DSP/FilteringFunctions/arm_conv_partial_q7.c ****         input1 = ((q31_t) in1 & 0x0000FFFF) | ((q31_t) in2 << 16);
 315              	 .loc 1 214 0
 316 0260 B7F93E31 	 ldrsh r3,[r7,#318]
 317 0264 9AB2     	 uxth r2,r3
 318 0266 B7F93C31 	 ldrsh r3,[r7,#316]
 319 026a 1B04     	 lsls r3,r3,#16
 320 026c 1343     	 orrs r3,r3,r2
 321 026e C7F83831 	 str r3,[r7,#312]
 215:../Dave/Generated/CMSIS_DSP/FilteringFunctions/arm_conv_partial_q7.c **** 
 216:../Dave/Generated/CMSIS_DSP/FilteringFunctions/arm_conv_partial_q7.c ****         /* y[srcBLen - 3] , y[srcBLen - 4] */
 217:../Dave/Generated/CMSIS_DSP/FilteringFunctions/arm_conv_partial_q7.c ****         in1 = (q15_t) * py--;
 322              	 .loc 1 217 0
 323 0272 D7F88431 	 ldr r3,[r7,#388]
 324 0276 5A1E     	 subs r2,r3,#1
 325 0278 C7F88421 	 str r2,[r7,#388]
 326 027c 1B78     	 ldrb r3,[r3]
 327 027e 5BB2     	 sxtb r3,r3
 328 0280 A7F83E31 	 strh r3,[r7,#318]
 218:../Dave/Generated/CMSIS_DSP/FilteringFunctions/arm_conv_partial_q7.c ****         in2 = (q15_t) * py--;
 329              	 .loc 1 218 0
 330 0284 D7F88431 	 ldr r3,[r7,#388]
 331 0288 5A1E     	 subs r2,r3,#1
 332 028a C7F88421 	 str r2,[r7,#388]
 333 028e 1B78     	 ldrb r3,[r3]
 334 0290 5BB2     	 sxtb r3,r3
 335 0292 A7F83C31 	 strh r3,[r7,#316]
 219:../Dave/Generated/CMSIS_DSP/FilteringFunctions/arm_conv_partial_q7.c ****         input2 = ((q31_t) in1 & 0x0000FFFF) | ((q31_t) in2 << 16);
 336              	 .loc 1 219 0
 337 0296 B7F93E31 	 ldrsh r3,[r7,#318]
 338 029a 9AB2     	 uxth r2,r3
 339 029c B7F93C31 	 ldrsh r3,[r7,#316]
 340 02a0 1B04     	 lsls r3,r3,#16
 341 02a2 1343     	 orrs r3,r3,r2
 342 02a4 C7F83431 	 str r3,[r7,#308]
 220:../Dave/Generated/CMSIS_DSP/FilteringFunctions/arm_conv_partial_q7.c **** 
 221:../Dave/Generated/CMSIS_DSP/FilteringFunctions/arm_conv_partial_q7.c ****         /* x[2] * y[srcBLen - 3] */
 222:../Dave/Generated/CMSIS_DSP/FilteringFunctions/arm_conv_partial_q7.c ****         /* x[3] * y[srcBLen - 4] */
 223:../Dave/Generated/CMSIS_DSP/FilteringFunctions/arm_conv_partial_q7.c ****         sum = __SMLAD(input1, input2, sum);
 343              	 .loc 1 223 0
 344 02a8 D7F83811 	 ldr r1,[r7,#312]
 345 02ac D7F83421 	 ldr r2,[r7,#308]
 346 02b0 D7F87831 	 ldr r3,[r7,#376]
 347 02b4 C7F8DC10 	 str r1,[r7,#220]
 348 02b8 C7F8D820 	 str r2,[r7,#216]
 349 02bc C7F8D430 	 str r3,[r7,#212]
 350              	.LBB40:
 351              	.LBB41:
1204:C:\Workspaces\DAVE-4.1\Flightcontroller_PWM_CopterRocks_Working/Libraries/CMSIS/Include\cmsis_gcc.h ****   return(result);
 352              	 .loc 2 1204 0
 353 02c0 D7F8DC30 	 ldr r3,[r7,#220]
 354 02c4 D7F8D820 	 ldr r2,[r7,#216]
 355 02c8 D7F8D410 	 ldr r1,[r7,#212]
 356              	
 357 02cc 23FB0213 	 smlad r3,r3,r2,r1
 358              	
 359              	 .thumb
 360 02d0 C7F8D030 	 str r3,[r7,#208]
 361              	 .loc 2 1205 0
 362 02d4 D7F8D030 	 ldr r3,[r7,#208]
 363              	.LBE41:
 364              	.LBE40:
 365              	 .loc 1 223 0
 366 02d8 C7F87831 	 str r3,[r7,#376]
 224:../Dave/Generated/CMSIS_DSP/FilteringFunctions/arm_conv_partial_q7.c **** 
 225:../Dave/Generated/CMSIS_DSP/FilteringFunctions/arm_conv_partial_q7.c ****         /* Decrement the loop counter */
 226:../Dave/Generated/CMSIS_DSP/FilteringFunctions/arm_conv_partial_q7.c ****         k--;
 367              	 .loc 1 226 0
 368 02dc D7F86031 	 ldr r3,[r7,#352]
 369 02e0 013B     	 subs r3,r3,#1
 370 02e2 C7F86031 	 str r3,[r7,#352]
 371              	.L15:
 195:../Dave/Generated/CMSIS_DSP/FilteringFunctions/arm_conv_partial_q7.c ****       {
 372              	 .loc 1 195 0
 373 02e6 D7F86031 	 ldr r3,[r7,#352]
 374 02ea 002B     	 cmp r3,#0
 375 02ec 7FF456AF 	 bne .L18
 227:../Dave/Generated/CMSIS_DSP/FilteringFunctions/arm_conv_partial_q7.c ****       }
 228:../Dave/Generated/CMSIS_DSP/FilteringFunctions/arm_conv_partial_q7.c **** 
 229:../Dave/Generated/CMSIS_DSP/FilteringFunctions/arm_conv_partial_q7.c ****       /* If the count is not a multiple of 4, compute any remaining MACs here.   
 230:../Dave/Generated/CMSIS_DSP/FilteringFunctions/arm_conv_partial_q7.c ****        ** No loop unrolling is used. */
 231:../Dave/Generated/CMSIS_DSP/FilteringFunctions/arm_conv_partial_q7.c ****       k = count % 0x4u;
 376              	 .loc 1 231 0
 377 02f0 D7F85C31 	 ldr r3,[r7,#348]
 378 02f4 03F00303 	 and r3,r3,#3
 379 02f8 C7F86031 	 str r3,[r7,#352]
 232:../Dave/Generated/CMSIS_DSP/FilteringFunctions/arm_conv_partial_q7.c **** 
 233:../Dave/Generated/CMSIS_DSP/FilteringFunctions/arm_conv_partial_q7.c ****       while(k > 0u)
 380              	 .loc 1 233 0
 381 02fc 19E0     	 b .L19
 382              	.L20:
 234:../Dave/Generated/CMSIS_DSP/FilteringFunctions/arm_conv_partial_q7.c ****       {
 235:../Dave/Generated/CMSIS_DSP/FilteringFunctions/arm_conv_partial_q7.c ****         /* Perform the multiply-accumulates */
 236:../Dave/Generated/CMSIS_DSP/FilteringFunctions/arm_conv_partial_q7.c ****         sum += ((q31_t) * px++ * *py--);
 383              	 .loc 1 236 0
 384 02fe D7F88831 	 ldr r3,[r7,#392]
 385 0302 5A1C     	 adds r2,r3,#1
 386 0304 C7F88821 	 str r2,[r7,#392]
 387 0308 1B78     	 ldrb r3,[r3]
 388 030a 5AB2     	 sxtb r2,r3
 389 030c D7F88431 	 ldr r3,[r7,#388]
 390 0310 591E     	 subs r1,r3,#1
 391 0312 C7F88411 	 str r1,[r7,#388]
 392 0316 1B78     	 ldrb r3,[r3]
 393 0318 5BB2     	 sxtb r3,r3
 394 031a 03FB02F3 	 mul r3,r3,r2
 395 031e D7F87821 	 ldr r2,[r7,#376]
 396 0322 1344     	 add r3,r3,r2
 397 0324 C7F87831 	 str r3,[r7,#376]
 237:../Dave/Generated/CMSIS_DSP/FilteringFunctions/arm_conv_partial_q7.c **** 
 238:../Dave/Generated/CMSIS_DSP/FilteringFunctions/arm_conv_partial_q7.c ****         /* Decrement the loop counter */
 239:../Dave/Generated/CMSIS_DSP/FilteringFunctions/arm_conv_partial_q7.c ****         k--;
 398              	 .loc 1 239 0
 399 0328 D7F86031 	 ldr r3,[r7,#352]
 400 032c 013B     	 subs r3,r3,#1
 401 032e C7F86031 	 str r3,[r7,#352]
 402              	.L19:
 233:../Dave/Generated/CMSIS_DSP/FilteringFunctions/arm_conv_partial_q7.c ****       {
 403              	 .loc 1 233 0
 404 0332 D7F86031 	 ldr r3,[r7,#352]
 405 0336 002B     	 cmp r3,#0
 406 0338 E1D1     	 bne .L20
 240:../Dave/Generated/CMSIS_DSP/FilteringFunctions/arm_conv_partial_q7.c ****       }
 241:../Dave/Generated/CMSIS_DSP/FilteringFunctions/arm_conv_partial_q7.c **** 
 242:../Dave/Generated/CMSIS_DSP/FilteringFunctions/arm_conv_partial_q7.c ****       /* Store the result in the accumulator in the destination buffer. */
 243:../Dave/Generated/CMSIS_DSP/FilteringFunctions/arm_conv_partial_q7.c ****       *pOut++ = (q7_t) (__SSAT(sum >> 7, 8));
 407              	 .loc 1 243 0
 408 033a D7F88C31 	 ldr r3,[r7,#396]
 409 033e 5A1C     	 adds r2,r3,#1
 410 0340 C7F88C21 	 str r2,[r7,#396]
 411              	.LBB42:
 412 0344 D7F87821 	 ldr r2,[r7,#376]
 413 0348 D211     	 asrs r2,r2,#7
 414 034a C7F83021 	 str r2,[r7,#304]
 415 034e D7F83021 	 ldr r2,[r7,#304]
 416              	
 417 0352 02F30702 	 ssat r2,#8,r2
 418              	
 419              	 .thumb
 420 0356 C7F82C21 	 str r2,[r7,#300]
 421 035a D7F82C21 	 ldr r2,[r7,#300]
 422              	.LBE42:
 423 035e D2B2     	 uxtb r2,r2
 424 0360 1A70     	 strb r2,[r3]
 244:../Dave/Generated/CMSIS_DSP/FilteringFunctions/arm_conv_partial_q7.c **** 
 245:../Dave/Generated/CMSIS_DSP/FilteringFunctions/arm_conv_partial_q7.c ****       /* Update the inputA and inputB pointers for next MAC calculation */
 246:../Dave/Generated/CMSIS_DSP/FilteringFunctions/arm_conv_partial_q7.c ****       py = ++pSrc2;
 425              	 .loc 1 246 0
 426 0362 D7F87C31 	 ldr r3,[r7,#380]
 427 0366 0133     	 adds r3,r3,#1
 428 0368 C7F87C31 	 str r3,[r7,#380]
 429 036c D7F87C31 	 ldr r3,[r7,#380]
 430 0370 C7F88431 	 str r3,[r7,#388]
 247:../Dave/Generated/CMSIS_DSP/FilteringFunctions/arm_conv_partial_q7.c ****       px = pIn1;
 431              	 .loc 1 247 0
 432 0374 D7F89431 	 ldr r3,[r7,#404]
 433 0378 C7F88831 	 str r3,[r7,#392]
 248:../Dave/Generated/CMSIS_DSP/FilteringFunctions/arm_conv_partial_q7.c **** 
 249:../Dave/Generated/CMSIS_DSP/FilteringFunctions/arm_conv_partial_q7.c ****       /* Increment the MAC count */
 250:../Dave/Generated/CMSIS_DSP/FilteringFunctions/arm_conv_partial_q7.c ****       count++;
 434              	 .loc 1 250 0
 435 037c D7F85C31 	 ldr r3,[r7,#348]
 436 0380 0133     	 adds r3,r3,#1
 437 0382 C7F85C31 	 str r3,[r7,#348]
 251:../Dave/Generated/CMSIS_DSP/FilteringFunctions/arm_conv_partial_q7.c **** 
 252:../Dave/Generated/CMSIS_DSP/FilteringFunctions/arm_conv_partial_q7.c ****       /* Decrement the loop counter */
 253:../Dave/Generated/CMSIS_DSP/FilteringFunctions/arm_conv_partial_q7.c ****       blockSize1--;
 438              	 .loc 1 253 0
 439 0386 D7F85431 	 ldr r3,[r7,#340]
 440 038a 013B     	 subs r3,r3,#1
 441 038c C7F85431 	 str r3,[r7,#340]
 442              	.L14:
 185:../Dave/Generated/CMSIS_DSP/FilteringFunctions/arm_conv_partial_q7.c ****     {
 443              	 .loc 1 185 0
 444 0390 D7F85431 	 ldr r3,[r7,#340]
 445 0394 002B     	 cmp r3,#0
 446 0396 3FF7F8AE 	 bgt .L21
 254:../Dave/Generated/CMSIS_DSP/FilteringFunctions/arm_conv_partial_q7.c ****     }
 255:../Dave/Generated/CMSIS_DSP/FilteringFunctions/arm_conv_partial_q7.c **** 
 256:../Dave/Generated/CMSIS_DSP/FilteringFunctions/arm_conv_partial_q7.c ****     /* --------------------------   
 257:../Dave/Generated/CMSIS_DSP/FilteringFunctions/arm_conv_partial_q7.c ****      * Initializations of stage2   
 258:../Dave/Generated/CMSIS_DSP/FilteringFunctions/arm_conv_partial_q7.c ****      * ------------------------*/
 259:../Dave/Generated/CMSIS_DSP/FilteringFunctions/arm_conv_partial_q7.c **** 
 260:../Dave/Generated/CMSIS_DSP/FilteringFunctions/arm_conv_partial_q7.c ****     /* sum = x[0] * y[srcBLen-1] + x[1] * y[srcBLen-2] +...+ x[srcBLen-1] * y[0]   
 261:../Dave/Generated/CMSIS_DSP/FilteringFunctions/arm_conv_partial_q7.c ****      * sum = x[1] * y[srcBLen-1] + x[2] * y[srcBLen-2] +...+ x[srcBLen] * y[0]   
 262:../Dave/Generated/CMSIS_DSP/FilteringFunctions/arm_conv_partial_q7.c ****      * ....   
 263:../Dave/Generated/CMSIS_DSP/FilteringFunctions/arm_conv_partial_q7.c ****      * sum = x[srcALen-srcBLen-2] * y[srcBLen-1] + x[srcALen] * y[srcBLen-2] +...+ x[srcALen-1] * y
 264:../Dave/Generated/CMSIS_DSP/FilteringFunctions/arm_conv_partial_q7.c ****      */
 265:../Dave/Generated/CMSIS_DSP/FilteringFunctions/arm_conv_partial_q7.c **** 
 266:../Dave/Generated/CMSIS_DSP/FilteringFunctions/arm_conv_partial_q7.c ****     /* Working pointer of inputA */
 267:../Dave/Generated/CMSIS_DSP/FilteringFunctions/arm_conv_partial_q7.c ****     if((int32_t)firstIndex - (int32_t)srcBLen + 1 > 0)
 447              	 .loc 1 267 0
 448 039a D7F8A421 	 ldr r2,[r7,#420]
 449 039e 3B46     	 mov r3,r7
 450 03a0 1B68     	 ldr r3,[r3]
 451 03a2 D31A     	 subs r3,r2,r3
 452 03a4 0133     	 adds r3,r3,#1
 453 03a6 002B     	 cmp r3,#0
 454 03a8 0BDD     	 ble .L22
 268:../Dave/Generated/CMSIS_DSP/FilteringFunctions/arm_conv_partial_q7.c ****     {
 269:../Dave/Generated/CMSIS_DSP/FilteringFunctions/arm_conv_partial_q7.c ****       px = pIn1 + firstIndex - srcBLen + 1;
 455              	 .loc 1 269 0
 456 03aa 3B46     	 mov r3,r7
 457 03ac D7F8A421 	 ldr r2,[r7,#420]
 458 03b0 1B68     	 ldr r3,[r3]
 459 03b2 D31A     	 subs r3,r2,r3
 460 03b4 0133     	 adds r3,r3,#1
 461 03b6 D7F89421 	 ldr r2,[r7,#404]
 462 03ba 1344     	 add r3,r3,r2
 463 03bc C7F88831 	 str r3,[r7,#392]
 464 03c0 03E0     	 b .L23
 465              	.L22:
 270:../Dave/Generated/CMSIS_DSP/FilteringFunctions/arm_conv_partial_q7.c ****     }
 271:../Dave/Generated/CMSIS_DSP/FilteringFunctions/arm_conv_partial_q7.c ****     else
 272:../Dave/Generated/CMSIS_DSP/FilteringFunctions/arm_conv_partial_q7.c ****     {
 273:../Dave/Generated/CMSIS_DSP/FilteringFunctions/arm_conv_partial_q7.c ****       px = pIn1;
 466              	 .loc 1 273 0
 467 03c2 D7F89431 	 ldr r3,[r7,#404]
 468 03c6 C7F88831 	 str r3,[r7,#392]
 469              	.L23:
 274:../Dave/Generated/CMSIS_DSP/FilteringFunctions/arm_conv_partial_q7.c ****     }
 275:../Dave/Generated/CMSIS_DSP/FilteringFunctions/arm_conv_partial_q7.c **** 
 276:../Dave/Generated/CMSIS_DSP/FilteringFunctions/arm_conv_partial_q7.c ****     /* Working pointer of inputB */
 277:../Dave/Generated/CMSIS_DSP/FilteringFunctions/arm_conv_partial_q7.c ****     pSrc2 = pIn2 + (srcBLen - 1u);
 470              	 .loc 1 277 0
 471 03ca 3B46     	 mov r3,r7
 472 03cc 1B68     	 ldr r3,[r3]
 473 03ce 013B     	 subs r3,r3,#1
 474 03d0 D7F89021 	 ldr r2,[r7,#400]
 475 03d4 1344     	 add r3,r3,r2
 476 03d6 C7F87C31 	 str r3,[r7,#380]
 278:../Dave/Generated/CMSIS_DSP/FilteringFunctions/arm_conv_partial_q7.c ****     py = pSrc2;
 477              	 .loc 1 278 0
 478 03da D7F87C31 	 ldr r3,[r7,#380]
 479 03de C7F88431 	 str r3,[r7,#388]
 279:../Dave/Generated/CMSIS_DSP/FilteringFunctions/arm_conv_partial_q7.c **** 
 280:../Dave/Generated/CMSIS_DSP/FilteringFunctions/arm_conv_partial_q7.c ****     /* count is index by which the pointer pIn1 to be incremented */
 281:../Dave/Generated/CMSIS_DSP/FilteringFunctions/arm_conv_partial_q7.c ****     count = 0u;
 480              	 .loc 1 281 0
 481 03e2 0023     	 movs r3,#0
 482 03e4 C7F85C31 	 str r3,[r7,#348]
 282:../Dave/Generated/CMSIS_DSP/FilteringFunctions/arm_conv_partial_q7.c **** 
 283:../Dave/Generated/CMSIS_DSP/FilteringFunctions/arm_conv_partial_q7.c ****     /* -------------------   
 284:../Dave/Generated/CMSIS_DSP/FilteringFunctions/arm_conv_partial_q7.c ****      * Stage2 process   
 285:../Dave/Generated/CMSIS_DSP/FilteringFunctions/arm_conv_partial_q7.c ****      * ------------------*/
 286:../Dave/Generated/CMSIS_DSP/FilteringFunctions/arm_conv_partial_q7.c **** 
 287:../Dave/Generated/CMSIS_DSP/FilteringFunctions/arm_conv_partial_q7.c ****     /* Stage2 depends on srcBLen as in this stage srcBLen number of MACS are performed.   
 288:../Dave/Generated/CMSIS_DSP/FilteringFunctions/arm_conv_partial_q7.c ****      * So, to loop unroll over blockSize2,   
 289:../Dave/Generated/CMSIS_DSP/FilteringFunctions/arm_conv_partial_q7.c ****      * srcBLen should be greater than or equal to 4 */
 290:../Dave/Generated/CMSIS_DSP/FilteringFunctions/arm_conv_partial_q7.c ****     if(srcBLen >= 4u)
 483              	 .loc 1 290 0
 484 03e8 3B46     	 mov r3,r7
 485 03ea 1B68     	 ldr r3,[r3]
 486 03ec 032B     	 cmp r3,#3
 487 03ee 40F2F983 	 bls .L24
 291:../Dave/Generated/CMSIS_DSP/FilteringFunctions/arm_conv_partial_q7.c ****     {
 292:../Dave/Generated/CMSIS_DSP/FilteringFunctions/arm_conv_partial_q7.c ****       /* Loop unroll over blockSize2, by 4 */
 293:../Dave/Generated/CMSIS_DSP/FilteringFunctions/arm_conv_partial_q7.c ****       blkCnt = ((uint32_t) blockSize2 >> 2u);
 488              	 .loc 1 293 0
 489 03f2 D7F84031 	 ldr r3,[r7,#320]
 490 03f6 9B08     	 lsrs r3,r3,#2
 491 03f8 C7F85831 	 str r3,[r7,#344]
 294:../Dave/Generated/CMSIS_DSP/FilteringFunctions/arm_conv_partial_q7.c **** 
 295:../Dave/Generated/CMSIS_DSP/FilteringFunctions/arm_conv_partial_q7.c ****       while(blkCnt > 0u)
 492              	 .loc 1 295 0
 493 03fc CFE2     	 b .L25
 494              	.L37:
 296:../Dave/Generated/CMSIS_DSP/FilteringFunctions/arm_conv_partial_q7.c ****       {
 297:../Dave/Generated/CMSIS_DSP/FilteringFunctions/arm_conv_partial_q7.c ****         /* Set all accumulators to zero */
 298:../Dave/Generated/CMSIS_DSP/FilteringFunctions/arm_conv_partial_q7.c ****         acc0 = 0;
 495              	 .loc 1 298 0
 496 03fe 0023     	 movs r3,#0
 497 0400 C7F87431 	 str r3,[r7,#372]
 299:../Dave/Generated/CMSIS_DSP/FilteringFunctions/arm_conv_partial_q7.c ****         acc1 = 0;
 498              	 .loc 1 299 0
 499 0404 0023     	 movs r3,#0
 500 0406 C7F87031 	 str r3,[r7,#368]
 300:../Dave/Generated/CMSIS_DSP/FilteringFunctions/arm_conv_partial_q7.c ****         acc2 = 0;
 501              	 .loc 1 300 0
 502 040a 0023     	 movs r3,#0
 503 040c C7F86C31 	 str r3,[r7,#364]
 301:../Dave/Generated/CMSIS_DSP/FilteringFunctions/arm_conv_partial_q7.c ****         acc3 = 0;
 504              	 .loc 1 301 0
 505 0410 0023     	 movs r3,#0
 506 0412 C7F86831 	 str r3,[r7,#360]
 302:../Dave/Generated/CMSIS_DSP/FilteringFunctions/arm_conv_partial_q7.c **** 
 303:../Dave/Generated/CMSIS_DSP/FilteringFunctions/arm_conv_partial_q7.c ****         /* read x[0], x[1], x[2] samples */
 304:../Dave/Generated/CMSIS_DSP/FilteringFunctions/arm_conv_partial_q7.c ****         x0 = *(px++);
 507              	 .loc 1 304 0
 508 0416 D7F88831 	 ldr r3,[r7,#392]
 509 041a 5A1C     	 adds r2,r3,#1
 510 041c C7F88821 	 str r2,[r7,#392]
 511 0420 1B78     	 ldrb r3,[r3]
 512 0422 87F86731 	 strb r3,[r7,#359]
 305:../Dave/Generated/CMSIS_DSP/FilteringFunctions/arm_conv_partial_q7.c ****         x1 = *(px++);
 513              	 .loc 1 305 0
 514 0426 D7F88831 	 ldr r3,[r7,#392]
 515 042a 5A1C     	 adds r2,r3,#1
 516 042c C7F88821 	 str r2,[r7,#392]
 517 0430 1B78     	 ldrb r3,[r3]
 518 0432 87F86631 	 strb r3,[r7,#358]
 306:../Dave/Generated/CMSIS_DSP/FilteringFunctions/arm_conv_partial_q7.c ****         x2 = *(px++);
 519              	 .loc 1 306 0
 520 0436 D7F88831 	 ldr r3,[r7,#392]
 521 043a 5A1C     	 adds r2,r3,#1
 522 043c C7F88821 	 str r2,[r7,#392]
 523 0440 1B78     	 ldrb r3,[r3]
 524 0442 87F86531 	 strb r3,[r7,#357]
 307:../Dave/Generated/CMSIS_DSP/FilteringFunctions/arm_conv_partial_q7.c **** 
 308:../Dave/Generated/CMSIS_DSP/FilteringFunctions/arm_conv_partial_q7.c ****         /* Apply loop unrolling and compute 4 MACs simultaneously. */
 309:../Dave/Generated/CMSIS_DSP/FilteringFunctions/arm_conv_partial_q7.c ****         k = srcBLen >> 2u;
 525              	 .loc 1 309 0
 526 0446 3B46     	 mov r3,r7
 527 0448 1B68     	 ldr r3,[r3]
 528 044a 9B08     	 lsrs r3,r3,#2
 529 044c C7F86031 	 str r3,[r7,#352]
 530              	.L34:
 310:../Dave/Generated/CMSIS_DSP/FilteringFunctions/arm_conv_partial_q7.c **** 
 311:../Dave/Generated/CMSIS_DSP/FilteringFunctions/arm_conv_partial_q7.c ****         /* First part of the processing with loop unrolling.  Compute 4 MACs at a time.   
 312:../Dave/Generated/CMSIS_DSP/FilteringFunctions/arm_conv_partial_q7.c ****          ** a second loop below computes MACs for the remaining 1 to 3 samples. */
 313:../Dave/Generated/CMSIS_DSP/FilteringFunctions/arm_conv_partial_q7.c ****         do
 314:../Dave/Generated/CMSIS_DSP/FilteringFunctions/arm_conv_partial_q7.c ****         {
 315:../Dave/Generated/CMSIS_DSP/FilteringFunctions/arm_conv_partial_q7.c ****           /* Read y[srcBLen - 1] sample */
 316:../Dave/Generated/CMSIS_DSP/FilteringFunctions/arm_conv_partial_q7.c ****           c0 = *(py--);
 531              	 .loc 1 316 0 discriminator 1
 532 0450 D7F88431 	 ldr r3,[r7,#388]
 533 0454 5A1E     	 subs r2,r3,#1
 534 0456 C7F88421 	 str r2,[r7,#388]
 535 045a 1B78     	 ldrb r3,[r3]
 536 045c 87F82B31 	 strb r3,[r7,#299]
 317:../Dave/Generated/CMSIS_DSP/FilteringFunctions/arm_conv_partial_q7.c ****           /* Read y[srcBLen - 2] sample */
 318:../Dave/Generated/CMSIS_DSP/FilteringFunctions/arm_conv_partial_q7.c ****           c1 = *(py--);
 537              	 .loc 1 318 0 discriminator 1
 538 0460 D7F88431 	 ldr r3,[r7,#388]
 539 0464 5A1E     	 subs r2,r3,#1
 540 0466 C7F88421 	 str r2,[r7,#388]
 541 046a 1B78     	 ldrb r3,[r3]
 542 046c 87F82A31 	 strb r3,[r7,#298]
 319:../Dave/Generated/CMSIS_DSP/FilteringFunctions/arm_conv_partial_q7.c **** 
 320:../Dave/Generated/CMSIS_DSP/FilteringFunctions/arm_conv_partial_q7.c ****           /* Read x[3] sample */
 321:../Dave/Generated/CMSIS_DSP/FilteringFunctions/arm_conv_partial_q7.c ****           x3 = *(px++);
 543              	 .loc 1 321 0 discriminator 1
 544 0470 D7F88831 	 ldr r3,[r7,#392]
 545 0474 5A1C     	 adds r2,r3,#1
 546 0476 C7F88821 	 str r2,[r7,#392]
 547 047a 1B78     	 ldrb r3,[r3]
 548 047c 87F82931 	 strb r3,[r7,#297]
 322:../Dave/Generated/CMSIS_DSP/FilteringFunctions/arm_conv_partial_q7.c **** 
 323:../Dave/Generated/CMSIS_DSP/FilteringFunctions/arm_conv_partial_q7.c ****           /* x[0] and x[1] are packed */
 324:../Dave/Generated/CMSIS_DSP/FilteringFunctions/arm_conv_partial_q7.c ****           in1 = (q15_t) x0;
 549              	 .loc 1 324 0 discriminator 1
 550 0480 97F96731 	 ldrsb r3,[r7,#359]
 551 0484 A7F83E31 	 strh r3,[r7,#318]
 325:../Dave/Generated/CMSIS_DSP/FilteringFunctions/arm_conv_partial_q7.c ****           in2 = (q15_t) x1;
 552              	 .loc 1 325 0 discriminator 1
 553 0488 97F96631 	 ldrsb r3,[r7,#358]
 554 048c A7F83C31 	 strh r3,[r7,#316]
 326:../Dave/Generated/CMSIS_DSP/FilteringFunctions/arm_conv_partial_q7.c **** 
 327:../Dave/Generated/CMSIS_DSP/FilteringFunctions/arm_conv_partial_q7.c ****           input1 = ((q31_t) in1 & 0x0000FFFF) | ((q31_t) in2 << 16);
 555              	 .loc 1 327 0 discriminator 1
 556 0490 B7F93E31 	 ldrsh r3,[r7,#318]
 557 0494 9AB2     	 uxth r2,r3
 558 0496 B7F93C31 	 ldrsh r3,[r7,#316]
 559 049a 1B04     	 lsls r3,r3,#16
 560 049c 1343     	 orrs r3,r3,r2
 561 049e C7F83831 	 str r3,[r7,#312]
 328:../Dave/Generated/CMSIS_DSP/FilteringFunctions/arm_conv_partial_q7.c **** 
 329:../Dave/Generated/CMSIS_DSP/FilteringFunctions/arm_conv_partial_q7.c ****           /* y[srcBLen - 1]   and y[srcBLen - 2] are packed */
 330:../Dave/Generated/CMSIS_DSP/FilteringFunctions/arm_conv_partial_q7.c ****           in1 = (q15_t) c0;
 562              	 .loc 1 330 0 discriminator 1
 563 04a2 97F92B31 	 ldrsb r3,[r7,#299]
 564 04a6 A7F83E31 	 strh r3,[r7,#318]
 331:../Dave/Generated/CMSIS_DSP/FilteringFunctions/arm_conv_partial_q7.c ****           in2 = (q15_t) c1;
 565              	 .loc 1 331 0 discriminator 1
 566 04aa 97F92A31 	 ldrsb r3,[r7,#298]
 567 04ae A7F83C31 	 strh r3,[r7,#316]
 332:../Dave/Generated/CMSIS_DSP/FilteringFunctions/arm_conv_partial_q7.c **** 
 333:../Dave/Generated/CMSIS_DSP/FilteringFunctions/arm_conv_partial_q7.c ****           input2 = ((q31_t) in1 & 0x0000FFFF) | ((q31_t) in2 << 16);
 568              	 .loc 1 333 0 discriminator 1
 569 04b2 B7F93E31 	 ldrsh r3,[r7,#318]
 570 04b6 9AB2     	 uxth r2,r3
 571 04b8 B7F93C31 	 ldrsh r3,[r7,#316]
 572 04bc 1B04     	 lsls r3,r3,#16
 573 04be 1343     	 orrs r3,r3,r2
 574 04c0 C7F83431 	 str r3,[r7,#308]
 334:../Dave/Generated/CMSIS_DSP/FilteringFunctions/arm_conv_partial_q7.c **** 
 335:../Dave/Generated/CMSIS_DSP/FilteringFunctions/arm_conv_partial_q7.c ****           /* acc0 += x[0] * y[srcBLen - 1] + x[1] * y[srcBLen - 2]  */
 336:../Dave/Generated/CMSIS_DSP/FilteringFunctions/arm_conv_partial_q7.c ****           acc0 = __SMLAD(input1, input2, acc0);
 575              	 .loc 1 336 0 discriminator 1
 576 04c4 D7F83811 	 ldr r1,[r7,#312]
 577 04c8 D7F83421 	 ldr r2,[r7,#308]
 578 04cc D7F87431 	 ldr r3,[r7,#372]
 579 04d0 C7F8CC10 	 str r1,[r7,#204]
 580 04d4 C7F8C820 	 str r2,[r7,#200]
 581 04d8 C7F8C430 	 str r3,[r7,#196]
 582              	.LBB43:
 583              	.LBB44:
1204:C:\Workspaces\DAVE-4.1\Flightcontroller_PWM_CopterRocks_Working/Libraries/CMSIS/Include\cmsis_gcc.h ****   return(result);
 584              	 .loc 2 1204 0 discriminator 1
 585 04dc D7F8CC30 	 ldr r3,[r7,#204]
 586 04e0 D7F8C820 	 ldr r2,[r7,#200]
 587 04e4 D7F8C410 	 ldr r1,[r7,#196]
 588              	
 589 04e8 23FB0213 	 smlad r3,r3,r2,r1
 590              	
 591              	 .thumb
 592 04ec C7F8C030 	 str r3,[r7,#192]
 593              	 .loc 2 1205 0 discriminator 1
 594 04f0 D7F8C030 	 ldr r3,[r7,#192]
 595              	.LBE44:
 596              	.LBE43:
 597              	 .loc 1 336 0 discriminator 1
 598 04f4 C7F87431 	 str r3,[r7,#372]
 337:../Dave/Generated/CMSIS_DSP/FilteringFunctions/arm_conv_partial_q7.c **** 
 338:../Dave/Generated/CMSIS_DSP/FilteringFunctions/arm_conv_partial_q7.c ****           /* x[1] and x[2] are packed */
 339:../Dave/Generated/CMSIS_DSP/FilteringFunctions/arm_conv_partial_q7.c ****           in1 = (q15_t) x1;
 599              	 .loc 1 339 0 discriminator 1
 600 04f8 97F96631 	 ldrsb r3,[r7,#358]
 601 04fc A7F83E31 	 strh r3,[r7,#318]
 340:../Dave/Generated/CMSIS_DSP/FilteringFunctions/arm_conv_partial_q7.c ****           in2 = (q15_t) x2;
 602              	 .loc 1 340 0 discriminator 1
 603 0500 97F96531 	 ldrsb r3,[r7,#357]
 604 0504 A7F83C31 	 strh r3,[r7,#316]
 341:../Dave/Generated/CMSIS_DSP/FilteringFunctions/arm_conv_partial_q7.c **** 
 342:../Dave/Generated/CMSIS_DSP/FilteringFunctions/arm_conv_partial_q7.c ****           input1 = ((q31_t) in1 & 0x0000FFFF) | ((q31_t) in2 << 16);
 605              	 .loc 1 342 0 discriminator 1
 606 0508 B7F93E31 	 ldrsh r3,[r7,#318]
 607 050c 9AB2     	 uxth r2,r3
 608 050e B7F93C31 	 ldrsh r3,[r7,#316]
 609 0512 1B04     	 lsls r3,r3,#16
 610 0514 1343     	 orrs r3,r3,r2
 611 0516 C7F83831 	 str r3,[r7,#312]
 343:../Dave/Generated/CMSIS_DSP/FilteringFunctions/arm_conv_partial_q7.c **** 
 344:../Dave/Generated/CMSIS_DSP/FilteringFunctions/arm_conv_partial_q7.c ****           /* acc1 += x[1] * y[srcBLen - 1] + x[2] * y[srcBLen - 2]  */
 345:../Dave/Generated/CMSIS_DSP/FilteringFunctions/arm_conv_partial_q7.c ****           acc1 = __SMLAD(input1, input2, acc1);
 612              	 .loc 1 345 0 discriminator 1
 613 051a D7F83811 	 ldr r1,[r7,#312]
 614 051e D7F83421 	 ldr r2,[r7,#308]
 615 0522 D7F87031 	 ldr r3,[r7,#368]
 616 0526 C7F8BC10 	 str r1,[r7,#188]
 617 052a C7F8B820 	 str r2,[r7,#184]
 618 052e C7F8B430 	 str r3,[r7,#180]
 619              	.LBB45:
 620              	.LBB46:
1204:C:\Workspaces\DAVE-4.1\Flightcontroller_PWM_CopterRocks_Working/Libraries/CMSIS/Include\cmsis_gcc.h ****   return(result);
 621              	 .loc 2 1204 0 discriminator 1
 622 0532 D7F8BC30 	 ldr r3,[r7,#188]
 623 0536 D7F8B820 	 ldr r2,[r7,#184]
 624 053a D7F8B410 	 ldr r1,[r7,#180]
 625              	
 626 053e 23FB0213 	 smlad r3,r3,r2,r1
 627              	
 628              	 .thumb
 629 0542 C7F8B030 	 str r3,[r7,#176]
 630              	 .loc 2 1205 0 discriminator 1
 631 0546 D7F8B030 	 ldr r3,[r7,#176]
 632              	.LBE46:
 633              	.LBE45:
 634              	 .loc 1 345 0 discriminator 1
 635 054a C7F87031 	 str r3,[r7,#368]
 346:../Dave/Generated/CMSIS_DSP/FilteringFunctions/arm_conv_partial_q7.c **** 
 347:../Dave/Generated/CMSIS_DSP/FilteringFunctions/arm_conv_partial_q7.c ****           /* x[2] and x[3] are packed */
 348:../Dave/Generated/CMSIS_DSP/FilteringFunctions/arm_conv_partial_q7.c ****           in1 = (q15_t) x2;
 636              	 .loc 1 348 0 discriminator 1
 637 054e 97F96531 	 ldrsb r3,[r7,#357]
 638 0552 A7F83E31 	 strh r3,[r7,#318]
 349:../Dave/Generated/CMSIS_DSP/FilteringFunctions/arm_conv_partial_q7.c ****           in2 = (q15_t) x3;
 639              	 .loc 1 349 0 discriminator 1
 640 0556 97F92931 	 ldrsb r3,[r7,#297]
 641 055a A7F83C31 	 strh r3,[r7,#316]
 350:../Dave/Generated/CMSIS_DSP/FilteringFunctions/arm_conv_partial_q7.c **** 
 351:../Dave/Generated/CMSIS_DSP/FilteringFunctions/arm_conv_partial_q7.c ****           input1 = ((q31_t) in1 & 0x0000FFFF) | ((q31_t) in2 << 16);
 642              	 .loc 1 351 0 discriminator 1
 643 055e B7F93E31 	 ldrsh r3,[r7,#318]
 644 0562 9AB2     	 uxth r2,r3
 645 0564 B7F93C31 	 ldrsh r3,[r7,#316]
 646 0568 1B04     	 lsls r3,r3,#16
 647 056a 1343     	 orrs r3,r3,r2
 648 056c C7F83831 	 str r3,[r7,#312]
 352:../Dave/Generated/CMSIS_DSP/FilteringFunctions/arm_conv_partial_q7.c **** 
 353:../Dave/Generated/CMSIS_DSP/FilteringFunctions/arm_conv_partial_q7.c ****           /* acc2 += x[2] * y[srcBLen - 1] + x[3] * y[srcBLen - 2]  */
 354:../Dave/Generated/CMSIS_DSP/FilteringFunctions/arm_conv_partial_q7.c ****           acc2 = __SMLAD(input1, input2, acc2);
 649              	 .loc 1 354 0 discriminator 1
 650 0570 D7F83811 	 ldr r1,[r7,#312]
 651 0574 D7F83421 	 ldr r2,[r7,#308]
 652 0578 D7F86C31 	 ldr r3,[r7,#364]
 653 057c C7F8AC10 	 str r1,[r7,#172]
 654 0580 C7F8A820 	 str r2,[r7,#168]
 655 0584 C7F8A430 	 str r3,[r7,#164]
 656              	.LBB47:
 657              	.LBB48:
1204:C:\Workspaces\DAVE-4.1\Flightcontroller_PWM_CopterRocks_Working/Libraries/CMSIS/Include\cmsis_gcc.h ****   return(result);
 658              	 .loc 2 1204 0 discriminator 1
 659 0588 D7F8AC30 	 ldr r3,[r7,#172]
 660 058c D7F8A820 	 ldr r2,[r7,#168]
 661 0590 D7F8A410 	 ldr r1,[r7,#164]
 662              	
 663 0594 23FB0213 	 smlad r3,r3,r2,r1
 664              	
 665              	 .thumb
 666 0598 C7F8A030 	 str r3,[r7,#160]
 667              	 .loc 2 1205 0 discriminator 1
 668 059c D7F8A030 	 ldr r3,[r7,#160]
 669              	.LBE48:
 670              	.LBE47:
 671              	 .loc 1 354 0 discriminator 1
 672 05a0 C7F86C31 	 str r3,[r7,#364]
 355:../Dave/Generated/CMSIS_DSP/FilteringFunctions/arm_conv_partial_q7.c **** 
 356:../Dave/Generated/CMSIS_DSP/FilteringFunctions/arm_conv_partial_q7.c ****           /* Read x[4] sample */
 357:../Dave/Generated/CMSIS_DSP/FilteringFunctions/arm_conv_partial_q7.c ****           x0 = *(px++);
 673              	 .loc 1 357 0 discriminator 1
 674 05a4 D7F88831 	 ldr r3,[r7,#392]
 675 05a8 5A1C     	 adds r2,r3,#1
 676 05aa C7F88821 	 str r2,[r7,#392]
 677 05ae 1B78     	 ldrb r3,[r3]
 678 05b0 87F86731 	 strb r3,[r7,#359]
 358:../Dave/Generated/CMSIS_DSP/FilteringFunctions/arm_conv_partial_q7.c **** 
 359:../Dave/Generated/CMSIS_DSP/FilteringFunctions/arm_conv_partial_q7.c ****           /* x[3] and x[4] are packed */
 360:../Dave/Generated/CMSIS_DSP/FilteringFunctions/arm_conv_partial_q7.c ****           in1 = (q15_t) x3;
 679              	 .loc 1 360 0 discriminator 1
 680 05b4 97F92931 	 ldrsb r3,[r7,#297]
 681 05b8 A7F83E31 	 strh r3,[r7,#318]
 361:../Dave/Generated/CMSIS_DSP/FilteringFunctions/arm_conv_partial_q7.c ****           in2 = (q15_t) x0;
 682              	 .loc 1 361 0 discriminator 1
 683 05bc 97F96731 	 ldrsb r3,[r7,#359]
 684 05c0 A7F83C31 	 strh r3,[r7,#316]
 362:../Dave/Generated/CMSIS_DSP/FilteringFunctions/arm_conv_partial_q7.c **** 
 363:../Dave/Generated/CMSIS_DSP/FilteringFunctions/arm_conv_partial_q7.c ****           input1 = ((q31_t) in1 & 0x0000FFFF) | ((q31_t) in2 << 16);
 685              	 .loc 1 363 0 discriminator 1
 686 05c4 B7F93E31 	 ldrsh r3,[r7,#318]
 687 05c8 9AB2     	 uxth r2,r3
 688 05ca B7F93C31 	 ldrsh r3,[r7,#316]
 689 05ce 1B04     	 lsls r3,r3,#16
 690 05d0 1343     	 orrs r3,r3,r2
 691 05d2 C7F83831 	 str r3,[r7,#312]
 364:../Dave/Generated/CMSIS_DSP/FilteringFunctions/arm_conv_partial_q7.c **** 
 365:../Dave/Generated/CMSIS_DSP/FilteringFunctions/arm_conv_partial_q7.c ****           /* acc3 += x[3] * y[srcBLen - 1] + x[4] * y[srcBLen - 2]  */
 366:../Dave/Generated/CMSIS_DSP/FilteringFunctions/arm_conv_partial_q7.c ****           acc3 = __SMLAD(input1, input2, acc3);
 692              	 .loc 1 366 0 discriminator 1
 693 05d6 D7F83831 	 ldr r3,[r7,#312]
 694 05da D7F83411 	 ldr r1,[r7,#308]
 695 05de D7F86821 	 ldr r2,[r7,#360]
 696 05e2 C7F89C30 	 str r3,[r7,#156]
 697 05e6 07F19803 	 add r3,r7,#152
 698 05ea 1960     	 str r1,[r3]
 699 05ec 07F19403 	 add r3,r7,#148
 700 05f0 1A60     	 str r2,[r3]
 701              	.LBB49:
 702              	.LBB50:
1204:C:\Workspaces\DAVE-4.1\Flightcontroller_PWM_CopterRocks_Working/Libraries/CMSIS/Include\cmsis_gcc.h ****   return(result);
 703              	 .loc 2 1204 0 discriminator 1
 704 05f2 D7F89C30 	 ldr r3,[r7,#156]
 705 05f6 07F19802 	 add r2,r7,#152
 706 05fa 1268     	 ldr r2,[r2]
 707 05fc 07F19401 	 add r1,r7,#148
 708 0600 0968     	 ldr r1,[r1]
 709              	
 710 0602 23FB0212 	 smlad r2,r3,r2,r1
 711              	
 712              	 .thumb
 713 0606 07F19003 	 add r3,r7,#144
 714 060a 1A60     	 str r2,[r3]
 715              	 .loc 2 1205 0 discriminator 1
 716 060c 07F19003 	 add r3,r7,#144
 717 0610 1B68     	 ldr r3,[r3]
 718              	.LBE50:
 719              	.LBE49:
 720              	 .loc 1 366 0 discriminator 1
 721 0612 C7F86831 	 str r3,[r7,#360]
 367:../Dave/Generated/CMSIS_DSP/FilteringFunctions/arm_conv_partial_q7.c **** 
 368:../Dave/Generated/CMSIS_DSP/FilteringFunctions/arm_conv_partial_q7.c ****           /* Read y[srcBLen - 3] sample */
 369:../Dave/Generated/CMSIS_DSP/FilteringFunctions/arm_conv_partial_q7.c ****           c0 = *(py--);
 722              	 .loc 1 369 0 discriminator 1
 723 0616 D7F88431 	 ldr r3,[r7,#388]
 724 061a 5A1E     	 subs r2,r3,#1
 725 061c C7F88421 	 str r2,[r7,#388]
 726 0620 1B78     	 ldrb r3,[r3]
 727 0622 87F82B31 	 strb r3,[r7,#299]
 370:../Dave/Generated/CMSIS_DSP/FilteringFunctions/arm_conv_partial_q7.c ****           /* Read y[srcBLen - 4] sample */
 371:../Dave/Generated/CMSIS_DSP/FilteringFunctions/arm_conv_partial_q7.c ****           c1 = *(py--);
 728              	 .loc 1 371 0 discriminator 1
 729 0626 D7F88431 	 ldr r3,[r7,#388]
 730 062a 5A1E     	 subs r2,r3,#1
 731 062c C7F88421 	 str r2,[r7,#388]
 732 0630 1B78     	 ldrb r3,[r3]
 733 0632 87F82A31 	 strb r3,[r7,#298]
 372:../Dave/Generated/CMSIS_DSP/FilteringFunctions/arm_conv_partial_q7.c **** 
 373:../Dave/Generated/CMSIS_DSP/FilteringFunctions/arm_conv_partial_q7.c ****           /* Read x[5] sample */
 374:../Dave/Generated/CMSIS_DSP/FilteringFunctions/arm_conv_partial_q7.c ****           x1 = *(px++);
 734              	 .loc 1 374 0 discriminator 1
 735 0636 D7F88831 	 ldr r3,[r7,#392]
 736 063a 5A1C     	 adds r2,r3,#1
 737 063c C7F88821 	 str r2,[r7,#392]
 738 0640 1B78     	 ldrb r3,[r3]
 739 0642 87F86631 	 strb r3,[r7,#358]
 375:../Dave/Generated/CMSIS_DSP/FilteringFunctions/arm_conv_partial_q7.c **** 
 376:../Dave/Generated/CMSIS_DSP/FilteringFunctions/arm_conv_partial_q7.c ****           /* x[2] and x[3] are packed */
 377:../Dave/Generated/CMSIS_DSP/FilteringFunctions/arm_conv_partial_q7.c ****           in1 = (q15_t) x2;
 740              	 .loc 1 377 0 discriminator 1
 741 0646 97F96531 	 ldrsb r3,[r7,#357]
 742 064a A7F83E31 	 strh r3,[r7,#318]
 378:../Dave/Generated/CMSIS_DSP/FilteringFunctions/arm_conv_partial_q7.c ****           in2 = (q15_t) x3;
 743              	 .loc 1 378 0 discriminator 1
 744 064e 97F92931 	 ldrsb r3,[r7,#297]
 745 0652 A7F83C31 	 strh r3,[r7,#316]
 379:../Dave/Generated/CMSIS_DSP/FilteringFunctions/arm_conv_partial_q7.c **** 
 380:../Dave/Generated/CMSIS_DSP/FilteringFunctions/arm_conv_partial_q7.c ****           input1 = ((q31_t) in1 & 0x0000FFFF) | ((q31_t) in2 << 16);
 746              	 .loc 1 380 0 discriminator 1
 747 0656 B7F93E31 	 ldrsh r3,[r7,#318]
 748 065a 9AB2     	 uxth r2,r3
 749 065c B7F93C31 	 ldrsh r3,[r7,#316]
 750 0660 1B04     	 lsls r3,r3,#16
 751 0662 1343     	 orrs r3,r3,r2
 752 0664 C7F83831 	 str r3,[r7,#312]
 381:../Dave/Generated/CMSIS_DSP/FilteringFunctions/arm_conv_partial_q7.c **** 
 382:../Dave/Generated/CMSIS_DSP/FilteringFunctions/arm_conv_partial_q7.c ****           /* y[srcBLen - 3] and y[srcBLen - 4] are packed */
 383:../Dave/Generated/CMSIS_DSP/FilteringFunctions/arm_conv_partial_q7.c ****           in1 = (q15_t) c0;
 753              	 .loc 1 383 0 discriminator 1
 754 0668 97F92B31 	 ldrsb r3,[r7,#299]
 755 066c A7F83E31 	 strh r3,[r7,#318]
 384:../Dave/Generated/CMSIS_DSP/FilteringFunctions/arm_conv_partial_q7.c ****           in2 = (q15_t) c1;
 756              	 .loc 1 384 0 discriminator 1
 757 0670 97F92A31 	 ldrsb r3,[r7,#298]
 758 0674 A7F83C31 	 strh r3,[r7,#316]
 385:../Dave/Generated/CMSIS_DSP/FilteringFunctions/arm_conv_partial_q7.c **** 
 386:../Dave/Generated/CMSIS_DSP/FilteringFunctions/arm_conv_partial_q7.c ****           input2 = ((q31_t) in1 & 0x0000FFFF) | ((q31_t) in2 << 16);
 759              	 .loc 1 386 0 discriminator 1
 760 0678 B7F93E31 	 ldrsh r3,[r7,#318]
 761 067c 9AB2     	 uxth r2,r3
 762 067e B7F93C31 	 ldrsh r3,[r7,#316]
 763 0682 1B04     	 lsls r3,r3,#16
 764 0684 1343     	 orrs r3,r3,r2
 765 0686 C7F83431 	 str r3,[r7,#308]
 387:../Dave/Generated/CMSIS_DSP/FilteringFunctions/arm_conv_partial_q7.c **** 
 388:../Dave/Generated/CMSIS_DSP/FilteringFunctions/arm_conv_partial_q7.c ****           /* acc0 += x[2] * y[srcBLen - 3] + x[3] * y[srcBLen - 4]  */
 389:../Dave/Generated/CMSIS_DSP/FilteringFunctions/arm_conv_partial_q7.c ****           acc0 = __SMLAD(input1, input2, acc0);
 766              	 .loc 1 389 0 discriminator 1
 767 068a D7F83801 	 ldr r0,[r7,#312]
 768 068e D7F83411 	 ldr r1,[r7,#308]
 769 0692 D7F87421 	 ldr r2,[r7,#372]
 770 0696 07F18C03 	 add r3,r7,#140
 771 069a 1860     	 str r0,[r3]
 772 069c 07F18803 	 add r3,r7,#136
 773 06a0 1960     	 str r1,[r3]
 774 06a2 07F18403 	 add r3,r7,#132
 775 06a6 1A60     	 str r2,[r3]
 776              	.LBB51:
 777              	.LBB52:
1204:C:\Workspaces\DAVE-4.1\Flightcontroller_PWM_CopterRocks_Working/Libraries/CMSIS/Include\cmsis_gcc.h ****   return(result);
 778              	 .loc 2 1204 0 discriminator 1
 779 06a8 07F18C03 	 add r3,r7,#140
 780 06ac 1B68     	 ldr r3,[r3]
 781 06ae 07F18802 	 add r2,r7,#136
 782 06b2 1268     	 ldr r2,[r2]
 783 06b4 07F18401 	 add r1,r7,#132
 784 06b8 0968     	 ldr r1,[r1]
 785              	
 786 06ba 23FB0212 	 smlad r2,r3,r2,r1
 787              	
 788              	 .thumb
 789 06be 07F18003 	 add r3,r7,#128
 790 06c2 1A60     	 str r2,[r3]
 791              	 .loc 2 1205 0 discriminator 1
 792 06c4 07F18003 	 add r3,r7,#128
 793 06c8 1B68     	 ldr r3,[r3]
 794              	.LBE52:
 795              	.LBE51:
 796              	 .loc 1 389 0 discriminator 1
 797 06ca C7F87431 	 str r3,[r7,#372]
 390:../Dave/Generated/CMSIS_DSP/FilteringFunctions/arm_conv_partial_q7.c **** 
 391:../Dave/Generated/CMSIS_DSP/FilteringFunctions/arm_conv_partial_q7.c ****           /* x[3] and x[4] are packed */
 392:../Dave/Generated/CMSIS_DSP/FilteringFunctions/arm_conv_partial_q7.c ****           in1 = (q15_t) x3;
 798              	 .loc 1 392 0 discriminator 1
 799 06ce 97F92931 	 ldrsb r3,[r7,#297]
 800 06d2 A7F83E31 	 strh r3,[r7,#318]
 393:../Dave/Generated/CMSIS_DSP/FilteringFunctions/arm_conv_partial_q7.c ****           in2 = (q15_t) x0;
 801              	 .loc 1 393 0 discriminator 1
 802 06d6 97F96731 	 ldrsb r3,[r7,#359]
 803 06da A7F83C31 	 strh r3,[r7,#316]
 394:../Dave/Generated/CMSIS_DSP/FilteringFunctions/arm_conv_partial_q7.c **** 
 395:../Dave/Generated/CMSIS_DSP/FilteringFunctions/arm_conv_partial_q7.c ****           input1 = ((q31_t) in1 & 0x0000FFFF) | ((q31_t) in2 << 16);
 804              	 .loc 1 395 0 discriminator 1
 805 06de B7F93E31 	 ldrsh r3,[r7,#318]
 806 06e2 9AB2     	 uxth r2,r3
 807 06e4 B7F93C31 	 ldrsh r3,[r7,#316]
 808 06e8 1B04     	 lsls r3,r3,#16
 809 06ea 1343     	 orrs r3,r3,r2
 810 06ec C7F83831 	 str r3,[r7,#312]
 396:../Dave/Generated/CMSIS_DSP/FilteringFunctions/arm_conv_partial_q7.c **** 
 397:../Dave/Generated/CMSIS_DSP/FilteringFunctions/arm_conv_partial_q7.c ****           /* acc1 += x[3] * y[srcBLen - 3] + x[4] * y[srcBLen - 4]  */
 398:../Dave/Generated/CMSIS_DSP/FilteringFunctions/arm_conv_partial_q7.c ****           acc1 = __SMLAD(input1, input2, acc1);
 811              	 .loc 1 398 0 discriminator 1
 812 06f0 D7F83801 	 ldr r0,[r7,#312]
 813 06f4 D7F83411 	 ldr r1,[r7,#308]
 814 06f8 D7F87021 	 ldr r2,[r7,#368]
 815 06fc 07F17C03 	 add r3,r7,#124
 816 0700 1860     	 str r0,[r3]
 817 0702 07F17803 	 add r3,r7,#120
 818 0706 1960     	 str r1,[r3]
 819 0708 07F17403 	 add r3,r7,#116
 820 070c 1A60     	 str r2,[r3]
 821              	.LBB53:
 822              	.LBB54:
1204:C:\Workspaces\DAVE-4.1\Flightcontroller_PWM_CopterRocks_Working/Libraries/CMSIS/Include\cmsis_gcc.h ****   return(result);
 823              	 .loc 2 1204 0 discriminator 1
 824 070e 07F17C03 	 add r3,r7,#124
 825 0712 1B68     	 ldr r3,[r3]
 826 0714 07F17802 	 add r2,r7,#120
 827 0718 1268     	 ldr r2,[r2]
 828 071a 07F17401 	 add r1,r7,#116
 829 071e 0968     	 ldr r1,[r1]
 830              	
 831 0720 23FB0212 	 smlad r2,r3,r2,r1
 832              	
 833              	 .thumb
 834 0724 07F17003 	 add r3,r7,#112
 835 0728 1A60     	 str r2,[r3]
 836              	 .loc 2 1205 0 discriminator 1
 837 072a 07F17003 	 add r3,r7,#112
 838 072e 1B68     	 ldr r3,[r3]
 839              	.LBE54:
 840              	.LBE53:
 841              	 .loc 1 398 0 discriminator 1
 842 0730 C7F87031 	 str r3,[r7,#368]
 399:../Dave/Generated/CMSIS_DSP/FilteringFunctions/arm_conv_partial_q7.c **** 
 400:../Dave/Generated/CMSIS_DSP/FilteringFunctions/arm_conv_partial_q7.c ****           /* x[4] and x[5] are packed */
 401:../Dave/Generated/CMSIS_DSP/FilteringFunctions/arm_conv_partial_q7.c ****           in1 = (q15_t) x0;
 843              	 .loc 1 401 0 discriminator 1
 844 0734 97F96731 	 ldrsb r3,[r7,#359]
 845 0738 A7F83E31 	 strh r3,[r7,#318]
 402:../Dave/Generated/CMSIS_DSP/FilteringFunctions/arm_conv_partial_q7.c ****           in2 = (q15_t) x1;
 846              	 .loc 1 402 0 discriminator 1
 847 073c 97F96631 	 ldrsb r3,[r7,#358]
 848 0740 A7F83C31 	 strh r3,[r7,#316]
 403:../Dave/Generated/CMSIS_DSP/FilteringFunctions/arm_conv_partial_q7.c **** 
 404:../Dave/Generated/CMSIS_DSP/FilteringFunctions/arm_conv_partial_q7.c ****           input1 = ((q31_t) in1 & 0x0000FFFF) | ((q31_t) in2 << 16);
 849              	 .loc 1 404 0 discriminator 1
 850 0744 B7F93E31 	 ldrsh r3,[r7,#318]
 851 0748 9AB2     	 uxth r2,r3
 852 074a B7F93C31 	 ldrsh r3,[r7,#316]
 853 074e 1B04     	 lsls r3,r3,#16
 854 0750 1343     	 orrs r3,r3,r2
 855 0752 C7F83831 	 str r3,[r7,#312]
 405:../Dave/Generated/CMSIS_DSP/FilteringFunctions/arm_conv_partial_q7.c **** 
 406:../Dave/Generated/CMSIS_DSP/FilteringFunctions/arm_conv_partial_q7.c ****           /* acc2 += x[4] * y[srcBLen - 3] + x[5] * y[srcBLen - 4]  */
 407:../Dave/Generated/CMSIS_DSP/FilteringFunctions/arm_conv_partial_q7.c ****           acc2 = __SMLAD(input1, input2, acc2);
 856              	 .loc 1 407 0 discriminator 1
 857 0756 D7F83801 	 ldr r0,[r7,#312]
 858 075a D7F83411 	 ldr r1,[r7,#308]
 859 075e D7F86C21 	 ldr r2,[r7,#364]
 860 0762 07F16C03 	 add r3,r7,#108
 861 0766 1860     	 str r0,[r3]
 862 0768 07F16803 	 add r3,r7,#104
 863 076c 1960     	 str r1,[r3]
 864 076e 07F16403 	 add r3,r7,#100
 865 0772 1A60     	 str r2,[r3]
 866              	.LBB55:
 867              	.LBB56:
1204:C:\Workspaces\DAVE-4.1\Flightcontroller_PWM_CopterRocks_Working/Libraries/CMSIS/Include\cmsis_gcc.h ****   return(result);
 868              	 .loc 2 1204 0 discriminator 1
 869 0774 07F16C03 	 add r3,r7,#108
 870 0778 1B68     	 ldr r3,[r3]
 871 077a 07F16802 	 add r2,r7,#104
 872 077e 1268     	 ldr r2,[r2]
 873 0780 07F16401 	 add r1,r7,#100
 874 0784 0968     	 ldr r1,[r1]
 875              	
 876 0786 23FB0212 	 smlad r2,r3,r2,r1
 877              	
 878              	 .thumb
 879 078a 07F16003 	 add r3,r7,#96
 880 078e 1A60     	 str r2,[r3]
 881              	 .loc 2 1205 0 discriminator 1
 882 0790 07F16003 	 add r3,r7,#96
 883 0794 1B68     	 ldr r3,[r3]
 884              	.LBE56:
 885              	.LBE55:
 886              	 .loc 1 407 0 discriminator 1
 887 0796 C7F86C31 	 str r3,[r7,#364]
 408:../Dave/Generated/CMSIS_DSP/FilteringFunctions/arm_conv_partial_q7.c **** 
 409:../Dave/Generated/CMSIS_DSP/FilteringFunctions/arm_conv_partial_q7.c ****           /* Read x[6] sample */
 410:../Dave/Generated/CMSIS_DSP/FilteringFunctions/arm_conv_partial_q7.c ****           x2 = *(px++);
 888              	 .loc 1 410 0 discriminator 1
 889 079a D7F88831 	 ldr r3,[r7,#392]
 890 079e 5A1C     	 adds r2,r3,#1
 891 07a0 C7F88821 	 str r2,[r7,#392]
 892 07a4 1B78     	 ldrb r3,[r3]
 893 07a6 87F86531 	 strb r3,[r7,#357]
 411:../Dave/Generated/CMSIS_DSP/FilteringFunctions/arm_conv_partial_q7.c **** 
 412:../Dave/Generated/CMSIS_DSP/FilteringFunctions/arm_conv_partial_q7.c ****           /* x[5] and x[6] are packed */
 413:../Dave/Generated/CMSIS_DSP/FilteringFunctions/arm_conv_partial_q7.c ****           in1 = (q15_t) x1;
 894              	 .loc 1 413 0 discriminator 1
 895 07aa 97F96631 	 ldrsb r3,[r7,#358]
 896 07ae A7F83E31 	 strh r3,[r7,#318]
 414:../Dave/Generated/CMSIS_DSP/FilteringFunctions/arm_conv_partial_q7.c ****           in2 = (q15_t) x2;
 897              	 .loc 1 414 0 discriminator 1
 898 07b2 97F96531 	 ldrsb r3,[r7,#357]
 899 07b6 A7F83C31 	 strh r3,[r7,#316]
 415:../Dave/Generated/CMSIS_DSP/FilteringFunctions/arm_conv_partial_q7.c **** 
 416:../Dave/Generated/CMSIS_DSP/FilteringFunctions/arm_conv_partial_q7.c ****           input1 = ((q31_t) in1 & 0x0000FFFF) | ((q31_t) in2 << 16);
 900              	 .loc 1 416 0 discriminator 1
 901 07ba B7F93E31 	 ldrsh r3,[r7,#318]
 902 07be 9AB2     	 uxth r2,r3
 903 07c0 B7F93C31 	 ldrsh r3,[r7,#316]
 904 07c4 1B04     	 lsls r3,r3,#16
 905 07c6 1343     	 orrs r3,r3,r2
 906 07c8 C7F83831 	 str r3,[r7,#312]
 417:../Dave/Generated/CMSIS_DSP/FilteringFunctions/arm_conv_partial_q7.c **** 
 418:../Dave/Generated/CMSIS_DSP/FilteringFunctions/arm_conv_partial_q7.c ****           /* acc3 += x[5] * y[srcBLen - 3] + x[6] * y[srcBLen - 4]  */
 419:../Dave/Generated/CMSIS_DSP/FilteringFunctions/arm_conv_partial_q7.c ****           acc3 = __SMLAD(input1, input2, acc3);
 907              	 .loc 1 419 0 discriminator 1
 908 07cc D7F83801 	 ldr r0,[r7,#312]
 909 07d0 D7F83411 	 ldr r1,[r7,#308]
 910 07d4 D7F86821 	 ldr r2,[r7,#360]
 911 07d8 07F15C03 	 add r3,r7,#92
 912 07dc 1860     	 str r0,[r3]
 913 07de 07F15803 	 add r3,r7,#88
 914 07e2 1960     	 str r1,[r3]
 915 07e4 07F15403 	 add r3,r7,#84
 916 07e8 1A60     	 str r2,[r3]
 917              	.LBB57:
 918              	.LBB58:
1204:C:\Workspaces\DAVE-4.1\Flightcontroller_PWM_CopterRocks_Working/Libraries/CMSIS/Include\cmsis_gcc.h ****   return(result);
 919              	 .loc 2 1204 0 discriminator 1
 920 07ea 07F15C03 	 add r3,r7,#92
 921 07ee 1B68     	 ldr r3,[r3]
 922 07f0 07F15802 	 add r2,r7,#88
 923 07f4 1268     	 ldr r2,[r2]
 924 07f6 07F15401 	 add r1,r7,#84
