   1              	 .syntax unified
   2              	 .cpu cortex-m4
   3              	 .eabi_attribute 27,3
   4              	 .fpu fpv4-sp-d16
   5              	 .eabi_attribute 20,1
   6              	 .eabi_attribute 21,1
   7              	 .eabi_attribute 23,3
   8              	 .eabi_attribute 24,1
   9              	 .eabi_attribute 25,1
  10              	 .eabi_attribute 26,1
  11              	 .eabi_attribute 30,6
  12              	 .eabi_attribute 34,1
  13              	 .eabi_attribute 18,4
  14              	 .thumb
  15              	 .file "arm_conv_partial_opt_q15.c"
  16              	 .text
  17              	.Ltext0:
  18              	 .cfi_sections .debug_frame
  19              	 .section .text.arm_conv_partial_opt_q15,"ax",%progbits
  20              	 .align 2
  21              	 .global arm_conv_partial_opt_q15
  22              	 .thumb
  23              	 .thumb_func
  25              	arm_conv_partial_opt_q15:
  26              	.LFB139:
  27              	 .file 1 "../Dave/Generated/CMSIS_DSP/FilteringFunctions/arm_conv_partial_opt_q15.c"
   1:../Dave/Generated/CMSIS_DSP/FilteringFunctions/arm_conv_partial_opt_q15.c **** /* ----------------------------------------------------------------------    
   2:../Dave/Generated/CMSIS_DSP/FilteringFunctions/arm_conv_partial_opt_q15.c **** * Copyright (C) 2010-2014 ARM Limited. All rights reserved.    
   3:../Dave/Generated/CMSIS_DSP/FilteringFunctions/arm_conv_partial_opt_q15.c **** *    
   4:../Dave/Generated/CMSIS_DSP/FilteringFunctions/arm_conv_partial_opt_q15.c **** * $Date:        12. March 2014
   5:../Dave/Generated/CMSIS_DSP/FilteringFunctions/arm_conv_partial_opt_q15.c **** * $Revision: 	V1.4.4
   6:../Dave/Generated/CMSIS_DSP/FilteringFunctions/arm_conv_partial_opt_q15.c **** *    
   7:../Dave/Generated/CMSIS_DSP/FilteringFunctions/arm_conv_partial_opt_q15.c **** * Project: 	    CMSIS DSP Library    
   8:../Dave/Generated/CMSIS_DSP/FilteringFunctions/arm_conv_partial_opt_q15.c **** * Title:		arm_conv_partial_opt_q15.c    
   9:../Dave/Generated/CMSIS_DSP/FilteringFunctions/arm_conv_partial_opt_q15.c **** *    
  10:../Dave/Generated/CMSIS_DSP/FilteringFunctions/arm_conv_partial_opt_q15.c **** * Description:	Partial convolution of Q15 sequences.   
  11:../Dave/Generated/CMSIS_DSP/FilteringFunctions/arm_conv_partial_opt_q15.c **** *    
  12:../Dave/Generated/CMSIS_DSP/FilteringFunctions/arm_conv_partial_opt_q15.c **** * Target Processor: Cortex-M4/Cortex-M3
  13:../Dave/Generated/CMSIS_DSP/FilteringFunctions/arm_conv_partial_opt_q15.c **** *  
  14:../Dave/Generated/CMSIS_DSP/FilteringFunctions/arm_conv_partial_opt_q15.c **** * Redistribution and use in source and binary forms, with or without 
  15:../Dave/Generated/CMSIS_DSP/FilteringFunctions/arm_conv_partial_opt_q15.c **** * modification, are permitted provided that the following conditions
  16:../Dave/Generated/CMSIS_DSP/FilteringFunctions/arm_conv_partial_opt_q15.c **** * are met:
  17:../Dave/Generated/CMSIS_DSP/FilteringFunctions/arm_conv_partial_opt_q15.c **** *   - Redistributions of source code must retain the above copyright
  18:../Dave/Generated/CMSIS_DSP/FilteringFunctions/arm_conv_partial_opt_q15.c **** *     notice, this list of conditions and the following disclaimer.
  19:../Dave/Generated/CMSIS_DSP/FilteringFunctions/arm_conv_partial_opt_q15.c **** *   - Redistributions in binary form must reproduce the above copyright
  20:../Dave/Generated/CMSIS_DSP/FilteringFunctions/arm_conv_partial_opt_q15.c **** *     notice, this list of conditions and the following disclaimer in
  21:../Dave/Generated/CMSIS_DSP/FilteringFunctions/arm_conv_partial_opt_q15.c **** *     the documentation and/or other materials provided with the 
  22:../Dave/Generated/CMSIS_DSP/FilteringFunctions/arm_conv_partial_opt_q15.c **** *     distribution.
  23:../Dave/Generated/CMSIS_DSP/FilteringFunctions/arm_conv_partial_opt_q15.c **** *   - Neither the name of ARM LIMITED nor the names of its contributors
  24:../Dave/Generated/CMSIS_DSP/FilteringFunctions/arm_conv_partial_opt_q15.c **** *     may be used to endorse or promote products derived from this
  25:../Dave/Generated/CMSIS_DSP/FilteringFunctions/arm_conv_partial_opt_q15.c **** *     software without specific prior written permission.
  26:../Dave/Generated/CMSIS_DSP/FilteringFunctions/arm_conv_partial_opt_q15.c **** *
  27:../Dave/Generated/CMSIS_DSP/FilteringFunctions/arm_conv_partial_opt_q15.c **** * THIS SOFTWARE IS PROVIDED BY THE COPYRIGHT HOLDERS AND CONTRIBUTORS
  28:../Dave/Generated/CMSIS_DSP/FilteringFunctions/arm_conv_partial_opt_q15.c **** * "AS IS" AND ANY EXPRESS OR IMPLIED WARRANTIES, INCLUDING, BUT NOT
  29:../Dave/Generated/CMSIS_DSP/FilteringFunctions/arm_conv_partial_opt_q15.c **** * LIMITED TO, THE IMPLIED WARRANTIES OF MERCHANTABILITY AND FITNESS
  30:../Dave/Generated/CMSIS_DSP/FilteringFunctions/arm_conv_partial_opt_q15.c **** * FOR A PARTICULAR PURPOSE ARE DISCLAIMED. IN NO EVENT SHALL THE 
  31:../Dave/Generated/CMSIS_DSP/FilteringFunctions/arm_conv_partial_opt_q15.c **** * COPYRIGHT OWNER OR CONTRIBUTORS BE LIABLE FOR ANY DIRECT, INDIRECT,
  32:../Dave/Generated/CMSIS_DSP/FilteringFunctions/arm_conv_partial_opt_q15.c **** * INCIDENTAL, SPECIAL, EXEMPLARY, OR CONSEQUENTIAL DAMAGES (INCLUDING,
  33:../Dave/Generated/CMSIS_DSP/FilteringFunctions/arm_conv_partial_opt_q15.c **** * BUT NOT LIMITED TO, PROCUREMENT OF SUBSTITUTE GOODS OR SERVICES;
  34:../Dave/Generated/CMSIS_DSP/FilteringFunctions/arm_conv_partial_opt_q15.c **** * LOSS OF USE, DATA, OR PROFITS; OR BUSINESS INTERRUPTION) HOWEVER
  35:../Dave/Generated/CMSIS_DSP/FilteringFunctions/arm_conv_partial_opt_q15.c **** * CAUSED AND ON ANY THEORY OF LIABILITY, WHETHER IN CONTRACT, STRICT
  36:../Dave/Generated/CMSIS_DSP/FilteringFunctions/arm_conv_partial_opt_q15.c **** * LIABILITY, OR TORT (INCLUDING NEGLIGENCE OR OTHERWISE) ARISING IN
  37:../Dave/Generated/CMSIS_DSP/FilteringFunctions/arm_conv_partial_opt_q15.c **** * ANY WAY OUT OF THE USE OF THIS SOFTWARE, EVEN IF ADVISED OF THE
  38:../Dave/Generated/CMSIS_DSP/FilteringFunctions/arm_conv_partial_opt_q15.c **** * POSSIBILITY OF SUCH DAMAGE.  
  39:../Dave/Generated/CMSIS_DSP/FilteringFunctions/arm_conv_partial_opt_q15.c **** * -------------------------------------------------------------------- */
  40:../Dave/Generated/CMSIS_DSP/FilteringFunctions/arm_conv_partial_opt_q15.c **** 
  41:../Dave/Generated/CMSIS_DSP/FilteringFunctions/arm_conv_partial_opt_q15.c **** #include "CMSIS_DSP/cmsis_dsp.h"
  42:../Dave/Generated/CMSIS_DSP/FilteringFunctions/arm_conv_partial_opt_q15.c **** 
  43:../Dave/Generated/CMSIS_DSP/FilteringFunctions/arm_conv_partial_opt_q15.c **** /**    
  44:../Dave/Generated/CMSIS_DSP/FilteringFunctions/arm_conv_partial_opt_q15.c ****  * @ingroup groupFilters    
  45:../Dave/Generated/CMSIS_DSP/FilteringFunctions/arm_conv_partial_opt_q15.c ****  */
  46:../Dave/Generated/CMSIS_DSP/FilteringFunctions/arm_conv_partial_opt_q15.c **** 
  47:../Dave/Generated/CMSIS_DSP/FilteringFunctions/arm_conv_partial_opt_q15.c **** /**    
  48:../Dave/Generated/CMSIS_DSP/FilteringFunctions/arm_conv_partial_opt_q15.c ****  * @addtogroup PartialConv    
  49:../Dave/Generated/CMSIS_DSP/FilteringFunctions/arm_conv_partial_opt_q15.c ****  * @{    
  50:../Dave/Generated/CMSIS_DSP/FilteringFunctions/arm_conv_partial_opt_q15.c ****  */
  51:../Dave/Generated/CMSIS_DSP/FilteringFunctions/arm_conv_partial_opt_q15.c **** 
  52:../Dave/Generated/CMSIS_DSP/FilteringFunctions/arm_conv_partial_opt_q15.c **** /**    
  53:../Dave/Generated/CMSIS_DSP/FilteringFunctions/arm_conv_partial_opt_q15.c ****  * @brief Partial convolution of Q15 sequences.    
  54:../Dave/Generated/CMSIS_DSP/FilteringFunctions/arm_conv_partial_opt_q15.c ****  * @param[in]       *pSrcA points to the first input sequence.    
  55:../Dave/Generated/CMSIS_DSP/FilteringFunctions/arm_conv_partial_opt_q15.c ****  * @param[in]       srcALen length of the first input sequence.    
  56:../Dave/Generated/CMSIS_DSP/FilteringFunctions/arm_conv_partial_opt_q15.c ****  * @param[in]       *pSrcB points to the second input sequence.    
  57:../Dave/Generated/CMSIS_DSP/FilteringFunctions/arm_conv_partial_opt_q15.c ****  * @param[in]       srcBLen length of the second input sequence.    
  58:../Dave/Generated/CMSIS_DSP/FilteringFunctions/arm_conv_partial_opt_q15.c ****  * @param[out]      *pDst points to the location where the output result is written.    
  59:../Dave/Generated/CMSIS_DSP/FilteringFunctions/arm_conv_partial_opt_q15.c ****  * @param[in]       firstIndex is the first output sample to start with.    
  60:../Dave/Generated/CMSIS_DSP/FilteringFunctions/arm_conv_partial_opt_q15.c ****  * @param[in]       numPoints is the number of output points to be computed.    
  61:../Dave/Generated/CMSIS_DSP/FilteringFunctions/arm_conv_partial_opt_q15.c ****  * @param[in]       *pScratch1 points to scratch buffer of size max(srcALen, srcBLen) + 2*min(srcAL
  62:../Dave/Generated/CMSIS_DSP/FilteringFunctions/arm_conv_partial_opt_q15.c ****  * @param[in]       *pScratch2 points to scratch buffer of size min(srcALen, srcBLen).   
  63:../Dave/Generated/CMSIS_DSP/FilteringFunctions/arm_conv_partial_opt_q15.c ****  * @return  Returns either ARM_MATH_SUCCESS if the function completed correctly or ARM_MATH_ARGUMEN
  64:../Dave/Generated/CMSIS_DSP/FilteringFunctions/arm_conv_partial_opt_q15.c ****  *    
  65:../Dave/Generated/CMSIS_DSP/FilteringFunctions/arm_conv_partial_opt_q15.c ****  * \par Restrictions    
  66:../Dave/Generated/CMSIS_DSP/FilteringFunctions/arm_conv_partial_opt_q15.c ****  *  If the silicon does not support unaligned memory access enable the macro UNALIGNED_SUPPORT_DISA
  67:../Dave/Generated/CMSIS_DSP/FilteringFunctions/arm_conv_partial_opt_q15.c ****  *	In this case input, output, state buffers should be aligned by 32-bit    
  68:../Dave/Generated/CMSIS_DSP/FilteringFunctions/arm_conv_partial_opt_q15.c ****  *    
  69:../Dave/Generated/CMSIS_DSP/FilteringFunctions/arm_conv_partial_opt_q15.c ****  * Refer to <code>arm_conv_partial_fast_q15()</code> for a faster but less precise version of this 
  70:../Dave/Generated/CMSIS_DSP/FilteringFunctions/arm_conv_partial_opt_q15.c ****  *  
  71:../Dave/Generated/CMSIS_DSP/FilteringFunctions/arm_conv_partial_opt_q15.c ****  * 
  72:../Dave/Generated/CMSIS_DSP/FilteringFunctions/arm_conv_partial_opt_q15.c ****  */
  73:../Dave/Generated/CMSIS_DSP/FilteringFunctions/arm_conv_partial_opt_q15.c **** 
  74:../Dave/Generated/CMSIS_DSP/FilteringFunctions/arm_conv_partial_opt_q15.c **** #ifndef UNALIGNED_SUPPORT_DISABLE
  75:../Dave/Generated/CMSIS_DSP/FilteringFunctions/arm_conv_partial_opt_q15.c **** 
  76:../Dave/Generated/CMSIS_DSP/FilteringFunctions/arm_conv_partial_opt_q15.c **** arm_status arm_conv_partial_opt_q15(
  77:../Dave/Generated/CMSIS_DSP/FilteringFunctions/arm_conv_partial_opt_q15.c ****   q15_t * pSrcA,
  78:../Dave/Generated/CMSIS_DSP/FilteringFunctions/arm_conv_partial_opt_q15.c ****   uint32_t srcALen,
  79:../Dave/Generated/CMSIS_DSP/FilteringFunctions/arm_conv_partial_opt_q15.c ****   q15_t * pSrcB,
  80:../Dave/Generated/CMSIS_DSP/FilteringFunctions/arm_conv_partial_opt_q15.c ****   uint32_t srcBLen,
  81:../Dave/Generated/CMSIS_DSP/FilteringFunctions/arm_conv_partial_opt_q15.c ****   q15_t * pDst,
  82:../Dave/Generated/CMSIS_DSP/FilteringFunctions/arm_conv_partial_opt_q15.c ****   uint32_t firstIndex,
  83:../Dave/Generated/CMSIS_DSP/FilteringFunctions/arm_conv_partial_opt_q15.c ****   uint32_t numPoints,
  84:../Dave/Generated/CMSIS_DSP/FilteringFunctions/arm_conv_partial_opt_q15.c ****   q15_t * pScratch1,
  85:../Dave/Generated/CMSIS_DSP/FilteringFunctions/arm_conv_partial_opt_q15.c ****   q15_t * pScratch2)
  86:../Dave/Generated/CMSIS_DSP/FilteringFunctions/arm_conv_partial_opt_q15.c **** {
  28              	 .loc 1 86 0
  29              	 .cfi_startproc
  30              	 
  31              	 
  32 0000 2DE9904F 	 push {r4,r7,r8,r9,r10,fp,lr}
  33              	.LCFI0:
  34              	 .cfi_def_cfa_offset 28
  35              	 .cfi_offset 4,-28
  36              	 .cfi_offset 7,-24
  37              	 .cfi_offset 8,-20
  38              	 .cfi_offset 9,-16
  39              	 .cfi_offset 10,-12
  40              	 .cfi_offset 11,-8
  41              	 .cfi_offset 14,-4
  42 0004 F5B0     	 sub sp,sp,#468
  43              	.LCFI1:
  44              	 .cfi_def_cfa_offset 496
  45 0006 00AF     	 add r7,sp,#0
  46              	.LCFI2:
  47              	 .cfi_def_cfa_register 7
  48 0008 07F12404 	 add r4,r7,#36
  49 000c 2060     	 str r0,[r4]
  50 000e 07F12000 	 add r0,r7,#32
  51 0012 0160     	 str r1,[r0]
  52 0014 07F11C01 	 add r1,r7,#28
  53 0018 0A60     	 str r2,[r1]
  54 001a 07F11802 	 add r2,r7,#24
  55 001e 1360     	 str r3,[r2]
  87:../Dave/Generated/CMSIS_DSP/FilteringFunctions/arm_conv_partial_opt_q15.c **** 
  88:../Dave/Generated/CMSIS_DSP/FilteringFunctions/arm_conv_partial_opt_q15.c ****   q15_t *pOut = pDst;                            /* output pointer */
  56              	 .loc 1 88 0
  57 0020 07F17C03 	 add r3,r7,#124
  58 0024 D7F8F021 	 ldr r2,[r7,#496]
  59 0028 1A60     	 str r2,[r3]
  89:../Dave/Generated/CMSIS_DSP/FilteringFunctions/arm_conv_partial_opt_q15.c ****   q15_t *pScr1 = pScratch1;                      /* Temporary pointer for scratch1 */
  60              	 .loc 1 89 0
  61 002a 07F17803 	 add r3,r7,#120
  62 002e D7F8FC21 	 ldr r2,[r7,#508]
  63 0032 1A60     	 str r2,[r3]
  90:../Dave/Generated/CMSIS_DSP/FilteringFunctions/arm_conv_partial_opt_q15.c ****   q15_t *pScr2 = pScratch2;                      /* Temporary pointer for scratch1 */
  64              	 .loc 1 90 0
  65 0034 D7F80032 	 ldr r3,[r7,#512]
  66 0038 C7F8CC31 	 str r3,[r7,#460]
  91:../Dave/Generated/CMSIS_DSP/FilteringFunctions/arm_conv_partial_opt_q15.c ****   q63_t acc0, acc1, acc2, acc3;                  /* Accumulator */
  92:../Dave/Generated/CMSIS_DSP/FilteringFunctions/arm_conv_partial_opt_q15.c ****   q31_t x1, x2, x3;                              /* Temporary variables to hold state and coefficie
  93:../Dave/Generated/CMSIS_DSP/FilteringFunctions/arm_conv_partial_opt_q15.c ****   q31_t y1, y2;                                  /* State variables */
  94:../Dave/Generated/CMSIS_DSP/FilteringFunctions/arm_conv_partial_opt_q15.c ****   q15_t *pIn1;                                   /* inputA pointer */
  95:../Dave/Generated/CMSIS_DSP/FilteringFunctions/arm_conv_partial_opt_q15.c ****   q15_t *pIn2;                                   /* inputB pointer */
  96:../Dave/Generated/CMSIS_DSP/FilteringFunctions/arm_conv_partial_opt_q15.c ****   q15_t *px;                                     /* Intermediate inputA pointer  */
  97:../Dave/Generated/CMSIS_DSP/FilteringFunctions/arm_conv_partial_opt_q15.c ****   q15_t *py;                                     /* Intermediate inputB pointer  */
  98:../Dave/Generated/CMSIS_DSP/FilteringFunctions/arm_conv_partial_opt_q15.c ****   uint32_t j, k, blkCnt;                         /* loop counter */
  99:../Dave/Generated/CMSIS_DSP/FilteringFunctions/arm_conv_partial_opt_q15.c ****   arm_status status;                             /* Status variable */
 100:../Dave/Generated/CMSIS_DSP/FilteringFunctions/arm_conv_partial_opt_q15.c ****   uint32_t tapCnt;                               /* loop count */
 101:../Dave/Generated/CMSIS_DSP/FilteringFunctions/arm_conv_partial_opt_q15.c **** 
 102:../Dave/Generated/CMSIS_DSP/FilteringFunctions/arm_conv_partial_opt_q15.c ****   /* Check for range of output samples to be calculated */
 103:../Dave/Generated/CMSIS_DSP/FilteringFunctions/arm_conv_partial_opt_q15.c ****   if((firstIndex + numPoints) > ((srcALen + (srcBLen - 1u))))
  67              	 .loc 1 103 0
  68 003c D7F8F421 	 ldr r2,[r7,#500]
  69 0040 D7F8F831 	 ldr r3,[r7,#504]
  70 0044 1A44     	 add r2,r2,r3
  71 0046 07F11801 	 add r1,r7,#24
  72 004a 07F12003 	 add r3,r7,#32
  73 004e 0968     	 ldr r1,[r1]
  74 0050 1B68     	 ldr r3,[r3]
  75 0052 0B44     	 add r3,r3,r1
  76 0054 013B     	 subs r3,r3,#1
  77 0056 9A42     	 cmp r2,r3
  78 0058 04D9     	 bls .L2
 104:../Dave/Generated/CMSIS_DSP/FilteringFunctions/arm_conv_partial_opt_q15.c ****   {
 105:../Dave/Generated/CMSIS_DSP/FilteringFunctions/arm_conv_partial_opt_q15.c ****     /* Set status as ARM_MATH_ARGUMENT_ERROR */
 106:../Dave/Generated/CMSIS_DSP/FilteringFunctions/arm_conv_partial_opt_q15.c ****     status = ARM_MATH_ARGUMENT_ERROR;
  79              	 .loc 1 106 0
  80 005a FF23     	 movs r3,#255
  81 005c 87F88F31 	 strb r3,[r7,#399]
  82 0060 00F05CBD 	 b .L3
  83              	.L2:
 107:../Dave/Generated/CMSIS_DSP/FilteringFunctions/arm_conv_partial_opt_q15.c ****   }
 108:../Dave/Generated/CMSIS_DSP/FilteringFunctions/arm_conv_partial_opt_q15.c ****   else
 109:../Dave/Generated/CMSIS_DSP/FilteringFunctions/arm_conv_partial_opt_q15.c ****   {
 110:../Dave/Generated/CMSIS_DSP/FilteringFunctions/arm_conv_partial_opt_q15.c **** 
 111:../Dave/Generated/CMSIS_DSP/FilteringFunctions/arm_conv_partial_opt_q15.c ****     /* The algorithm implementation is based on the lengths of the inputs. */
 112:../Dave/Generated/CMSIS_DSP/FilteringFunctions/arm_conv_partial_opt_q15.c ****     /* srcB is always made to slide across srcA. */
 113:../Dave/Generated/CMSIS_DSP/FilteringFunctions/arm_conv_partial_opt_q15.c ****     /* So srcBLen is always considered as shorter or equal to srcALen */
 114:../Dave/Generated/CMSIS_DSP/FilteringFunctions/arm_conv_partial_opt_q15.c ****     if(srcALen >= srcBLen)
  84              	 .loc 1 114 0
  85 0064 07F12002 	 add r2,r7,#32
  86 0068 07F11803 	 add r3,r7,#24
  87 006c 1268     	 ldr r2,[r2]
  88 006e 1B68     	 ldr r3,[r3]
  89 0070 9A42     	 cmp r2,r3
  90 0072 0BD3     	 bcc .L4
 115:../Dave/Generated/CMSIS_DSP/FilteringFunctions/arm_conv_partial_opt_q15.c ****     {
 116:../Dave/Generated/CMSIS_DSP/FilteringFunctions/arm_conv_partial_opt_q15.c ****       /* Initialization of inputA pointer */
 117:../Dave/Generated/CMSIS_DSP/FilteringFunctions/arm_conv_partial_opt_q15.c ****       pIn1 = pSrcA;
  91              	 .loc 1 117 0
  92 0074 07F12403 	 add r3,r7,#36
  93 0078 1B68     	 ldr r3,[r3]
  94 007a C7F89C31 	 str r3,[r7,#412]
 118:../Dave/Generated/CMSIS_DSP/FilteringFunctions/arm_conv_partial_opt_q15.c **** 
 119:../Dave/Generated/CMSIS_DSP/FilteringFunctions/arm_conv_partial_opt_q15.c ****       /* Initialization of inputB pointer */
 120:../Dave/Generated/CMSIS_DSP/FilteringFunctions/arm_conv_partial_opt_q15.c ****       pIn2 = pSrcB;
  95              	 .loc 1 120 0
  96 007e 07F17403 	 add r3,r7,#116
  97 0082 07F11C02 	 add r2,r7,#28
  98 0086 1268     	 ldr r2,[r2]
  99 0088 1A60     	 str r2,[r3]
 100 008a 1AE0     	 b .L5
 101              	.L4:
 121:../Dave/Generated/CMSIS_DSP/FilteringFunctions/arm_conv_partial_opt_q15.c ****     }
 122:../Dave/Generated/CMSIS_DSP/FilteringFunctions/arm_conv_partial_opt_q15.c ****     else
 123:../Dave/Generated/CMSIS_DSP/FilteringFunctions/arm_conv_partial_opt_q15.c ****     {
 124:../Dave/Generated/CMSIS_DSP/FilteringFunctions/arm_conv_partial_opt_q15.c ****       /* Initialization of inputA pointer */
 125:../Dave/Generated/CMSIS_DSP/FilteringFunctions/arm_conv_partial_opt_q15.c ****       pIn1 = pSrcB;
 102              	 .loc 1 125 0
 103 008c 07F11C03 	 add r3,r7,#28
 104 0090 1B68     	 ldr r3,[r3]
 105 0092 C7F89C31 	 str r3,[r7,#412]
 126:../Dave/Generated/CMSIS_DSP/FilteringFunctions/arm_conv_partial_opt_q15.c **** 
 127:../Dave/Generated/CMSIS_DSP/FilteringFunctions/arm_conv_partial_opt_q15.c ****       /* Initialization of inputB pointer */
 128:../Dave/Generated/CMSIS_DSP/FilteringFunctions/arm_conv_partial_opt_q15.c ****       pIn2 = pSrcA;
 106              	 .loc 1 128 0
 107 0096 07F17403 	 add r3,r7,#116
 108 009a 07F12402 	 add r2,r7,#36
 109 009e 1268     	 ldr r2,[r2]
 110 00a0 1A60     	 str r2,[r3]
 129:../Dave/Generated/CMSIS_DSP/FilteringFunctions/arm_conv_partial_opt_q15.c **** 
 130:../Dave/Generated/CMSIS_DSP/FilteringFunctions/arm_conv_partial_opt_q15.c ****       /* srcBLen is always considered as shorter or equal to srcALen */
 131:../Dave/Generated/CMSIS_DSP/FilteringFunctions/arm_conv_partial_opt_q15.c ****       j = srcBLen;
 111              	 .loc 1 131 0
 112 00a2 07F11803 	 add r3,r7,#24
 113 00a6 1B68     	 ldr r3,[r3]
 114 00a8 C7F88431 	 str r3,[r7,#388]
 132:../Dave/Generated/CMSIS_DSP/FilteringFunctions/arm_conv_partial_opt_q15.c ****       srcBLen = srcALen;
 115              	 .loc 1 132 0
 116 00ac 07F11803 	 add r3,r7,#24
 117 00b0 07F12002 	 add r2,r7,#32
 118 00b4 1268     	 ldr r2,[r2]
 119 00b6 1A60     	 str r2,[r3]
 133:../Dave/Generated/CMSIS_DSP/FilteringFunctions/arm_conv_partial_opt_q15.c ****       srcALen = j;
 120              	 .loc 1 133 0
 121 00b8 07F12003 	 add r3,r7,#32
 122 00bc D7F88421 	 ldr r2,[r7,#388]
 123 00c0 1A60     	 str r2,[r3]
 124              	.L5:
 134:../Dave/Generated/CMSIS_DSP/FilteringFunctions/arm_conv_partial_opt_q15.c ****     }
 135:../Dave/Generated/CMSIS_DSP/FilteringFunctions/arm_conv_partial_opt_q15.c **** 
 136:../Dave/Generated/CMSIS_DSP/FilteringFunctions/arm_conv_partial_opt_q15.c ****     /* Temporary pointer for scratch2 */
 137:../Dave/Generated/CMSIS_DSP/FilteringFunctions/arm_conv_partial_opt_q15.c ****     py = pScratch2;
 125              	 .loc 1 137 0
 126 00c2 D7F80032 	 ldr r3,[r7,#512]
 127 00c6 C7F88031 	 str r3,[r7,#384]
 138:../Dave/Generated/CMSIS_DSP/FilteringFunctions/arm_conv_partial_opt_q15.c **** 
 139:../Dave/Generated/CMSIS_DSP/FilteringFunctions/arm_conv_partial_opt_q15.c ****     /* pointer to take end of scratch2 buffer */
 140:../Dave/Generated/CMSIS_DSP/FilteringFunctions/arm_conv_partial_opt_q15.c ****     pScr2 = pScratch2 + srcBLen - 1;
 128              	 .loc 1 140 0
 129 00ca 07F11803 	 add r3,r7,#24
 130 00ce 1B68     	 ldr r3,[r3]
 131 00d0 03F10043 	 add r3,r3,#-2147483648
 132 00d4 013B     	 subs r3,r3,#1
 133 00d6 5B00     	 lsls r3,r3,#1
 134 00d8 D7F80022 	 ldr r2,[r7,#512]
 135 00dc 1344     	 add r3,r3,r2
 136 00de C7F8CC31 	 str r3,[r7,#460]
 141:../Dave/Generated/CMSIS_DSP/FilteringFunctions/arm_conv_partial_opt_q15.c **** 
 142:../Dave/Generated/CMSIS_DSP/FilteringFunctions/arm_conv_partial_opt_q15.c ****     /* points to smaller length sequence */
 143:../Dave/Generated/CMSIS_DSP/FilteringFunctions/arm_conv_partial_opt_q15.c ****     px = pIn2;
 137              	 .loc 1 143 0
 138 00e2 07F17403 	 add r3,r7,#116
 139 00e6 1B68     	 ldr r3,[r3]
 140 00e8 C7F89831 	 str r3,[r7,#408]
 144:../Dave/Generated/CMSIS_DSP/FilteringFunctions/arm_conv_partial_opt_q15.c **** 
 145:../Dave/Generated/CMSIS_DSP/FilteringFunctions/arm_conv_partial_opt_q15.c ****     /* Apply loop unrolling and do 4 Copies simultaneously. */
 146:../Dave/Generated/CMSIS_DSP/FilteringFunctions/arm_conv_partial_opt_q15.c ****     k = srcBLen >> 2u;
 141              	 .loc 1 146 0
 142 00ec 07F11803 	 add r3,r7,#24
 143 00f0 1B68     	 ldr r3,[r3]
 144 00f2 9B08     	 lsrs r3,r3,#2
 145 00f4 C7F89431 	 str r3,[r7,#404]
 147:../Dave/Generated/CMSIS_DSP/FilteringFunctions/arm_conv_partial_opt_q15.c **** 
 148:../Dave/Generated/CMSIS_DSP/FilteringFunctions/arm_conv_partial_opt_q15.c ****     /* First part of the processing with loop unrolling copies 4 data points at a time.       
 149:../Dave/Generated/CMSIS_DSP/FilteringFunctions/arm_conv_partial_opt_q15.c ****      ** a second loop below copies for the remaining 1 to 3 samples. */
 150:../Dave/Generated/CMSIS_DSP/FilteringFunctions/arm_conv_partial_opt_q15.c ****     while(k > 0u)
 146              	 .loc 1 150 0
 147 00f8 34E0     	 b .L6
 148              	.L7:
 151:../Dave/Generated/CMSIS_DSP/FilteringFunctions/arm_conv_partial_opt_q15.c ****     {
 152:../Dave/Generated/CMSIS_DSP/FilteringFunctions/arm_conv_partial_opt_q15.c ****       /* copy second buffer in reversal manner */
 153:../Dave/Generated/CMSIS_DSP/FilteringFunctions/arm_conv_partial_opt_q15.c ****       *pScr2-- = *px++;
 149              	 .loc 1 153 0
 150 00fa D7F8CC31 	 ldr r3,[r7,#460]
 151 00fe 9A1E     	 subs r2,r3,#2
 152 0100 C7F8CC21 	 str r2,[r7,#460]
 153 0104 D7F89821 	 ldr r2,[r7,#408]
 154 0108 911C     	 adds r1,r2,#2
 155 010a C7F89811 	 str r1,[r7,#408]
 156 010e 1288     	 ldrh r2,[r2]
 157 0110 1A80     	 strh r2,[r3]
 154:../Dave/Generated/CMSIS_DSP/FilteringFunctions/arm_conv_partial_opt_q15.c ****       *pScr2-- = *px++;
 158              	 .loc 1 154 0
 159 0112 D7F8CC31 	 ldr r3,[r7,#460]
 160 0116 9A1E     	 subs r2,r3,#2
 161 0118 C7F8CC21 	 str r2,[r7,#460]
 162 011c D7F89821 	 ldr r2,[r7,#408]
 163 0120 911C     	 adds r1,r2,#2
 164 0122 C7F89811 	 str r1,[r7,#408]
 165 0126 1288     	 ldrh r2,[r2]
 166 0128 1A80     	 strh r2,[r3]
 155:../Dave/Generated/CMSIS_DSP/FilteringFunctions/arm_conv_partial_opt_q15.c ****       *pScr2-- = *px++;
 167              	 .loc 1 155 0
 168 012a D7F8CC31 	 ldr r3,[r7,#460]
 169 012e 9A1E     	 subs r2,r3,#2
 170 0130 C7F8CC21 	 str r2,[r7,#460]
 171 0134 D7F89821 	 ldr r2,[r7,#408]
 172 0138 911C     	 adds r1,r2,#2
 173 013a C7F89811 	 str r1,[r7,#408]
 174 013e 1288     	 ldrh r2,[r2]
 175 0140 1A80     	 strh r2,[r3]
 156:../Dave/Generated/CMSIS_DSP/FilteringFunctions/arm_conv_partial_opt_q15.c ****       *pScr2-- = *px++;
 176              	 .loc 1 156 0
 177 0142 D7F8CC31 	 ldr r3,[r7,#460]
 178 0146 9A1E     	 subs r2,r3,#2
 179 0148 C7F8CC21 	 str r2,[r7,#460]
 180 014c D7F89821 	 ldr r2,[r7,#408]
 181 0150 911C     	 adds r1,r2,#2
 182 0152 C7F89811 	 str r1,[r7,#408]
 183 0156 1288     	 ldrh r2,[r2]
 184 0158 1A80     	 strh r2,[r3]
 157:../Dave/Generated/CMSIS_DSP/FilteringFunctions/arm_conv_partial_opt_q15.c **** 
 158:../Dave/Generated/CMSIS_DSP/FilteringFunctions/arm_conv_partial_opt_q15.c ****       /* Decrement the loop counter */
 159:../Dave/Generated/CMSIS_DSP/FilteringFunctions/arm_conv_partial_opt_q15.c ****       k--;
 185              	 .loc 1 159 0
 186 015a D7F89431 	 ldr r3,[r7,#404]
 187 015e 013B     	 subs r3,r3,#1
 188 0160 C7F89431 	 str r3,[r7,#404]
 189              	.L6:
 150:../Dave/Generated/CMSIS_DSP/FilteringFunctions/arm_conv_partial_opt_q15.c ****     {
 190              	 .loc 1 150 0
 191 0164 D7F89431 	 ldr r3,[r7,#404]
 192 0168 002B     	 cmp r3,#0
 193 016a C6D1     	 bne .L7
 160:../Dave/Generated/CMSIS_DSP/FilteringFunctions/arm_conv_partial_opt_q15.c ****     }
 161:../Dave/Generated/CMSIS_DSP/FilteringFunctions/arm_conv_partial_opt_q15.c **** 
 162:../Dave/Generated/CMSIS_DSP/FilteringFunctions/arm_conv_partial_opt_q15.c ****     /* If the count is not a multiple of 4, copy remaining samples here.       
 163:../Dave/Generated/CMSIS_DSP/FilteringFunctions/arm_conv_partial_opt_q15.c ****      ** No loop unrolling is used. */
 164:../Dave/Generated/CMSIS_DSP/FilteringFunctions/arm_conv_partial_opt_q15.c ****     k = srcBLen % 0x4u;
 194              	 .loc 1 164 0
 195 016c 07F11803 	 add r3,r7,#24
 196 0170 1B68     	 ldr r3,[r3]
 197 0172 03F00303 	 and r3,r3,#3
 198 0176 C7F89431 	 str r3,[r7,#404]
 165:../Dave/Generated/CMSIS_DSP/FilteringFunctions/arm_conv_partial_opt_q15.c **** 
 166:../Dave/Generated/CMSIS_DSP/FilteringFunctions/arm_conv_partial_opt_q15.c ****     while(k > 0u)
 199              	 .loc 1 166 0
 200 017a 10E0     	 b .L8
 201              	.L9:
 167:../Dave/Generated/CMSIS_DSP/FilteringFunctions/arm_conv_partial_opt_q15.c ****     {
 168:../Dave/Generated/CMSIS_DSP/FilteringFunctions/arm_conv_partial_opt_q15.c ****       /* copy second buffer in reversal manner for remaining samples */
 169:../Dave/Generated/CMSIS_DSP/FilteringFunctions/arm_conv_partial_opt_q15.c ****       *pScr2-- = *px++;
 202              	 .loc 1 169 0
 203 017c D7F8CC31 	 ldr r3,[r7,#460]
 204 0180 9A1E     	 subs r2,r3,#2
 205 0182 C7F8CC21 	 str r2,[r7,#460]
 206 0186 D7F89821 	 ldr r2,[r7,#408]
 207 018a 911C     	 adds r1,r2,#2
 208 018c C7F89811 	 str r1,[r7,#408]
 209 0190 1288     	 ldrh r2,[r2]
 210 0192 1A80     	 strh r2,[r3]
 170:../Dave/Generated/CMSIS_DSP/FilteringFunctions/arm_conv_partial_opt_q15.c **** 
 171:../Dave/Generated/CMSIS_DSP/FilteringFunctions/arm_conv_partial_opt_q15.c ****       /* Decrement the loop counter */
 172:../Dave/Generated/CMSIS_DSP/FilteringFunctions/arm_conv_partial_opt_q15.c ****       k--;
 211              	 .loc 1 172 0
 212 0194 D7F89431 	 ldr r3,[r7,#404]
 213 0198 013B     	 subs r3,r3,#1
 214 019a C7F89431 	 str r3,[r7,#404]
 215              	.L8:
 166:../Dave/Generated/CMSIS_DSP/FilteringFunctions/arm_conv_partial_opt_q15.c ****     {
 216              	 .loc 1 166 0
 217 019e D7F89431 	 ldr r3,[r7,#404]
 218 01a2 002B     	 cmp r3,#0
 219 01a4 EAD1     	 bne .L9
 173:../Dave/Generated/CMSIS_DSP/FilteringFunctions/arm_conv_partial_opt_q15.c ****     }
 174:../Dave/Generated/CMSIS_DSP/FilteringFunctions/arm_conv_partial_opt_q15.c **** 
 175:../Dave/Generated/CMSIS_DSP/FilteringFunctions/arm_conv_partial_opt_q15.c ****     /* Initialze temporary scratch pointer */
 176:../Dave/Generated/CMSIS_DSP/FilteringFunctions/arm_conv_partial_opt_q15.c ****     pScr1 = pScratch1;
 220              	 .loc 1 176 0
 221 01a6 07F17803 	 add r3,r7,#120
 222 01aa D7F8FC21 	 ldr r2,[r7,#508]
 223 01ae 1A60     	 str r2,[r3]
 177:../Dave/Generated/CMSIS_DSP/FilteringFunctions/arm_conv_partial_opt_q15.c **** 
 178:../Dave/Generated/CMSIS_DSP/FilteringFunctions/arm_conv_partial_opt_q15.c ****     /* Fill (srcBLen - 1u) zeros in scratch buffer */
 179:../Dave/Generated/CMSIS_DSP/FilteringFunctions/arm_conv_partial_opt_q15.c ****     arm_fill_q15(0, pScr1, (srcBLen - 1u));
 224              	 .loc 1 179 0
 225 01b0 07F17803 	 add r3,r7,#120
 226 01b4 1A68     	 ldr r2,[r3]
 227 01b6 07F11803 	 add r3,r7,#24
 228 01ba 1B68     	 ldr r3,[r3]
 229 01bc 013B     	 subs r3,r3,#1
 230 01be 0020     	 movs r0,#0
 231 01c0 1146     	 mov r1,r2
 232 01c2 1A46     	 mov r2,r3
 233 01c4 FFF7FEFF 	 bl arm_fill_q15
 180:../Dave/Generated/CMSIS_DSP/FilteringFunctions/arm_conv_partial_opt_q15.c **** 
 181:../Dave/Generated/CMSIS_DSP/FilteringFunctions/arm_conv_partial_opt_q15.c ****     /* Update temporary scratch pointer */
 182:../Dave/Generated/CMSIS_DSP/FilteringFunctions/arm_conv_partial_opt_q15.c ****     pScr1 += (srcBLen - 1u);
 234              	 .loc 1 182 0
 235 01c8 07F17803 	 add r3,r7,#120
 236 01cc 1A68     	 ldr r2,[r3]
 237 01ce 07F11803 	 add r3,r7,#24
 238 01d2 1B68     	 ldr r3,[r3]
 239 01d4 03F10043 	 add r3,r3,#-2147483648
 240 01d8 013B     	 subs r3,r3,#1
 241 01da 5B00     	 lsls r3,r3,#1
 242 01dc 1A44     	 add r2,r2,r3
 243 01de 07F17803 	 add r3,r7,#120
 244 01e2 1A60     	 str r2,[r3]
 183:../Dave/Generated/CMSIS_DSP/FilteringFunctions/arm_conv_partial_opt_q15.c **** 
 184:../Dave/Generated/CMSIS_DSP/FilteringFunctions/arm_conv_partial_opt_q15.c ****     /* Copy bigger length sequence(srcALen) samples in scratch1 buffer */
 185:../Dave/Generated/CMSIS_DSP/FilteringFunctions/arm_conv_partial_opt_q15.c **** 
 186:../Dave/Generated/CMSIS_DSP/FilteringFunctions/arm_conv_partial_opt_q15.c ****     /* Copy (srcALen) samples in scratch buffer */
 187:../Dave/Generated/CMSIS_DSP/FilteringFunctions/arm_conv_partial_opt_q15.c ****     arm_copy_q15(pIn1, pScr1, srcALen);
 245              	 .loc 1 187 0
 246 01e4 07F17803 	 add r3,r7,#120
 247 01e8 1A68     	 ldr r2,[r3]
 248 01ea 07F12003 	 add r3,r7,#32
 249 01ee D7F89C01 	 ldr r0,[r7,#412]
 250 01f2 1146     	 mov r1,r2
 251 01f4 1A68     	 ldr r2,[r3]
 252 01f6 FFF7FEFF 	 bl arm_copy_q15
 188:../Dave/Generated/CMSIS_DSP/FilteringFunctions/arm_conv_partial_opt_q15.c **** 
 189:../Dave/Generated/CMSIS_DSP/FilteringFunctions/arm_conv_partial_opt_q15.c ****     /* Update pointers */
 190:../Dave/Generated/CMSIS_DSP/FilteringFunctions/arm_conv_partial_opt_q15.c ****     pScr1 += srcALen;
 253              	 .loc 1 190 0
 254 01fa 07F17803 	 add r3,r7,#120
 255 01fe 1A68     	 ldr r2,[r3]
 256 0200 07F12003 	 add r3,r7,#32
 257 0204 1B68     	 ldr r3,[r3]
 258 0206 5B00     	 lsls r3,r3,#1
 259 0208 1A44     	 add r2,r2,r3
 260 020a 07F17803 	 add r3,r7,#120
 261 020e 1A60     	 str r2,[r3]
 191:../Dave/Generated/CMSIS_DSP/FilteringFunctions/arm_conv_partial_opt_q15.c **** 
 192:../Dave/Generated/CMSIS_DSP/FilteringFunctions/arm_conv_partial_opt_q15.c ****     /* Fill (srcBLen - 1u) zeros at end of scratch buffer */
 193:../Dave/Generated/CMSIS_DSP/FilteringFunctions/arm_conv_partial_opt_q15.c ****     arm_fill_q15(0, pScr1, (srcBLen - 1u));
 262              	 .loc 1 193 0
 263 0210 07F17803 	 add r3,r7,#120
 264 0214 1A68     	 ldr r2,[r3]
 265 0216 07F11803 	 add r3,r7,#24
 266 021a 1B68     	 ldr r3,[r3]
 267 021c 013B     	 subs r3,r3,#1
 268 021e 0020     	 movs r0,#0
 269 0220 1146     	 mov r1,r2
 270 0222 1A46     	 mov r2,r3
 271 0224 FFF7FEFF 	 bl arm_fill_q15
 194:../Dave/Generated/CMSIS_DSP/FilteringFunctions/arm_conv_partial_opt_q15.c **** 
 195:../Dave/Generated/CMSIS_DSP/FilteringFunctions/arm_conv_partial_opt_q15.c ****     /* Update pointer */
 196:../Dave/Generated/CMSIS_DSP/FilteringFunctions/arm_conv_partial_opt_q15.c ****     pScr1 += (srcBLen - 1u);
 272              	 .loc 1 196 0
 273 0228 07F17803 	 add r3,r7,#120
 274 022c 1A68     	 ldr r2,[r3]
 275 022e 07F11803 	 add r3,r7,#24
 276 0232 1B68     	 ldr r3,[r3]
 277 0234 03F10043 	 add r3,r3,#-2147483648
 278 0238 013B     	 subs r3,r3,#1
 279 023a 5B00     	 lsls r3,r3,#1
 280 023c 1A44     	 add r2,r2,r3
 281 023e 07F17803 	 add r3,r7,#120
 282 0242 1A60     	 str r2,[r3]
 197:../Dave/Generated/CMSIS_DSP/FilteringFunctions/arm_conv_partial_opt_q15.c **** 
 198:../Dave/Generated/CMSIS_DSP/FilteringFunctions/arm_conv_partial_opt_q15.c ****     /* Initialization of pIn2 pointer */
 199:../Dave/Generated/CMSIS_DSP/FilteringFunctions/arm_conv_partial_opt_q15.c ****     pIn2 = py;
 283              	 .loc 1 199 0
 284 0244 07F17403 	 add r3,r7,#116
 285 0248 D7F88021 	 ldr r2,[r7,#384]
 286 024c 1A60     	 str r2,[r3]
 200:../Dave/Generated/CMSIS_DSP/FilteringFunctions/arm_conv_partial_opt_q15.c **** 
 201:../Dave/Generated/CMSIS_DSP/FilteringFunctions/arm_conv_partial_opt_q15.c ****     pScratch1 += firstIndex;
 287              	 .loc 1 201 0
 288 024e D7F8F431 	 ldr r3,[r7,#500]
 289 0252 5B00     	 lsls r3,r3,#1
 290 0254 D7F8FC21 	 ldr r2,[r7,#508]
 291 0258 1344     	 add r3,r3,r2
 292 025a C7F8FC31 	 str r3,[r7,#508]
 202:../Dave/Generated/CMSIS_DSP/FilteringFunctions/arm_conv_partial_opt_q15.c **** 
 203:../Dave/Generated/CMSIS_DSP/FilteringFunctions/arm_conv_partial_opt_q15.c ****     pOut = pDst + firstIndex;
 293              	 .loc 1 203 0
 294 025e D7F8F431 	 ldr r3,[r7,#500]
 295 0262 5B00     	 lsls r3,r3,#1
 296 0264 D7F8F021 	 ldr r2,[r7,#496]
 297 0268 1A44     	 add r2,r2,r3
 298 026a 07F17C03 	 add r3,r7,#124
 299 026e 1A60     	 str r2,[r3]
 204:../Dave/Generated/CMSIS_DSP/FilteringFunctions/arm_conv_partial_opt_q15.c **** 
 205:../Dave/Generated/CMSIS_DSP/FilteringFunctions/arm_conv_partial_opt_q15.c ****     /* Actual convolution process starts here */
 206:../Dave/Generated/CMSIS_DSP/FilteringFunctions/arm_conv_partial_opt_q15.c ****     blkCnt = (numPoints) >> 2;
 300              	 .loc 1 206 0
 301 0270 D7F8F831 	 ldr r3,[r7,#504]
 302 0274 9B08     	 lsrs r3,r3,#2
 303 0276 C7F89031 	 str r3,[r7,#400]
 207:../Dave/Generated/CMSIS_DSP/FilteringFunctions/arm_conv_partial_opt_q15.c **** 
 208:../Dave/Generated/CMSIS_DSP/FilteringFunctions/arm_conv_partial_opt_q15.c ****     while(blkCnt > 0)
 304              	 .loc 1 208 0
 305 027a 77E3     	 b .L10
 306              	.L23:
 209:../Dave/Generated/CMSIS_DSP/FilteringFunctions/arm_conv_partial_opt_q15.c ****     {
 210:../Dave/Generated/CMSIS_DSP/FilteringFunctions/arm_conv_partial_opt_q15.c ****       /* Initialze temporary scratch pointer as scratch1 */
 211:../Dave/Generated/CMSIS_DSP/FilteringFunctions/arm_conv_partial_opt_q15.c ****       pScr1 = pScratch1;
 307              	 .loc 1 211 0
 308 027c 07F17803 	 add r3,r7,#120
 309 0280 D7F8FC21 	 ldr r2,[r7,#508]
 310 0284 1A60     	 str r2,[r3]
 212:../Dave/Generated/CMSIS_DSP/FilteringFunctions/arm_conv_partial_opt_q15.c **** 
 213:../Dave/Generated/CMSIS_DSP/FilteringFunctions/arm_conv_partial_opt_q15.c ****       /* Clear Accumlators */
 214:../Dave/Generated/CMSIS_DSP/FilteringFunctions/arm_conv_partial_opt_q15.c ****       acc0 = 0;
 311              	 .loc 1 214 0
 312 0286 4FF00002 	 mov r2,#0
 313 028a 4FF00003 	 mov r3,#0
 314 028e 07F5E071 	 add r1,r7,#448
 315 0292 C1E90023 	 strd r2,[r1]
 215:../Dave/Generated/CMSIS_DSP/FilteringFunctions/arm_conv_partial_opt_q15.c ****       acc1 = 0;
 316              	 .loc 1 215 0
 317 0296 4FF00002 	 mov r2,#0
 318 029a 4FF00003 	 mov r3,#0
 319 029e 07F5DC71 	 add r1,r7,#440
 320 02a2 C1E90023 	 strd r2,[r1]
 216:../Dave/Generated/CMSIS_DSP/FilteringFunctions/arm_conv_partial_opt_q15.c ****       acc2 = 0;
 321              	 .loc 1 216 0
 322 02a6 4FF00002 	 mov r2,#0
 323 02aa 4FF00003 	 mov r3,#0
 324 02ae 07F5D871 	 add r1,r7,#432
 325 02b2 C1E90023 	 strd r2,[r1]
 217:../Dave/Generated/CMSIS_DSP/FilteringFunctions/arm_conv_partial_opt_q15.c ****       acc3 = 0;
 326              	 .loc 1 217 0
 327 02b6 4FF00002 	 mov r2,#0
 328 02ba 4FF00003 	 mov r3,#0
 329 02be 07F5D471 	 add r1,r7,#424
 330 02c2 C1E90023 	 strd r2,[r1]
 218:../Dave/Generated/CMSIS_DSP/FilteringFunctions/arm_conv_partial_opt_q15.c **** 
 219:../Dave/Generated/CMSIS_DSP/FilteringFunctions/arm_conv_partial_opt_q15.c ****       /* Read two samples from scratch1 buffer */
 220:../Dave/Generated/CMSIS_DSP/FilteringFunctions/arm_conv_partial_opt_q15.c ****       x1 = *__SIMD32(pScr1)++;
 331              	 .loc 1 220 0
 332 02c6 07F17802 	 add r2,r7,#120
 333 02ca 1368     	 ldr r3,[r2]
 334 02cc 191D     	 adds r1,r3,#4
 335 02ce 1160     	 str r1,[r2]
 336 02d0 1B68     	 ldr r3,[r3]
 337 02d2 C7F8A431 	 str r3,[r7,#420]
 221:../Dave/Generated/CMSIS_DSP/FilteringFunctions/arm_conv_partial_opt_q15.c **** 
 222:../Dave/Generated/CMSIS_DSP/FilteringFunctions/arm_conv_partial_opt_q15.c ****       /* Read next two samples from scratch1 buffer */
 223:../Dave/Generated/CMSIS_DSP/FilteringFunctions/arm_conv_partial_opt_q15.c ****       x2 = *__SIMD32(pScr1)++;
 338              	 .loc 1 223 0
 339 02d6 07F17802 	 add r2,r7,#120
 340 02da 1368     	 ldr r3,[r2]
 341 02dc 191D     	 adds r1,r3,#4
 342 02de 1160     	 str r1,[r2]
 343 02e0 1B68     	 ldr r3,[r3]
 344 02e2 C7F8A031 	 str r3,[r7,#416]
 224:../Dave/Generated/CMSIS_DSP/FilteringFunctions/arm_conv_partial_opt_q15.c **** 
 225:../Dave/Generated/CMSIS_DSP/FilteringFunctions/arm_conv_partial_opt_q15.c ****       tapCnt = (srcBLen) >> 2u;
 345              	 .loc 1 225 0
 346 02e6 07F11803 	 add r3,r7,#24
 347 02ea 1B68     	 ldr r3,[r3]
 348 02ec 9B08     	 lsrs r3,r3,#2
 349 02ee C7F88831 	 str r3,[r7,#392]
 226:../Dave/Generated/CMSIS_DSP/FilteringFunctions/arm_conv_partial_opt_q15.c **** 
 227:../Dave/Generated/CMSIS_DSP/FilteringFunctions/arm_conv_partial_opt_q15.c ****       while(tapCnt > 0u)
 350              	 .loc 1 227 0
 351 02f2 08E2     	 b .L11
 352              	.L20:
 228:../Dave/Generated/CMSIS_DSP/FilteringFunctions/arm_conv_partial_opt_q15.c ****       {
 229:../Dave/Generated/CMSIS_DSP/FilteringFunctions/arm_conv_partial_opt_q15.c **** 
 230:../Dave/Generated/CMSIS_DSP/FilteringFunctions/arm_conv_partial_opt_q15.c ****         /* Read four samples from smaller buffer */
 231:../Dave/Generated/CMSIS_DSP/FilteringFunctions/arm_conv_partial_opt_q15.c ****         y1 = _SIMD32_OFFSET(pIn2);
 353              	 .loc 1 231 0
 354 02f4 07F17403 	 add r3,r7,#116
 355 02f8 1B68     	 ldr r3,[r3]
 356 02fa 1B68     	 ldr r3,[r3]
 357 02fc C7F87C31 	 str r3,[r7,#380]
 232:../Dave/Generated/CMSIS_DSP/FilteringFunctions/arm_conv_partial_opt_q15.c ****         y2 = _SIMD32_OFFSET(pIn2 + 2u);
 358              	 .loc 1 232 0
 359 0300 07F17403 	 add r3,r7,#116
 360 0304 1B68     	 ldr r3,[r3]
 361 0306 5B68     	 ldr r3,[r3,#4]
 362 0308 C7F87831 	 str r3,[r7,#376]
 233:../Dave/Generated/CMSIS_DSP/FilteringFunctions/arm_conv_partial_opt_q15.c **** 
 234:../Dave/Generated/CMSIS_DSP/FilteringFunctions/arm_conv_partial_opt_q15.c ****         /* multiply and accumlate */
 235:../Dave/Generated/CMSIS_DSP/FilteringFunctions/arm_conv_partial_opt_q15.c ****         acc0 = __SMLALD(x1, y1, acc0);
 363              	 .loc 1 235 0
 364 030c D7F8A401 	 ldr r0,[r7,#420]
 365 0310 D7F87C11 	 ldr r1,[r7,#380]
 366 0314 07F5E073 	 add r3,r7,#448
 367 0318 D3E90023 	 ldrd r2,[r3]
 368 031c C7F80C01 	 str r0,[r7,#268]
 369 0320 C7F80811 	 str r1,[r7,#264]
 370 0324 07F58071 	 add r1,r7,#256
 371 0328 C1E90023 	 strd r2,[r1]
 372              	.LBB30:
 373              	.LBB31:
 374              	 .file 2 "C:\\Workspaces\\DAVE-4.1\\Flightcontroller_PWM_CopterRocks_Working/Libraries/CMSIS/Include/cmsis_gcc.h"
   1:C:\Workspaces\DAVE-4.1\Flightcontroller_PWM_CopterRocks_Working/Libraries/CMSIS/Include\cmsis_gcc.h **** /**************************************************************************//**
   2:C:\Workspaces\DAVE-4.1\Flightcontroller_PWM_CopterRocks_Working/Libraries/CMSIS/Include\cmsis_gcc.h ****  * @file     cmsis_gcc.h
   3:C:\Workspaces\DAVE-4.1\Flightcontroller_PWM_CopterRocks_Working/Libraries/CMSIS/Include\cmsis_gcc.h ****  * @brief    CMSIS Cortex-M Core Function/Instruction Header File
   4:C:\Workspaces\DAVE-4.1\Flightcontroller_PWM_CopterRocks_Working/Libraries/CMSIS/Include\cmsis_gcc.h ****  * @version  V4.30
   5:C:\Workspaces\DAVE-4.1\Flightcontroller_PWM_CopterRocks_Working/Libraries/CMSIS/Include\cmsis_gcc.h ****  * @date     20. October 2015
   6:C:\Workspaces\DAVE-4.1\Flightcontroller_PWM_CopterRocks_Working/Libraries/CMSIS/Include\cmsis_gcc.h ****  ******************************************************************************/
   7:C:\Workspaces\DAVE-4.1\Flightcontroller_PWM_CopterRocks_Working/Libraries/CMSIS/Include\cmsis_gcc.h **** /* Copyright (c) 2009 - 2015 ARM LIMITED
   8:C:\Workspaces\DAVE-4.1\Flightcontroller_PWM_CopterRocks_Working/Libraries/CMSIS/Include\cmsis_gcc.h **** 
   9:C:\Workspaces\DAVE-4.1\Flightcontroller_PWM_CopterRocks_Working/Libraries/CMSIS/Include\cmsis_gcc.h ****    All rights reserved.
  10:C:\Workspaces\DAVE-4.1\Flightcontroller_PWM_CopterRocks_Working/Libraries/CMSIS/Include\cmsis_gcc.h ****    Redistribution and use in source and binary forms, with or without
  11:C:\Workspaces\DAVE-4.1\Flightcontroller_PWM_CopterRocks_Working/Libraries/CMSIS/Include\cmsis_gcc.h ****    modification, are permitted provided that the following conditions are met:
  12:C:\Workspaces\DAVE-4.1\Flightcontroller_PWM_CopterRocks_Working/Libraries/CMSIS/Include\cmsis_gcc.h ****    - Redistributions of source code must retain the above copyright
  13:C:\Workspaces\DAVE-4.1\Flightcontroller_PWM_CopterRocks_Working/Libraries/CMSIS/Include\cmsis_gcc.h ****      notice, this list of conditions and the following disclaimer.
  14:C:\Workspaces\DAVE-4.1\Flightcontroller_PWM_CopterRocks_Working/Libraries/CMSIS/Include\cmsis_gcc.h ****    - Redistributions in binary form must reproduce the above copyright
  15:C:\Workspaces\DAVE-4.1\Flightcontroller_PWM_CopterRocks_Working/Libraries/CMSIS/Include\cmsis_gcc.h ****      notice, this list of conditions and the following disclaimer in the
  16:C:\Workspaces\DAVE-4.1\Flightcontroller_PWM_CopterRocks_Working/Libraries/CMSIS/Include\cmsis_gcc.h ****      documentation and/or other materials provided with the distribution.
  17:C:\Workspaces\DAVE-4.1\Flightcontroller_PWM_CopterRocks_Working/Libraries/CMSIS/Include\cmsis_gcc.h ****    - Neither the name of ARM nor the names of its contributors may be used
  18:C:\Workspaces\DAVE-4.1\Flightcontroller_PWM_CopterRocks_Working/Libraries/CMSIS/Include\cmsis_gcc.h ****      to endorse or promote products derived from this software without
  19:C:\Workspaces\DAVE-4.1\Flightcontroller_PWM_CopterRocks_Working/Libraries/CMSIS/Include\cmsis_gcc.h ****      specific prior written permission.
  20:C:\Workspaces\DAVE-4.1\Flightcontroller_PWM_CopterRocks_Working/Libraries/CMSIS/Include\cmsis_gcc.h ****    *
  21:C:\Workspaces\DAVE-4.1\Flightcontroller_PWM_CopterRocks_Working/Libraries/CMSIS/Include\cmsis_gcc.h ****    THIS SOFTWARE IS PROVIDED BY THE COPYRIGHT HOLDERS AND CONTRIBUTORS "AS IS"
  22:C:\Workspaces\DAVE-4.1\Flightcontroller_PWM_CopterRocks_Working/Libraries/CMSIS/Include\cmsis_gcc.h ****    AND ANY EXPRESS OR IMPLIED WARRANTIES, INCLUDING, BUT NOT LIMITED TO, THE
  23:C:\Workspaces\DAVE-4.1\Flightcontroller_PWM_CopterRocks_Working/Libraries/CMSIS/Include\cmsis_gcc.h ****    IMPLIED WARRANTIES OF MERCHANTABILITY AND FITNESS FOR A PARTICULAR PURPOSE
  24:C:\Workspaces\DAVE-4.1\Flightcontroller_PWM_CopterRocks_Working/Libraries/CMSIS/Include\cmsis_gcc.h ****    ARE DISCLAIMED. IN NO EVENT SHALL COPYRIGHT HOLDERS AND CONTRIBUTORS BE
  25:C:\Workspaces\DAVE-4.1\Flightcontroller_PWM_CopterRocks_Working/Libraries/CMSIS/Include\cmsis_gcc.h ****    LIABLE FOR ANY DIRECT, INDIRECT, INCIDENTAL, SPECIAL, EXEMPLARY, OR
  26:C:\Workspaces\DAVE-4.1\Flightcontroller_PWM_CopterRocks_Working/Libraries/CMSIS/Include\cmsis_gcc.h ****    CONSEQUENTIAL DAMAGES (INCLUDING, BUT NOT LIMITED TO, PROCUREMENT OF
  27:C:\Workspaces\DAVE-4.1\Flightcontroller_PWM_CopterRocks_Working/Libraries/CMSIS/Include\cmsis_gcc.h ****    SUBSTITUTE GOODS OR SERVICES; LOSS OF USE, DATA, OR PROFITS; OR BUSINESS
  28:C:\Workspaces\DAVE-4.1\Flightcontroller_PWM_CopterRocks_Working/Libraries/CMSIS/Include\cmsis_gcc.h ****    INTERRUPTION) HOWEVER CAUSED AND ON ANY THEORY OF LIABILITY, WHETHER IN
  29:C:\Workspaces\DAVE-4.1\Flightcontroller_PWM_CopterRocks_Working/Libraries/CMSIS/Include\cmsis_gcc.h ****    CONTRACT, STRICT LIABILITY, OR TORT (INCLUDING NEGLIGENCE OR OTHERWISE)
  30:C:\Workspaces\DAVE-4.1\Flightcontroller_PWM_CopterRocks_Working/Libraries/CMSIS/Include\cmsis_gcc.h ****    ARISING IN ANY WAY OUT OF THE USE OF THIS SOFTWARE, EVEN IF ADVISED OF THE
  31:C:\Workspaces\DAVE-4.1\Flightcontroller_PWM_CopterRocks_Working/Libraries/CMSIS/Include\cmsis_gcc.h ****    POSSIBILITY OF SUCH DAMAGE.
  32:C:\Workspaces\DAVE-4.1\Flightcontroller_PWM_CopterRocks_Working/Libraries/CMSIS/Include\cmsis_gcc.h ****    ---------------------------------------------------------------------------*/
  33:C:\Workspaces\DAVE-4.1\Flightcontroller_PWM_CopterRocks_Working/Libraries/CMSIS/Include\cmsis_gcc.h **** 
  34:C:\Workspaces\DAVE-4.1\Flightcontroller_PWM_CopterRocks_Working/Libraries/CMSIS/Include\cmsis_gcc.h **** 
  35:C:\Workspaces\DAVE-4.1\Flightcontroller_PWM_CopterRocks_Working/Libraries/CMSIS/Include\cmsis_gcc.h **** #ifndef __CMSIS_GCC_H
  36:C:\Workspaces\DAVE-4.1\Flightcontroller_PWM_CopterRocks_Working/Libraries/CMSIS/Include\cmsis_gcc.h **** #define __CMSIS_GCC_H
  37:C:\Workspaces\DAVE-4.1\Flightcontroller_PWM_CopterRocks_Working/Libraries/CMSIS/Include\cmsis_gcc.h **** 
  38:C:\Workspaces\DAVE-4.1\Flightcontroller_PWM_CopterRocks_Working/Libraries/CMSIS/Include\cmsis_gcc.h **** /* ignore some GCC warnings */
  39:C:\Workspaces\DAVE-4.1\Flightcontroller_PWM_CopterRocks_Working/Libraries/CMSIS/Include\cmsis_gcc.h **** #if defined ( __GNUC__ )
  40:C:\Workspaces\DAVE-4.1\Flightcontroller_PWM_CopterRocks_Working/Libraries/CMSIS/Include\cmsis_gcc.h **** #pragma GCC diagnostic push
  41:C:\Workspaces\DAVE-4.1\Flightcontroller_PWM_CopterRocks_Working/Libraries/CMSIS/Include\cmsis_gcc.h **** #pragma GCC diagnostic ignored "-Wsign-conversion"
  42:C:\Workspaces\DAVE-4.1\Flightcontroller_PWM_CopterRocks_Working/Libraries/CMSIS/Include\cmsis_gcc.h **** #pragma GCC diagnostic ignored "-Wconversion"
  43:C:\Workspaces\DAVE-4.1\Flightcontroller_PWM_CopterRocks_Working/Libraries/CMSIS/Include\cmsis_gcc.h **** #pragma GCC diagnostic ignored "-Wunused-parameter"
  44:C:\Workspaces\DAVE-4.1\Flightcontroller_PWM_CopterRocks_Working/Libraries/CMSIS/Include\cmsis_gcc.h **** #endif
  45:C:\Workspaces\DAVE-4.1\Flightcontroller_PWM_CopterRocks_Working/Libraries/CMSIS/Include\cmsis_gcc.h **** 
  46:C:\Workspaces\DAVE-4.1\Flightcontroller_PWM_CopterRocks_Working/Libraries/CMSIS/Include\cmsis_gcc.h **** 
  47:C:\Workspaces\DAVE-4.1\Flightcontroller_PWM_CopterRocks_Working/Libraries/CMSIS/Include\cmsis_gcc.h **** /* ###########################  Core Function Access  ########################### */
  48:C:\Workspaces\DAVE-4.1\Flightcontroller_PWM_CopterRocks_Working/Libraries/CMSIS/Include\cmsis_gcc.h **** /** \ingroup  CMSIS_Core_FunctionInterface
  49:C:\Workspaces\DAVE-4.1\Flightcontroller_PWM_CopterRocks_Working/Libraries/CMSIS/Include\cmsis_gcc.h ****     \defgroup CMSIS_Core_RegAccFunctions CMSIS Core Register Access Functions
  50:C:\Workspaces\DAVE-4.1\Flightcontroller_PWM_CopterRocks_Working/Libraries/CMSIS/Include\cmsis_gcc.h ****   @{
  51:C:\Workspaces\DAVE-4.1\Flightcontroller_PWM_CopterRocks_Working/Libraries/CMSIS/Include\cmsis_gcc.h ****  */
  52:C:\Workspaces\DAVE-4.1\Flightcontroller_PWM_CopterRocks_Working/Libraries/CMSIS/Include\cmsis_gcc.h **** 
  53:C:\Workspaces\DAVE-4.1\Flightcontroller_PWM_CopterRocks_Working/Libraries/CMSIS/Include\cmsis_gcc.h **** /**
  54:C:\Workspaces\DAVE-4.1\Flightcontroller_PWM_CopterRocks_Working/Libraries/CMSIS/Include\cmsis_gcc.h ****   \brief   Enable IRQ Interrupts
  55:C:\Workspaces\DAVE-4.1\Flightcontroller_PWM_CopterRocks_Working/Libraries/CMSIS/Include\cmsis_gcc.h ****   \details Enables IRQ interrupts by clearing the I-bit in the CPSR.
  56:C:\Workspaces\DAVE-4.1\Flightcontroller_PWM_CopterRocks_Working/Libraries/CMSIS/Include\cmsis_gcc.h ****            Can only be executed in Privileged modes.
  57:C:\Workspaces\DAVE-4.1\Flightcontroller_PWM_CopterRocks_Working/Libraries/CMSIS/Include\cmsis_gcc.h ****  */
  58:C:\Workspaces\DAVE-4.1\Flightcontroller_PWM_CopterRocks_Working/Libraries/CMSIS/Include\cmsis_gcc.h **** __attribute__( ( always_inline ) ) __STATIC_INLINE void __enable_irq(void)
  59:C:\Workspaces\DAVE-4.1\Flightcontroller_PWM_CopterRocks_Working/Libraries/CMSIS/Include\cmsis_gcc.h **** {
  60:C:\Workspaces\DAVE-4.1\Flightcontroller_PWM_CopterRocks_Working/Libraries/CMSIS/Include\cmsis_gcc.h ****   __ASM volatile ("cpsie i" : : : "memory");
  61:C:\Workspaces\DAVE-4.1\Flightcontroller_PWM_CopterRocks_Working/Libraries/CMSIS/Include\cmsis_gcc.h **** }
  62:C:\Workspaces\DAVE-4.1\Flightcontroller_PWM_CopterRocks_Working/Libraries/CMSIS/Include\cmsis_gcc.h **** 
  63:C:\Workspaces\DAVE-4.1\Flightcontroller_PWM_CopterRocks_Working/Libraries/CMSIS/Include\cmsis_gcc.h **** 
  64:C:\Workspaces\DAVE-4.1\Flightcontroller_PWM_CopterRocks_Working/Libraries/CMSIS/Include\cmsis_gcc.h **** /**
  65:C:\Workspaces\DAVE-4.1\Flightcontroller_PWM_CopterRocks_Working/Libraries/CMSIS/Include\cmsis_gcc.h ****   \brief   Disable IRQ Interrupts
  66:C:\Workspaces\DAVE-4.1\Flightcontroller_PWM_CopterRocks_Working/Libraries/CMSIS/Include\cmsis_gcc.h ****   \details Disables IRQ interrupts by setting the I-bit in the CPSR.
  67:C:\Workspaces\DAVE-4.1\Flightcontroller_PWM_CopterRocks_Working/Libraries/CMSIS/Include\cmsis_gcc.h ****   Can only be executed in Privileged modes.
  68:C:\Workspaces\DAVE-4.1\Flightcontroller_PWM_CopterRocks_Working/Libraries/CMSIS/Include\cmsis_gcc.h ****  */
  69:C:\Workspaces\DAVE-4.1\Flightcontroller_PWM_CopterRocks_Working/Libraries/CMSIS/Include\cmsis_gcc.h **** __attribute__( ( always_inline ) ) __STATIC_INLINE void __disable_irq(void)
  70:C:\Workspaces\DAVE-4.1\Flightcontroller_PWM_CopterRocks_Working/Libraries/CMSIS/Include\cmsis_gcc.h **** {
  71:C:\Workspaces\DAVE-4.1\Flightcontroller_PWM_CopterRocks_Working/Libraries/CMSIS/Include\cmsis_gcc.h ****   __ASM volatile ("cpsid i" : : : "memory");
  72:C:\Workspaces\DAVE-4.1\Flightcontroller_PWM_CopterRocks_Working/Libraries/CMSIS/Include\cmsis_gcc.h **** }
  73:C:\Workspaces\DAVE-4.1\Flightcontroller_PWM_CopterRocks_Working/Libraries/CMSIS/Include\cmsis_gcc.h **** 
  74:C:\Workspaces\DAVE-4.1\Flightcontroller_PWM_CopterRocks_Working/Libraries/CMSIS/Include\cmsis_gcc.h **** 
  75:C:\Workspaces\DAVE-4.1\Flightcontroller_PWM_CopterRocks_Working/Libraries/CMSIS/Include\cmsis_gcc.h **** /**
  76:C:\Workspaces\DAVE-4.1\Flightcontroller_PWM_CopterRocks_Working/Libraries/CMSIS/Include\cmsis_gcc.h ****   \brief   Get Control Register
  77:C:\Workspaces\DAVE-4.1\Flightcontroller_PWM_CopterRocks_Working/Libraries/CMSIS/Include\cmsis_gcc.h ****   \details Returns the content of the Control Register.
  78:C:\Workspaces\DAVE-4.1\Flightcontroller_PWM_CopterRocks_Working/Libraries/CMSIS/Include\cmsis_gcc.h ****   \return               Control Register value
  79:C:\Workspaces\DAVE-4.1\Flightcontroller_PWM_CopterRocks_Working/Libraries/CMSIS/Include\cmsis_gcc.h ****  */
  80:C:\Workspaces\DAVE-4.1\Flightcontroller_PWM_CopterRocks_Working/Libraries/CMSIS/Include\cmsis_gcc.h **** __attribute__( ( always_inline ) ) __STATIC_INLINE uint32_t __get_CONTROL(void)
  81:C:\Workspaces\DAVE-4.1\Flightcontroller_PWM_CopterRocks_Working/Libraries/CMSIS/Include\cmsis_gcc.h **** {
  82:C:\Workspaces\DAVE-4.1\Flightcontroller_PWM_CopterRocks_Working/Libraries/CMSIS/Include\cmsis_gcc.h ****   uint32_t result;
  83:C:\Workspaces\DAVE-4.1\Flightcontroller_PWM_CopterRocks_Working/Libraries/CMSIS/Include\cmsis_gcc.h **** 
  84:C:\Workspaces\DAVE-4.1\Flightcontroller_PWM_CopterRocks_Working/Libraries/CMSIS/Include\cmsis_gcc.h ****   __ASM volatile ("MRS %0, control" : "=r" (result) );
  85:C:\Workspaces\DAVE-4.1\Flightcontroller_PWM_CopterRocks_Working/Libraries/CMSIS/Include\cmsis_gcc.h ****   return(result);
  86:C:\Workspaces\DAVE-4.1\Flightcontroller_PWM_CopterRocks_Working/Libraries/CMSIS/Include\cmsis_gcc.h **** }
  87:C:\Workspaces\DAVE-4.1\Flightcontroller_PWM_CopterRocks_Working/Libraries/CMSIS/Include\cmsis_gcc.h **** 
  88:C:\Workspaces\DAVE-4.1\Flightcontroller_PWM_CopterRocks_Working/Libraries/CMSIS/Include\cmsis_gcc.h **** 
  89:C:\Workspaces\DAVE-4.1\Flightcontroller_PWM_CopterRocks_Working/Libraries/CMSIS/Include\cmsis_gcc.h **** /**
  90:C:\Workspaces\DAVE-4.1\Flightcontroller_PWM_CopterRocks_Working/Libraries/CMSIS/Include\cmsis_gcc.h ****   \brief   Set Control Register
  91:C:\Workspaces\DAVE-4.1\Flightcontroller_PWM_CopterRocks_Working/Libraries/CMSIS/Include\cmsis_gcc.h ****   \details Writes the given value to the Control Register.
  92:C:\Workspaces\DAVE-4.1\Flightcontroller_PWM_CopterRocks_Working/Libraries/CMSIS/Include\cmsis_gcc.h ****   \param [in]    control  Control Register value to set
  93:C:\Workspaces\DAVE-4.1\Flightcontroller_PWM_CopterRocks_Working/Libraries/CMSIS/Include\cmsis_gcc.h ****  */
  94:C:\Workspaces\DAVE-4.1\Flightcontroller_PWM_CopterRocks_Working/Libraries/CMSIS/Include\cmsis_gcc.h **** __attribute__( ( always_inline ) ) __STATIC_INLINE void __set_CONTROL(uint32_t control)
  95:C:\Workspaces\DAVE-4.1\Flightcontroller_PWM_CopterRocks_Working/Libraries/CMSIS/Include\cmsis_gcc.h **** {
  96:C:\Workspaces\DAVE-4.1\Flightcontroller_PWM_CopterRocks_Working/Libraries/CMSIS/Include\cmsis_gcc.h ****   __ASM volatile ("MSR control, %0" : : "r" (control) : "memory");
  97:C:\Workspaces\DAVE-4.1\Flightcontroller_PWM_CopterRocks_Working/Libraries/CMSIS/Include\cmsis_gcc.h **** }
  98:C:\Workspaces\DAVE-4.1\Flightcontroller_PWM_CopterRocks_Working/Libraries/CMSIS/Include\cmsis_gcc.h **** 
  99:C:\Workspaces\DAVE-4.1\Flightcontroller_PWM_CopterRocks_Working/Libraries/CMSIS/Include\cmsis_gcc.h **** 
 100:C:\Workspaces\DAVE-4.1\Flightcontroller_PWM_CopterRocks_Working/Libraries/CMSIS/Include\cmsis_gcc.h **** /**
 101:C:\Workspaces\DAVE-4.1\Flightcontroller_PWM_CopterRocks_Working/Libraries/CMSIS/Include\cmsis_gcc.h ****   \brief   Get IPSR Register
 102:C:\Workspaces\DAVE-4.1\Flightcontroller_PWM_CopterRocks_Working/Libraries/CMSIS/Include\cmsis_gcc.h ****   \details Returns the content of the IPSR Register.
 103:C:\Workspaces\DAVE-4.1\Flightcontroller_PWM_CopterRocks_Working/Libraries/CMSIS/Include\cmsis_gcc.h ****   \return               IPSR Register value
 104:C:\Workspaces\DAVE-4.1\Flightcontroller_PWM_CopterRocks_Working/Libraries/CMSIS/Include\cmsis_gcc.h ****  */
 105:C:\Workspaces\DAVE-4.1\Flightcontroller_PWM_CopterRocks_Working/Libraries/CMSIS/Include\cmsis_gcc.h **** __attribute__( ( always_inline ) ) __STATIC_INLINE uint32_t __get_IPSR(void)
 106:C:\Workspaces\DAVE-4.1\Flightcontroller_PWM_CopterRocks_Working/Libraries/CMSIS/Include\cmsis_gcc.h **** {
 107:C:\Workspaces\DAVE-4.1\Flightcontroller_PWM_CopterRocks_Working/Libraries/CMSIS/Include\cmsis_gcc.h ****   uint32_t result;
 108:C:\Workspaces\DAVE-4.1\Flightcontroller_PWM_CopterRocks_Working/Libraries/CMSIS/Include\cmsis_gcc.h **** 
 109:C:\Workspaces\DAVE-4.1\Flightcontroller_PWM_CopterRocks_Working/Libraries/CMSIS/Include\cmsis_gcc.h ****   __ASM volatile ("MRS %0, ipsr" : "=r" (result) );
 110:C:\Workspaces\DAVE-4.1\Flightcontroller_PWM_CopterRocks_Working/Libraries/CMSIS/Include\cmsis_gcc.h ****   return(result);
 111:C:\Workspaces\DAVE-4.1\Flightcontroller_PWM_CopterRocks_Working/Libraries/CMSIS/Include\cmsis_gcc.h **** }
 112:C:\Workspaces\DAVE-4.1\Flightcontroller_PWM_CopterRocks_Working/Libraries/CMSIS/Include\cmsis_gcc.h **** 
 113:C:\Workspaces\DAVE-4.1\Flightcontroller_PWM_CopterRocks_Working/Libraries/CMSIS/Include\cmsis_gcc.h **** 
 114:C:\Workspaces\DAVE-4.1\Flightcontroller_PWM_CopterRocks_Working/Libraries/CMSIS/Include\cmsis_gcc.h **** /**
 115:C:\Workspaces\DAVE-4.1\Flightcontroller_PWM_CopterRocks_Working/Libraries/CMSIS/Include\cmsis_gcc.h ****   \brief   Get APSR Register
 116:C:\Workspaces\DAVE-4.1\Flightcontroller_PWM_CopterRocks_Working/Libraries/CMSIS/Include\cmsis_gcc.h ****   \details Returns the content of the APSR Register.
 117:C:\Workspaces\DAVE-4.1\Flightcontroller_PWM_CopterRocks_Working/Libraries/CMSIS/Include\cmsis_gcc.h ****   \return               APSR Register value
 118:C:\Workspaces\DAVE-4.1\Flightcontroller_PWM_CopterRocks_Working/Libraries/CMSIS/Include\cmsis_gcc.h ****  */
 119:C:\Workspaces\DAVE-4.1\Flightcontroller_PWM_CopterRocks_Working/Libraries/CMSIS/Include\cmsis_gcc.h **** __attribute__( ( always_inline ) ) __STATIC_INLINE uint32_t __get_APSR(void)
 120:C:\Workspaces\DAVE-4.1\Flightcontroller_PWM_CopterRocks_Working/Libraries/CMSIS/Include\cmsis_gcc.h **** {
 121:C:\Workspaces\DAVE-4.1\Flightcontroller_PWM_CopterRocks_Working/Libraries/CMSIS/Include\cmsis_gcc.h ****   uint32_t result;
 122:C:\Workspaces\DAVE-4.1\Flightcontroller_PWM_CopterRocks_Working/Libraries/CMSIS/Include\cmsis_gcc.h **** 
 123:C:\Workspaces\DAVE-4.1\Flightcontroller_PWM_CopterRocks_Working/Libraries/CMSIS/Include\cmsis_gcc.h ****   __ASM volatile ("MRS %0, apsr" : "=r" (result) );
 124:C:\Workspaces\DAVE-4.1\Flightcontroller_PWM_CopterRocks_Working/Libraries/CMSIS/Include\cmsis_gcc.h ****   return(result);
 125:C:\Workspaces\DAVE-4.1\Flightcontroller_PWM_CopterRocks_Working/Libraries/CMSIS/Include\cmsis_gcc.h **** }
 126:C:\Workspaces\DAVE-4.1\Flightcontroller_PWM_CopterRocks_Working/Libraries/CMSIS/Include\cmsis_gcc.h **** 
 127:C:\Workspaces\DAVE-4.1\Flightcontroller_PWM_CopterRocks_Working/Libraries/CMSIS/Include\cmsis_gcc.h **** 
 128:C:\Workspaces\DAVE-4.1\Flightcontroller_PWM_CopterRocks_Working/Libraries/CMSIS/Include\cmsis_gcc.h **** /**
 129:C:\Workspaces\DAVE-4.1\Flightcontroller_PWM_CopterRocks_Working/Libraries/CMSIS/Include\cmsis_gcc.h ****   \brief   Get xPSR Register
 130:C:\Workspaces\DAVE-4.1\Flightcontroller_PWM_CopterRocks_Working/Libraries/CMSIS/Include\cmsis_gcc.h ****   \details Returns the content of the xPSR Register.
 131:C:\Workspaces\DAVE-4.1\Flightcontroller_PWM_CopterRocks_Working/Libraries/CMSIS/Include\cmsis_gcc.h **** 
 132:C:\Workspaces\DAVE-4.1\Flightcontroller_PWM_CopterRocks_Working/Libraries/CMSIS/Include\cmsis_gcc.h ****     \return               xPSR Register value
 133:C:\Workspaces\DAVE-4.1\Flightcontroller_PWM_CopterRocks_Working/Libraries/CMSIS/Include\cmsis_gcc.h ****  */
 134:C:\Workspaces\DAVE-4.1\Flightcontroller_PWM_CopterRocks_Working/Libraries/CMSIS/Include\cmsis_gcc.h **** __attribute__( ( always_inline ) ) __STATIC_INLINE uint32_t __get_xPSR(void)
 135:C:\Workspaces\DAVE-4.1\Flightcontroller_PWM_CopterRocks_Working/Libraries/CMSIS/Include\cmsis_gcc.h **** {
 136:C:\Workspaces\DAVE-4.1\Flightcontroller_PWM_CopterRocks_Working/Libraries/CMSIS/Include\cmsis_gcc.h ****   uint32_t result;
 137:C:\Workspaces\DAVE-4.1\Flightcontroller_PWM_CopterRocks_Working/Libraries/CMSIS/Include\cmsis_gcc.h **** 
 138:C:\Workspaces\DAVE-4.1\Flightcontroller_PWM_CopterRocks_Working/Libraries/CMSIS/Include\cmsis_gcc.h ****   __ASM volatile ("MRS %0, xpsr" : "=r" (result) );
 139:C:\Workspaces\DAVE-4.1\Flightcontroller_PWM_CopterRocks_Working/Libraries/CMSIS/Include\cmsis_gcc.h ****   return(result);
 140:C:\Workspaces\DAVE-4.1\Flightcontroller_PWM_CopterRocks_Working/Libraries/CMSIS/Include\cmsis_gcc.h **** }
 141:C:\Workspaces\DAVE-4.1\Flightcontroller_PWM_CopterRocks_Working/Libraries/CMSIS/Include\cmsis_gcc.h **** 
 142:C:\Workspaces\DAVE-4.1\Flightcontroller_PWM_CopterRocks_Working/Libraries/CMSIS/Include\cmsis_gcc.h **** 
 143:C:\Workspaces\DAVE-4.1\Flightcontroller_PWM_CopterRocks_Working/Libraries/CMSIS/Include\cmsis_gcc.h **** /**
 144:C:\Workspaces\DAVE-4.1\Flightcontroller_PWM_CopterRocks_Working/Libraries/CMSIS/Include\cmsis_gcc.h ****   \brief   Get Process Stack Pointer
 145:C:\Workspaces\DAVE-4.1\Flightcontroller_PWM_CopterRocks_Working/Libraries/CMSIS/Include\cmsis_gcc.h ****   \details Returns the current value of the Process Stack Pointer (PSP).
 146:C:\Workspaces\DAVE-4.1\Flightcontroller_PWM_CopterRocks_Working/Libraries/CMSIS/Include\cmsis_gcc.h ****   \return               PSP Register value
 147:C:\Workspaces\DAVE-4.1\Flightcontroller_PWM_CopterRocks_Working/Libraries/CMSIS/Include\cmsis_gcc.h ****  */
 148:C:\Workspaces\DAVE-4.1\Flightcontroller_PWM_CopterRocks_Working/Libraries/CMSIS/Include\cmsis_gcc.h **** __attribute__( ( always_inline ) ) __STATIC_INLINE uint32_t __get_PSP(void)
 149:C:\Workspaces\DAVE-4.1\Flightcontroller_PWM_CopterRocks_Working/Libraries/CMSIS/Include\cmsis_gcc.h **** {
 150:C:\Workspaces\DAVE-4.1\Flightcontroller_PWM_CopterRocks_Working/Libraries/CMSIS/Include\cmsis_gcc.h ****   register uint32_t result;
 151:C:\Workspaces\DAVE-4.1\Flightcontroller_PWM_CopterRocks_Working/Libraries/CMSIS/Include\cmsis_gcc.h **** 
 152:C:\Workspaces\DAVE-4.1\Flightcontroller_PWM_CopterRocks_Working/Libraries/CMSIS/Include\cmsis_gcc.h ****   __ASM volatile ("MRS %0, psp\n"  : "=r" (result) );
 153:C:\Workspaces\DAVE-4.1\Flightcontroller_PWM_CopterRocks_Working/Libraries/CMSIS/Include\cmsis_gcc.h ****   return(result);
 154:C:\Workspaces\DAVE-4.1\Flightcontroller_PWM_CopterRocks_Working/Libraries/CMSIS/Include\cmsis_gcc.h **** }
 155:C:\Workspaces\DAVE-4.1\Flightcontroller_PWM_CopterRocks_Working/Libraries/CMSIS/Include\cmsis_gcc.h **** 
 156:C:\Workspaces\DAVE-4.1\Flightcontroller_PWM_CopterRocks_Working/Libraries/CMSIS/Include\cmsis_gcc.h **** 
 157:C:\Workspaces\DAVE-4.1\Flightcontroller_PWM_CopterRocks_Working/Libraries/CMSIS/Include\cmsis_gcc.h **** /**
 158:C:\Workspaces\DAVE-4.1\Flightcontroller_PWM_CopterRocks_Working/Libraries/CMSIS/Include\cmsis_gcc.h ****   \brief   Set Process Stack Pointer
 159:C:\Workspaces\DAVE-4.1\Flightcontroller_PWM_CopterRocks_Working/Libraries/CMSIS/Include\cmsis_gcc.h ****   \details Assigns the given value to the Process Stack Pointer (PSP).
 160:C:\Workspaces\DAVE-4.1\Flightcontroller_PWM_CopterRocks_Working/Libraries/CMSIS/Include\cmsis_gcc.h ****   \param [in]    topOfProcStack  Process Stack Pointer value to set
 161:C:\Workspaces\DAVE-4.1\Flightcontroller_PWM_CopterRocks_Working/Libraries/CMSIS/Include\cmsis_gcc.h ****  */
 162:C:\Workspaces\DAVE-4.1\Flightcontroller_PWM_CopterRocks_Working/Libraries/CMSIS/Include\cmsis_gcc.h **** __attribute__( ( always_inline ) ) __STATIC_INLINE void __set_PSP(uint32_t topOfProcStack)
 163:C:\Workspaces\DAVE-4.1\Flightcontroller_PWM_CopterRocks_Working/Libraries/CMSIS/Include\cmsis_gcc.h **** {
 164:C:\Workspaces\DAVE-4.1\Flightcontroller_PWM_CopterRocks_Working/Libraries/CMSIS/Include\cmsis_gcc.h ****   __ASM volatile ("MSR psp, %0\n" : : "r" (topOfProcStack) : "sp");
 165:C:\Workspaces\DAVE-4.1\Flightcontroller_PWM_CopterRocks_Working/Libraries/CMSIS/Include\cmsis_gcc.h **** }
 166:C:\Workspaces\DAVE-4.1\Flightcontroller_PWM_CopterRocks_Working/Libraries/CMSIS/Include\cmsis_gcc.h **** 
 167:C:\Workspaces\DAVE-4.1\Flightcontroller_PWM_CopterRocks_Working/Libraries/CMSIS/Include\cmsis_gcc.h **** 
 168:C:\Workspaces\DAVE-4.1\Flightcontroller_PWM_CopterRocks_Working/Libraries/CMSIS/Include\cmsis_gcc.h **** /**
 169:C:\Workspaces\DAVE-4.1\Flightcontroller_PWM_CopterRocks_Working/Libraries/CMSIS/Include\cmsis_gcc.h ****   \brief   Get Main Stack Pointer
 170:C:\Workspaces\DAVE-4.1\Flightcontroller_PWM_CopterRocks_Working/Libraries/CMSIS/Include\cmsis_gcc.h ****   \details Returns the current value of the Main Stack Pointer (MSP).
 171:C:\Workspaces\DAVE-4.1\Flightcontroller_PWM_CopterRocks_Working/Libraries/CMSIS/Include\cmsis_gcc.h ****   \return               MSP Register value
 172:C:\Workspaces\DAVE-4.1\Flightcontroller_PWM_CopterRocks_Working/Libraries/CMSIS/Include\cmsis_gcc.h ****  */
 173:C:\Workspaces\DAVE-4.1\Flightcontroller_PWM_CopterRocks_Working/Libraries/CMSIS/Include\cmsis_gcc.h **** __attribute__( ( always_inline ) ) __STATIC_INLINE uint32_t __get_MSP(void)
 174:C:\Workspaces\DAVE-4.1\Flightcontroller_PWM_CopterRocks_Working/Libraries/CMSIS/Include\cmsis_gcc.h **** {
 175:C:\Workspaces\DAVE-4.1\Flightcontroller_PWM_CopterRocks_Working/Libraries/CMSIS/Include\cmsis_gcc.h ****   register uint32_t result;
 176:C:\Workspaces\DAVE-4.1\Flightcontroller_PWM_CopterRocks_Working/Libraries/CMSIS/Include\cmsis_gcc.h **** 
 177:C:\Workspaces\DAVE-4.1\Flightcontroller_PWM_CopterRocks_Working/Libraries/CMSIS/Include\cmsis_gcc.h ****   __ASM volatile ("MRS %0, msp\n" : "=r" (result) );
 178:C:\Workspaces\DAVE-4.1\Flightcontroller_PWM_CopterRocks_Working/Libraries/CMSIS/Include\cmsis_gcc.h ****   return(result);
 179:C:\Workspaces\DAVE-4.1\Flightcontroller_PWM_CopterRocks_Working/Libraries/CMSIS/Include\cmsis_gcc.h **** }
 180:C:\Workspaces\DAVE-4.1\Flightcontroller_PWM_CopterRocks_Working/Libraries/CMSIS/Include\cmsis_gcc.h **** 
 181:C:\Workspaces\DAVE-4.1\Flightcontroller_PWM_CopterRocks_Working/Libraries/CMSIS/Include\cmsis_gcc.h **** 
 182:C:\Workspaces\DAVE-4.1\Flightcontroller_PWM_CopterRocks_Working/Libraries/CMSIS/Include\cmsis_gcc.h **** /**
 183:C:\Workspaces\DAVE-4.1\Flightcontroller_PWM_CopterRocks_Working/Libraries/CMSIS/Include\cmsis_gcc.h ****   \brief   Set Main Stack Pointer
 184:C:\Workspaces\DAVE-4.1\Flightcontroller_PWM_CopterRocks_Working/Libraries/CMSIS/Include\cmsis_gcc.h ****   \details Assigns the given value to the Main Stack Pointer (MSP).
 185:C:\Workspaces\DAVE-4.1\Flightcontroller_PWM_CopterRocks_Working/Libraries/CMSIS/Include\cmsis_gcc.h **** 
 186:C:\Workspaces\DAVE-4.1\Flightcontroller_PWM_CopterRocks_Working/Libraries/CMSIS/Include\cmsis_gcc.h ****     \param [in]    topOfMainStack  Main Stack Pointer value to set
 187:C:\Workspaces\DAVE-4.1\Flightcontroller_PWM_CopterRocks_Working/Libraries/CMSIS/Include\cmsis_gcc.h ****  */
 188:C:\Workspaces\DAVE-4.1\Flightcontroller_PWM_CopterRocks_Working/Libraries/CMSIS/Include\cmsis_gcc.h **** __attribute__( ( always_inline ) ) __STATIC_INLINE void __set_MSP(uint32_t topOfMainStack)
 189:C:\Workspaces\DAVE-4.1\Flightcontroller_PWM_CopterRocks_Working/Libraries/CMSIS/Include\cmsis_gcc.h **** {
 190:C:\Workspaces\DAVE-4.1\Flightcontroller_PWM_CopterRocks_Working/Libraries/CMSIS/Include\cmsis_gcc.h ****   __ASM volatile ("MSR msp, %0\n" : : "r" (topOfMainStack) : "sp");
 191:C:\Workspaces\DAVE-4.1\Flightcontroller_PWM_CopterRocks_Working/Libraries/CMSIS/Include\cmsis_gcc.h **** }
 192:C:\Workspaces\DAVE-4.1\Flightcontroller_PWM_CopterRocks_Working/Libraries/CMSIS/Include\cmsis_gcc.h **** 
 193:C:\Workspaces\DAVE-4.1\Flightcontroller_PWM_CopterRocks_Working/Libraries/CMSIS/Include\cmsis_gcc.h **** 
 194:C:\Workspaces\DAVE-4.1\Flightcontroller_PWM_CopterRocks_Working/Libraries/CMSIS/Include\cmsis_gcc.h **** /**
 195:C:\Workspaces\DAVE-4.1\Flightcontroller_PWM_CopterRocks_Working/Libraries/CMSIS/Include\cmsis_gcc.h ****   \brief   Get Priority Mask
 196:C:\Workspaces\DAVE-4.1\Flightcontroller_PWM_CopterRocks_Working/Libraries/CMSIS/Include\cmsis_gcc.h ****   \details Returns the current state of the priority mask bit from the Priority Mask Register.
 197:C:\Workspaces\DAVE-4.1\Flightcontroller_PWM_CopterRocks_Working/Libraries/CMSIS/Include\cmsis_gcc.h ****   \return               Priority Mask value
 198:C:\Workspaces\DAVE-4.1\Flightcontroller_PWM_CopterRocks_Working/Libraries/CMSIS/Include\cmsis_gcc.h ****  */
 199:C:\Workspaces\DAVE-4.1\Flightcontroller_PWM_CopterRocks_Working/Libraries/CMSIS/Include\cmsis_gcc.h **** __attribute__( ( always_inline ) ) __STATIC_INLINE uint32_t __get_PRIMASK(void)
 200:C:\Workspaces\DAVE-4.1\Flightcontroller_PWM_CopterRocks_Working/Libraries/CMSIS/Include\cmsis_gcc.h **** {
 201:C:\Workspaces\DAVE-4.1\Flightcontroller_PWM_CopterRocks_Working/Libraries/CMSIS/Include\cmsis_gcc.h ****   uint32_t result;
 202:C:\Workspaces\DAVE-4.1\Flightcontroller_PWM_CopterRocks_Working/Libraries/CMSIS/Include\cmsis_gcc.h **** 
 203:C:\Workspaces\DAVE-4.1\Flightcontroller_PWM_CopterRocks_Working/Libraries/CMSIS/Include\cmsis_gcc.h ****   __ASM volatile ("MRS %0, primask" : "=r" (result) );
 204:C:\Workspaces\DAVE-4.1\Flightcontroller_PWM_CopterRocks_Working/Libraries/CMSIS/Include\cmsis_gcc.h ****   return(result);
 205:C:\Workspaces\DAVE-4.1\Flightcontroller_PWM_CopterRocks_Working/Libraries/CMSIS/Include\cmsis_gcc.h **** }
 206:C:\Workspaces\DAVE-4.1\Flightcontroller_PWM_CopterRocks_Working/Libraries/CMSIS/Include\cmsis_gcc.h **** 
 207:C:\Workspaces\DAVE-4.1\Flightcontroller_PWM_CopterRocks_Working/Libraries/CMSIS/Include\cmsis_gcc.h **** 
 208:C:\Workspaces\DAVE-4.1\Flightcontroller_PWM_CopterRocks_Working/Libraries/CMSIS/Include\cmsis_gcc.h **** /**
 209:C:\Workspaces\DAVE-4.1\Flightcontroller_PWM_CopterRocks_Working/Libraries/CMSIS/Include\cmsis_gcc.h ****   \brief   Set Priority Mask
 210:C:\Workspaces\DAVE-4.1\Flightcontroller_PWM_CopterRocks_Working/Libraries/CMSIS/Include\cmsis_gcc.h ****   \details Assigns the given value to the Priority Mask Register.
 211:C:\Workspaces\DAVE-4.1\Flightcontroller_PWM_CopterRocks_Working/Libraries/CMSIS/Include\cmsis_gcc.h ****   \param [in]    priMask  Priority Mask
 212:C:\Workspaces\DAVE-4.1\Flightcontroller_PWM_CopterRocks_Working/Libraries/CMSIS/Include\cmsis_gcc.h ****  */
 213:C:\Workspaces\DAVE-4.1\Flightcontroller_PWM_CopterRocks_Working/Libraries/CMSIS/Include\cmsis_gcc.h **** __attribute__( ( always_inline ) ) __STATIC_INLINE void __set_PRIMASK(uint32_t priMask)
 214:C:\Workspaces\DAVE-4.1\Flightcontroller_PWM_CopterRocks_Working/Libraries/CMSIS/Include\cmsis_gcc.h **** {
 215:C:\Workspaces\DAVE-4.1\Flightcontroller_PWM_CopterRocks_Working/Libraries/CMSIS/Include\cmsis_gcc.h ****   __ASM volatile ("MSR primask, %0" : : "r" (priMask) : "memory");
 216:C:\Workspaces\DAVE-4.1\Flightcontroller_PWM_CopterRocks_Working/Libraries/CMSIS/Include\cmsis_gcc.h **** }
 217:C:\Workspaces\DAVE-4.1\Flightcontroller_PWM_CopterRocks_Working/Libraries/CMSIS/Include\cmsis_gcc.h **** 
 218:C:\Workspaces\DAVE-4.1\Flightcontroller_PWM_CopterRocks_Working/Libraries/CMSIS/Include\cmsis_gcc.h **** 
 219:C:\Workspaces\DAVE-4.1\Flightcontroller_PWM_CopterRocks_Working/Libraries/CMSIS/Include\cmsis_gcc.h **** #if       (__CORTEX_M >= 0x03U)
 220:C:\Workspaces\DAVE-4.1\Flightcontroller_PWM_CopterRocks_Working/Libraries/CMSIS/Include\cmsis_gcc.h **** 
 221:C:\Workspaces\DAVE-4.1\Flightcontroller_PWM_CopterRocks_Working/Libraries/CMSIS/Include\cmsis_gcc.h **** /**
 222:C:\Workspaces\DAVE-4.1\Flightcontroller_PWM_CopterRocks_Working/Libraries/CMSIS/Include\cmsis_gcc.h ****   \brief   Enable FIQ
 223:C:\Workspaces\DAVE-4.1\Flightcontroller_PWM_CopterRocks_Working/Libraries/CMSIS/Include\cmsis_gcc.h ****   \details Enables FIQ interrupts by clearing the F-bit in the CPSR.
 224:C:\Workspaces\DAVE-4.1\Flightcontroller_PWM_CopterRocks_Working/Libraries/CMSIS/Include\cmsis_gcc.h ****            Can only be executed in Privileged modes.
 225:C:\Workspaces\DAVE-4.1\Flightcontroller_PWM_CopterRocks_Working/Libraries/CMSIS/Include\cmsis_gcc.h ****  */
 226:C:\Workspaces\DAVE-4.1\Flightcontroller_PWM_CopterRocks_Working/Libraries/CMSIS/Include\cmsis_gcc.h **** __attribute__( ( always_inline ) ) __STATIC_INLINE void __enable_fault_irq(void)
 227:C:\Workspaces\DAVE-4.1\Flightcontroller_PWM_CopterRocks_Working/Libraries/CMSIS/Include\cmsis_gcc.h **** {
 228:C:\Workspaces\DAVE-4.1\Flightcontroller_PWM_CopterRocks_Working/Libraries/CMSIS/Include\cmsis_gcc.h ****   __ASM volatile ("cpsie f" : : : "memory");
 229:C:\Workspaces\DAVE-4.1\Flightcontroller_PWM_CopterRocks_Working/Libraries/CMSIS/Include\cmsis_gcc.h **** }
 230:C:\Workspaces\DAVE-4.1\Flightcontroller_PWM_CopterRocks_Working/Libraries/CMSIS/Include\cmsis_gcc.h **** 
 231:C:\Workspaces\DAVE-4.1\Flightcontroller_PWM_CopterRocks_Working/Libraries/CMSIS/Include\cmsis_gcc.h **** 
 232:C:\Workspaces\DAVE-4.1\Flightcontroller_PWM_CopterRocks_Working/Libraries/CMSIS/Include\cmsis_gcc.h **** /**
 233:C:\Workspaces\DAVE-4.1\Flightcontroller_PWM_CopterRocks_Working/Libraries/CMSIS/Include\cmsis_gcc.h ****   \brief   Disable FIQ
 234:C:\Workspaces\DAVE-4.1\Flightcontroller_PWM_CopterRocks_Working/Libraries/CMSIS/Include\cmsis_gcc.h ****   \details Disables FIQ interrupts by setting the F-bit in the CPSR.
 235:C:\Workspaces\DAVE-4.1\Flightcontroller_PWM_CopterRocks_Working/Libraries/CMSIS/Include\cmsis_gcc.h ****            Can only be executed in Privileged modes.
 236:C:\Workspaces\DAVE-4.1\Flightcontroller_PWM_CopterRocks_Working/Libraries/CMSIS/Include\cmsis_gcc.h ****  */
 237:C:\Workspaces\DAVE-4.1\Flightcontroller_PWM_CopterRocks_Working/Libraries/CMSIS/Include\cmsis_gcc.h **** __attribute__( ( always_inline ) ) __STATIC_INLINE void __disable_fault_irq(void)
 238:C:\Workspaces\DAVE-4.1\Flightcontroller_PWM_CopterRocks_Working/Libraries/CMSIS/Include\cmsis_gcc.h **** {
 239:C:\Workspaces\DAVE-4.1\Flightcontroller_PWM_CopterRocks_Working/Libraries/CMSIS/Include\cmsis_gcc.h ****   __ASM volatile ("cpsid f" : : : "memory");
 240:C:\Workspaces\DAVE-4.1\Flightcontroller_PWM_CopterRocks_Working/Libraries/CMSIS/Include\cmsis_gcc.h **** }
 241:C:\Workspaces\DAVE-4.1\Flightcontroller_PWM_CopterRocks_Working/Libraries/CMSIS/Include\cmsis_gcc.h **** 
 242:C:\Workspaces\DAVE-4.1\Flightcontroller_PWM_CopterRocks_Working/Libraries/CMSIS/Include\cmsis_gcc.h **** 
 243:C:\Workspaces\DAVE-4.1\Flightcontroller_PWM_CopterRocks_Working/Libraries/CMSIS/Include\cmsis_gcc.h **** /**
 244:C:\Workspaces\DAVE-4.1\Flightcontroller_PWM_CopterRocks_Working/Libraries/CMSIS/Include\cmsis_gcc.h ****   \brief   Get Base Priority
 245:C:\Workspaces\DAVE-4.1\Flightcontroller_PWM_CopterRocks_Working/Libraries/CMSIS/Include\cmsis_gcc.h ****   \details Returns the current value of the Base Priority register.
 246:C:\Workspaces\DAVE-4.1\Flightcontroller_PWM_CopterRocks_Working/Libraries/CMSIS/Include\cmsis_gcc.h ****   \return               Base Priority register value
 247:C:\Workspaces\DAVE-4.1\Flightcontroller_PWM_CopterRocks_Working/Libraries/CMSIS/Include\cmsis_gcc.h ****  */
 248:C:\Workspaces\DAVE-4.1\Flightcontroller_PWM_CopterRocks_Working/Libraries/CMSIS/Include\cmsis_gcc.h **** __attribute__( ( always_inline ) ) __STATIC_INLINE uint32_t __get_BASEPRI(void)
 249:C:\Workspaces\DAVE-4.1\Flightcontroller_PWM_CopterRocks_Working/Libraries/CMSIS/Include\cmsis_gcc.h **** {
 250:C:\Workspaces\DAVE-4.1\Flightcontroller_PWM_CopterRocks_Working/Libraries/CMSIS/Include\cmsis_gcc.h ****   uint32_t result;
 251:C:\Workspaces\DAVE-4.1\Flightcontroller_PWM_CopterRocks_Working/Libraries/CMSIS/Include\cmsis_gcc.h **** 
 252:C:\Workspaces\DAVE-4.1\Flightcontroller_PWM_CopterRocks_Working/Libraries/CMSIS/Include\cmsis_gcc.h ****   __ASM volatile ("MRS %0, basepri" : "=r" (result) );
 253:C:\Workspaces\DAVE-4.1\Flightcontroller_PWM_CopterRocks_Working/Libraries/CMSIS/Include\cmsis_gcc.h ****   return(result);
 254:C:\Workspaces\DAVE-4.1\Flightcontroller_PWM_CopterRocks_Working/Libraries/CMSIS/Include\cmsis_gcc.h **** }
 255:C:\Workspaces\DAVE-4.1\Flightcontroller_PWM_CopterRocks_Working/Libraries/CMSIS/Include\cmsis_gcc.h **** 
 256:C:\Workspaces\DAVE-4.1\Flightcontroller_PWM_CopterRocks_Working/Libraries/CMSIS/Include\cmsis_gcc.h **** 
 257:C:\Workspaces\DAVE-4.1\Flightcontroller_PWM_CopterRocks_Working/Libraries/CMSIS/Include\cmsis_gcc.h **** /**
 258:C:\Workspaces\DAVE-4.1\Flightcontroller_PWM_CopterRocks_Working/Libraries/CMSIS/Include\cmsis_gcc.h ****   \brief   Set Base Priority
 259:C:\Workspaces\DAVE-4.1\Flightcontroller_PWM_CopterRocks_Working/Libraries/CMSIS/Include\cmsis_gcc.h ****   \details Assigns the given value to the Base Priority register.
 260:C:\Workspaces\DAVE-4.1\Flightcontroller_PWM_CopterRocks_Working/Libraries/CMSIS/Include\cmsis_gcc.h ****   \param [in]    basePri  Base Priority value to set
 261:C:\Workspaces\DAVE-4.1\Flightcontroller_PWM_CopterRocks_Working/Libraries/CMSIS/Include\cmsis_gcc.h ****  */
 262:C:\Workspaces\DAVE-4.1\Flightcontroller_PWM_CopterRocks_Working/Libraries/CMSIS/Include\cmsis_gcc.h **** __attribute__( ( always_inline ) ) __STATIC_INLINE void __set_BASEPRI(uint32_t value)
 263:C:\Workspaces\DAVE-4.1\Flightcontroller_PWM_CopterRocks_Working/Libraries/CMSIS/Include\cmsis_gcc.h **** {
 264:C:\Workspaces\DAVE-4.1\Flightcontroller_PWM_CopterRocks_Working/Libraries/CMSIS/Include\cmsis_gcc.h ****   __ASM volatile ("MSR basepri, %0" : : "r" (value) : "memory");
 265:C:\Workspaces\DAVE-4.1\Flightcontroller_PWM_CopterRocks_Working/Libraries/CMSIS/Include\cmsis_gcc.h **** }
 266:C:\Workspaces\DAVE-4.1\Flightcontroller_PWM_CopterRocks_Working/Libraries/CMSIS/Include\cmsis_gcc.h **** 
 267:C:\Workspaces\DAVE-4.1\Flightcontroller_PWM_CopterRocks_Working/Libraries/CMSIS/Include\cmsis_gcc.h **** 
 268:C:\Workspaces\DAVE-4.1\Flightcontroller_PWM_CopterRocks_Working/Libraries/CMSIS/Include\cmsis_gcc.h **** /**
 269:C:\Workspaces\DAVE-4.1\Flightcontroller_PWM_CopterRocks_Working/Libraries/CMSIS/Include\cmsis_gcc.h ****   \brief   Set Base Priority with condition
 270:C:\Workspaces\DAVE-4.1\Flightcontroller_PWM_CopterRocks_Working/Libraries/CMSIS/Include\cmsis_gcc.h ****   \details Assigns the given value to the Base Priority register only if BASEPRI masking is disable
 271:C:\Workspaces\DAVE-4.1\Flightcontroller_PWM_CopterRocks_Working/Libraries/CMSIS/Include\cmsis_gcc.h ****            or the new value increases the BASEPRI priority level.
 272:C:\Workspaces\DAVE-4.1\Flightcontroller_PWM_CopterRocks_Working/Libraries/CMSIS/Include\cmsis_gcc.h ****   \param [in]    basePri  Base Priority value to set
 273:C:\Workspaces\DAVE-4.1\Flightcontroller_PWM_CopterRocks_Working/Libraries/CMSIS/Include\cmsis_gcc.h ****  */
 274:C:\Workspaces\DAVE-4.1\Flightcontroller_PWM_CopterRocks_Working/Libraries/CMSIS/Include\cmsis_gcc.h **** __attribute__( ( always_inline ) ) __STATIC_INLINE void __set_BASEPRI_MAX(uint32_t value)
 275:C:\Workspaces\DAVE-4.1\Flightcontroller_PWM_CopterRocks_Working/Libraries/CMSIS/Include\cmsis_gcc.h **** {
 276:C:\Workspaces\DAVE-4.1\Flightcontroller_PWM_CopterRocks_Working/Libraries/CMSIS/Include\cmsis_gcc.h ****   __ASM volatile ("MSR basepri_max, %0" : : "r" (value) : "memory");
 277:C:\Workspaces\DAVE-4.1\Flightcontroller_PWM_CopterRocks_Working/Libraries/CMSIS/Include\cmsis_gcc.h **** }
 278:C:\Workspaces\DAVE-4.1\Flightcontroller_PWM_CopterRocks_Working/Libraries/CMSIS/Include\cmsis_gcc.h **** 
 279:C:\Workspaces\DAVE-4.1\Flightcontroller_PWM_CopterRocks_Working/Libraries/CMSIS/Include\cmsis_gcc.h **** 
 280:C:\Workspaces\DAVE-4.1\Flightcontroller_PWM_CopterRocks_Working/Libraries/CMSIS/Include\cmsis_gcc.h **** /**
 281:C:\Workspaces\DAVE-4.1\Flightcontroller_PWM_CopterRocks_Working/Libraries/CMSIS/Include\cmsis_gcc.h ****   \brief   Get Fault Mask
 282:C:\Workspaces\DAVE-4.1\Flightcontroller_PWM_CopterRocks_Working/Libraries/CMSIS/Include\cmsis_gcc.h ****   \details Returns the current value of the Fault Mask register.
 283:C:\Workspaces\DAVE-4.1\Flightcontroller_PWM_CopterRocks_Working/Libraries/CMSIS/Include\cmsis_gcc.h ****   \return               Fault Mask register value
 284:C:\Workspaces\DAVE-4.1\Flightcontroller_PWM_CopterRocks_Working/Libraries/CMSIS/Include\cmsis_gcc.h ****  */
 285:C:\Workspaces\DAVE-4.1\Flightcontroller_PWM_CopterRocks_Working/Libraries/CMSIS/Include\cmsis_gcc.h **** __attribute__( ( always_inline ) ) __STATIC_INLINE uint32_t __get_FAULTMASK(void)
 286:C:\Workspaces\DAVE-4.1\Flightcontroller_PWM_CopterRocks_Working/Libraries/CMSIS/Include\cmsis_gcc.h **** {
 287:C:\Workspaces\DAVE-4.1\Flightcontroller_PWM_CopterRocks_Working/Libraries/CMSIS/Include\cmsis_gcc.h ****   uint32_t result;
 288:C:\Workspaces\DAVE-4.1\Flightcontroller_PWM_CopterRocks_Working/Libraries/CMSIS/Include\cmsis_gcc.h **** 
 289:C:\Workspaces\DAVE-4.1\Flightcontroller_PWM_CopterRocks_Working/Libraries/CMSIS/Include\cmsis_gcc.h ****   __ASM volatile ("MRS %0, faultmask" : "=r" (result) );
 290:C:\Workspaces\DAVE-4.1\Flightcontroller_PWM_CopterRocks_Working/Libraries/CMSIS/Include\cmsis_gcc.h ****   return(result);
 291:C:\Workspaces\DAVE-4.1\Flightcontroller_PWM_CopterRocks_Working/Libraries/CMSIS/Include\cmsis_gcc.h **** }
 292:C:\Workspaces\DAVE-4.1\Flightcontroller_PWM_CopterRocks_Working/Libraries/CMSIS/Include\cmsis_gcc.h **** 
 293:C:\Workspaces\DAVE-4.1\Flightcontroller_PWM_CopterRocks_Working/Libraries/CMSIS/Include\cmsis_gcc.h **** 
 294:C:\Workspaces\DAVE-4.1\Flightcontroller_PWM_CopterRocks_Working/Libraries/CMSIS/Include\cmsis_gcc.h **** /**
 295:C:\Workspaces\DAVE-4.1\Flightcontroller_PWM_CopterRocks_Working/Libraries/CMSIS/Include\cmsis_gcc.h ****   \brief   Set Fault Mask
 296:C:\Workspaces\DAVE-4.1\Flightcontroller_PWM_CopterRocks_Working/Libraries/CMSIS/Include\cmsis_gcc.h ****   \details Assigns the given value to the Fault Mask register.
 297:C:\Workspaces\DAVE-4.1\Flightcontroller_PWM_CopterRocks_Working/Libraries/CMSIS/Include\cmsis_gcc.h ****   \param [in]    faultMask  Fault Mask value to set
 298:C:\Workspaces\DAVE-4.1\Flightcontroller_PWM_CopterRocks_Working/Libraries/CMSIS/Include\cmsis_gcc.h ****  */
 299:C:\Workspaces\DAVE-4.1\Flightcontroller_PWM_CopterRocks_Working/Libraries/CMSIS/Include\cmsis_gcc.h **** __attribute__( ( always_inline ) ) __STATIC_INLINE void __set_FAULTMASK(uint32_t faultMask)
 300:C:\Workspaces\DAVE-4.1\Flightcontroller_PWM_CopterRocks_Working/Libraries/CMSIS/Include\cmsis_gcc.h **** {
 301:C:\Workspaces\DAVE-4.1\Flightcontroller_PWM_CopterRocks_Working/Libraries/CMSIS/Include\cmsis_gcc.h ****   __ASM volatile ("MSR faultmask, %0" : : "r" (faultMask) : "memory");
 302:C:\Workspaces\DAVE-4.1\Flightcontroller_PWM_CopterRocks_Working/Libraries/CMSIS/Include\cmsis_gcc.h **** }
 303:C:\Workspaces\DAVE-4.1\Flightcontroller_PWM_CopterRocks_Working/Libraries/CMSIS/Include\cmsis_gcc.h **** 
 304:C:\Workspaces\DAVE-4.1\Flightcontroller_PWM_CopterRocks_Working/Libraries/CMSIS/Include\cmsis_gcc.h **** #endif /* (__CORTEX_M >= 0x03U) */
 305:C:\Workspaces\DAVE-4.1\Flightcontroller_PWM_CopterRocks_Working/Libraries/CMSIS/Include\cmsis_gcc.h **** 
 306:C:\Workspaces\DAVE-4.1\Flightcontroller_PWM_CopterRocks_Working/Libraries/CMSIS/Include\cmsis_gcc.h **** 
 307:C:\Workspaces\DAVE-4.1\Flightcontroller_PWM_CopterRocks_Working/Libraries/CMSIS/Include\cmsis_gcc.h **** #if       (__CORTEX_M == 0x04U) || (__CORTEX_M == 0x07U)
 308:C:\Workspaces\DAVE-4.1\Flightcontroller_PWM_CopterRocks_Working/Libraries/CMSIS/Include\cmsis_gcc.h **** 
 309:C:\Workspaces\DAVE-4.1\Flightcontroller_PWM_CopterRocks_Working/Libraries/CMSIS/Include\cmsis_gcc.h **** /**
 310:C:\Workspaces\DAVE-4.1\Flightcontroller_PWM_CopterRocks_Working/Libraries/CMSIS/Include\cmsis_gcc.h ****   \brief   Get FPSCR
 311:C:\Workspaces\DAVE-4.1\Flightcontroller_PWM_CopterRocks_Working/Libraries/CMSIS/Include\cmsis_gcc.h ****   \details Returns the current value of the Floating Point Status/Control register.
 312:C:\Workspaces\DAVE-4.1\Flightcontroller_PWM_CopterRocks_Working/Libraries/CMSIS/Include\cmsis_gcc.h ****   \return               Floating Point Status/Control register value
 313:C:\Workspaces\DAVE-4.1\Flightcontroller_PWM_CopterRocks_Working/Libraries/CMSIS/Include\cmsis_gcc.h ****  */
 314:C:\Workspaces\DAVE-4.1\Flightcontroller_PWM_CopterRocks_Working/Libraries/CMSIS/Include\cmsis_gcc.h **** __attribute__( ( always_inline ) ) __STATIC_INLINE uint32_t __get_FPSCR(void)
 315:C:\Workspaces\DAVE-4.1\Flightcontroller_PWM_CopterRocks_Working/Libraries/CMSIS/Include\cmsis_gcc.h **** {
 316:C:\Workspaces\DAVE-4.1\Flightcontroller_PWM_CopterRocks_Working/Libraries/CMSIS/Include\cmsis_gcc.h **** #if (__FPU_PRESENT == 1U) && (__FPU_USED == 1U)
 317:C:\Workspaces\DAVE-4.1\Flightcontroller_PWM_CopterRocks_Working/Libraries/CMSIS/Include\cmsis_gcc.h ****   uint32_t result;
 318:C:\Workspaces\DAVE-4.1\Flightcontroller_PWM_CopterRocks_Working/Libraries/CMSIS/Include\cmsis_gcc.h **** 
 319:C:\Workspaces\DAVE-4.1\Flightcontroller_PWM_CopterRocks_Working/Libraries/CMSIS/Include\cmsis_gcc.h ****   /* Empty asm statement works as a scheduling barrier */
 320:C:\Workspaces\DAVE-4.1\Flightcontroller_PWM_CopterRocks_Working/Libraries/CMSIS/Include\cmsis_gcc.h ****   __ASM volatile ("");
 321:C:\Workspaces\DAVE-4.1\Flightcontroller_PWM_CopterRocks_Working/Libraries/CMSIS/Include\cmsis_gcc.h ****   __ASM volatile ("VMRS %0, fpscr" : "=r" (result) );
 322:C:\Workspaces\DAVE-4.1\Flightcontroller_PWM_CopterRocks_Working/Libraries/CMSIS/Include\cmsis_gcc.h ****   __ASM volatile ("");
 323:C:\Workspaces\DAVE-4.1\Flightcontroller_PWM_CopterRocks_Working/Libraries/CMSIS/Include\cmsis_gcc.h ****   return(result);
 324:C:\Workspaces\DAVE-4.1\Flightcontroller_PWM_CopterRocks_Working/Libraries/CMSIS/Include\cmsis_gcc.h **** #else
 325:C:\Workspaces\DAVE-4.1\Flightcontroller_PWM_CopterRocks_Working/Libraries/CMSIS/Include\cmsis_gcc.h ****    return(0);
 326:C:\Workspaces\DAVE-4.1\Flightcontroller_PWM_CopterRocks_Working/Libraries/CMSIS/Include\cmsis_gcc.h **** #endif
 327:C:\Workspaces\DAVE-4.1\Flightcontroller_PWM_CopterRocks_Working/Libraries/CMSIS/Include\cmsis_gcc.h **** }
 328:C:\Workspaces\DAVE-4.1\Flightcontroller_PWM_CopterRocks_Working/Libraries/CMSIS/Include\cmsis_gcc.h **** 
 329:C:\Workspaces\DAVE-4.1\Flightcontroller_PWM_CopterRocks_Working/Libraries/CMSIS/Include\cmsis_gcc.h **** 
 330:C:\Workspaces\DAVE-4.1\Flightcontroller_PWM_CopterRocks_Working/Libraries/CMSIS/Include\cmsis_gcc.h **** /**
 331:C:\Workspaces\DAVE-4.1\Flightcontroller_PWM_CopterRocks_Working/Libraries/CMSIS/Include\cmsis_gcc.h ****   \brief   Set FPSCR
 332:C:\Workspaces\DAVE-4.1\Flightcontroller_PWM_CopterRocks_Working/Libraries/CMSIS/Include\cmsis_gcc.h ****   \details Assigns the given value to the Floating Point Status/Control register.
 333:C:\Workspaces\DAVE-4.1\Flightcontroller_PWM_CopterRocks_Working/Libraries/CMSIS/Include\cmsis_gcc.h ****   \param [in]    fpscr  Floating Point Status/Control value to set
 334:C:\Workspaces\DAVE-4.1\Flightcontroller_PWM_CopterRocks_Working/Libraries/CMSIS/Include\cmsis_gcc.h ****  */
 335:C:\Workspaces\DAVE-4.1\Flightcontroller_PWM_CopterRocks_Working/Libraries/CMSIS/Include\cmsis_gcc.h **** __attribute__( ( always_inline ) ) __STATIC_INLINE void __set_FPSCR(uint32_t fpscr)
 336:C:\Workspaces\DAVE-4.1\Flightcontroller_PWM_CopterRocks_Working/Libraries/CMSIS/Include\cmsis_gcc.h **** {
 337:C:\Workspaces\DAVE-4.1\Flightcontroller_PWM_CopterRocks_Working/Libraries/CMSIS/Include\cmsis_gcc.h **** #if (__FPU_PRESENT == 1U) && (__FPU_USED == 1U)
 338:C:\Workspaces\DAVE-4.1\Flightcontroller_PWM_CopterRocks_Working/Libraries/CMSIS/Include\cmsis_gcc.h ****   /* Empty asm statement works as a scheduling barrier */
 339:C:\Workspaces\DAVE-4.1\Flightcontroller_PWM_CopterRocks_Working/Libraries/CMSIS/Include\cmsis_gcc.h ****   __ASM volatile ("");
 340:C:\Workspaces\DAVE-4.1\Flightcontroller_PWM_CopterRocks_Working/Libraries/CMSIS/Include\cmsis_gcc.h ****   __ASM volatile ("VMSR fpscr, %0" : : "r" (fpscr) : "vfpcc");
 341:C:\Workspaces\DAVE-4.1\Flightcontroller_PWM_CopterRocks_Working/Libraries/CMSIS/Include\cmsis_gcc.h ****   __ASM volatile ("");
 342:C:\Workspaces\DAVE-4.1\Flightcontroller_PWM_CopterRocks_Working/Libraries/CMSIS/Include\cmsis_gcc.h **** #endif
 343:C:\Workspaces\DAVE-4.1\Flightcontroller_PWM_CopterRocks_Working/Libraries/CMSIS/Include\cmsis_gcc.h **** }
 344:C:\Workspaces\DAVE-4.1\Flightcontroller_PWM_CopterRocks_Working/Libraries/CMSIS/Include\cmsis_gcc.h **** 
 345:C:\Workspaces\DAVE-4.1\Flightcontroller_PWM_CopterRocks_Working/Libraries/CMSIS/Include\cmsis_gcc.h **** #endif /* (__CORTEX_M == 0x04U) || (__CORTEX_M == 0x07U) */
 346:C:\Workspaces\DAVE-4.1\Flightcontroller_PWM_CopterRocks_Working/Libraries/CMSIS/Include\cmsis_gcc.h **** 
 347:C:\Workspaces\DAVE-4.1\Flightcontroller_PWM_CopterRocks_Working/Libraries/CMSIS/Include\cmsis_gcc.h **** 
 348:C:\Workspaces\DAVE-4.1\Flightcontroller_PWM_CopterRocks_Working/Libraries/CMSIS/Include\cmsis_gcc.h **** 
 349:C:\Workspaces\DAVE-4.1\Flightcontroller_PWM_CopterRocks_Working/Libraries/CMSIS/Include\cmsis_gcc.h **** /*@} end of CMSIS_Core_RegAccFunctions */
 350:C:\Workspaces\DAVE-4.1\Flightcontroller_PWM_CopterRocks_Working/Libraries/CMSIS/Include\cmsis_gcc.h **** 
 351:C:\Workspaces\DAVE-4.1\Flightcontroller_PWM_CopterRocks_Working/Libraries/CMSIS/Include\cmsis_gcc.h **** 
 352:C:\Workspaces\DAVE-4.1\Flightcontroller_PWM_CopterRocks_Working/Libraries/CMSIS/Include\cmsis_gcc.h **** /* ##########################  Core Instruction Access  ######################### */
 353:C:\Workspaces\DAVE-4.1\Flightcontroller_PWM_CopterRocks_Working/Libraries/CMSIS/Include\cmsis_gcc.h **** /** \defgroup CMSIS_Core_InstructionInterface CMSIS Core Instruction Interface
 354:C:\Workspaces\DAVE-4.1\Flightcontroller_PWM_CopterRocks_Working/Libraries/CMSIS/Include\cmsis_gcc.h ****   Access to dedicated instructions
 355:C:\Workspaces\DAVE-4.1\Flightcontroller_PWM_CopterRocks_Working/Libraries/CMSIS/Include\cmsis_gcc.h ****   @{
 356:C:\Workspaces\DAVE-4.1\Flightcontroller_PWM_CopterRocks_Working/Libraries/CMSIS/Include\cmsis_gcc.h **** */
 357:C:\Workspaces\DAVE-4.1\Flightcontroller_PWM_CopterRocks_Working/Libraries/CMSIS/Include\cmsis_gcc.h **** 
 358:C:\Workspaces\DAVE-4.1\Flightcontroller_PWM_CopterRocks_Working/Libraries/CMSIS/Include\cmsis_gcc.h **** /* Define macros for porting to both thumb1 and thumb2.
 359:C:\Workspaces\DAVE-4.1\Flightcontroller_PWM_CopterRocks_Working/Libraries/CMSIS/Include\cmsis_gcc.h ****  * For thumb1, use low register (r0-r7), specified by constraint "l"
 360:C:\Workspaces\DAVE-4.1\Flightcontroller_PWM_CopterRocks_Working/Libraries/CMSIS/Include\cmsis_gcc.h ****  * Otherwise, use general registers, specified by constraint "r" */
 361:C:\Workspaces\DAVE-4.1\Flightcontroller_PWM_CopterRocks_Working/Libraries/CMSIS/Include\cmsis_gcc.h **** #if defined (__thumb__) && !defined (__thumb2__)
 362:C:\Workspaces\DAVE-4.1\Flightcontroller_PWM_CopterRocks_Working/Libraries/CMSIS/Include\cmsis_gcc.h **** #define __CMSIS_GCC_OUT_REG(r) "=l" (r)
 363:C:\Workspaces\DAVE-4.1\Flightcontroller_PWM_CopterRocks_Working/Libraries/CMSIS/Include\cmsis_gcc.h **** #define __CMSIS_GCC_USE_REG(r) "l" (r)
 364:C:\Workspaces\DAVE-4.1\Flightcontroller_PWM_CopterRocks_Working/Libraries/CMSIS/Include\cmsis_gcc.h **** #else
 365:C:\Workspaces\DAVE-4.1\Flightcontroller_PWM_CopterRocks_Working/Libraries/CMSIS/Include\cmsis_gcc.h **** #define __CMSIS_GCC_OUT_REG(r) "=r" (r)
 366:C:\Workspaces\DAVE-4.1\Flightcontroller_PWM_CopterRocks_Working/Libraries/CMSIS/Include\cmsis_gcc.h **** #define __CMSIS_GCC_USE_REG(r) "r" (r)
 367:C:\Workspaces\DAVE-4.1\Flightcontroller_PWM_CopterRocks_Working/Libraries/CMSIS/Include\cmsis_gcc.h **** #endif
 368:C:\Workspaces\DAVE-4.1\Flightcontroller_PWM_CopterRocks_Working/Libraries/CMSIS/Include\cmsis_gcc.h **** 
 369:C:\Workspaces\DAVE-4.1\Flightcontroller_PWM_CopterRocks_Working/Libraries/CMSIS/Include\cmsis_gcc.h **** /**
 370:C:\Workspaces\DAVE-4.1\Flightcontroller_PWM_CopterRocks_Working/Libraries/CMSIS/Include\cmsis_gcc.h ****   \brief   No Operation
 371:C:\Workspaces\DAVE-4.1\Flightcontroller_PWM_CopterRocks_Working/Libraries/CMSIS/Include\cmsis_gcc.h ****   \details No Operation does nothing. This instruction can be used for code alignment purposes.
 372:C:\Workspaces\DAVE-4.1\Flightcontroller_PWM_CopterRocks_Working/Libraries/CMSIS/Include\cmsis_gcc.h ****  */
 373:C:\Workspaces\DAVE-4.1\Flightcontroller_PWM_CopterRocks_Working/Libraries/CMSIS/Include\cmsis_gcc.h **** __attribute__((always_inline)) __STATIC_INLINE void __NOP(void)
 374:C:\Workspaces\DAVE-4.1\Flightcontroller_PWM_CopterRocks_Working/Libraries/CMSIS/Include\cmsis_gcc.h **** {
 375:C:\Workspaces\DAVE-4.1\Flightcontroller_PWM_CopterRocks_Working/Libraries/CMSIS/Include\cmsis_gcc.h ****   __ASM volatile ("nop");
 376:C:\Workspaces\DAVE-4.1\Flightcontroller_PWM_CopterRocks_Working/Libraries/CMSIS/Include\cmsis_gcc.h **** }
 377:C:\Workspaces\DAVE-4.1\Flightcontroller_PWM_CopterRocks_Working/Libraries/CMSIS/Include\cmsis_gcc.h **** 
 378:C:\Workspaces\DAVE-4.1\Flightcontroller_PWM_CopterRocks_Working/Libraries/CMSIS/Include\cmsis_gcc.h **** 
 379:C:\Workspaces\DAVE-4.1\Flightcontroller_PWM_CopterRocks_Working/Libraries/CMSIS/Include\cmsis_gcc.h **** /**
 380:C:\Workspaces\DAVE-4.1\Flightcontroller_PWM_CopterRocks_Working/Libraries/CMSIS/Include\cmsis_gcc.h ****   \brief   Wait For Interrupt
 381:C:\Workspaces\DAVE-4.1\Flightcontroller_PWM_CopterRocks_Working/Libraries/CMSIS/Include\cmsis_gcc.h ****   \details Wait For Interrupt is a hint instruction that suspends execution until one of a number o
 382:C:\Workspaces\DAVE-4.1\Flightcontroller_PWM_CopterRocks_Working/Libraries/CMSIS/Include\cmsis_gcc.h ****  */
 383:C:\Workspaces\DAVE-4.1\Flightcontroller_PWM_CopterRocks_Working/Libraries/CMSIS/Include\cmsis_gcc.h **** __attribute__((always_inline)) __STATIC_INLINE void __WFI(void)
 384:C:\Workspaces\DAVE-4.1\Flightcontroller_PWM_CopterRocks_Working/Libraries/CMSIS/Include\cmsis_gcc.h **** {
 385:C:\Workspaces\DAVE-4.1\Flightcontroller_PWM_CopterRocks_Working/Libraries/CMSIS/Include\cmsis_gcc.h ****   __ASM volatile ("wfi");
 386:C:\Workspaces\DAVE-4.1\Flightcontroller_PWM_CopterRocks_Working/Libraries/CMSIS/Include\cmsis_gcc.h **** }
 387:C:\Workspaces\DAVE-4.1\Flightcontroller_PWM_CopterRocks_Working/Libraries/CMSIS/Include\cmsis_gcc.h **** 
 388:C:\Workspaces\DAVE-4.1\Flightcontroller_PWM_CopterRocks_Working/Libraries/CMSIS/Include\cmsis_gcc.h **** 
 389:C:\Workspaces\DAVE-4.1\Flightcontroller_PWM_CopterRocks_Working/Libraries/CMSIS/Include\cmsis_gcc.h **** /**
 390:C:\Workspaces\DAVE-4.1\Flightcontroller_PWM_CopterRocks_Working/Libraries/CMSIS/Include\cmsis_gcc.h ****   \brief   Wait For Event
 391:C:\Workspaces\DAVE-4.1\Flightcontroller_PWM_CopterRocks_Working/Libraries/CMSIS/Include\cmsis_gcc.h ****   \details Wait For Event is a hint instruction that permits the processor to enter
 392:C:\Workspaces\DAVE-4.1\Flightcontroller_PWM_CopterRocks_Working/Libraries/CMSIS/Include\cmsis_gcc.h ****     a low-power state until one of a number of events occurs.
 393:C:\Workspaces\DAVE-4.1\Flightcontroller_PWM_CopterRocks_Working/Libraries/CMSIS/Include\cmsis_gcc.h ****  */
 394:C:\Workspaces\DAVE-4.1\Flightcontroller_PWM_CopterRocks_Working/Libraries/CMSIS/Include\cmsis_gcc.h **** __attribute__((always_inline)) __STATIC_INLINE void __WFE(void)
 395:C:\Workspaces\DAVE-4.1\Flightcontroller_PWM_CopterRocks_Working/Libraries/CMSIS/Include\cmsis_gcc.h **** {
 396:C:\Workspaces\DAVE-4.1\Flightcontroller_PWM_CopterRocks_Working/Libraries/CMSIS/Include\cmsis_gcc.h ****   __ASM volatile ("wfe");
 397:C:\Workspaces\DAVE-4.1\Flightcontroller_PWM_CopterRocks_Working/Libraries/CMSIS/Include\cmsis_gcc.h **** }
 398:C:\Workspaces\DAVE-4.1\Flightcontroller_PWM_CopterRocks_Working/Libraries/CMSIS/Include\cmsis_gcc.h **** 
 399:C:\Workspaces\DAVE-4.1\Flightcontroller_PWM_CopterRocks_Working/Libraries/CMSIS/Include\cmsis_gcc.h **** 
 400:C:\Workspaces\DAVE-4.1\Flightcontroller_PWM_CopterRocks_Working/Libraries/CMSIS/Include\cmsis_gcc.h **** /**
 401:C:\Workspaces\DAVE-4.1\Flightcontroller_PWM_CopterRocks_Working/Libraries/CMSIS/Include\cmsis_gcc.h ****   \brief   Send Event
 402:C:\Workspaces\DAVE-4.1\Flightcontroller_PWM_CopterRocks_Working/Libraries/CMSIS/Include\cmsis_gcc.h ****   \details Send Event is a hint instruction. It causes an event to be signaled to the CPU.
 403:C:\Workspaces\DAVE-4.1\Flightcontroller_PWM_CopterRocks_Working/Libraries/CMSIS/Include\cmsis_gcc.h ****  */
 404:C:\Workspaces\DAVE-4.1\Flightcontroller_PWM_CopterRocks_Working/Libraries/CMSIS/Include\cmsis_gcc.h **** __attribute__((always_inline)) __STATIC_INLINE void __SEV(void)
 405:C:\Workspaces\DAVE-4.1\Flightcontroller_PWM_CopterRocks_Working/Libraries/CMSIS/Include\cmsis_gcc.h **** {
 406:C:\Workspaces\DAVE-4.1\Flightcontroller_PWM_CopterRocks_Working/Libraries/CMSIS/Include\cmsis_gcc.h ****   __ASM volatile ("sev");
 407:C:\Workspaces\DAVE-4.1\Flightcontroller_PWM_CopterRocks_Working/Libraries/CMSIS/Include\cmsis_gcc.h **** }
 408:C:\Workspaces\DAVE-4.1\Flightcontroller_PWM_CopterRocks_Working/Libraries/CMSIS/Include\cmsis_gcc.h **** 
 409:C:\Workspaces\DAVE-4.1\Flightcontroller_PWM_CopterRocks_Working/Libraries/CMSIS/Include\cmsis_gcc.h **** 
 410:C:\Workspaces\DAVE-4.1\Flightcontroller_PWM_CopterRocks_Working/Libraries/CMSIS/Include\cmsis_gcc.h **** /**
 411:C:\Workspaces\DAVE-4.1\Flightcontroller_PWM_CopterRocks_Working/Libraries/CMSIS/Include\cmsis_gcc.h ****   \brief   Instruction Synchronization Barrier
 412:C:\Workspaces\DAVE-4.1\Flightcontroller_PWM_CopterRocks_Working/Libraries/CMSIS/Include\cmsis_gcc.h ****   \details Instruction Synchronization Barrier flushes the pipeline in the processor,
 413:C:\Workspaces\DAVE-4.1\Flightcontroller_PWM_CopterRocks_Working/Libraries/CMSIS/Include\cmsis_gcc.h ****            so that all instructions following the ISB are fetched from cache or memory,
 414:C:\Workspaces\DAVE-4.1\Flightcontroller_PWM_CopterRocks_Working/Libraries/CMSIS/Include\cmsis_gcc.h ****            after the instruction has been completed.
 415:C:\Workspaces\DAVE-4.1\Flightcontroller_PWM_CopterRocks_Working/Libraries/CMSIS/Include\cmsis_gcc.h ****  */
 416:C:\Workspaces\DAVE-4.1\Flightcontroller_PWM_CopterRocks_Working/Libraries/CMSIS/Include\cmsis_gcc.h **** __attribute__((always_inline)) __STATIC_INLINE void __ISB(void)
 417:C:\Workspaces\DAVE-4.1\Flightcontroller_PWM_CopterRocks_Working/Libraries/CMSIS/Include\cmsis_gcc.h **** {
 418:C:\Workspaces\DAVE-4.1\Flightcontroller_PWM_CopterRocks_Working/Libraries/CMSIS/Include\cmsis_gcc.h ****   __ASM volatile ("isb 0xF":::"memory");
 419:C:\Workspaces\DAVE-4.1\Flightcontroller_PWM_CopterRocks_Working/Libraries/CMSIS/Include\cmsis_gcc.h **** }
 420:C:\Workspaces\DAVE-4.1\Flightcontroller_PWM_CopterRocks_Working/Libraries/CMSIS/Include\cmsis_gcc.h **** 
 421:C:\Workspaces\DAVE-4.1\Flightcontroller_PWM_CopterRocks_Working/Libraries/CMSIS/Include\cmsis_gcc.h **** 
 422:C:\Workspaces\DAVE-4.1\Flightcontroller_PWM_CopterRocks_Working/Libraries/CMSIS/Include\cmsis_gcc.h **** /**
 423:C:\Workspaces\DAVE-4.1\Flightcontroller_PWM_CopterRocks_Working/Libraries/CMSIS/Include\cmsis_gcc.h ****   \brief   Data Synchronization Barrier
 424:C:\Workspaces\DAVE-4.1\Flightcontroller_PWM_CopterRocks_Working/Libraries/CMSIS/Include\cmsis_gcc.h ****   \details Acts as a special kind of Data Memory Barrier.
 425:C:\Workspaces\DAVE-4.1\Flightcontroller_PWM_CopterRocks_Working/Libraries/CMSIS/Include\cmsis_gcc.h ****            It completes when all explicit memory accesses before this instruction complete.
 426:C:\Workspaces\DAVE-4.1\Flightcontroller_PWM_CopterRocks_Working/Libraries/CMSIS/Include\cmsis_gcc.h ****  */
 427:C:\Workspaces\DAVE-4.1\Flightcontroller_PWM_CopterRocks_Working/Libraries/CMSIS/Include\cmsis_gcc.h **** __attribute__((always_inline)) __STATIC_INLINE void __DSB(void)
 428:C:\Workspaces\DAVE-4.1\Flightcontroller_PWM_CopterRocks_Working/Libraries/CMSIS/Include\cmsis_gcc.h **** {
 429:C:\Workspaces\DAVE-4.1\Flightcontroller_PWM_CopterRocks_Working/Libraries/CMSIS/Include\cmsis_gcc.h ****   __ASM volatile ("dsb 0xF":::"memory");
 430:C:\Workspaces\DAVE-4.1\Flightcontroller_PWM_CopterRocks_Working/Libraries/CMSIS/Include\cmsis_gcc.h **** }
 431:C:\Workspaces\DAVE-4.1\Flightcontroller_PWM_CopterRocks_Working/Libraries/CMSIS/Include\cmsis_gcc.h **** 
 432:C:\Workspaces\DAVE-4.1\Flightcontroller_PWM_CopterRocks_Working/Libraries/CMSIS/Include\cmsis_gcc.h **** 
 433:C:\Workspaces\DAVE-4.1\Flightcontroller_PWM_CopterRocks_Working/Libraries/CMSIS/Include\cmsis_gcc.h **** /**
 434:C:\Workspaces\DAVE-4.1\Flightcontroller_PWM_CopterRocks_Working/Libraries/CMSIS/Include\cmsis_gcc.h ****   \brief   Data Memory Barrier
 435:C:\Workspaces\DAVE-4.1\Flightcontroller_PWM_CopterRocks_Working/Libraries/CMSIS/Include\cmsis_gcc.h ****   \details Ensures the apparent order of the explicit memory operations before
 436:C:\Workspaces\DAVE-4.1\Flightcontroller_PWM_CopterRocks_Working/Libraries/CMSIS/Include\cmsis_gcc.h ****            and after the instruction, without ensuring their completion.
 437:C:\Workspaces\DAVE-4.1\Flightcontroller_PWM_CopterRocks_Working/Libraries/CMSIS/Include\cmsis_gcc.h ****  */
 438:C:\Workspaces\DAVE-4.1\Flightcontroller_PWM_CopterRocks_Working/Libraries/CMSIS/Include\cmsis_gcc.h **** __attribute__((always_inline)) __STATIC_INLINE void __DMB(void)
 439:C:\Workspaces\DAVE-4.1\Flightcontroller_PWM_CopterRocks_Working/Libraries/CMSIS/Include\cmsis_gcc.h **** {
 440:C:\Workspaces\DAVE-4.1\Flightcontroller_PWM_CopterRocks_Working/Libraries/CMSIS/Include\cmsis_gcc.h ****   __ASM volatile ("dmb 0xF":::"memory");
 441:C:\Workspaces\DAVE-4.1\Flightcontroller_PWM_CopterRocks_Working/Libraries/CMSIS/Include\cmsis_gcc.h **** }
 442:C:\Workspaces\DAVE-4.1\Flightcontroller_PWM_CopterRocks_Working/Libraries/CMSIS/Include\cmsis_gcc.h **** 
 443:C:\Workspaces\DAVE-4.1\Flightcontroller_PWM_CopterRocks_Working/Libraries/CMSIS/Include\cmsis_gcc.h **** 
 444:C:\Workspaces\DAVE-4.1\Flightcontroller_PWM_CopterRocks_Working/Libraries/CMSIS/Include\cmsis_gcc.h **** /**
 445:C:\Workspaces\DAVE-4.1\Flightcontroller_PWM_CopterRocks_Working/Libraries/CMSIS/Include\cmsis_gcc.h ****   \brief   Reverse byte order (32 bit)
 446:C:\Workspaces\DAVE-4.1\Flightcontroller_PWM_CopterRocks_Working/Libraries/CMSIS/Include\cmsis_gcc.h ****   \details Reverses the byte order in integer value.
 447:C:\Workspaces\DAVE-4.1\Flightcontroller_PWM_CopterRocks_Working/Libraries/CMSIS/Include\cmsis_gcc.h ****   \param [in]    value  Value to reverse
 448:C:\Workspaces\DAVE-4.1\Flightcontroller_PWM_CopterRocks_Working/Libraries/CMSIS/Include\cmsis_gcc.h ****   \return               Reversed value
 449:C:\Workspaces\DAVE-4.1\Flightcontroller_PWM_CopterRocks_Working/Libraries/CMSIS/Include\cmsis_gcc.h ****  */
 450:C:\Workspaces\DAVE-4.1\Flightcontroller_PWM_CopterRocks_Working/Libraries/CMSIS/Include\cmsis_gcc.h **** __attribute__((always_inline)) __STATIC_INLINE uint32_t __REV(uint32_t value)
 451:C:\Workspaces\DAVE-4.1\Flightcontroller_PWM_CopterRocks_Working/Libraries/CMSIS/Include\cmsis_gcc.h **** {
 452:C:\Workspaces\DAVE-4.1\Flightcontroller_PWM_CopterRocks_Working/Libraries/CMSIS/Include\cmsis_gcc.h **** #if (__GNUC__ > 4) || (__GNUC__ == 4 && __GNUC_MINOR__ >= 5)
 453:C:\Workspaces\DAVE-4.1\Flightcontroller_PWM_CopterRocks_Working/Libraries/CMSIS/Include\cmsis_gcc.h ****   return __builtin_bswap32(value);
 454:C:\Workspaces\DAVE-4.1\Flightcontroller_PWM_CopterRocks_Working/Libraries/CMSIS/Include\cmsis_gcc.h **** #else
 455:C:\Workspaces\DAVE-4.1\Flightcontroller_PWM_CopterRocks_Working/Libraries/CMSIS/Include\cmsis_gcc.h ****   uint32_t result;
 456:C:\Workspaces\DAVE-4.1\Flightcontroller_PWM_CopterRocks_Working/Libraries/CMSIS/Include\cmsis_gcc.h **** 
 457:C:\Workspaces\DAVE-4.1\Flightcontroller_PWM_CopterRocks_Working/Libraries/CMSIS/Include\cmsis_gcc.h ****   __ASM volatile ("rev %0, %1" : __CMSIS_GCC_OUT_REG (result) : __CMSIS_GCC_USE_REG (value) );
 458:C:\Workspaces\DAVE-4.1\Flightcontroller_PWM_CopterRocks_Working/Libraries/CMSIS/Include\cmsis_gcc.h ****   return(result);
 459:C:\Workspaces\DAVE-4.1\Flightcontroller_PWM_CopterRocks_Working/Libraries/CMSIS/Include\cmsis_gcc.h **** #endif
 460:C:\Workspaces\DAVE-4.1\Flightcontroller_PWM_CopterRocks_Working/Libraries/CMSIS/Include\cmsis_gcc.h **** }
 461:C:\Workspaces\DAVE-4.1\Flightcontroller_PWM_CopterRocks_Working/Libraries/CMSIS/Include\cmsis_gcc.h **** 
 462:C:\Workspaces\DAVE-4.1\Flightcontroller_PWM_CopterRocks_Working/Libraries/CMSIS/Include\cmsis_gcc.h **** 
 463:C:\Workspaces\DAVE-4.1\Flightcontroller_PWM_CopterRocks_Working/Libraries/CMSIS/Include\cmsis_gcc.h **** /**
 464:C:\Workspaces\DAVE-4.1\Flightcontroller_PWM_CopterRocks_Working/Libraries/CMSIS/Include\cmsis_gcc.h ****   \brief   Reverse byte order (16 bit)
 465:C:\Workspaces\DAVE-4.1\Flightcontroller_PWM_CopterRocks_Working/Libraries/CMSIS/Include\cmsis_gcc.h ****   \details Reverses the byte order in two unsigned short values.
 466:C:\Workspaces\DAVE-4.1\Flightcontroller_PWM_CopterRocks_Working/Libraries/CMSIS/Include\cmsis_gcc.h ****   \param [in]    value  Value to reverse
 467:C:\Workspaces\DAVE-4.1\Flightcontroller_PWM_CopterRocks_Working/Libraries/CMSIS/Include\cmsis_gcc.h ****   \return               Reversed value
 468:C:\Workspaces\DAVE-4.1\Flightcontroller_PWM_CopterRocks_Working/Libraries/CMSIS/Include\cmsis_gcc.h ****  */
 469:C:\Workspaces\DAVE-4.1\Flightcontroller_PWM_CopterRocks_Working/Libraries/CMSIS/Include\cmsis_gcc.h **** __attribute__((always_inline)) __STATIC_INLINE uint32_t __REV16(uint32_t value)
 470:C:\Workspaces\DAVE-4.1\Flightcontroller_PWM_CopterRocks_Working/Libraries/CMSIS/Include\cmsis_gcc.h **** {
 471:C:\Workspaces\DAVE-4.1\Flightcontroller_PWM_CopterRocks_Working/Libraries/CMSIS/Include\cmsis_gcc.h ****   uint32_t result;
 472:C:\Workspaces\DAVE-4.1\Flightcontroller_PWM_CopterRocks_Working/Libraries/CMSIS/Include\cmsis_gcc.h **** 
 473:C:\Workspaces\DAVE-4.1\Flightcontroller_PWM_CopterRocks_Working/Libraries/CMSIS/Include\cmsis_gcc.h ****   __ASM volatile ("rev16 %0, %1" : __CMSIS_GCC_OUT_REG (result) : __CMSIS_GCC_USE_REG (value) );
 474:C:\Workspaces\DAVE-4.1\Flightcontroller_PWM_CopterRocks_Working/Libraries/CMSIS/Include\cmsis_gcc.h ****   return(result);
 475:C:\Workspaces\DAVE-4.1\Flightcontroller_PWM_CopterRocks_Working/Libraries/CMSIS/Include\cmsis_gcc.h **** }
 476:C:\Workspaces\DAVE-4.1\Flightcontroller_PWM_CopterRocks_Working/Libraries/CMSIS/Include\cmsis_gcc.h **** 
 477:C:\Workspaces\DAVE-4.1\Flightcontroller_PWM_CopterRocks_Working/Libraries/CMSIS/Include\cmsis_gcc.h **** 
 478:C:\Workspaces\DAVE-4.1\Flightcontroller_PWM_CopterRocks_Working/Libraries/CMSIS/Include\cmsis_gcc.h **** /**
 479:C:\Workspaces\DAVE-4.1\Flightcontroller_PWM_CopterRocks_Working/Libraries/CMSIS/Include\cmsis_gcc.h ****   \brief   Reverse byte order in signed short value
 480:C:\Workspaces\DAVE-4.1\Flightcontroller_PWM_CopterRocks_Working/Libraries/CMSIS/Include\cmsis_gcc.h ****   \details Reverses the byte order in a signed short value with sign extension to integer.
 481:C:\Workspaces\DAVE-4.1\Flightcontroller_PWM_CopterRocks_Working/Libraries/CMSIS/Include\cmsis_gcc.h ****   \param [in]    value  Value to reverse
 482:C:\Workspaces\DAVE-4.1\Flightcontroller_PWM_CopterRocks_Working/Libraries/CMSIS/Include\cmsis_gcc.h ****   \return               Reversed value
 483:C:\Workspaces\DAVE-4.1\Flightcontroller_PWM_CopterRocks_Working/Libraries/CMSIS/Include\cmsis_gcc.h ****  */
 484:C:\Workspaces\DAVE-4.1\Flightcontroller_PWM_CopterRocks_Working/Libraries/CMSIS/Include\cmsis_gcc.h **** __attribute__((always_inline)) __STATIC_INLINE int32_t __REVSH(int32_t value)
 485:C:\Workspaces\DAVE-4.1\Flightcontroller_PWM_CopterRocks_Working/Libraries/CMSIS/Include\cmsis_gcc.h **** {
 486:C:\Workspaces\DAVE-4.1\Flightcontroller_PWM_CopterRocks_Working/Libraries/CMSIS/Include\cmsis_gcc.h **** #if (__GNUC__ > 4) || (__GNUC__ == 4 && __GNUC_MINOR__ >= 8)
 487:C:\Workspaces\DAVE-4.1\Flightcontroller_PWM_CopterRocks_Working/Libraries/CMSIS/Include\cmsis_gcc.h ****   return (short)__builtin_bswap16(value);
 488:C:\Workspaces\DAVE-4.1\Flightcontroller_PWM_CopterRocks_Working/Libraries/CMSIS/Include\cmsis_gcc.h **** #else
 489:C:\Workspaces\DAVE-4.1\Flightcontroller_PWM_CopterRocks_Working/Libraries/CMSIS/Include\cmsis_gcc.h ****   int32_t result;
 490:C:\Workspaces\DAVE-4.1\Flightcontroller_PWM_CopterRocks_Working/Libraries/CMSIS/Include\cmsis_gcc.h **** 
 491:C:\Workspaces\DAVE-4.1\Flightcontroller_PWM_CopterRocks_Working/Libraries/CMSIS/Include\cmsis_gcc.h ****   __ASM volatile ("revsh %0, %1" : __CMSIS_GCC_OUT_REG (result) : __CMSIS_GCC_USE_REG (value) );
 492:C:\Workspaces\DAVE-4.1\Flightcontroller_PWM_CopterRocks_Working/Libraries/CMSIS/Include\cmsis_gcc.h ****   return(result);
 493:C:\Workspaces\DAVE-4.1\Flightcontroller_PWM_CopterRocks_Working/Libraries/CMSIS/Include\cmsis_gcc.h **** #endif
 494:C:\Workspaces\DAVE-4.1\Flightcontroller_PWM_CopterRocks_Working/Libraries/CMSIS/Include\cmsis_gcc.h **** }
 495:C:\Workspaces\DAVE-4.1\Flightcontroller_PWM_CopterRocks_Working/Libraries/CMSIS/Include\cmsis_gcc.h **** 
 496:C:\Workspaces\DAVE-4.1\Flightcontroller_PWM_CopterRocks_Working/Libraries/CMSIS/Include\cmsis_gcc.h **** 
 497:C:\Workspaces\DAVE-4.1\Flightcontroller_PWM_CopterRocks_Working/Libraries/CMSIS/Include\cmsis_gcc.h **** /**
 498:C:\Workspaces\DAVE-4.1\Flightcontroller_PWM_CopterRocks_Working/Libraries/CMSIS/Include\cmsis_gcc.h ****   \brief   Rotate Right in unsigned value (32 bit)
 499:C:\Workspaces\DAVE-4.1\Flightcontroller_PWM_CopterRocks_Working/Libraries/CMSIS/Include\cmsis_gcc.h ****   \details Rotate Right (immediate) provides the value of the contents of a register rotated by a v
 500:C:\Workspaces\DAVE-4.1\Flightcontroller_PWM_CopterRocks_Working/Libraries/CMSIS/Include\cmsis_gcc.h ****   \param [in]    value  Value to rotate
 501:C:\Workspaces\DAVE-4.1\Flightcontroller_PWM_CopterRocks_Working/Libraries/CMSIS/Include\cmsis_gcc.h ****   \param [in]    value  Number of Bits to rotate
 502:C:\Workspaces\DAVE-4.1\Flightcontroller_PWM_CopterRocks_Working/Libraries/CMSIS/Include\cmsis_gcc.h ****   \return               Rotated value
 503:C:\Workspaces\DAVE-4.1\Flightcontroller_PWM_CopterRocks_Working/Libraries/CMSIS/Include\cmsis_gcc.h ****  */
 504:C:\Workspaces\DAVE-4.1\Flightcontroller_PWM_CopterRocks_Working/Libraries/CMSIS/Include\cmsis_gcc.h **** __attribute__((always_inline)) __STATIC_INLINE uint32_t __ROR(uint32_t op1, uint32_t op2)
 505:C:\Workspaces\DAVE-4.1\Flightcontroller_PWM_CopterRocks_Working/Libraries/CMSIS/Include\cmsis_gcc.h **** {
 506:C:\Workspaces\DAVE-4.1\Flightcontroller_PWM_CopterRocks_Working/Libraries/CMSIS/Include\cmsis_gcc.h ****   return (op1 >> op2) | (op1 << (32U - op2));
 507:C:\Workspaces\DAVE-4.1\Flightcontroller_PWM_CopterRocks_Working/Libraries/CMSIS/Include\cmsis_gcc.h **** }
 508:C:\Workspaces\DAVE-4.1\Flightcontroller_PWM_CopterRocks_Working/Libraries/CMSIS/Include\cmsis_gcc.h **** 
 509:C:\Workspaces\DAVE-4.1\Flightcontroller_PWM_CopterRocks_Working/Libraries/CMSIS/Include\cmsis_gcc.h **** 
 510:C:\Workspaces\DAVE-4.1\Flightcontroller_PWM_CopterRocks_Working/Libraries/CMSIS/Include\cmsis_gcc.h **** /**
 511:C:\Workspaces\DAVE-4.1\Flightcontroller_PWM_CopterRocks_Working/Libraries/CMSIS/Include\cmsis_gcc.h ****   \brief   Breakpoint
 512:C:\Workspaces\DAVE-4.1\Flightcontroller_PWM_CopterRocks_Working/Libraries/CMSIS/Include\cmsis_gcc.h ****   \details Causes the processor to enter Debug state.
 513:C:\Workspaces\DAVE-4.1\Flightcontroller_PWM_CopterRocks_Working/Libraries/CMSIS/Include\cmsis_gcc.h ****            Debug tools can use this to investigate system state when the instruction at a particula
 514:C:\Workspaces\DAVE-4.1\Flightcontroller_PWM_CopterRocks_Working/Libraries/CMSIS/Include\cmsis_gcc.h ****   \param [in]    value  is ignored by the processor.
 515:C:\Workspaces\DAVE-4.1\Flightcontroller_PWM_CopterRocks_Working/Libraries/CMSIS/Include\cmsis_gcc.h ****                  If required, a debugger can use it to store additional information about the break
 516:C:\Workspaces\DAVE-4.1\Flightcontroller_PWM_CopterRocks_Working/Libraries/CMSIS/Include\cmsis_gcc.h ****  */
 517:C:\Workspaces\DAVE-4.1\Flightcontroller_PWM_CopterRocks_Working/Libraries/CMSIS/Include\cmsis_gcc.h **** #define __BKPT(value)                       __ASM volatile ("bkpt "#value)
 518:C:\Workspaces\DAVE-4.1\Flightcontroller_PWM_CopterRocks_Working/Libraries/CMSIS/Include\cmsis_gcc.h **** 
 519:C:\Workspaces\DAVE-4.1\Flightcontroller_PWM_CopterRocks_Working/Libraries/CMSIS/Include\cmsis_gcc.h **** 
 520:C:\Workspaces\DAVE-4.1\Flightcontroller_PWM_CopterRocks_Working/Libraries/CMSIS/Include\cmsis_gcc.h **** /**
 521:C:\Workspaces\DAVE-4.1\Flightcontroller_PWM_CopterRocks_Working/Libraries/CMSIS/Include\cmsis_gcc.h ****   \brief   Reverse bit order of value
 522:C:\Workspaces\DAVE-4.1\Flightcontroller_PWM_CopterRocks_Working/Libraries/CMSIS/Include\cmsis_gcc.h ****   \details Reverses the bit order of the given value.
 523:C:\Workspaces\DAVE-4.1\Flightcontroller_PWM_CopterRocks_Working/Libraries/CMSIS/Include\cmsis_gcc.h ****   \param [in]    value  Value to reverse
 524:C:\Workspaces\DAVE-4.1\Flightcontroller_PWM_CopterRocks_Working/Libraries/CMSIS/Include\cmsis_gcc.h ****   \return               Reversed value
 525:C:\Workspaces\DAVE-4.1\Flightcontroller_PWM_CopterRocks_Working/Libraries/CMSIS/Include\cmsis_gcc.h ****  */
 526:C:\Workspaces\DAVE-4.1\Flightcontroller_PWM_CopterRocks_Working/Libraries/CMSIS/Include\cmsis_gcc.h **** __attribute__((always_inline)) __STATIC_INLINE uint32_t __RBIT(uint32_t value)
 527:C:\Workspaces\DAVE-4.1\Flightcontroller_PWM_CopterRocks_Working/Libraries/CMSIS/Include\cmsis_gcc.h **** {
 528:C:\Workspaces\DAVE-4.1\Flightcontroller_PWM_CopterRocks_Working/Libraries/CMSIS/Include\cmsis_gcc.h ****   uint32_t result;
 529:C:\Workspaces\DAVE-4.1\Flightcontroller_PWM_CopterRocks_Working/Libraries/CMSIS/Include\cmsis_gcc.h **** 
 530:C:\Workspaces\DAVE-4.1\Flightcontroller_PWM_CopterRocks_Working/Libraries/CMSIS/Include\cmsis_gcc.h **** #if       (__CORTEX_M >= 0x03U) || (__CORTEX_SC >= 300U)
 531:C:\Workspaces\DAVE-4.1\Flightcontroller_PWM_CopterRocks_Working/Libraries/CMSIS/Include\cmsis_gcc.h ****    __ASM volatile ("rbit %0, %1" : "=r" (result) : "r" (value) );
 532:C:\Workspaces\DAVE-4.1\Flightcontroller_PWM_CopterRocks_Working/Libraries/CMSIS/Include\cmsis_gcc.h **** #else
 533:C:\Workspaces\DAVE-4.1\Flightcontroller_PWM_CopterRocks_Working/Libraries/CMSIS/Include\cmsis_gcc.h ****   int32_t s = 4 /*sizeof(v)*/ * 8 - 1; /* extra shift needed at end */
 534:C:\Workspaces\DAVE-4.1\Flightcontroller_PWM_CopterRocks_Working/Libraries/CMSIS/Include\cmsis_gcc.h **** 
 535:C:\Workspaces\DAVE-4.1\Flightcontroller_PWM_CopterRocks_Working/Libraries/CMSIS/Include\cmsis_gcc.h ****   result = value;                      /* r will be reversed bits of v; first get LSB of v */
 536:C:\Workspaces\DAVE-4.1\Flightcontroller_PWM_CopterRocks_Working/Libraries/CMSIS/Include\cmsis_gcc.h ****   for (value >>= 1U; value; value >>= 1U)
 537:C:\Workspaces\DAVE-4.1\Flightcontroller_PWM_CopterRocks_Working/Libraries/CMSIS/Include\cmsis_gcc.h ****   {
 538:C:\Workspaces\DAVE-4.1\Flightcontroller_PWM_CopterRocks_Working/Libraries/CMSIS/Include\cmsis_gcc.h ****     result <<= 1U;
 539:C:\Workspaces\DAVE-4.1\Flightcontroller_PWM_CopterRocks_Working/Libraries/CMSIS/Include\cmsis_gcc.h ****     result |= value & 1U;
 540:C:\Workspaces\DAVE-4.1\Flightcontroller_PWM_CopterRocks_Working/Libraries/CMSIS/Include\cmsis_gcc.h ****     s--;
 541:C:\Workspaces\DAVE-4.1\Flightcontroller_PWM_CopterRocks_Working/Libraries/CMSIS/Include\cmsis_gcc.h ****   }
 542:C:\Workspaces\DAVE-4.1\Flightcontroller_PWM_CopterRocks_Working/Libraries/CMSIS/Include\cmsis_gcc.h ****   result <<= s;                        /* shift when v's highest bits are zero */
 543:C:\Workspaces\DAVE-4.1\Flightcontroller_PWM_CopterRocks_Working/Libraries/CMSIS/Include\cmsis_gcc.h **** #endif
 544:C:\Workspaces\DAVE-4.1\Flightcontroller_PWM_CopterRocks_Working/Libraries/CMSIS/Include\cmsis_gcc.h ****   return(result);
 545:C:\Workspaces\DAVE-4.1\Flightcontroller_PWM_CopterRocks_Working/Libraries/CMSIS/Include\cmsis_gcc.h **** }
 546:C:\Workspaces\DAVE-4.1\Flightcontroller_PWM_CopterRocks_Working/Libraries/CMSIS/Include\cmsis_gcc.h **** 
 547:C:\Workspaces\DAVE-4.1\Flightcontroller_PWM_CopterRocks_Working/Libraries/CMSIS/Include\cmsis_gcc.h **** 
 548:C:\Workspaces\DAVE-4.1\Flightcontroller_PWM_CopterRocks_Working/Libraries/CMSIS/Include\cmsis_gcc.h **** /**
 549:C:\Workspaces\DAVE-4.1\Flightcontroller_PWM_CopterRocks_Working/Libraries/CMSIS/Include\cmsis_gcc.h ****   \brief   Count leading zeros
 550:C:\Workspaces\DAVE-4.1\Flightcontroller_PWM_CopterRocks_Working/Libraries/CMSIS/Include\cmsis_gcc.h ****   \details Counts the number of leading zeros of a data value.
 551:C:\Workspaces\DAVE-4.1\Flightcontroller_PWM_CopterRocks_Working/Libraries/CMSIS/Include\cmsis_gcc.h ****   \param [in]  value  Value to count the leading zeros
 552:C:\Workspaces\DAVE-4.1\Flightcontroller_PWM_CopterRocks_Working/Libraries/CMSIS/Include\cmsis_gcc.h ****   \return             number of leading zeros in value
 553:C:\Workspaces\DAVE-4.1\Flightcontroller_PWM_CopterRocks_Working/Libraries/CMSIS/Include\cmsis_gcc.h ****  */
 554:C:\Workspaces\DAVE-4.1\Flightcontroller_PWM_CopterRocks_Working/Libraries/CMSIS/Include\cmsis_gcc.h **** #define __CLZ             __builtin_clz
 555:C:\Workspaces\DAVE-4.1\Flightcontroller_PWM_CopterRocks_Working/Libraries/CMSIS/Include\cmsis_gcc.h **** 
 556:C:\Workspaces\DAVE-4.1\Flightcontroller_PWM_CopterRocks_Working/Libraries/CMSIS/Include\cmsis_gcc.h **** 
 557:C:\Workspaces\DAVE-4.1\Flightcontroller_PWM_CopterRocks_Working/Libraries/CMSIS/Include\cmsis_gcc.h **** #if       (__CORTEX_M >= 0x03U) || (__CORTEX_SC >= 300U)
 558:C:\Workspaces\DAVE-4.1\Flightcontroller_PWM_CopterRocks_Working/Libraries/CMSIS/Include\cmsis_gcc.h **** 
 559:C:\Workspaces\DAVE-4.1\Flightcontroller_PWM_CopterRocks_Working/Libraries/CMSIS/Include\cmsis_gcc.h **** /**
 560:C:\Workspaces\DAVE-4.1\Flightcontroller_PWM_CopterRocks_Working/Libraries/CMSIS/Include\cmsis_gcc.h ****   \brief   LDR Exclusive (8 bit)
 561:C:\Workspaces\DAVE-4.1\Flightcontroller_PWM_CopterRocks_Working/Libraries/CMSIS/Include\cmsis_gcc.h ****   \details Executes a exclusive LDR instruction for 8 bit value.
 562:C:\Workspaces\DAVE-4.1\Flightcontroller_PWM_CopterRocks_Working/Libraries/CMSIS/Include\cmsis_gcc.h ****   \param [in]    ptr  Pointer to data
 563:C:\Workspaces\DAVE-4.1\Flightcontroller_PWM_CopterRocks_Working/Libraries/CMSIS/Include\cmsis_gcc.h ****   \return             value of type uint8_t at (*ptr)
 564:C:\Workspaces\DAVE-4.1\Flightcontroller_PWM_CopterRocks_Working/Libraries/CMSIS/Include\cmsis_gcc.h ****  */
 565:C:\Workspaces\DAVE-4.1\Flightcontroller_PWM_CopterRocks_Working/Libraries/CMSIS/Include\cmsis_gcc.h **** __attribute__((always_inline)) __STATIC_INLINE uint8_t __LDREXB(volatile uint8_t *addr)
 566:C:\Workspaces\DAVE-4.1\Flightcontroller_PWM_CopterRocks_Working/Libraries/CMSIS/Include\cmsis_gcc.h **** {
 567:C:\Workspaces\DAVE-4.1\Flightcontroller_PWM_CopterRocks_Working/Libraries/CMSIS/Include\cmsis_gcc.h ****     uint32_t result;
 568:C:\Workspaces\DAVE-4.1\Flightcontroller_PWM_CopterRocks_Working/Libraries/CMSIS/Include\cmsis_gcc.h **** 
 569:C:\Workspaces\DAVE-4.1\Flightcontroller_PWM_CopterRocks_Working/Libraries/CMSIS/Include\cmsis_gcc.h **** #if (__GNUC__ > 4) || (__GNUC__ == 4 && __GNUC_MINOR__ >= 8)
 570:C:\Workspaces\DAVE-4.1\Flightcontroller_PWM_CopterRocks_Working/Libraries/CMSIS/Include\cmsis_gcc.h ****    __ASM volatile ("ldrexb %0, %1" : "=r" (result) : "Q" (*addr) );
 571:C:\Workspaces\DAVE-4.1\Flightcontroller_PWM_CopterRocks_Working/Libraries/CMSIS/Include\cmsis_gcc.h **** #else
 572:C:\Workspaces\DAVE-4.1\Flightcontroller_PWM_CopterRocks_Working/Libraries/CMSIS/Include\cmsis_gcc.h ****     /* Prior to GCC 4.8, "Q" will be expanded to [rx, #0] which is not
 573:C:\Workspaces\DAVE-4.1\Flightcontroller_PWM_CopterRocks_Working/Libraries/CMSIS/Include\cmsis_gcc.h ****        accepted by assembler. So has to use following less efficient pattern.
 574:C:\Workspaces\DAVE-4.1\Flightcontroller_PWM_CopterRocks_Working/Libraries/CMSIS/Include\cmsis_gcc.h ****     */
 575:C:\Workspaces\DAVE-4.1\Flightcontroller_PWM_CopterRocks_Working/Libraries/CMSIS/Include\cmsis_gcc.h ****    __ASM volatile ("ldrexb %0, [%1]" : "=r" (result) : "r" (addr) : "memory" );
 576:C:\Workspaces\DAVE-4.1\Flightcontroller_PWM_CopterRocks_Working/Libraries/CMSIS/Include\cmsis_gcc.h **** #endif
 577:C:\Workspaces\DAVE-4.1\Flightcontroller_PWM_CopterRocks_Working/Libraries/CMSIS/Include\cmsis_gcc.h ****    return ((uint8_t) result);    /* Add explicit type cast here */
 578:C:\Workspaces\DAVE-4.1\Flightcontroller_PWM_CopterRocks_Working/Libraries/CMSIS/Include\cmsis_gcc.h **** }
 579:C:\Workspaces\DAVE-4.1\Flightcontroller_PWM_CopterRocks_Working/Libraries/CMSIS/Include\cmsis_gcc.h **** 
 580:C:\Workspaces\DAVE-4.1\Flightcontroller_PWM_CopterRocks_Working/Libraries/CMSIS/Include\cmsis_gcc.h **** 
 581:C:\Workspaces\DAVE-4.1\Flightcontroller_PWM_CopterRocks_Working/Libraries/CMSIS/Include\cmsis_gcc.h **** /**
 582:C:\Workspaces\DAVE-4.1\Flightcontroller_PWM_CopterRocks_Working/Libraries/CMSIS/Include\cmsis_gcc.h ****   \brief   LDR Exclusive (16 bit)
 583:C:\Workspaces\DAVE-4.1\Flightcontroller_PWM_CopterRocks_Working/Libraries/CMSIS/Include\cmsis_gcc.h ****   \details Executes a exclusive LDR instruction for 16 bit values.
 584:C:\Workspaces\DAVE-4.1\Flightcontroller_PWM_CopterRocks_Working/Libraries/CMSIS/Include\cmsis_gcc.h ****   \param [in]    ptr  Pointer to data
 585:C:\Workspaces\DAVE-4.1\Flightcontroller_PWM_CopterRocks_Working/Libraries/CMSIS/Include\cmsis_gcc.h ****   \return        value of type uint16_t at (*ptr)
 586:C:\Workspaces\DAVE-4.1\Flightcontroller_PWM_CopterRocks_Working/Libraries/CMSIS/Include\cmsis_gcc.h ****  */
 587:C:\Workspaces\DAVE-4.1\Flightcontroller_PWM_CopterRocks_Working/Libraries/CMSIS/Include\cmsis_gcc.h **** __attribute__((always_inline)) __STATIC_INLINE uint16_t __LDREXH(volatile uint16_t *addr)
 588:C:\Workspaces\DAVE-4.1\Flightcontroller_PWM_CopterRocks_Working/Libraries/CMSIS/Include\cmsis_gcc.h **** {
 589:C:\Workspaces\DAVE-4.1\Flightcontroller_PWM_CopterRocks_Working/Libraries/CMSIS/Include\cmsis_gcc.h ****     uint32_t result;
 590:C:\Workspaces\DAVE-4.1\Flightcontroller_PWM_CopterRocks_Working/Libraries/CMSIS/Include\cmsis_gcc.h **** 
 591:C:\Workspaces\DAVE-4.1\Flightcontroller_PWM_CopterRocks_Working/Libraries/CMSIS/Include\cmsis_gcc.h **** #if (__GNUC__ > 4) || (__GNUC__ == 4 && __GNUC_MINOR__ >= 8)
 592:C:\Workspaces\DAVE-4.1\Flightcontroller_PWM_CopterRocks_Working/Libraries/CMSIS/Include\cmsis_gcc.h ****    __ASM volatile ("ldrexh %0, %1" : "=r" (result) : "Q" (*addr) );
 593:C:\Workspaces\DAVE-4.1\Flightcontroller_PWM_CopterRocks_Working/Libraries/CMSIS/Include\cmsis_gcc.h **** #else
 594:C:\Workspaces\DAVE-4.1\Flightcontroller_PWM_CopterRocks_Working/Libraries/CMSIS/Include\cmsis_gcc.h ****     /* Prior to GCC 4.8, "Q" will be expanded to [rx, #0] which is not
 595:C:\Workspaces\DAVE-4.1\Flightcontroller_PWM_CopterRocks_Working/Libraries/CMSIS/Include\cmsis_gcc.h ****        accepted by assembler. So has to use following less efficient pattern.
 596:C:\Workspaces\DAVE-4.1\Flightcontroller_PWM_CopterRocks_Working/Libraries/CMSIS/Include\cmsis_gcc.h ****     */
 597:C:\Workspaces\DAVE-4.1\Flightcontroller_PWM_CopterRocks_Working/Libraries/CMSIS/Include\cmsis_gcc.h ****    __ASM volatile ("ldrexh %0, [%1]" : "=r" (result) : "r" (addr) : "memory" );
 598:C:\Workspaces\DAVE-4.1\Flightcontroller_PWM_CopterRocks_Working/Libraries/CMSIS/Include\cmsis_gcc.h **** #endif
 599:C:\Workspaces\DAVE-4.1\Flightcontroller_PWM_CopterRocks_Working/Libraries/CMSIS/Include\cmsis_gcc.h ****    return ((uint16_t) result);    /* Add explicit type cast here */
 600:C:\Workspaces\DAVE-4.1\Flightcontroller_PWM_CopterRocks_Working/Libraries/CMSIS/Include\cmsis_gcc.h **** }
 601:C:\Workspaces\DAVE-4.1\Flightcontroller_PWM_CopterRocks_Working/Libraries/CMSIS/Include\cmsis_gcc.h **** 
 602:C:\Workspaces\DAVE-4.1\Flightcontroller_PWM_CopterRocks_Working/Libraries/CMSIS/Include\cmsis_gcc.h **** 
 603:C:\Workspaces\DAVE-4.1\Flightcontroller_PWM_CopterRocks_Working/Libraries/CMSIS/Include\cmsis_gcc.h **** /**
 604:C:\Workspaces\DAVE-4.1\Flightcontroller_PWM_CopterRocks_Working/Libraries/CMSIS/Include\cmsis_gcc.h ****   \brief   LDR Exclusive (32 bit)
 605:C:\Workspaces\DAVE-4.1\Flightcontroller_PWM_CopterRocks_Working/Libraries/CMSIS/Include\cmsis_gcc.h ****   \details Executes a exclusive LDR instruction for 32 bit values.
 606:C:\Workspaces\DAVE-4.1\Flightcontroller_PWM_CopterRocks_Working/Libraries/CMSIS/Include\cmsis_gcc.h ****   \param [in]    ptr  Pointer to data
 607:C:\Workspaces\DAVE-4.1\Flightcontroller_PWM_CopterRocks_Working/Libraries/CMSIS/Include\cmsis_gcc.h ****   \return        value of type uint32_t at (*ptr)
 608:C:\Workspaces\DAVE-4.1\Flightcontroller_PWM_CopterRocks_Working/Libraries/CMSIS/Include\cmsis_gcc.h ****  */
 609:C:\Workspaces\DAVE-4.1\Flightcontroller_PWM_CopterRocks_Working/Libraries/CMSIS/Include\cmsis_gcc.h **** __attribute__((always_inline)) __STATIC_INLINE uint32_t __LDREXW(volatile uint32_t *addr)
 610:C:\Workspaces\DAVE-4.1\Flightcontroller_PWM_CopterRocks_Working/Libraries/CMSIS/Include\cmsis_gcc.h **** {
 611:C:\Workspaces\DAVE-4.1\Flightcontroller_PWM_CopterRocks_Working/Libraries/CMSIS/Include\cmsis_gcc.h ****     uint32_t result;
 612:C:\Workspaces\DAVE-4.1\Flightcontroller_PWM_CopterRocks_Working/Libraries/CMSIS/Include\cmsis_gcc.h **** 
 613:C:\Workspaces\DAVE-4.1\Flightcontroller_PWM_CopterRocks_Working/Libraries/CMSIS/Include\cmsis_gcc.h ****    __ASM volatile ("ldrex %0, %1" : "=r" (result) : "Q" (*addr) );
 614:C:\Workspaces\DAVE-4.1\Flightcontroller_PWM_CopterRocks_Working/Libraries/CMSIS/Include\cmsis_gcc.h ****    return(result);
 615:C:\Workspaces\DAVE-4.1\Flightcontroller_PWM_CopterRocks_Working/Libraries/CMSIS/Include\cmsis_gcc.h **** }
 616:C:\Workspaces\DAVE-4.1\Flightcontroller_PWM_CopterRocks_Working/Libraries/CMSIS/Include\cmsis_gcc.h **** 
 617:C:\Workspaces\DAVE-4.1\Flightcontroller_PWM_CopterRocks_Working/Libraries/CMSIS/Include\cmsis_gcc.h **** 
 618:C:\Workspaces\DAVE-4.1\Flightcontroller_PWM_CopterRocks_Working/Libraries/CMSIS/Include\cmsis_gcc.h **** /**
 619:C:\Workspaces\DAVE-4.1\Flightcontroller_PWM_CopterRocks_Working/Libraries/CMSIS/Include\cmsis_gcc.h ****   \brief   STR Exclusive (8 bit)
 620:C:\Workspaces\DAVE-4.1\Flightcontroller_PWM_CopterRocks_Working/Libraries/CMSIS/Include\cmsis_gcc.h ****   \details Executes a exclusive STR instruction for 8 bit values.
 621:C:\Workspaces\DAVE-4.1\Flightcontroller_PWM_CopterRocks_Working/Libraries/CMSIS/Include\cmsis_gcc.h ****   \param [in]  value  Value to store
 622:C:\Workspaces\DAVE-4.1\Flightcontroller_PWM_CopterRocks_Working/Libraries/CMSIS/Include\cmsis_gcc.h ****   \param [in]    ptr  Pointer to location
 623:C:\Workspaces\DAVE-4.1\Flightcontroller_PWM_CopterRocks_Working/Libraries/CMSIS/Include\cmsis_gcc.h ****   \return          0  Function succeeded
 624:C:\Workspaces\DAVE-4.1\Flightcontroller_PWM_CopterRocks_Working/Libraries/CMSIS/Include\cmsis_gcc.h ****   \return          1  Function failed
 625:C:\Workspaces\DAVE-4.1\Flightcontroller_PWM_CopterRocks_Working/Libraries/CMSIS/Include\cmsis_gcc.h ****  */
 626:C:\Workspaces\DAVE-4.1\Flightcontroller_PWM_CopterRocks_Working/Libraries/CMSIS/Include\cmsis_gcc.h **** __attribute__((always_inline)) __STATIC_INLINE uint32_t __STREXB(uint8_t value, volatile uint8_t *a
 627:C:\Workspaces\DAVE-4.1\Flightcontroller_PWM_CopterRocks_Working/Libraries/CMSIS/Include\cmsis_gcc.h **** {
 628:C:\Workspaces\DAVE-4.1\Flightcontroller_PWM_CopterRocks_Working/Libraries/CMSIS/Include\cmsis_gcc.h ****    uint32_t result;
 629:C:\Workspaces\DAVE-4.1\Flightcontroller_PWM_CopterRocks_Working/Libraries/CMSIS/Include\cmsis_gcc.h **** 
 630:C:\Workspaces\DAVE-4.1\Flightcontroller_PWM_CopterRocks_Working/Libraries/CMSIS/Include\cmsis_gcc.h ****    __ASM volatile ("strexb %0, %2, %1" : "=&r" (result), "=Q" (*addr) : "r" ((uint32_t)value) );
 631:C:\Workspaces\DAVE-4.1\Flightcontroller_PWM_CopterRocks_Working/Libraries/CMSIS/Include\cmsis_gcc.h ****    return(result);
 632:C:\Workspaces\DAVE-4.1\Flightcontroller_PWM_CopterRocks_Working/Libraries/CMSIS/Include\cmsis_gcc.h **** }
 633:C:\Workspaces\DAVE-4.1\Flightcontroller_PWM_CopterRocks_Working/Libraries/CMSIS/Include\cmsis_gcc.h **** 
 634:C:\Workspaces\DAVE-4.1\Flightcontroller_PWM_CopterRocks_Working/Libraries/CMSIS/Include\cmsis_gcc.h **** 
 635:C:\Workspaces\DAVE-4.1\Flightcontroller_PWM_CopterRocks_Working/Libraries/CMSIS/Include\cmsis_gcc.h **** /**
 636:C:\Workspaces\DAVE-4.1\Flightcontroller_PWM_CopterRocks_Working/Libraries/CMSIS/Include\cmsis_gcc.h ****   \brief   STR Exclusive (16 bit)
 637:C:\Workspaces\DAVE-4.1\Flightcontroller_PWM_CopterRocks_Working/Libraries/CMSIS/Include\cmsis_gcc.h ****   \details Executes a exclusive STR instruction for 16 bit values.
 638:C:\Workspaces\DAVE-4.1\Flightcontroller_PWM_CopterRocks_Working/Libraries/CMSIS/Include\cmsis_gcc.h ****   \param [in]  value  Value to store
 639:C:\Workspaces\DAVE-4.1\Flightcontroller_PWM_CopterRocks_Working/Libraries/CMSIS/Include\cmsis_gcc.h ****   \param [in]    ptr  Pointer to location
 640:C:\Workspaces\DAVE-4.1\Flightcontroller_PWM_CopterRocks_Working/Libraries/CMSIS/Include\cmsis_gcc.h ****   \return          0  Function succeeded
 641:C:\Workspaces\DAVE-4.1\Flightcontroller_PWM_CopterRocks_Working/Libraries/CMSIS/Include\cmsis_gcc.h ****   \return          1  Function failed
 642:C:\Workspaces\DAVE-4.1\Flightcontroller_PWM_CopterRocks_Working/Libraries/CMSIS/Include\cmsis_gcc.h ****  */
 643:C:\Workspaces\DAVE-4.1\Flightcontroller_PWM_CopterRocks_Working/Libraries/CMSIS/Include\cmsis_gcc.h **** __attribute__((always_inline)) __STATIC_INLINE uint32_t __STREXH(uint16_t value, volatile uint16_t 
 644:C:\Workspaces\DAVE-4.1\Flightcontroller_PWM_CopterRocks_Working/Libraries/CMSIS/Include\cmsis_gcc.h **** {
 645:C:\Workspaces\DAVE-4.1\Flightcontroller_PWM_CopterRocks_Working/Libraries/CMSIS/Include\cmsis_gcc.h ****    uint32_t result;
 646:C:\Workspaces\DAVE-4.1\Flightcontroller_PWM_CopterRocks_Working/Libraries/CMSIS/Include\cmsis_gcc.h **** 
 647:C:\Workspaces\DAVE-4.1\Flightcontroller_PWM_CopterRocks_Working/Libraries/CMSIS/Include\cmsis_gcc.h ****    __ASM volatile ("strexh %0, %2, %1" : "=&r" (result), "=Q" (*addr) : "r" ((uint32_t)value) );
 648:C:\Workspaces\DAVE-4.1\Flightcontroller_PWM_CopterRocks_Working/Libraries/CMSIS/Include\cmsis_gcc.h ****    return(result);
 649:C:\Workspaces\DAVE-4.1\Flightcontroller_PWM_CopterRocks_Working/Libraries/CMSIS/Include\cmsis_gcc.h **** }
 650:C:\Workspaces\DAVE-4.1\Flightcontroller_PWM_CopterRocks_Working/Libraries/CMSIS/Include\cmsis_gcc.h **** 
 651:C:\Workspaces\DAVE-4.1\Flightcontroller_PWM_CopterRocks_Working/Libraries/CMSIS/Include\cmsis_gcc.h **** 
 652:C:\Workspaces\DAVE-4.1\Flightcontroller_PWM_CopterRocks_Working/Libraries/CMSIS/Include\cmsis_gcc.h **** /**
 653:C:\Workspaces\DAVE-4.1\Flightcontroller_PWM_CopterRocks_Working/Libraries/CMSIS/Include\cmsis_gcc.h ****   \brief   STR Exclusive (32 bit)
 654:C:\Workspaces\DAVE-4.1\Flightcontroller_PWM_CopterRocks_Working/Libraries/CMSIS/Include\cmsis_gcc.h ****   \details Executes a exclusive STR instruction for 32 bit values.
 655:C:\Workspaces\DAVE-4.1\Flightcontroller_PWM_CopterRocks_Working/Libraries/CMSIS/Include\cmsis_gcc.h ****   \param [in]  value  Value to store
 656:C:\Workspaces\DAVE-4.1\Flightcontroller_PWM_CopterRocks_Working/Libraries/CMSIS/Include\cmsis_gcc.h ****   \param [in]    ptr  Pointer to location
 657:C:\Workspaces\DAVE-4.1\Flightcontroller_PWM_CopterRocks_Working/Libraries/CMSIS/Include\cmsis_gcc.h ****   \return          0  Function succeeded
 658:C:\Workspaces\DAVE-4.1\Flightcontroller_PWM_CopterRocks_Working/Libraries/CMSIS/Include\cmsis_gcc.h ****   \return          1  Function failed
 659:C:\Workspaces\DAVE-4.1\Flightcontroller_PWM_CopterRocks_Working/Libraries/CMSIS/Include\cmsis_gcc.h ****  */
 660:C:\Workspaces\DAVE-4.1\Flightcontroller_PWM_CopterRocks_Working/Libraries/CMSIS/Include\cmsis_gcc.h **** __attribute__((always_inline)) __STATIC_INLINE uint32_t __STREXW(uint32_t value, volatile uint32_t 
 661:C:\Workspaces\DAVE-4.1\Flightcontroller_PWM_CopterRocks_Working/Libraries/CMSIS/Include\cmsis_gcc.h **** {
 662:C:\Workspaces\DAVE-4.1\Flightcontroller_PWM_CopterRocks_Working/Libraries/CMSIS/Include\cmsis_gcc.h ****    uint32_t result;
 663:C:\Workspaces\DAVE-4.1\Flightcontroller_PWM_CopterRocks_Working/Libraries/CMSIS/Include\cmsis_gcc.h **** 
 664:C:\Workspaces\DAVE-4.1\Flightcontroller_PWM_CopterRocks_Working/Libraries/CMSIS/Include\cmsis_gcc.h ****    __ASM volatile ("strex %0, %2, %1" : "=&r" (result), "=Q" (*addr) : "r" (value) );
 665:C:\Workspaces\DAVE-4.1\Flightcontroller_PWM_CopterRocks_Working/Libraries/CMSIS/Include\cmsis_gcc.h ****    return(result);
 666:C:\Workspaces\DAVE-4.1\Flightcontroller_PWM_CopterRocks_Working/Libraries/CMSIS/Include\cmsis_gcc.h **** }
 667:C:\Workspaces\DAVE-4.1\Flightcontroller_PWM_CopterRocks_Working/Libraries/CMSIS/Include\cmsis_gcc.h **** 
 668:C:\Workspaces\DAVE-4.1\Flightcontroller_PWM_CopterRocks_Working/Libraries/CMSIS/Include\cmsis_gcc.h **** 
 669:C:\Workspaces\DAVE-4.1\Flightcontroller_PWM_CopterRocks_Working/Libraries/CMSIS/Include\cmsis_gcc.h **** /**
 670:C:\Workspaces\DAVE-4.1\Flightcontroller_PWM_CopterRocks_Working/Libraries/CMSIS/Include\cmsis_gcc.h ****   \brief   Remove the exclusive lock
 671:C:\Workspaces\DAVE-4.1\Flightcontroller_PWM_CopterRocks_Working/Libraries/CMSIS/Include\cmsis_gcc.h ****   \details Removes the exclusive lock which is created by LDREX.
 672:C:\Workspaces\DAVE-4.1\Flightcontroller_PWM_CopterRocks_Working/Libraries/CMSIS/Include\cmsis_gcc.h ****  */
 673:C:\Workspaces\DAVE-4.1\Flightcontroller_PWM_CopterRocks_Working/Libraries/CMSIS/Include\cmsis_gcc.h **** __attribute__((always_inline)) __STATIC_INLINE void __CLREX(void)
 674:C:\Workspaces\DAVE-4.1\Flightcontroller_PWM_CopterRocks_Working/Libraries/CMSIS/Include\cmsis_gcc.h **** {
 675:C:\Workspaces\DAVE-4.1\Flightcontroller_PWM_CopterRocks_Working/Libraries/CMSIS/Include\cmsis_gcc.h ****   __ASM volatile ("clrex" ::: "memory");
 676:C:\Workspaces\DAVE-4.1\Flightcontroller_PWM_CopterRocks_Working/Libraries/CMSIS/Include\cmsis_gcc.h **** }
 677:C:\Workspaces\DAVE-4.1\Flightcontroller_PWM_CopterRocks_Working/Libraries/CMSIS/Include\cmsis_gcc.h **** 
 678:C:\Workspaces\DAVE-4.1\Flightcontroller_PWM_CopterRocks_Working/Libraries/CMSIS/Include\cmsis_gcc.h **** 
 679:C:\Workspaces\DAVE-4.1\Flightcontroller_PWM_CopterRocks_Working/Libraries/CMSIS/Include\cmsis_gcc.h **** /**
 680:C:\Workspaces\DAVE-4.1\Flightcontroller_PWM_CopterRocks_Working/Libraries/CMSIS/Include\cmsis_gcc.h ****   \brief   Signed Saturate
 681:C:\Workspaces\DAVE-4.1\Flightcontroller_PWM_CopterRocks_Working/Libraries/CMSIS/Include\cmsis_gcc.h ****   \details Saturates a signed value.
 682:C:\Workspaces\DAVE-4.1\Flightcontroller_PWM_CopterRocks_Working/Libraries/CMSIS/Include\cmsis_gcc.h ****   \param [in]  value  Value to be saturated
 683:C:\Workspaces\DAVE-4.1\Flightcontroller_PWM_CopterRocks_Working/Libraries/CMSIS/Include\cmsis_gcc.h ****   \param [in]    sat  Bit position to saturate to (1..32)
 684:C:\Workspaces\DAVE-4.1\Flightcontroller_PWM_CopterRocks_Working/Libraries/CMSIS/Include\cmsis_gcc.h ****   \return             Saturated value
 685:C:\Workspaces\DAVE-4.1\Flightcontroller_PWM_CopterRocks_Working/Libraries/CMSIS/Include\cmsis_gcc.h ****  */
 686:C:\Workspaces\DAVE-4.1\Flightcontroller_PWM_CopterRocks_Working/Libraries/CMSIS/Include\cmsis_gcc.h **** #define __SSAT(ARG1,ARG2) \
 687:C:\Workspaces\DAVE-4.1\Flightcontroller_PWM_CopterRocks_Working/Libraries/CMSIS/Include\cmsis_gcc.h **** ({                          \
 688:C:\Workspaces\DAVE-4.1\Flightcontroller_PWM_CopterRocks_Working/Libraries/CMSIS/Include\cmsis_gcc.h ****   uint32_t __RES, __ARG1 = (ARG1); \
 689:C:\Workspaces\DAVE-4.1\Flightcontroller_PWM_CopterRocks_Working/Libraries/CMSIS/Include\cmsis_gcc.h ****   __ASM ("ssat %0, %1, %2" : "=r" (__RES) :  "I" (ARG2), "r" (__ARG1) ); \
 690:C:\Workspaces\DAVE-4.1\Flightcontroller_PWM_CopterRocks_Working/Libraries/CMSIS/Include\cmsis_gcc.h ****   __RES; \
 691:C:\Workspaces\DAVE-4.1\Flightcontroller_PWM_CopterRocks_Working/Libraries/CMSIS/Include\cmsis_gcc.h ****  })
 692:C:\Workspaces\DAVE-4.1\Flightcontroller_PWM_CopterRocks_Working/Libraries/CMSIS/Include\cmsis_gcc.h **** 
 693:C:\Workspaces\DAVE-4.1\Flightcontroller_PWM_CopterRocks_Working/Libraries/CMSIS/Include\cmsis_gcc.h **** 
 694:C:\Workspaces\DAVE-4.1\Flightcontroller_PWM_CopterRocks_Working/Libraries/CMSIS/Include\cmsis_gcc.h **** /**
 695:C:\Workspaces\DAVE-4.1\Flightcontroller_PWM_CopterRocks_Working/Libraries/CMSIS/Include\cmsis_gcc.h ****   \brief   Unsigned Saturate
 696:C:\Workspaces\DAVE-4.1\Flightcontroller_PWM_CopterRocks_Working/Libraries/CMSIS/Include\cmsis_gcc.h ****   \details Saturates an unsigned value.
 697:C:\Workspaces\DAVE-4.1\Flightcontroller_PWM_CopterRocks_Working/Libraries/CMSIS/Include\cmsis_gcc.h ****   \param [in]  value  Value to be saturated
 698:C:\Workspaces\DAVE-4.1\Flightcontroller_PWM_CopterRocks_Working/Libraries/CMSIS/Include\cmsis_gcc.h ****   \param [in]    sat  Bit position to saturate to (0..31)
 699:C:\Workspaces\DAVE-4.1\Flightcontroller_PWM_CopterRocks_Working/Libraries/CMSIS/Include\cmsis_gcc.h ****   \return             Saturated value
 700:C:\Workspaces\DAVE-4.1\Flightcontroller_PWM_CopterRocks_Working/Libraries/CMSIS/Include\cmsis_gcc.h ****  */
 701:C:\Workspaces\DAVE-4.1\Flightcontroller_PWM_CopterRocks_Working/Libraries/CMSIS/Include\cmsis_gcc.h **** #define __USAT(ARG1,ARG2) \
 702:C:\Workspaces\DAVE-4.1\Flightcontroller_PWM_CopterRocks_Working/Libraries/CMSIS/Include\cmsis_gcc.h **** ({                          \
 703:C:\Workspaces\DAVE-4.1\Flightcontroller_PWM_CopterRocks_Working/Libraries/CMSIS/Include\cmsis_gcc.h ****   uint32_t __RES, __ARG1 = (ARG1); \
 704:C:\Workspaces\DAVE-4.1\Flightcontroller_PWM_CopterRocks_Working/Libraries/CMSIS/Include\cmsis_gcc.h ****   __ASM ("usat %0, %1, %2" : "=r" (__RES) :  "I" (ARG2), "r" (__ARG1) ); \
 705:C:\Workspaces\DAVE-4.1\Flightcontroller_PWM_CopterRocks_Working/Libraries/CMSIS/Include\cmsis_gcc.h ****   __RES; \
 706:C:\Workspaces\DAVE-4.1\Flightcontroller_PWM_CopterRocks_Working/Libraries/CMSIS/Include\cmsis_gcc.h ****  })
 707:C:\Workspaces\DAVE-4.1\Flightcontroller_PWM_CopterRocks_Working/Libraries/CMSIS/Include\cmsis_gcc.h **** 
 708:C:\Workspaces\DAVE-4.1\Flightcontroller_PWM_CopterRocks_Working/Libraries/CMSIS/Include\cmsis_gcc.h **** 
 709:C:\Workspaces\DAVE-4.1\Flightcontroller_PWM_CopterRocks_Working/Libraries/CMSIS/Include\cmsis_gcc.h **** /**
 710:C:\Workspaces\DAVE-4.1\Flightcontroller_PWM_CopterRocks_Working/Libraries/CMSIS/Include\cmsis_gcc.h ****   \brief   Rotate Right with Extend (32 bit)
 711:C:\Workspaces\DAVE-4.1\Flightcontroller_PWM_CopterRocks_Working/Libraries/CMSIS/Include\cmsis_gcc.h ****   \details Moves each bit of a bitstring right by one bit.
 712:C:\Workspaces\DAVE-4.1\Flightcontroller_PWM_CopterRocks_Working/Libraries/CMSIS/Include\cmsis_gcc.h ****            The carry input is shifted in at the left end of the bitstring.
 713:C:\Workspaces\DAVE-4.1\Flightcontroller_PWM_CopterRocks_Working/Libraries/CMSIS/Include\cmsis_gcc.h ****   \param [in]    value  Value to rotate
 714:C:\Workspaces\DAVE-4.1\Flightcontroller_PWM_CopterRocks_Working/Libraries/CMSIS/Include\cmsis_gcc.h ****   \return               Rotated value
 715:C:\Workspaces\DAVE-4.1\Flightcontroller_PWM_CopterRocks_Working/Libraries/CMSIS/Include\cmsis_gcc.h ****  */
 716:C:\Workspaces\DAVE-4.1\Flightcontroller_PWM_CopterRocks_Working/Libraries/CMSIS/Include\cmsis_gcc.h **** __attribute__((always_inline)) __STATIC_INLINE uint32_t __RRX(uint32_t value)
 717:C:\Workspaces\DAVE-4.1\Flightcontroller_PWM_CopterRocks_Working/Libraries/CMSIS/Include\cmsis_gcc.h **** {
 718:C:\Workspaces\DAVE-4.1\Flightcontroller_PWM_CopterRocks_Working/Libraries/CMSIS/Include\cmsis_gcc.h ****   uint32_t result;
 719:C:\Workspaces\DAVE-4.1\Flightcontroller_PWM_CopterRocks_Working/Libraries/CMSIS/Include\cmsis_gcc.h **** 
 720:C:\Workspaces\DAVE-4.1\Flightcontroller_PWM_CopterRocks_Working/Libraries/CMSIS/Include\cmsis_gcc.h ****   __ASM volatile ("rrx %0, %1" : __CMSIS_GCC_OUT_REG (result) : __CMSIS_GCC_USE_REG (value) );
 721:C:\Workspaces\DAVE-4.1\Flightcontroller_PWM_CopterRocks_Working/Libraries/CMSIS/Include\cmsis_gcc.h ****   return(result);
 722:C:\Workspaces\DAVE-4.1\Flightcontroller_PWM_CopterRocks_Working/Libraries/CMSIS/Include\cmsis_gcc.h **** }
 723:C:\Workspaces\DAVE-4.1\Flightcontroller_PWM_CopterRocks_Working/Libraries/CMSIS/Include\cmsis_gcc.h **** 
 724:C:\Workspaces\DAVE-4.1\Flightcontroller_PWM_CopterRocks_Working/Libraries/CMSIS/Include\cmsis_gcc.h **** 
 725:C:\Workspaces\DAVE-4.1\Flightcontroller_PWM_CopterRocks_Working/Libraries/CMSIS/Include\cmsis_gcc.h **** /**
 726:C:\Workspaces\DAVE-4.1\Flightcontroller_PWM_CopterRocks_Working/Libraries/CMSIS/Include\cmsis_gcc.h ****   \brief   LDRT Unprivileged (8 bit)
 727:C:\Workspaces\DAVE-4.1\Flightcontroller_PWM_CopterRocks_Working/Libraries/CMSIS/Include\cmsis_gcc.h ****   \details Executes a Unprivileged LDRT instruction for 8 bit value.
 728:C:\Workspaces\DAVE-4.1\Flightcontroller_PWM_CopterRocks_Working/Libraries/CMSIS/Include\cmsis_gcc.h ****   \param [in]    ptr  Pointer to data
 729:C:\Workspaces\DAVE-4.1\Flightcontroller_PWM_CopterRocks_Working/Libraries/CMSIS/Include\cmsis_gcc.h ****   \return             value of type uint8_t at (*ptr)
 730:C:\Workspaces\DAVE-4.1\Flightcontroller_PWM_CopterRocks_Working/Libraries/CMSIS/Include\cmsis_gcc.h ****  */
 731:C:\Workspaces\DAVE-4.1\Flightcontroller_PWM_CopterRocks_Working/Libraries/CMSIS/Include\cmsis_gcc.h **** __attribute__((always_inline)) __STATIC_INLINE uint8_t __LDRBT(volatile uint8_t *addr)
 732:C:\Workspaces\DAVE-4.1\Flightcontroller_PWM_CopterRocks_Working/Libraries/CMSIS/Include\cmsis_gcc.h **** {
 733:C:\Workspaces\DAVE-4.1\Flightcontroller_PWM_CopterRocks_Working/Libraries/CMSIS/Include\cmsis_gcc.h ****     uint32_t result;
 734:C:\Workspaces\DAVE-4.1\Flightcontroller_PWM_CopterRocks_Working/Libraries/CMSIS/Include\cmsis_gcc.h **** 
 735:C:\Workspaces\DAVE-4.1\Flightcontroller_PWM_CopterRocks_Working/Libraries/CMSIS/Include\cmsis_gcc.h **** #if (__GNUC__ > 4) || (__GNUC__ == 4 && __GNUC_MINOR__ >= 8)
 736:C:\Workspaces\DAVE-4.1\Flightcontroller_PWM_CopterRocks_Working/Libraries/CMSIS/Include\cmsis_gcc.h ****    __ASM volatile ("ldrbt %0, %1" : "=r" (result) : "Q" (*addr) );
 737:C:\Workspaces\DAVE-4.1\Flightcontroller_PWM_CopterRocks_Working/Libraries/CMSIS/Include\cmsis_gcc.h **** #else
 738:C:\Workspaces\DAVE-4.1\Flightcontroller_PWM_CopterRocks_Working/Libraries/CMSIS/Include\cmsis_gcc.h ****     /* Prior to GCC 4.8, "Q" will be expanded to [rx, #0] which is not
 739:C:\Workspaces\DAVE-4.1\Flightcontroller_PWM_CopterRocks_Working/Libraries/CMSIS/Include\cmsis_gcc.h ****        accepted by assembler. So has to use following less efficient pattern.
 740:C:\Workspaces\DAVE-4.1\Flightcontroller_PWM_CopterRocks_Working/Libraries/CMSIS/Include\cmsis_gcc.h ****     */
 741:C:\Workspaces\DAVE-4.1\Flightcontroller_PWM_CopterRocks_Working/Libraries/CMSIS/Include\cmsis_gcc.h ****    __ASM volatile ("ldrbt %0, [%1]" : "=r" (result) : "r" (addr) : "memory" );
 742:C:\Workspaces\DAVE-4.1\Flightcontroller_PWM_CopterRocks_Working/Libraries/CMSIS/Include\cmsis_gcc.h **** #endif
 743:C:\Workspaces\DAVE-4.1\Flightcontroller_PWM_CopterRocks_Working/Libraries/CMSIS/Include\cmsis_gcc.h ****    return ((uint8_t) result);    /* Add explicit type cast here */
 744:C:\Workspaces\DAVE-4.1\Flightcontroller_PWM_CopterRocks_Working/Libraries/CMSIS/Include\cmsis_gcc.h **** }
 745:C:\Workspaces\DAVE-4.1\Flightcontroller_PWM_CopterRocks_Working/Libraries/CMSIS/Include\cmsis_gcc.h **** 
 746:C:\Workspaces\DAVE-4.1\Flightcontroller_PWM_CopterRocks_Working/Libraries/CMSIS/Include\cmsis_gcc.h **** 
 747:C:\Workspaces\DAVE-4.1\Flightcontroller_PWM_CopterRocks_Working/Libraries/CMSIS/Include\cmsis_gcc.h **** /**
 748:C:\Workspaces\DAVE-4.1\Flightcontroller_PWM_CopterRocks_Working/Libraries/CMSIS/Include\cmsis_gcc.h ****   \brief   LDRT Unprivileged (16 bit)
 749:C:\Workspaces\DAVE-4.1\Flightcontroller_PWM_CopterRocks_Working/Libraries/CMSIS/Include\cmsis_gcc.h ****   \details Executes a Unprivileged LDRT instruction for 16 bit values.
 750:C:\Workspaces\DAVE-4.1\Flightcontroller_PWM_CopterRocks_Working/Libraries/CMSIS/Include\cmsis_gcc.h ****   \param [in]    ptr  Pointer to data
 751:C:\Workspaces\DAVE-4.1\Flightcontroller_PWM_CopterRocks_Working/Libraries/CMSIS/Include\cmsis_gcc.h ****   \return        value of type uint16_t at (*ptr)
 752:C:\Workspaces\DAVE-4.1\Flightcontroller_PWM_CopterRocks_Working/Libraries/CMSIS/Include\cmsis_gcc.h ****  */
 753:C:\Workspaces\DAVE-4.1\Flightcontroller_PWM_CopterRocks_Working/Libraries/CMSIS/Include\cmsis_gcc.h **** __attribute__((always_inline)) __STATIC_INLINE uint16_t __LDRHT(volatile uint16_t *addr)
 754:C:\Workspaces\DAVE-4.1\Flightcontroller_PWM_CopterRocks_Working/Libraries/CMSIS/Include\cmsis_gcc.h **** {
 755:C:\Workspaces\DAVE-4.1\Flightcontroller_PWM_CopterRocks_Working/Libraries/CMSIS/Include\cmsis_gcc.h ****     uint32_t result;
 756:C:\Workspaces\DAVE-4.1\Flightcontroller_PWM_CopterRocks_Working/Libraries/CMSIS/Include\cmsis_gcc.h **** 
 757:C:\Workspaces\DAVE-4.1\Flightcontroller_PWM_CopterRocks_Working/Libraries/CMSIS/Include\cmsis_gcc.h **** #if (__GNUC__ > 4) || (__GNUC__ == 4 && __GNUC_MINOR__ >= 8)
 758:C:\Workspaces\DAVE-4.1\Flightcontroller_PWM_CopterRocks_Working/Libraries/CMSIS/Include\cmsis_gcc.h ****    __ASM volatile ("ldrht %0, %1" : "=r" (result) : "Q" (*addr) );
 759:C:\Workspaces\DAVE-4.1\Flightcontroller_PWM_CopterRocks_Working/Libraries/CMSIS/Include\cmsis_gcc.h **** #else
 760:C:\Workspaces\DAVE-4.1\Flightcontroller_PWM_CopterRocks_Working/Libraries/CMSIS/Include\cmsis_gcc.h ****     /* Prior to GCC 4.8, "Q" will be expanded to [rx, #0] which is not
 761:C:\Workspaces\DAVE-4.1\Flightcontroller_PWM_CopterRocks_Working/Libraries/CMSIS/Include\cmsis_gcc.h ****        accepted by assembler. So has to use following less efficient pattern.
 762:C:\Workspaces\DAVE-4.1\Flightcontroller_PWM_CopterRocks_Working/Libraries/CMSIS/Include\cmsis_gcc.h ****     */
 763:C:\Workspaces\DAVE-4.1\Flightcontroller_PWM_CopterRocks_Working/Libraries/CMSIS/Include\cmsis_gcc.h ****    __ASM volatile ("ldrht %0, [%1]" : "=r" (result) : "r" (addr) : "memory" );
 764:C:\Workspaces\DAVE-4.1\Flightcontroller_PWM_CopterRocks_Working/Libraries/CMSIS/Include\cmsis_gcc.h **** #endif
 765:C:\Workspaces\DAVE-4.1\Flightcontroller_PWM_CopterRocks_Working/Libraries/CMSIS/Include\cmsis_gcc.h ****    return ((uint16_t) result);    /* Add explicit type cast here */
 766:C:\Workspaces\DAVE-4.1\Flightcontroller_PWM_CopterRocks_Working/Libraries/CMSIS/Include\cmsis_gcc.h **** }
 767:C:\Workspaces\DAVE-4.1\Flightcontroller_PWM_CopterRocks_Working/Libraries/CMSIS/Include\cmsis_gcc.h **** 
 768:C:\Workspaces\DAVE-4.1\Flightcontroller_PWM_CopterRocks_Working/Libraries/CMSIS/Include\cmsis_gcc.h **** 
 769:C:\Workspaces\DAVE-4.1\Flightcontroller_PWM_CopterRocks_Working/Libraries/CMSIS/Include\cmsis_gcc.h **** /**
 770:C:\Workspaces\DAVE-4.1\Flightcontroller_PWM_CopterRocks_Working/Libraries/CMSIS/Include\cmsis_gcc.h ****   \brief   LDRT Unprivileged (32 bit)
 771:C:\Workspaces\DAVE-4.1\Flightcontroller_PWM_CopterRocks_Working/Libraries/CMSIS/Include\cmsis_gcc.h ****   \details Executes a Unprivileged LDRT instruction for 32 bit values.
 772:C:\Workspaces\DAVE-4.1\Flightcontroller_PWM_CopterRocks_Working/Libraries/CMSIS/Include\cmsis_gcc.h ****   \param [in]    ptr  Pointer to data
 773:C:\Workspaces\DAVE-4.1\Flightcontroller_PWM_CopterRocks_Working/Libraries/CMSIS/Include\cmsis_gcc.h ****   \return        value of type uint32_t at (*ptr)
 774:C:\Workspaces\DAVE-4.1\Flightcontroller_PWM_CopterRocks_Working/Libraries/CMSIS/Include\cmsis_gcc.h ****  */
 775:C:\Workspaces\DAVE-4.1\Flightcontroller_PWM_CopterRocks_Working/Libraries/CMSIS/Include\cmsis_gcc.h **** __attribute__((always_inline)) __STATIC_INLINE uint32_t __LDRT(volatile uint32_t *addr)
 776:C:\Workspaces\DAVE-4.1\Flightcontroller_PWM_CopterRocks_Working/Libraries/CMSIS/Include\cmsis_gcc.h **** {
 777:C:\Workspaces\DAVE-4.1\Flightcontroller_PWM_CopterRocks_Working/Libraries/CMSIS/Include\cmsis_gcc.h ****     uint32_t result;
 778:C:\Workspaces\DAVE-4.1\Flightcontroller_PWM_CopterRocks_Working/Libraries/CMSIS/Include\cmsis_gcc.h **** 
 779:C:\Workspaces\DAVE-4.1\Flightcontroller_PWM_CopterRocks_Working/Libraries/CMSIS/Include\cmsis_gcc.h ****    __ASM volatile ("ldrt %0, %1" : "=r" (result) : "Q" (*addr) );
 780:C:\Workspaces\DAVE-4.1\Flightcontroller_PWM_CopterRocks_Working/Libraries/CMSIS/Include\cmsis_gcc.h ****    return(result);
 781:C:\Workspaces\DAVE-4.1\Flightcontroller_PWM_CopterRocks_Working/Libraries/CMSIS/Include\cmsis_gcc.h **** }
 782:C:\Workspaces\DAVE-4.1\Flightcontroller_PWM_CopterRocks_Working/Libraries/CMSIS/Include\cmsis_gcc.h **** 
 783:C:\Workspaces\DAVE-4.1\Flightcontroller_PWM_CopterRocks_Working/Libraries/CMSIS/Include\cmsis_gcc.h **** 
 784:C:\Workspaces\DAVE-4.1\Flightcontroller_PWM_CopterRocks_Working/Libraries/CMSIS/Include\cmsis_gcc.h **** /**
 785:C:\Workspaces\DAVE-4.1\Flightcontroller_PWM_CopterRocks_Working/Libraries/CMSIS/Include\cmsis_gcc.h ****   \brief   STRT Unprivileged (8 bit)
 786:C:\Workspaces\DAVE-4.1\Flightcontroller_PWM_CopterRocks_Working/Libraries/CMSIS/Include\cmsis_gcc.h ****   \details Executes a Unprivileged STRT instruction for 8 bit values.
 787:C:\Workspaces\DAVE-4.1\Flightcontroller_PWM_CopterRocks_Working/Libraries/CMSIS/Include\cmsis_gcc.h ****   \param [in]  value  Value to store
 788:C:\Workspaces\DAVE-4.1\Flightcontroller_PWM_CopterRocks_Working/Libraries/CMSIS/Include\cmsis_gcc.h ****   \param [in]    ptr  Pointer to location
 789:C:\Workspaces\DAVE-4.1\Flightcontroller_PWM_CopterRocks_Working/Libraries/CMSIS/Include\cmsis_gcc.h ****  */
 790:C:\Workspaces\DAVE-4.1\Flightcontroller_PWM_CopterRocks_Working/Libraries/CMSIS/Include\cmsis_gcc.h **** __attribute__((always_inline)) __STATIC_INLINE void __STRBT(uint8_t value, volatile uint8_t *addr)
 791:C:\Workspaces\DAVE-4.1\Flightcontroller_PWM_CopterRocks_Working/Libraries/CMSIS/Include\cmsis_gcc.h **** {
 792:C:\Workspaces\DAVE-4.1\Flightcontroller_PWM_CopterRocks_Working/Libraries/CMSIS/Include\cmsis_gcc.h ****    __ASM volatile ("strbt %1, %0" : "=Q" (*addr) : "r" ((uint32_t)value) );
 793:C:\Workspaces\DAVE-4.1\Flightcontroller_PWM_CopterRocks_Working/Libraries/CMSIS/Include\cmsis_gcc.h **** }
 794:C:\Workspaces\DAVE-4.1\Flightcontroller_PWM_CopterRocks_Working/Libraries/CMSIS/Include\cmsis_gcc.h **** 
 795:C:\Workspaces\DAVE-4.1\Flightcontroller_PWM_CopterRocks_Working/Libraries/CMSIS/Include\cmsis_gcc.h **** 
 796:C:\Workspaces\DAVE-4.1\Flightcontroller_PWM_CopterRocks_Working/Libraries/CMSIS/Include\cmsis_gcc.h **** /**
 797:C:\Workspaces\DAVE-4.1\Flightcontroller_PWM_CopterRocks_Working/Libraries/CMSIS/Include\cmsis_gcc.h ****   \brief   STRT Unprivileged (16 bit)
 798:C:\Workspaces\DAVE-4.1\Flightcontroller_PWM_CopterRocks_Working/Libraries/CMSIS/Include\cmsis_gcc.h ****   \details Executes a Unprivileged STRT instruction for 16 bit values.
 799:C:\Workspaces\DAVE-4.1\Flightcontroller_PWM_CopterRocks_Working/Libraries/CMSIS/Include\cmsis_gcc.h ****   \param [in]  value  Value to store
 800:C:\Workspaces\DAVE-4.1\Flightcontroller_PWM_CopterRocks_Working/Libraries/CMSIS/Include\cmsis_gcc.h ****   \param [in]    ptr  Pointer to location
 801:C:\Workspaces\DAVE-4.1\Flightcontroller_PWM_CopterRocks_Working/Libraries/CMSIS/Include\cmsis_gcc.h ****  */
 802:C:\Workspaces\DAVE-4.1\Flightcontroller_PWM_CopterRocks_Working/Libraries/CMSIS/Include\cmsis_gcc.h **** __attribute__((always_inline)) __STATIC_INLINE void __STRHT(uint16_t value, volatile uint16_t *addr
 803:C:\Workspaces\DAVE-4.1\Flightcontroller_PWM_CopterRocks_Working/Libraries/CMSIS/Include\cmsis_gcc.h **** {
 804:C:\Workspaces\DAVE-4.1\Flightcontroller_PWM_CopterRocks_Working/Libraries/CMSIS/Include\cmsis_gcc.h ****    __ASM volatile ("strht %1, %0" : "=Q" (*addr) : "r" ((uint32_t)value) );
 805:C:\Workspaces\DAVE-4.1\Flightcontroller_PWM_CopterRocks_Working/Libraries/CMSIS/Include\cmsis_gcc.h **** }
 806:C:\Workspaces\DAVE-4.1\Flightcontroller_PWM_CopterRocks_Working/Libraries/CMSIS/Include\cmsis_gcc.h **** 
 807:C:\Workspaces\DAVE-4.1\Flightcontroller_PWM_CopterRocks_Working/Libraries/CMSIS/Include\cmsis_gcc.h **** 
 808:C:\Workspaces\DAVE-4.1\Flightcontroller_PWM_CopterRocks_Working/Libraries/CMSIS/Include\cmsis_gcc.h **** /**
 809:C:\Workspaces\DAVE-4.1\Flightcontroller_PWM_CopterRocks_Working/Libraries/CMSIS/Include\cmsis_gcc.h ****   \brief   STRT Unprivileged (32 bit)
 810:C:\Workspaces\DAVE-4.1\Flightcontroller_PWM_CopterRocks_Working/Libraries/CMSIS/Include\cmsis_gcc.h ****   \details Executes a Unprivileged STRT instruction for 32 bit values.
 811:C:\Workspaces\DAVE-4.1\Flightcontroller_PWM_CopterRocks_Working/Libraries/CMSIS/Include\cmsis_gcc.h ****   \param [in]  value  Value to store
 812:C:\Workspaces\DAVE-4.1\Flightcontroller_PWM_CopterRocks_Working/Libraries/CMSIS/Include\cmsis_gcc.h ****   \param [in]    ptr  Pointer to location
 813:C:\Workspaces\DAVE-4.1\Flightcontroller_PWM_CopterRocks_Working/Libraries/CMSIS/Include\cmsis_gcc.h ****  */
 814:C:\Workspaces\DAVE-4.1\Flightcontroller_PWM_CopterRocks_Working/Libraries/CMSIS/Include\cmsis_gcc.h **** __attribute__((always_inline)) __STATIC_INLINE void __STRT(uint32_t value, volatile uint32_t *addr)
 815:C:\Workspaces\DAVE-4.1\Flightcontroller_PWM_CopterRocks_Working/Libraries/CMSIS/Include\cmsis_gcc.h **** {
 816:C:\Workspaces\DAVE-4.1\Flightcontroller_PWM_CopterRocks_Working/Libraries/CMSIS/Include\cmsis_gcc.h ****    __ASM volatile ("strt %1, %0" : "=Q" (*addr) : "r" (value) );
 817:C:\Workspaces\DAVE-4.1\Flightcontroller_PWM_CopterRocks_Working/Libraries/CMSIS/Include\cmsis_gcc.h **** }
 818:C:\Workspaces\DAVE-4.1\Flightcontroller_PWM_CopterRocks_Working/Libraries/CMSIS/Include\cmsis_gcc.h **** 
 819:C:\Workspaces\DAVE-4.1\Flightcontroller_PWM_CopterRocks_Working/Libraries/CMSIS/Include\cmsis_gcc.h **** #endif /* (__CORTEX_M >= 0x03U) || (__CORTEX_SC >= 300U) */
 820:C:\Workspaces\DAVE-4.1\Flightcontroller_PWM_CopterRocks_Working/Libraries/CMSIS/Include\cmsis_gcc.h **** 
 821:C:\Workspaces\DAVE-4.1\Flightcontroller_PWM_CopterRocks_Working/Libraries/CMSIS/Include\cmsis_gcc.h **** /*@}*/ /* end of group CMSIS_Core_InstructionInterface */
 822:C:\Workspaces\DAVE-4.1\Flightcontroller_PWM_CopterRocks_Working/Libraries/CMSIS/Include\cmsis_gcc.h **** 
 823:C:\Workspaces\DAVE-4.1\Flightcontroller_PWM_CopterRocks_Working/Libraries/CMSIS/Include\cmsis_gcc.h **** 
 824:C:\Workspaces\DAVE-4.1\Flightcontroller_PWM_CopterRocks_Working/Libraries/CMSIS/Include\cmsis_gcc.h **** /* ###################  Compiler specific Intrinsics  ########################### */
 825:C:\Workspaces\DAVE-4.1\Flightcontroller_PWM_CopterRocks_Working/Libraries/CMSIS/Include\cmsis_gcc.h **** /** \defgroup CMSIS_SIMD_intrinsics CMSIS SIMD Intrinsics
 826:C:\Workspaces\DAVE-4.1\Flightcontroller_PWM_CopterRocks_Working/Libraries/CMSIS/Include\cmsis_gcc.h ****   Access to dedicated SIMD instructions
 827:C:\Workspaces\DAVE-4.1\Flightcontroller_PWM_CopterRocks_Working/Libraries/CMSIS/Include\cmsis_gcc.h ****   @{
 828:C:\Workspaces\DAVE-4.1\Flightcontroller_PWM_CopterRocks_Working/Libraries/CMSIS/Include\cmsis_gcc.h **** */
 829:C:\Workspaces\DAVE-4.1\Flightcontroller_PWM_CopterRocks_Working/Libraries/CMSIS/Include\cmsis_gcc.h **** 
 830:C:\Workspaces\DAVE-4.1\Flightcontroller_PWM_CopterRocks_Working/Libraries/CMSIS/Include\cmsis_gcc.h **** #if (__CORTEX_M >= 0x04U)  /* only for Cortex-M4 and above */
 831:C:\Workspaces\DAVE-4.1\Flightcontroller_PWM_CopterRocks_Working/Libraries/CMSIS/Include\cmsis_gcc.h **** 
 832:C:\Workspaces\DAVE-4.1\Flightcontroller_PWM_CopterRocks_Working/Libraries/CMSIS/Include\cmsis_gcc.h **** __attribute__( ( always_inline ) ) __STATIC_INLINE uint32_t __SADD8(uint32_t op1, uint32_t op2)
 833:C:\Workspaces\DAVE-4.1\Flightcontroller_PWM_CopterRocks_Working/Libraries/CMSIS/Include\cmsis_gcc.h **** {
 834:C:\Workspaces\DAVE-4.1\Flightcontroller_PWM_CopterRocks_Working/Libraries/CMSIS/Include\cmsis_gcc.h ****   uint32_t result;
 835:C:\Workspaces\DAVE-4.1\Flightcontroller_PWM_CopterRocks_Working/Libraries/CMSIS/Include\cmsis_gcc.h **** 
 836:C:\Workspaces\DAVE-4.1\Flightcontroller_PWM_CopterRocks_Working/Libraries/CMSIS/Include\cmsis_gcc.h ****   __ASM volatile ("sadd8 %0, %1, %2" : "=r" (result) : "r" (op1), "r" (op2) );
 837:C:\Workspaces\DAVE-4.1\Flightcontroller_PWM_CopterRocks_Working/Libraries/CMSIS/Include\cmsis_gcc.h ****   return(result);
 838:C:\Workspaces\DAVE-4.1\Flightcontroller_PWM_CopterRocks_Working/Libraries/CMSIS/Include\cmsis_gcc.h **** }
 839:C:\Workspaces\DAVE-4.1\Flightcontroller_PWM_CopterRocks_Working/Libraries/CMSIS/Include\cmsis_gcc.h **** 
 840:C:\Workspaces\DAVE-4.1\Flightcontroller_PWM_CopterRocks_Working/Libraries/CMSIS/Include\cmsis_gcc.h **** __attribute__( ( always_inline ) ) __STATIC_INLINE uint32_t __QADD8(uint32_t op1, uint32_t op2)
 841:C:\Workspaces\DAVE-4.1\Flightcontroller_PWM_CopterRocks_Working/Libraries/CMSIS/Include\cmsis_gcc.h **** {
 842:C:\Workspaces\DAVE-4.1\Flightcontroller_PWM_CopterRocks_Working/Libraries/CMSIS/Include\cmsis_gcc.h ****   uint32_t result;
 843:C:\Workspaces\DAVE-4.1\Flightcontroller_PWM_CopterRocks_Working/Libraries/CMSIS/Include\cmsis_gcc.h **** 
 844:C:\Workspaces\DAVE-4.1\Flightcontroller_PWM_CopterRocks_Working/Libraries/CMSIS/Include\cmsis_gcc.h ****   __ASM volatile ("qadd8 %0, %1, %2" : "=r" (result) : "r" (op1), "r" (op2) );
 845:C:\Workspaces\DAVE-4.1\Flightcontroller_PWM_CopterRocks_Working/Libraries/CMSIS/Include\cmsis_gcc.h ****   return(result);
 846:C:\Workspaces\DAVE-4.1\Flightcontroller_PWM_CopterRocks_Working/Libraries/CMSIS/Include\cmsis_gcc.h **** }
 847:C:\Workspaces\DAVE-4.1\Flightcontroller_PWM_CopterRocks_Working/Libraries/CMSIS/Include\cmsis_gcc.h **** 
 848:C:\Workspaces\DAVE-4.1\Flightcontroller_PWM_CopterRocks_Working/Libraries/CMSIS/Include\cmsis_gcc.h **** __attribute__( ( always_inline ) ) __STATIC_INLINE uint32_t __SHADD8(uint32_t op1, uint32_t op2)
 849:C:\Workspaces\DAVE-4.1\Flightcontroller_PWM_CopterRocks_Working/Libraries/CMSIS/Include\cmsis_gcc.h **** {
 850:C:\Workspaces\DAVE-4.1\Flightcontroller_PWM_CopterRocks_Working/Libraries/CMSIS/Include\cmsis_gcc.h ****   uint32_t result;
 851:C:\Workspaces\DAVE-4.1\Flightcontroller_PWM_CopterRocks_Working/Libraries/CMSIS/Include\cmsis_gcc.h **** 
 852:C:\Workspaces\DAVE-4.1\Flightcontroller_PWM_CopterRocks_Working/Libraries/CMSIS/Include\cmsis_gcc.h ****   __ASM volatile ("shadd8 %0, %1, %2" : "=r" (result) : "r" (op1), "r" (op2) );
 853:C:\Workspaces\DAVE-4.1\Flightcontroller_PWM_CopterRocks_Working/Libraries/CMSIS/Include\cmsis_gcc.h ****   return(result);
 854:C:\Workspaces\DAVE-4.1\Flightcontroller_PWM_CopterRocks_Working/Libraries/CMSIS/Include\cmsis_gcc.h **** }
 855:C:\Workspaces\DAVE-4.1\Flightcontroller_PWM_CopterRocks_Working/Libraries/CMSIS/Include\cmsis_gcc.h **** 
 856:C:\Workspaces\DAVE-4.1\Flightcontroller_PWM_CopterRocks_Working/Libraries/CMSIS/Include\cmsis_gcc.h **** __attribute__( ( always_inline ) ) __STATIC_INLINE uint32_t __UADD8(uint32_t op1, uint32_t op2)
 857:C:\Workspaces\DAVE-4.1\Flightcontroller_PWM_CopterRocks_Working/Libraries/CMSIS/Include\cmsis_gcc.h **** {
 858:C:\Workspaces\DAVE-4.1\Flightcontroller_PWM_CopterRocks_Working/Libraries/CMSIS/Include\cmsis_gcc.h ****   uint32_t result;
 859:C:\Workspaces\DAVE-4.1\Flightcontroller_PWM_CopterRocks_Working/Libraries/CMSIS/Include\cmsis_gcc.h **** 
 860:C:\Workspaces\DAVE-4.1\Flightcontroller_PWM_CopterRocks_Working/Libraries/CMSIS/Include\cmsis_gcc.h ****   __ASM volatile ("uadd8 %0, %1, %2" : "=r" (result) : "r" (op1), "r" (op2) );
 861:C:\Workspaces\DAVE-4.1\Flightcontroller_PWM_CopterRocks_Working/Libraries/CMSIS/Include\cmsis_gcc.h ****   return(result);
 862:C:\Workspaces\DAVE-4.1\Flightcontroller_PWM_CopterRocks_Working/Libraries/CMSIS/Include\cmsis_gcc.h **** }
 863:C:\Workspaces\DAVE-4.1\Flightcontroller_PWM_CopterRocks_Working/Libraries/CMSIS/Include\cmsis_gcc.h **** 
 864:C:\Workspaces\DAVE-4.1\Flightcontroller_PWM_CopterRocks_Working/Libraries/CMSIS/Include\cmsis_gcc.h **** __attribute__( ( always_inline ) ) __STATIC_INLINE uint32_t __UQADD8(uint32_t op1, uint32_t op2)
 865:C:\Workspaces\DAVE-4.1\Flightcontroller_PWM_CopterRocks_Working/Libraries/CMSIS/Include\cmsis_gcc.h **** {
 866:C:\Workspaces\DAVE-4.1\Flightcontroller_PWM_CopterRocks_Working/Libraries/CMSIS/Include\cmsis_gcc.h ****   uint32_t result;
 867:C:\Workspaces\DAVE-4.1\Flightcontroller_PWM_CopterRocks_Working/Libraries/CMSIS/Include\cmsis_gcc.h **** 
 868:C:\Workspaces\DAVE-4.1\Flightcontroller_PWM_CopterRocks_Working/Libraries/CMSIS/Include\cmsis_gcc.h ****   __ASM volatile ("uqadd8 %0, %1, %2" : "=r" (result) : "r" (op1), "r" (op2) );
 869:C:\Workspaces\DAVE-4.1\Flightcontroller_PWM_CopterRocks_Working/Libraries/CMSIS/Include\cmsis_gcc.h ****   return(result);
 870:C:\Workspaces\DAVE-4.1\Flightcontroller_PWM_CopterRocks_Working/Libraries/CMSIS/Include\cmsis_gcc.h **** }
 871:C:\Workspaces\DAVE-4.1\Flightcontroller_PWM_CopterRocks_Working/Libraries/CMSIS/Include\cmsis_gcc.h **** 
 872:C:\Workspaces\DAVE-4.1\Flightcontroller_PWM_CopterRocks_Working/Libraries/CMSIS/Include\cmsis_gcc.h **** __attribute__( ( always_inline ) ) __STATIC_INLINE uint32_t __UHADD8(uint32_t op1, uint32_t op2)
 873:C:\Workspaces\DAVE-4.1\Flightcontroller_PWM_CopterRocks_Working/Libraries/CMSIS/Include\cmsis_gcc.h **** {
 874:C:\Workspaces\DAVE-4.1\Flightcontroller_PWM_CopterRocks_Working/Libraries/CMSIS/Include\cmsis_gcc.h ****   uint32_t result;
 875:C:\Workspaces\DAVE-4.1\Flightcontroller_PWM_CopterRocks_Working/Libraries/CMSIS/Include\cmsis_gcc.h **** 
 876:C:\Workspaces\DAVE-4.1\Flightcontroller_PWM_CopterRocks_Working/Libraries/CMSIS/Include\cmsis_gcc.h ****   __ASM volatile ("uhadd8 %0, %1, %2" : "=r" (result) : "r" (op1), "r" (op2) );
 877:C:\Workspaces\DAVE-4.1\Flightcontroller_PWM_CopterRocks_Working/Libraries/CMSIS/Include\cmsis_gcc.h ****   return(result);
 878:C:\Workspaces\DAVE-4.1\Flightcontroller_PWM_CopterRocks_Working/Libraries/CMSIS/Include\cmsis_gcc.h **** }
 879:C:\Workspaces\DAVE-4.1\Flightcontroller_PWM_CopterRocks_Working/Libraries/CMSIS/Include\cmsis_gcc.h **** 
 880:C:\Workspaces\DAVE-4.1\Flightcontroller_PWM_CopterRocks_Working/Libraries/CMSIS/Include\cmsis_gcc.h **** 
 881:C:\Workspaces\DAVE-4.1\Flightcontroller_PWM_CopterRocks_Working/Libraries/CMSIS/Include\cmsis_gcc.h **** __attribute__( ( always_inline ) ) __STATIC_INLINE uint32_t __SSUB8(uint32_t op1, uint32_t op2)
 882:C:\Workspaces\DAVE-4.1\Flightcontroller_PWM_CopterRocks_Working/Libraries/CMSIS/Include\cmsis_gcc.h **** {
 883:C:\Workspaces\DAVE-4.1\Flightcontroller_PWM_CopterRocks_Working/Libraries/CMSIS/Include\cmsis_gcc.h ****   uint32_t result;
 884:C:\Workspaces\DAVE-4.1\Flightcontroller_PWM_CopterRocks_Working/Libraries/CMSIS/Include\cmsis_gcc.h **** 
 885:C:\Workspaces\DAVE-4.1\Flightcontroller_PWM_CopterRocks_Working/Libraries/CMSIS/Include\cmsis_gcc.h ****   __ASM volatile ("ssub8 %0, %1, %2" : "=r" (result) : "r" (op1), "r" (op2) );
 886:C:\Workspaces\DAVE-4.1\Flightcontroller_PWM_CopterRocks_Working/Libraries/CMSIS/Include\cmsis_gcc.h ****   return(result);
 887:C:\Workspaces\DAVE-4.1\Flightcontroller_PWM_CopterRocks_Working/Libraries/CMSIS/Include\cmsis_gcc.h **** }
 888:C:\Workspaces\DAVE-4.1\Flightcontroller_PWM_CopterRocks_Working/Libraries/CMSIS/Include\cmsis_gcc.h **** 
 889:C:\Workspaces\DAVE-4.1\Flightcontroller_PWM_CopterRocks_Working/Libraries/CMSIS/Include\cmsis_gcc.h **** __attribute__( ( always_inline ) ) __STATIC_INLINE uint32_t __QSUB8(uint32_t op1, uint32_t op2)
 890:C:\Workspaces\DAVE-4.1\Flightcontroller_PWM_CopterRocks_Working/Libraries/CMSIS/Include\cmsis_gcc.h **** {
 891:C:\Workspaces\DAVE-4.1\Flightcontroller_PWM_CopterRocks_Working/Libraries/CMSIS/Include\cmsis_gcc.h ****   uint32_t result;
 892:C:\Workspaces\DAVE-4.1\Flightcontroller_PWM_CopterRocks_Working/Libraries/CMSIS/Include\cmsis_gcc.h **** 
 893:C:\Workspaces\DAVE-4.1\Flightcontroller_PWM_CopterRocks_Working/Libraries/CMSIS/Include\cmsis_gcc.h ****   __ASM volatile ("qsub8 %0, %1, %2" : "=r" (result) : "r" (op1), "r" (op2) );
 894:C:\Workspaces\DAVE-4.1\Flightcontroller_PWM_CopterRocks_Working/Libraries/CMSIS/Include\cmsis_gcc.h ****   return(result);
 895:C:\Workspaces\DAVE-4.1\Flightcontroller_PWM_CopterRocks_Working/Libraries/CMSIS/Include\cmsis_gcc.h **** }
 896:C:\Workspaces\DAVE-4.1\Flightcontroller_PWM_CopterRocks_Working/Libraries/CMSIS/Include\cmsis_gcc.h **** 
 897:C:\Workspaces\DAVE-4.1\Flightcontroller_PWM_CopterRocks_Working/Libraries/CMSIS/Include\cmsis_gcc.h **** __attribute__( ( always_inline ) ) __STATIC_INLINE uint32_t __SHSUB8(uint32_t op1, uint32_t op2)
 898:C:\Workspaces\DAVE-4.1\Flightcontroller_PWM_CopterRocks_Working/Libraries/CMSIS/Include\cmsis_gcc.h **** {
 899:C:\Workspaces\DAVE-4.1\Flightcontroller_PWM_CopterRocks_Working/Libraries/CMSIS/Include\cmsis_gcc.h ****   uint32_t result;
 900:C:\Workspaces\DAVE-4.1\Flightcontroller_PWM_CopterRocks_Working/Libraries/CMSIS/Include\cmsis_gcc.h **** 
 901:C:\Workspaces\DAVE-4.1\Flightcontroller_PWM_CopterRocks_Working/Libraries/CMSIS/Include\cmsis_gcc.h ****   __ASM volatile ("shsub8 %0, %1, %2" : "=r" (result) : "r" (op1), "r" (op2) );
 902:C:\Workspaces\DAVE-4.1\Flightcontroller_PWM_CopterRocks_Working/Libraries/CMSIS/Include\cmsis_gcc.h ****   return(result);
 903:C:\Workspaces\DAVE-4.1\Flightcontroller_PWM_CopterRocks_Working/Libraries/CMSIS/Include\cmsis_gcc.h **** }
 904:C:\Workspaces\DAVE-4.1\Flightcontroller_PWM_CopterRocks_Working/Libraries/CMSIS/Include\cmsis_gcc.h **** 
 905:C:\Workspaces\DAVE-4.1\Flightcontroller_PWM_CopterRocks_Working/Libraries/CMSIS/Include\cmsis_gcc.h **** __attribute__( ( always_inline ) ) __STATIC_INLINE uint32_t __USUB8(uint32_t op1, uint32_t op2)
 906:C:\Workspaces\DAVE-4.1\Flightcontroller_PWM_CopterRocks_Working/Libraries/CMSIS/Include\cmsis_gcc.h **** {
 907:C:\Workspaces\DAVE-4.1\Flightcontroller_PWM_CopterRocks_Working/Libraries/CMSIS/Include\cmsis_gcc.h ****   uint32_t result;
 908:C:\Workspaces\DAVE-4.1\Flightcontroller_PWM_CopterRocks_Working/Libraries/CMSIS/Include\cmsis_gcc.h **** 
 909:C:\Workspaces\DAVE-4.1\Flightcontroller_PWM_CopterRocks_Working/Libraries/CMSIS/Include\cmsis_gcc.h ****   __ASM volatile ("usub8 %0, %1, %2" : "=r" (result) : "r" (op1), "r" (op2) );
 910:C:\Workspaces\DAVE-4.1\Flightcontroller_PWM_CopterRocks_Working/Libraries/CMSIS/Include\cmsis_gcc.h ****   return(result);
 911:C:\Workspaces\DAVE-4.1\Flightcontroller_PWM_CopterRocks_Working/Libraries/CMSIS/Include\cmsis_gcc.h **** }
 912:C:\Workspaces\DAVE-4.1\Flightcontroller_PWM_CopterRocks_Working/Libraries/CMSIS/Include\cmsis_gcc.h **** 
 913:C:\Workspaces\DAVE-4.1\Flightcontroller_PWM_CopterRocks_Working/Libraries/CMSIS/Include\cmsis_gcc.h **** __attribute__( ( always_inline ) ) __STATIC_INLINE uint32_t __UQSUB8(uint32_t op1, uint32_t op2)
 914:C:\Workspaces\DAVE-4.1\Flightcontroller_PWM_CopterRocks_Working/Libraries/CMSIS/Include\cmsis_gcc.h **** {
 915:C:\Workspaces\DAVE-4.1\Flightcontroller_PWM_CopterRocks_Working/Libraries/CMSIS/Include\cmsis_gcc.h ****   uint32_t result;
 916:C:\Workspaces\DAVE-4.1\Flightcontroller_PWM_CopterRocks_Working/Libraries/CMSIS/Include\cmsis_gcc.h **** 
 917:C:\Workspaces\DAVE-4.1\Flightcontroller_PWM_CopterRocks_Working/Libraries/CMSIS/Include\cmsis_gcc.h ****   __ASM volatile ("uqsub8 %0, %1, %2" : "=r" (result) : "r" (op1), "r" (op2) );
 918:C:\Workspaces\DAVE-4.1\Flightcontroller_PWM_CopterRocks_Working/Libraries/CMSIS/Include\cmsis_gcc.h ****   return(result);
 919:C:\Workspaces\DAVE-4.1\Flightcontroller_PWM_CopterRocks_Working/Libraries/CMSIS/Include\cmsis_gcc.h **** }
 920:C:\Workspaces\DAVE-4.1\Flightcontroller_PWM_CopterRocks_Working/Libraries/CMSIS/Include\cmsis_gcc.h **** 
 921:C:\Workspaces\DAVE-4.1\Flightcontroller_PWM_CopterRocks_Working/Libraries/CMSIS/Include\cmsis_gcc.h **** __attribute__( ( always_inline ) ) __STATIC_INLINE uint32_t __UHSUB8(uint32_t op1, uint32_t op2)
 922:C:\Workspaces\DAVE-4.1\Flightcontroller_PWM_CopterRocks_Working/Libraries/CMSIS/Include\cmsis_gcc.h **** {
 923:C:\Workspaces\DAVE-4.1\Flightcontroller_PWM_CopterRocks_Working/Libraries/CMSIS/Include\cmsis_gcc.h ****   uint32_t result;
 924:C:\Workspaces\DAVE-4.1\Flightcontroller_PWM_CopterRocks_Working/Libraries/CMSIS/Include\cmsis_gcc.h **** 
 925:C:\Workspaces\DAVE-4.1\Flightcontroller_PWM_CopterRocks_Working/Libraries/CMSIS/Include\cmsis_gcc.h ****   __ASM volatile ("uhsub8 %0, %1, %2" : "=r" (result) : "r" (op1), "r" (op2) );
 926:C:\Workspaces\DAVE-4.1\Flightcontroller_PWM_CopterRocks_Working/Libraries/CMSIS/Include\cmsis_gcc.h ****   return(result);
 927:C:\Workspaces\DAVE-4.1\Flightcontroller_PWM_CopterRocks_Working/Libraries/CMSIS/Include\cmsis_gcc.h **** }
 928:C:\Workspaces\DAVE-4.1\Flightcontroller_PWM_CopterRocks_Working/Libraries/CMSIS/Include\cmsis_gcc.h **** 
 929:C:\Workspaces\DAVE-4.1\Flightcontroller_PWM_CopterRocks_Working/Libraries/CMSIS/Include\cmsis_gcc.h **** 
 930:C:\Workspaces\DAVE-4.1\Flightcontroller_PWM_CopterRocks_Working/Libraries/CMSIS/Include\cmsis_gcc.h **** __attribute__( ( always_inline ) ) __STATIC_INLINE uint32_t __SADD16(uint32_t op1, uint32_t op2)
 931:C:\Workspaces\DAVE-4.1\Flightcontroller_PWM_CopterRocks_Working/Libraries/CMSIS/Include\cmsis_gcc.h **** {
 932:C:\Workspaces\DAVE-4.1\Flightcontroller_PWM_CopterRocks_Working/Libraries/CMSIS/Include\cmsis_gcc.h ****   uint32_t result;
 933:C:\Workspaces\DAVE-4.1\Flightcontroller_PWM_CopterRocks_Working/Libraries/CMSIS/Include\cmsis_gcc.h **** 
 934:C:\Workspaces\DAVE-4.1\Flightcontroller_PWM_CopterRocks_Working/Libraries/CMSIS/Include\cmsis_gcc.h ****   __ASM volatile ("sadd16 %0, %1, %2" : "=r" (result) : "r" (op1), "r" (op2) );
 935:C:\Workspaces\DAVE-4.1\Flightcontroller_PWM_CopterRocks_Working/Libraries/CMSIS/Include\cmsis_gcc.h ****   return(result);
 936:C:\Workspaces\DAVE-4.1\Flightcontroller_PWM_CopterRocks_Working/Libraries/CMSIS/Include\cmsis_gcc.h **** }
 937:C:\Workspaces\DAVE-4.1\Flightcontroller_PWM_CopterRocks_Working/Libraries/CMSIS/Include\cmsis_gcc.h **** 
 938:C:\Workspaces\DAVE-4.1\Flightcontroller_PWM_CopterRocks_Working/Libraries/CMSIS/Include\cmsis_gcc.h **** __attribute__( ( always_inline ) ) __STATIC_INLINE uint32_t __QADD16(uint32_t op1, uint32_t op2)
 939:C:\Workspaces\DAVE-4.1\Flightcontroller_PWM_CopterRocks_Working/Libraries/CMSIS/Include\cmsis_gcc.h **** {
 940:C:\Workspaces\DAVE-4.1\Flightcontroller_PWM_CopterRocks_Working/Libraries/CMSIS/Include\cmsis_gcc.h ****   uint32_t result;
 941:C:\Workspaces\DAVE-4.1\Flightcontroller_PWM_CopterRocks_Working/Libraries/CMSIS/Include\cmsis_gcc.h **** 
 942:C:\Workspaces\DAVE-4.1\Flightcontroller_PWM_CopterRocks_Working/Libraries/CMSIS/Include\cmsis_gcc.h ****   __ASM volatile ("qadd16 %0, %1, %2" : "=r" (result) : "r" (op1), "r" (op2) );
 943:C:\Workspaces\DAVE-4.1\Flightcontroller_PWM_CopterRocks_Working/Libraries/CMSIS/Include\cmsis_gcc.h ****   return(result);
 944:C:\Workspaces\DAVE-4.1\Flightcontroller_PWM_CopterRocks_Working/Libraries/CMSIS/Include\cmsis_gcc.h **** }
 945:C:\Workspaces\DAVE-4.1\Flightcontroller_PWM_CopterRocks_Working/Libraries/CMSIS/Include\cmsis_gcc.h **** 
 946:C:\Workspaces\DAVE-4.1\Flightcontroller_PWM_CopterRocks_Working/Libraries/CMSIS/Include\cmsis_gcc.h **** __attribute__( ( always_inline ) ) __STATIC_INLINE uint32_t __SHADD16(uint32_t op1, uint32_t op2)
 947:C:\Workspaces\DAVE-4.1\Flightcontroller_PWM_CopterRocks_Working/Libraries/CMSIS/Include\cmsis_gcc.h **** {
 948:C:\Workspaces\DAVE-4.1\Flightcontroller_PWM_CopterRocks_Working/Libraries/CMSIS/Include\cmsis_gcc.h ****   uint32_t result;
 949:C:\Workspaces\DAVE-4.1\Flightcontroller_PWM_CopterRocks_Working/Libraries/CMSIS/Include\cmsis_gcc.h **** 
 950:C:\Workspaces\DAVE-4.1\Flightcontroller_PWM_CopterRocks_Working/Libraries/CMSIS/Include\cmsis_gcc.h ****   __ASM volatile ("shadd16 %0, %1, %2" : "=r" (result) : "r" (op1), "r" (op2) );
 951:C:\Workspaces\DAVE-4.1\Flightcontroller_PWM_CopterRocks_Working/Libraries/CMSIS/Include\cmsis_gcc.h ****   return(result);
 952:C:\Workspaces\DAVE-4.1\Flightcontroller_PWM_CopterRocks_Working/Libraries/CMSIS/Include\cmsis_gcc.h **** }
 953:C:\Workspaces\DAVE-4.1\Flightcontroller_PWM_CopterRocks_Working/Libraries/CMSIS/Include\cmsis_gcc.h **** 
 954:C:\Workspaces\DAVE-4.1\Flightcontroller_PWM_CopterRocks_Working/Libraries/CMSIS/Include\cmsis_gcc.h **** __attribute__( ( always_inline ) ) __STATIC_INLINE uint32_t __UADD16(uint32_t op1, uint32_t op2)
 955:C:\Workspaces\DAVE-4.1\Flightcontroller_PWM_CopterRocks_Working/Libraries/CMSIS/Include\cmsis_gcc.h **** {
 956:C:\Workspaces\DAVE-4.1\Flightcontroller_PWM_CopterRocks_Working/Libraries/CMSIS/Include\cmsis_gcc.h ****   uint32_t result;
 957:C:\Workspaces\DAVE-4.1\Flightcontroller_PWM_CopterRocks_Working/Libraries/CMSIS/Include\cmsis_gcc.h **** 
 958:C:\Workspaces\DAVE-4.1\Flightcontroller_PWM_CopterRocks_Working/Libraries/CMSIS/Include\cmsis_gcc.h ****   __ASM volatile ("uadd16 %0, %1, %2" : "=r" (result) : "r" (op1), "r" (op2) );
 959:C:\Workspaces\DAVE-4.1\Flightcontroller_PWM_CopterRocks_Working/Libraries/CMSIS/Include\cmsis_gcc.h ****   return(result);
 960:C:\Workspaces\DAVE-4.1\Flightcontroller_PWM_CopterRocks_Working/Libraries/CMSIS/Include\cmsis_gcc.h **** }
 961:C:\Workspaces\DAVE-4.1\Flightcontroller_PWM_CopterRocks_Working/Libraries/CMSIS/Include\cmsis_gcc.h **** 
 962:C:\Workspaces\DAVE-4.1\Flightcontroller_PWM_CopterRocks_Working/Libraries/CMSIS/Include\cmsis_gcc.h **** __attribute__( ( always_inline ) ) __STATIC_INLINE uint32_t __UQADD16(uint32_t op1, uint32_t op2)
 963:C:\Workspaces\DAVE-4.1\Flightcontroller_PWM_CopterRocks_Working/Libraries/CMSIS/Include\cmsis_gcc.h **** {
 964:C:\Workspaces\DAVE-4.1\Flightcontroller_PWM_CopterRocks_Working/Libraries/CMSIS/Include\cmsis_gcc.h ****   uint32_t result;
 965:C:\Workspaces\DAVE-4.1\Flightcontroller_PWM_CopterRocks_Working/Libraries/CMSIS/Include\cmsis_gcc.h **** 
 966:C:\Workspaces\DAVE-4.1\Flightcontroller_PWM_CopterRocks_Working/Libraries/CMSIS/Include\cmsis_gcc.h ****   __ASM volatile ("uqadd16 %0, %1, %2" : "=r" (result) : "r" (op1), "r" (op2) );
 967:C:\Workspaces\DAVE-4.1\Flightcontroller_PWM_CopterRocks_Working/Libraries/CMSIS/Include\cmsis_gcc.h ****   return(result);
 968:C:\Workspaces\DAVE-4.1\Flightcontroller_PWM_CopterRocks_Working/Libraries/CMSIS/Include\cmsis_gcc.h **** }
 969:C:\Workspaces\DAVE-4.1\Flightcontroller_PWM_CopterRocks_Working/Libraries/CMSIS/Include\cmsis_gcc.h **** 
 970:C:\Workspaces\DAVE-4.1\Flightcontroller_PWM_CopterRocks_Working/Libraries/CMSIS/Include\cmsis_gcc.h **** __attribute__( ( always_inline ) ) __STATIC_INLINE uint32_t __UHADD16(uint32_t op1, uint32_t op2)
 971:C:\Workspaces\DAVE-4.1\Flightcontroller_PWM_CopterRocks_Working/Libraries/CMSIS/Include\cmsis_gcc.h **** {
 972:C:\Workspaces\DAVE-4.1\Flightcontroller_PWM_CopterRocks_Working/Libraries/CMSIS/Include\cmsis_gcc.h ****   uint32_t result;
 973:C:\Workspaces\DAVE-4.1\Flightcontroller_PWM_CopterRocks_Working/Libraries/CMSIS/Include\cmsis_gcc.h **** 
 974:C:\Workspaces\DAVE-4.1\Flightcontroller_PWM_CopterRocks_Working/Libraries/CMSIS/Include\cmsis_gcc.h ****   __ASM volatile ("uhadd16 %0, %1, %2" : "=r" (result) : "r" (op1), "r" (op2) );
 975:C:\Workspaces\DAVE-4.1\Flightcontroller_PWM_CopterRocks_Working/Libraries/CMSIS/Include\cmsis_gcc.h ****   return(result);
 976:C:\Workspaces\DAVE-4.1\Flightcontroller_PWM_CopterRocks_Working/Libraries/CMSIS/Include\cmsis_gcc.h **** }
 977:C:\Workspaces\DAVE-4.1\Flightcontroller_PWM_CopterRocks_Working/Libraries/CMSIS/Include\cmsis_gcc.h **** 
 978:C:\Workspaces\DAVE-4.1\Flightcontroller_PWM_CopterRocks_Working/Libraries/CMSIS/Include\cmsis_gcc.h **** __attribute__( ( always_inline ) ) __STATIC_INLINE uint32_t __SSUB16(uint32_t op1, uint32_t op2)
 979:C:\Workspaces\DAVE-4.1\Flightcontroller_PWM_CopterRocks_Working/Libraries/CMSIS/Include\cmsis_gcc.h **** {
 980:C:\Workspaces\DAVE-4.1\Flightcontroller_PWM_CopterRocks_Working/Libraries/CMSIS/Include\cmsis_gcc.h ****   uint32_t result;
 981:C:\Workspaces\DAVE-4.1\Flightcontroller_PWM_CopterRocks_Working/Libraries/CMSIS/Include\cmsis_gcc.h **** 
 982:C:\Workspaces\DAVE-4.1\Flightcontroller_PWM_CopterRocks_Working/Libraries/CMSIS/Include\cmsis_gcc.h ****   __ASM volatile ("ssub16 %0, %1, %2" : "=r" (result) : "r" (op1), "r" (op2) );
 983:C:\Workspaces\DAVE-4.1\Flightcontroller_PWM_CopterRocks_Working/Libraries/CMSIS/Include\cmsis_gcc.h ****   return(result);
 984:C:\Workspaces\DAVE-4.1\Flightcontroller_PWM_CopterRocks_Working/Libraries/CMSIS/Include\cmsis_gcc.h **** }
 985:C:\Workspaces\DAVE-4.1\Flightcontroller_PWM_CopterRocks_Working/Libraries/CMSIS/Include\cmsis_gcc.h **** 
 986:C:\Workspaces\DAVE-4.1\Flightcontroller_PWM_CopterRocks_Working/Libraries/CMSIS/Include\cmsis_gcc.h **** __attribute__( ( always_inline ) ) __STATIC_INLINE uint32_t __QSUB16(uint32_t op1, uint32_t op2)
 987:C:\Workspaces\DAVE-4.1\Flightcontroller_PWM_CopterRocks_Working/Libraries/CMSIS/Include\cmsis_gcc.h **** {
 988:C:\Workspaces\DAVE-4.1\Flightcontroller_PWM_CopterRocks_Working/Libraries/CMSIS/Include\cmsis_gcc.h ****   uint32_t result;
 989:C:\Workspaces\DAVE-4.1\Flightcontroller_PWM_CopterRocks_Working/Libraries/CMSIS/Include\cmsis_gcc.h **** 
 990:C:\Workspaces\DAVE-4.1\Flightcontroller_PWM_CopterRocks_Working/Libraries/CMSIS/Include\cmsis_gcc.h ****   __ASM volatile ("qsub16 %0, %1, %2" : "=r" (result) : "r" (op1), "r" (op2) );
 991:C:\Workspaces\DAVE-4.1\Flightcontroller_PWM_CopterRocks_Working/Libraries/CMSIS/Include\cmsis_gcc.h ****   return(result);
 992:C:\Workspaces\DAVE-4.1\Flightcontroller_PWM_CopterRocks_Working/Libraries/CMSIS/Include\cmsis_gcc.h **** }
 993:C:\Workspaces\DAVE-4.1\Flightcontroller_PWM_CopterRocks_Working/Libraries/CMSIS/Include\cmsis_gcc.h **** 
 994:C:\Workspaces\DAVE-4.1\Flightcontroller_PWM_CopterRocks_Working/Libraries/CMSIS/Include\cmsis_gcc.h **** __attribute__( ( always_inline ) ) __STATIC_INLINE uint32_t __SHSUB16(uint32_t op1, uint32_t op2)
 995:C:\Workspaces\DAVE-4.1\Flightcontroller_PWM_CopterRocks_Working/Libraries/CMSIS/Include\cmsis_gcc.h **** {
 996:C:\Workspaces\DAVE-4.1\Flightcontroller_PWM_CopterRocks_Working/Libraries/CMSIS/Include\cmsis_gcc.h ****   uint32_t result;
 997:C:\Workspaces\DAVE-4.1\Flightcontroller_PWM_CopterRocks_Working/Libraries/CMSIS/Include\cmsis_gcc.h **** 
 998:C:\Workspaces\DAVE-4.1\Flightcontroller_PWM_CopterRocks_Working/Libraries/CMSIS/Include\cmsis_gcc.h ****   __ASM volatile ("shsub16 %0, %1, %2" : "=r" (result) : "r" (op1), "r" (op2) );
 999:C:\Workspaces\DAVE-4.1\Flightcontroller_PWM_CopterRocks_Working/Libraries/CMSIS/Include\cmsis_gcc.h ****   return(result);
1000:C:\Workspaces\DAVE-4.1\Flightcontroller_PWM_CopterRocks_Working/Libraries/CMSIS/Include\cmsis_gcc.h **** }
1001:C:\Workspaces\DAVE-4.1\Flightcontroller_PWM_CopterRocks_Working/Libraries/CMSIS/Include\cmsis_gcc.h **** 
1002:C:\Workspaces\DAVE-4.1\Flightcontroller_PWM_CopterRocks_Working/Libraries/CMSIS/Include\cmsis_gcc.h **** __attribute__( ( always_inline ) ) __STATIC_INLINE uint32_t __USUB16(uint32_t op1, uint32_t op2)
1003:C:\Workspaces\DAVE-4.1\Flightcontroller_PWM_CopterRocks_Working/Libraries/CMSIS/Include\cmsis_gcc.h **** {
1004:C:\Workspaces\DAVE-4.1\Flightcontroller_PWM_CopterRocks_Working/Libraries/CMSIS/Include\cmsis_gcc.h ****   uint32_t result;
1005:C:\Workspaces\DAVE-4.1\Flightcontroller_PWM_CopterRocks_Working/Libraries/CMSIS/Include\cmsis_gcc.h **** 
1006:C:\Workspaces\DAVE-4.1\Flightcontroller_PWM_CopterRocks_Working/Libraries/CMSIS/Include\cmsis_gcc.h ****   __ASM volatile ("usub16 %0, %1, %2" : "=r" (result) : "r" (op1), "r" (op2) );
1007:C:\Workspaces\DAVE-4.1\Flightcontroller_PWM_CopterRocks_Working/Libraries/CMSIS/Include\cmsis_gcc.h ****   return(result);
1008:C:\Workspaces\DAVE-4.1\Flightcontroller_PWM_CopterRocks_Working/Libraries/CMSIS/Include\cmsis_gcc.h **** }
1009:C:\Workspaces\DAVE-4.1\Flightcontroller_PWM_CopterRocks_Working/Libraries/CMSIS/Include\cmsis_gcc.h **** 
1010:C:\Workspaces\DAVE-4.1\Flightcontroller_PWM_CopterRocks_Working/Libraries/CMSIS/Include\cmsis_gcc.h **** __attribute__( ( always_inline ) ) __STATIC_INLINE uint32_t __UQSUB16(uint32_t op1, uint32_t op2)
1011:C:\Workspaces\DAVE-4.1\Flightcontroller_PWM_CopterRocks_Working/Libraries/CMSIS/Include\cmsis_gcc.h **** {
1012:C:\Workspaces\DAVE-4.1\Flightcontroller_PWM_CopterRocks_Working/Libraries/CMSIS/Include\cmsis_gcc.h ****   uint32_t result;
1013:C:\Workspaces\DAVE-4.1\Flightcontroller_PWM_CopterRocks_Working/Libraries/CMSIS/Include\cmsis_gcc.h **** 
1014:C:\Workspaces\DAVE-4.1\Flightcontroller_PWM_CopterRocks_Working/Libraries/CMSIS/Include\cmsis_gcc.h ****   __ASM volatile ("uqsub16 %0, %1, %2" : "=r" (result) : "r" (op1), "r" (op2) );
1015:C:\Workspaces\DAVE-4.1\Flightcontroller_PWM_CopterRocks_Working/Libraries/CMSIS/Include\cmsis_gcc.h ****   return(result);
1016:C:\Workspaces\DAVE-4.1\Flightcontroller_PWM_CopterRocks_Working/Libraries/CMSIS/Include\cmsis_gcc.h **** }
1017:C:\Workspaces\DAVE-4.1\Flightcontroller_PWM_CopterRocks_Working/Libraries/CMSIS/Include\cmsis_gcc.h **** 
1018:C:\Workspaces\DAVE-4.1\Flightcontroller_PWM_CopterRocks_Working/Libraries/CMSIS/Include\cmsis_gcc.h **** __attribute__( ( always_inline ) ) __STATIC_INLINE uint32_t __UHSUB16(uint32_t op1, uint32_t op2)
1019:C:\Workspaces\DAVE-4.1\Flightcontroller_PWM_CopterRocks_Working/Libraries/CMSIS/Include\cmsis_gcc.h **** {
1020:C:\Workspaces\DAVE-4.1\Flightcontroller_PWM_CopterRocks_Working/Libraries/CMSIS/Include\cmsis_gcc.h ****   uint32_t result;
1021:C:\Workspaces\DAVE-4.1\Flightcontroller_PWM_CopterRocks_Working/Libraries/CMSIS/Include\cmsis_gcc.h **** 
1022:C:\Workspaces\DAVE-4.1\Flightcontroller_PWM_CopterRocks_Working/Libraries/CMSIS/Include\cmsis_gcc.h ****   __ASM volatile ("uhsub16 %0, %1, %2" : "=r" (result) : "r" (op1), "r" (op2) );
1023:C:\Workspaces\DAVE-4.1\Flightcontroller_PWM_CopterRocks_Working/Libraries/CMSIS/Include\cmsis_gcc.h ****   return(result);
1024:C:\Workspaces\DAVE-4.1\Flightcontroller_PWM_CopterRocks_Working/Libraries/CMSIS/Include\cmsis_gcc.h **** }
1025:C:\Workspaces\DAVE-4.1\Flightcontroller_PWM_CopterRocks_Working/Libraries/CMSIS/Include\cmsis_gcc.h **** 
1026:C:\Workspaces\DAVE-4.1\Flightcontroller_PWM_CopterRocks_Working/Libraries/CMSIS/Include\cmsis_gcc.h **** __attribute__( ( always_inline ) ) __STATIC_INLINE uint32_t __SASX(uint32_t op1, uint32_t op2)
1027:C:\Workspaces\DAVE-4.1\Flightcontroller_PWM_CopterRocks_Working/Libraries/CMSIS/Include\cmsis_gcc.h **** {
1028:C:\Workspaces\DAVE-4.1\Flightcontroller_PWM_CopterRocks_Working/Libraries/CMSIS/Include\cmsis_gcc.h ****   uint32_t result;
1029:C:\Workspaces\DAVE-4.1\Flightcontroller_PWM_CopterRocks_Working/Libraries/CMSIS/Include\cmsis_gcc.h **** 
1030:C:\Workspaces\DAVE-4.1\Flightcontroller_PWM_CopterRocks_Working/Libraries/CMSIS/Include\cmsis_gcc.h ****   __ASM volatile ("sasx %0, %1, %2" : "=r" (result) : "r" (op1), "r" (op2) );
1031:C:\Workspaces\DAVE-4.1\Flightcontroller_PWM_CopterRocks_Working/Libraries/CMSIS/Include\cmsis_gcc.h ****   return(result);
1032:C:\Workspaces\DAVE-4.1\Flightcontroller_PWM_CopterRocks_Working/Libraries/CMSIS/Include\cmsis_gcc.h **** }
1033:C:\Workspaces\DAVE-4.1\Flightcontroller_PWM_CopterRocks_Working/Libraries/CMSIS/Include\cmsis_gcc.h **** 
1034:C:\Workspaces\DAVE-4.1\Flightcontroller_PWM_CopterRocks_Working/Libraries/CMSIS/Include\cmsis_gcc.h **** __attribute__( ( always_inline ) ) __STATIC_INLINE uint32_t __QASX(uint32_t op1, uint32_t op2)
1035:C:\Workspaces\DAVE-4.1\Flightcontroller_PWM_CopterRocks_Working/Libraries/CMSIS/Include\cmsis_gcc.h **** {
1036:C:\Workspaces\DAVE-4.1\Flightcontroller_PWM_CopterRocks_Working/Libraries/CMSIS/Include\cmsis_gcc.h ****   uint32_t result;
1037:C:\Workspaces\DAVE-4.1\Flightcontroller_PWM_CopterRocks_Working/Libraries/CMSIS/Include\cmsis_gcc.h **** 
1038:C:\Workspaces\DAVE-4.1\Flightcontroller_PWM_CopterRocks_Working/Libraries/CMSIS/Include\cmsis_gcc.h ****   __ASM volatile ("qasx %0, %1, %2" : "=r" (result) : "r" (op1), "r" (op2) );
1039:C:\Workspaces\DAVE-4.1\Flightcontroller_PWM_CopterRocks_Working/Libraries/CMSIS/Include\cmsis_gcc.h ****   return(result);
1040:C:\Workspaces\DAVE-4.1\Flightcontroller_PWM_CopterRocks_Working/Libraries/CMSIS/Include\cmsis_gcc.h **** }
1041:C:\Workspaces\DAVE-4.1\Flightcontroller_PWM_CopterRocks_Working/Libraries/CMSIS/Include\cmsis_gcc.h **** 
1042:C:\Workspaces\DAVE-4.1\Flightcontroller_PWM_CopterRocks_Working/Libraries/CMSIS/Include\cmsis_gcc.h **** __attribute__( ( always_inline ) ) __STATIC_INLINE uint32_t __SHASX(uint32_t op1, uint32_t op2)
1043:C:\Workspaces\DAVE-4.1\Flightcontroller_PWM_CopterRocks_Working/Libraries/CMSIS/Include\cmsis_gcc.h **** {
1044:C:\Workspaces\DAVE-4.1\Flightcontroller_PWM_CopterRocks_Working/Libraries/CMSIS/Include\cmsis_gcc.h ****   uint32_t result;
1045:C:\Workspaces\DAVE-4.1\Flightcontroller_PWM_CopterRocks_Working/Libraries/CMSIS/Include\cmsis_gcc.h **** 
1046:C:\Workspaces\DAVE-4.1\Flightcontroller_PWM_CopterRocks_Working/Libraries/CMSIS/Include\cmsis_gcc.h ****   __ASM volatile ("shasx %0, %1, %2" : "=r" (result) : "r" (op1), "r" (op2) );
1047:C:\Workspaces\DAVE-4.1\Flightcontroller_PWM_CopterRocks_Working/Libraries/CMSIS/Include\cmsis_gcc.h ****   return(result);
1048:C:\Workspaces\DAVE-4.1\Flightcontroller_PWM_CopterRocks_Working/Libraries/CMSIS/Include\cmsis_gcc.h **** }
1049:C:\Workspaces\DAVE-4.1\Flightcontroller_PWM_CopterRocks_Working/Libraries/CMSIS/Include\cmsis_gcc.h **** 
1050:C:\Workspaces\DAVE-4.1\Flightcontroller_PWM_CopterRocks_Working/Libraries/CMSIS/Include\cmsis_gcc.h **** __attribute__( ( always_inline ) ) __STATIC_INLINE uint32_t __UASX(uint32_t op1, uint32_t op2)
1051:C:\Workspaces\DAVE-4.1\Flightcontroller_PWM_CopterRocks_Working/Libraries/CMSIS/Include\cmsis_gcc.h **** {
1052:C:\Workspaces\DAVE-4.1\Flightcontroller_PWM_CopterRocks_Working/Libraries/CMSIS/Include\cmsis_gcc.h ****   uint32_t result;
1053:C:\Workspaces\DAVE-4.1\Flightcontroller_PWM_CopterRocks_Working/Libraries/CMSIS/Include\cmsis_gcc.h **** 
1054:C:\Workspaces\DAVE-4.1\Flightcontroller_PWM_CopterRocks_Working/Libraries/CMSIS/Include\cmsis_gcc.h ****   __ASM volatile ("uasx %0, %1, %2" : "=r" (result) : "r" (op1), "r" (op2) );
1055:C:\Workspaces\DAVE-4.1\Flightcontroller_PWM_CopterRocks_Working/Libraries/CMSIS/Include\cmsis_gcc.h ****   return(result);
1056:C:\Workspaces\DAVE-4.1\Flightcontroller_PWM_CopterRocks_Working/Libraries/CMSIS/Include\cmsis_gcc.h **** }
1057:C:\Workspaces\DAVE-4.1\Flightcontroller_PWM_CopterRocks_Working/Libraries/CMSIS/Include\cmsis_gcc.h **** 
1058:C:\Workspaces\DAVE-4.1\Flightcontroller_PWM_CopterRocks_Working/Libraries/CMSIS/Include\cmsis_gcc.h **** __attribute__( ( always_inline ) ) __STATIC_INLINE uint32_t __UQASX(uint32_t op1, uint32_t op2)
1059:C:\Workspaces\DAVE-4.1\Flightcontroller_PWM_CopterRocks_Working/Libraries/CMSIS/Include\cmsis_gcc.h **** {
1060:C:\Workspaces\DAVE-4.1\Flightcontroller_PWM_CopterRocks_Working/Libraries/CMSIS/Include\cmsis_gcc.h ****   uint32_t result;
1061:C:\Workspaces\DAVE-4.1\Flightcontroller_PWM_CopterRocks_Working/Libraries/CMSIS/Include\cmsis_gcc.h **** 
1062:C:\Workspaces\DAVE-4.1\Flightcontroller_PWM_CopterRocks_Working/Libraries/CMSIS/Include\cmsis_gcc.h ****   __ASM volatile ("uqasx %0, %1, %2" : "=r" (result) : "r" (op1), "r" (op2) );
1063:C:\Workspaces\DAVE-4.1\Flightcontroller_PWM_CopterRocks_Working/Libraries/CMSIS/Include\cmsis_gcc.h ****   return(result);
1064:C:\Workspaces\DAVE-4.1\Flightcontroller_PWM_CopterRocks_Working/Libraries/CMSIS/Include\cmsis_gcc.h **** }
1065:C:\Workspaces\DAVE-4.1\Flightcontroller_PWM_CopterRocks_Working/Libraries/CMSIS/Include\cmsis_gcc.h **** 
1066:C:\Workspaces\DAVE-4.1\Flightcontroller_PWM_CopterRocks_Working/Libraries/CMSIS/Include\cmsis_gcc.h **** __attribute__( ( always_inline ) ) __STATIC_INLINE uint32_t __UHASX(uint32_t op1, uint32_t op2)
1067:C:\Workspaces\DAVE-4.1\Flightcontroller_PWM_CopterRocks_Working/Libraries/CMSIS/Include\cmsis_gcc.h **** {
1068:C:\Workspaces\DAVE-4.1\Flightcontroller_PWM_CopterRocks_Working/Libraries/CMSIS/Include\cmsis_gcc.h ****   uint32_t result;
1069:C:\Workspaces\DAVE-4.1\Flightcontroller_PWM_CopterRocks_Working/Libraries/CMSIS/Include\cmsis_gcc.h **** 
1070:C:\Workspaces\DAVE-4.1\Flightcontroller_PWM_CopterRocks_Working/Libraries/CMSIS/Include\cmsis_gcc.h ****   __ASM volatile ("uhasx %0, %1, %2" : "=r" (result) : "r" (op1), "r" (op2) );
1071:C:\Workspaces\DAVE-4.1\Flightcontroller_PWM_CopterRocks_Working/Libraries/CMSIS/Include\cmsis_gcc.h ****   return(result);
1072:C:\Workspaces\DAVE-4.1\Flightcontroller_PWM_CopterRocks_Working/Libraries/CMSIS/Include\cmsis_gcc.h **** }
1073:C:\Workspaces\DAVE-4.1\Flightcontroller_PWM_CopterRocks_Working/Libraries/CMSIS/Include\cmsis_gcc.h **** 
1074:C:\Workspaces\DAVE-4.1\Flightcontroller_PWM_CopterRocks_Working/Libraries/CMSIS/Include\cmsis_gcc.h **** __attribute__( ( always_inline ) ) __STATIC_INLINE uint32_t __SSAX(uint32_t op1, uint32_t op2)
1075:C:\Workspaces\DAVE-4.1\Flightcontroller_PWM_CopterRocks_Working/Libraries/CMSIS/Include\cmsis_gcc.h **** {
1076:C:\Workspaces\DAVE-4.1\Flightcontroller_PWM_CopterRocks_Working/Libraries/CMSIS/Include\cmsis_gcc.h ****   uint32_t result;
1077:C:\Workspaces\DAVE-4.1\Flightcontroller_PWM_CopterRocks_Working/Libraries/CMSIS/Include\cmsis_gcc.h **** 
1078:C:\Workspaces\DAVE-4.1\Flightcontroller_PWM_CopterRocks_Working/Libraries/CMSIS/Include\cmsis_gcc.h ****   __ASM volatile ("ssax %0, %1, %2" : "=r" (result) : "r" (op1), "r" (op2) );
1079:C:\Workspaces\DAVE-4.1\Flightcontroller_PWM_CopterRocks_Working/Libraries/CMSIS/Include\cmsis_gcc.h ****   return(result);
1080:C:\Workspaces\DAVE-4.1\Flightcontroller_PWM_CopterRocks_Working/Libraries/CMSIS/Include\cmsis_gcc.h **** }
1081:C:\Workspaces\DAVE-4.1\Flightcontroller_PWM_CopterRocks_Working/Libraries/CMSIS/Include\cmsis_gcc.h **** 
1082:C:\Workspaces\DAVE-4.1\Flightcontroller_PWM_CopterRocks_Working/Libraries/CMSIS/Include\cmsis_gcc.h **** __attribute__( ( always_inline ) ) __STATIC_INLINE uint32_t __QSAX(uint32_t op1, uint32_t op2)
1083:C:\Workspaces\DAVE-4.1\Flightcontroller_PWM_CopterRocks_Working/Libraries/CMSIS/Include\cmsis_gcc.h **** {
1084:C:\Workspaces\DAVE-4.1\Flightcontroller_PWM_CopterRocks_Working/Libraries/CMSIS/Include\cmsis_gcc.h ****   uint32_t result;
1085:C:\Workspaces\DAVE-4.1\Flightcontroller_PWM_CopterRocks_Working/Libraries/CMSIS/Include\cmsis_gcc.h **** 
1086:C:\Workspaces\DAVE-4.1\Flightcontroller_PWM_CopterRocks_Working/Libraries/CMSIS/Include\cmsis_gcc.h ****   __ASM volatile ("qsax %0, %1, %2" : "=r" (result) : "r" (op1), "r" (op2) );
1087:C:\Workspaces\DAVE-4.1\Flightcontroller_PWM_CopterRocks_Working/Libraries/CMSIS/Include\cmsis_gcc.h ****   return(result);
1088:C:\Workspaces\DAVE-4.1\Flightcontroller_PWM_CopterRocks_Working/Libraries/CMSIS/Include\cmsis_gcc.h **** }
1089:C:\Workspaces\DAVE-4.1\Flightcontroller_PWM_CopterRocks_Working/Libraries/CMSIS/Include\cmsis_gcc.h **** 
1090:C:\Workspaces\DAVE-4.1\Flightcontroller_PWM_CopterRocks_Working/Libraries/CMSIS/Include\cmsis_gcc.h **** __attribute__( ( always_inline ) ) __STATIC_INLINE uint32_t __SHSAX(uint32_t op1, uint32_t op2)
1091:C:\Workspaces\DAVE-4.1\Flightcontroller_PWM_CopterRocks_Working/Libraries/CMSIS/Include\cmsis_gcc.h **** {
1092:C:\Workspaces\DAVE-4.1\Flightcontroller_PWM_CopterRocks_Working/Libraries/CMSIS/Include\cmsis_gcc.h ****   uint32_t result;
1093:C:\Workspaces\DAVE-4.1\Flightcontroller_PWM_CopterRocks_Working/Libraries/CMSIS/Include\cmsis_gcc.h **** 
1094:C:\Workspaces\DAVE-4.1\Flightcontroller_PWM_CopterRocks_Working/Libraries/CMSIS/Include\cmsis_gcc.h ****   __ASM volatile ("shsax %0, %1, %2" : "=r" (result) : "r" (op1), "r" (op2) );
1095:C:\Workspaces\DAVE-4.1\Flightcontroller_PWM_CopterRocks_Working/Libraries/CMSIS/Include\cmsis_gcc.h ****   return(result);
1096:C:\Workspaces\DAVE-4.1\Flightcontroller_PWM_CopterRocks_Working/Libraries/CMSIS/Include\cmsis_gcc.h **** }
1097:C:\Workspaces\DAVE-4.1\Flightcontroller_PWM_CopterRocks_Working/Libraries/CMSIS/Include\cmsis_gcc.h **** 
1098:C:\Workspaces\DAVE-4.1\Flightcontroller_PWM_CopterRocks_Working/Libraries/CMSIS/Include\cmsis_gcc.h **** __attribute__( ( always_inline ) ) __STATIC_INLINE uint32_t __USAX(uint32_t op1, uint32_t op2)
1099:C:\Workspaces\DAVE-4.1\Flightcontroller_PWM_CopterRocks_Working/Libraries/CMSIS/Include\cmsis_gcc.h **** {
1100:C:\Workspaces\DAVE-4.1\Flightcontroller_PWM_CopterRocks_Working/Libraries/CMSIS/Include\cmsis_gcc.h ****   uint32_t result;
1101:C:\Workspaces\DAVE-4.1\Flightcontroller_PWM_CopterRocks_Working/Libraries/CMSIS/Include\cmsis_gcc.h **** 
1102:C:\Workspaces\DAVE-4.1\Flightcontroller_PWM_CopterRocks_Working/Libraries/CMSIS/Include\cmsis_gcc.h ****   __ASM volatile ("usax %0, %1, %2" : "=r" (result) : "r" (op1), "r" (op2) );
1103:C:\Workspaces\DAVE-4.1\Flightcontroller_PWM_CopterRocks_Working/Libraries/CMSIS/Include\cmsis_gcc.h ****   return(result);
1104:C:\Workspaces\DAVE-4.1\Flightcontroller_PWM_CopterRocks_Working/Libraries/CMSIS/Include\cmsis_gcc.h **** }
1105:C:\Workspaces\DAVE-4.1\Flightcontroller_PWM_CopterRocks_Working/Libraries/CMSIS/Include\cmsis_gcc.h **** 
1106:C:\Workspaces\DAVE-4.1\Flightcontroller_PWM_CopterRocks_Working/Libraries/CMSIS/Include\cmsis_gcc.h **** __attribute__( ( always_inline ) ) __STATIC_INLINE uint32_t __UQSAX(uint32_t op1, uint32_t op2)
1107:C:\Workspaces\DAVE-4.1\Flightcontroller_PWM_CopterRocks_Working/Libraries/CMSIS/Include\cmsis_gcc.h **** {
1108:C:\Workspaces\DAVE-4.1\Flightcontroller_PWM_CopterRocks_Working/Libraries/CMSIS/Include\cmsis_gcc.h ****   uint32_t result;
1109:C:\Workspaces\DAVE-4.1\Flightcontroller_PWM_CopterRocks_Working/Libraries/CMSIS/Include\cmsis_gcc.h **** 
1110:C:\Workspaces\DAVE-4.1\Flightcontroller_PWM_CopterRocks_Working/Libraries/CMSIS/Include\cmsis_gcc.h ****   __ASM volatile ("uqsax %0, %1, %2" : "=r" (result) : "r" (op1), "r" (op2) );
1111:C:\Workspaces\DAVE-4.1\Flightcontroller_PWM_CopterRocks_Working/Libraries/CMSIS/Include\cmsis_gcc.h ****   return(result);
1112:C:\Workspaces\DAVE-4.1\Flightcontroller_PWM_CopterRocks_Working/Libraries/CMSIS/Include\cmsis_gcc.h **** }
1113:C:\Workspaces\DAVE-4.1\Flightcontroller_PWM_CopterRocks_Working/Libraries/CMSIS/Include\cmsis_gcc.h **** 
1114:C:\Workspaces\DAVE-4.1\Flightcontroller_PWM_CopterRocks_Working/Libraries/CMSIS/Include\cmsis_gcc.h **** __attribute__( ( always_inline ) ) __STATIC_INLINE uint32_t __UHSAX(uint32_t op1, uint32_t op2)
1115:C:\Workspaces\DAVE-4.1\Flightcontroller_PWM_CopterRocks_Working/Libraries/CMSIS/Include\cmsis_gcc.h **** {
1116:C:\Workspaces\DAVE-4.1\Flightcontroller_PWM_CopterRocks_Working/Libraries/CMSIS/Include\cmsis_gcc.h ****   uint32_t result;
1117:C:\Workspaces\DAVE-4.1\Flightcontroller_PWM_CopterRocks_Working/Libraries/CMSIS/Include\cmsis_gcc.h **** 
1118:C:\Workspaces\DAVE-4.1\Flightcontroller_PWM_CopterRocks_Working/Libraries/CMSIS/Include\cmsis_gcc.h ****   __ASM volatile ("uhsax %0, %1, %2" : "=r" (result) : "r" (op1), "r" (op2) );
1119:C:\Workspaces\DAVE-4.1\Flightcontroller_PWM_CopterRocks_Working/Libraries/CMSIS/Include\cmsis_gcc.h ****   return(result);
1120:C:\Workspaces\DAVE-4.1\Flightcontroller_PWM_CopterRocks_Working/Libraries/CMSIS/Include\cmsis_gcc.h **** }
1121:C:\Workspaces\DAVE-4.1\Flightcontroller_PWM_CopterRocks_Working/Libraries/CMSIS/Include\cmsis_gcc.h **** 
1122:C:\Workspaces\DAVE-4.1\Flightcontroller_PWM_CopterRocks_Working/Libraries/CMSIS/Include\cmsis_gcc.h **** __attribute__( ( always_inline ) ) __STATIC_INLINE uint32_t __USAD8(uint32_t op1, uint32_t op2)
1123:C:\Workspaces\DAVE-4.1\Flightcontroller_PWM_CopterRocks_Working/Libraries/CMSIS/Include\cmsis_gcc.h **** {
1124:C:\Workspaces\DAVE-4.1\Flightcontroller_PWM_CopterRocks_Working/Libraries/CMSIS/Include\cmsis_gcc.h ****   uint32_t result;
1125:C:\Workspaces\DAVE-4.1\Flightcontroller_PWM_CopterRocks_Working/Libraries/CMSIS/Include\cmsis_gcc.h **** 
1126:C:\Workspaces\DAVE-4.1\Flightcontroller_PWM_CopterRocks_Working/Libraries/CMSIS/Include\cmsis_gcc.h ****   __ASM volatile ("usad8 %0, %1, %2" : "=r" (result) : "r" (op1), "r" (op2) );
1127:C:\Workspaces\DAVE-4.1\Flightcontroller_PWM_CopterRocks_Working/Libraries/CMSIS/Include\cmsis_gcc.h ****   return(result);
1128:C:\Workspaces\DAVE-4.1\Flightcontroller_PWM_CopterRocks_Working/Libraries/CMSIS/Include\cmsis_gcc.h **** }
1129:C:\Workspaces\DAVE-4.1\Flightcontroller_PWM_CopterRocks_Working/Libraries/CMSIS/Include\cmsis_gcc.h **** 
1130:C:\Workspaces\DAVE-4.1\Flightcontroller_PWM_CopterRocks_Working/Libraries/CMSIS/Include\cmsis_gcc.h **** __attribute__( ( always_inline ) ) __STATIC_INLINE uint32_t __USADA8(uint32_t op1, uint32_t op2, ui
1131:C:\Workspaces\DAVE-4.1\Flightcontroller_PWM_CopterRocks_Working/Libraries/CMSIS/Include\cmsis_gcc.h **** {
1132:C:\Workspaces\DAVE-4.1\Flightcontroller_PWM_CopterRocks_Working/Libraries/CMSIS/Include\cmsis_gcc.h ****   uint32_t result;
1133:C:\Workspaces\DAVE-4.1\Flightcontroller_PWM_CopterRocks_Working/Libraries/CMSIS/Include\cmsis_gcc.h **** 
1134:C:\Workspaces\DAVE-4.1\Flightcontroller_PWM_CopterRocks_Working/Libraries/CMSIS/Include\cmsis_gcc.h ****   __ASM volatile ("usada8 %0, %1, %2, %3" : "=r" (result) : "r" (op1), "r" (op2), "r" (op3) );
1135:C:\Workspaces\DAVE-4.1\Flightcontroller_PWM_CopterRocks_Working/Libraries/CMSIS/Include\cmsis_gcc.h ****   return(result);
1136:C:\Workspaces\DAVE-4.1\Flightcontroller_PWM_CopterRocks_Working/Libraries/CMSIS/Include\cmsis_gcc.h **** }
1137:C:\Workspaces\DAVE-4.1\Flightcontroller_PWM_CopterRocks_Working/Libraries/CMSIS/Include\cmsis_gcc.h **** 
1138:C:\Workspaces\DAVE-4.1\Flightcontroller_PWM_CopterRocks_Working/Libraries/CMSIS/Include\cmsis_gcc.h **** #define __SSAT16(ARG1,ARG2) \
1139:C:\Workspaces\DAVE-4.1\Flightcontroller_PWM_CopterRocks_Working/Libraries/CMSIS/Include\cmsis_gcc.h **** ({                          \
1140:C:\Workspaces\DAVE-4.1\Flightcontroller_PWM_CopterRocks_Working/Libraries/CMSIS/Include\cmsis_gcc.h ****   int32_t __RES, __ARG1 = (ARG1); \
1141:C:\Workspaces\DAVE-4.1\Flightcontroller_PWM_CopterRocks_Working/Libraries/CMSIS/Include\cmsis_gcc.h ****   __ASM ("ssat16 %0, %1, %2" : "=r" (__RES) :  "I" (ARG2), "r" (__ARG1) ); \
1142:C:\Workspaces\DAVE-4.1\Flightcontroller_PWM_CopterRocks_Working/Libraries/CMSIS/Include\cmsis_gcc.h ****   __RES; \
1143:C:\Workspaces\DAVE-4.1\Flightcontroller_PWM_CopterRocks_Working/Libraries/CMSIS/Include\cmsis_gcc.h ****  })
1144:C:\Workspaces\DAVE-4.1\Flightcontroller_PWM_CopterRocks_Working/Libraries/CMSIS/Include\cmsis_gcc.h **** 
1145:C:\Workspaces\DAVE-4.1\Flightcontroller_PWM_CopterRocks_Working/Libraries/CMSIS/Include\cmsis_gcc.h **** #define __USAT16(ARG1,ARG2) \
1146:C:\Workspaces\DAVE-4.1\Flightcontroller_PWM_CopterRocks_Working/Libraries/CMSIS/Include\cmsis_gcc.h **** ({                          \
1147:C:\Workspaces\DAVE-4.1\Flightcontroller_PWM_CopterRocks_Working/Libraries/CMSIS/Include\cmsis_gcc.h ****   uint32_t __RES, __ARG1 = (ARG1); \
1148:C:\Workspaces\DAVE-4.1\Flightcontroller_PWM_CopterRocks_Working/Libraries/CMSIS/Include\cmsis_gcc.h ****   __ASM ("usat16 %0, %1, %2" : "=r" (__RES) :  "I" (ARG2), "r" (__ARG1) ); \
1149:C:\Workspaces\DAVE-4.1\Flightcontroller_PWM_CopterRocks_Working/Libraries/CMSIS/Include\cmsis_gcc.h ****   __RES; \
1150:C:\Workspaces\DAVE-4.1\Flightcontroller_PWM_CopterRocks_Working/Libraries/CMSIS/Include\cmsis_gcc.h ****  })
1151:C:\Workspaces\DAVE-4.1\Flightcontroller_PWM_CopterRocks_Working/Libraries/CMSIS/Include\cmsis_gcc.h **** 
1152:C:\Workspaces\DAVE-4.1\Flightcontroller_PWM_CopterRocks_Working/Libraries/CMSIS/Include\cmsis_gcc.h **** __attribute__( ( always_inline ) ) __STATIC_INLINE uint32_t __UXTB16(uint32_t op1)
1153:C:\Workspaces\DAVE-4.1\Flightcontroller_PWM_CopterRocks_Working/Libraries/CMSIS/Include\cmsis_gcc.h **** {
1154:C:\Workspaces\DAVE-4.1\Flightcontroller_PWM_CopterRocks_Working/Libraries/CMSIS/Include\cmsis_gcc.h ****   uint32_t result;
1155:C:\Workspaces\DAVE-4.1\Flightcontroller_PWM_CopterRocks_Working/Libraries/CMSIS/Include\cmsis_gcc.h **** 
1156:C:\Workspaces\DAVE-4.1\Flightcontroller_PWM_CopterRocks_Working/Libraries/CMSIS/Include\cmsis_gcc.h ****   __ASM volatile ("uxtb16 %0, %1" : "=r" (result) : "r" (op1));
1157:C:\Workspaces\DAVE-4.1\Flightcontroller_PWM_CopterRocks_Working/Libraries/CMSIS/Include\cmsis_gcc.h ****   return(result);
1158:C:\Workspaces\DAVE-4.1\Flightcontroller_PWM_CopterRocks_Working/Libraries/CMSIS/Include\cmsis_gcc.h **** }
1159:C:\Workspaces\DAVE-4.1\Flightcontroller_PWM_CopterRocks_Working/Libraries/CMSIS/Include\cmsis_gcc.h **** 
1160:C:\Workspaces\DAVE-4.1\Flightcontroller_PWM_CopterRocks_Working/Libraries/CMSIS/Include\cmsis_gcc.h **** __attribute__( ( always_inline ) ) __STATIC_INLINE uint32_t __UXTAB16(uint32_t op1, uint32_t op2)
1161:C:\Workspaces\DAVE-4.1\Flightcontroller_PWM_CopterRocks_Working/Libraries/CMSIS/Include\cmsis_gcc.h **** {
1162:C:\Workspaces\DAVE-4.1\Flightcontroller_PWM_CopterRocks_Working/Libraries/CMSIS/Include\cmsis_gcc.h ****   uint32_t result;
1163:C:\Workspaces\DAVE-4.1\Flightcontroller_PWM_CopterRocks_Working/Libraries/CMSIS/Include\cmsis_gcc.h **** 
1164:C:\Workspaces\DAVE-4.1\Flightcontroller_PWM_CopterRocks_Working/Libraries/CMSIS/Include\cmsis_gcc.h ****   __ASM volatile ("uxtab16 %0, %1, %2" : "=r" (result) : "r" (op1), "r" (op2) );
1165:C:\Workspaces\DAVE-4.1\Flightcontroller_PWM_CopterRocks_Working/Libraries/CMSIS/Include\cmsis_gcc.h ****   return(result);
1166:C:\Workspaces\DAVE-4.1\Flightcontroller_PWM_CopterRocks_Working/Libraries/CMSIS/Include\cmsis_gcc.h **** }
1167:C:\Workspaces\DAVE-4.1\Flightcontroller_PWM_CopterRocks_Working/Libraries/CMSIS/Include\cmsis_gcc.h **** 
1168:C:\Workspaces\DAVE-4.1\Flightcontroller_PWM_CopterRocks_Working/Libraries/CMSIS/Include\cmsis_gcc.h **** __attribute__( ( always_inline ) ) __STATIC_INLINE uint32_t __SXTB16(uint32_t op1)
1169:C:\Workspaces\DAVE-4.1\Flightcontroller_PWM_CopterRocks_Working/Libraries/CMSIS/Include\cmsis_gcc.h **** {
1170:C:\Workspaces\DAVE-4.1\Flightcontroller_PWM_CopterRocks_Working/Libraries/CMSIS/Include\cmsis_gcc.h ****   uint32_t result;
1171:C:\Workspaces\DAVE-4.1\Flightcontroller_PWM_CopterRocks_Working/Libraries/CMSIS/Include\cmsis_gcc.h **** 
1172:C:\Workspaces\DAVE-4.1\Flightcontroller_PWM_CopterRocks_Working/Libraries/CMSIS/Include\cmsis_gcc.h ****   __ASM volatile ("sxtb16 %0, %1" : "=r" (result) : "r" (op1));
1173:C:\Workspaces\DAVE-4.1\Flightcontroller_PWM_CopterRocks_Working/Libraries/CMSIS/Include\cmsis_gcc.h ****   return(result);
1174:C:\Workspaces\DAVE-4.1\Flightcontroller_PWM_CopterRocks_Working/Libraries/CMSIS/Include\cmsis_gcc.h **** }
1175:C:\Workspaces\DAVE-4.1\Flightcontroller_PWM_CopterRocks_Working/Libraries/CMSIS/Include\cmsis_gcc.h **** 
1176:C:\Workspaces\DAVE-4.1\Flightcontroller_PWM_CopterRocks_Working/Libraries/CMSIS/Include\cmsis_gcc.h **** __attribute__( ( always_inline ) ) __STATIC_INLINE uint32_t __SXTAB16(uint32_t op1, uint32_t op2)
1177:C:\Workspaces\DAVE-4.1\Flightcontroller_PWM_CopterRocks_Working/Libraries/CMSIS/Include\cmsis_gcc.h **** {
1178:C:\Workspaces\DAVE-4.1\Flightcontroller_PWM_CopterRocks_Working/Libraries/CMSIS/Include\cmsis_gcc.h ****   uint32_t result;
1179:C:\Workspaces\DAVE-4.1\Flightcontroller_PWM_CopterRocks_Working/Libraries/CMSIS/Include\cmsis_gcc.h **** 
1180:C:\Workspaces\DAVE-4.1\Flightcontroller_PWM_CopterRocks_Working/Libraries/CMSIS/Include\cmsis_gcc.h ****   __ASM volatile ("sxtab16 %0, %1, %2" : "=r" (result) : "r" (op1), "r" (op2) );
1181:C:\Workspaces\DAVE-4.1\Flightcontroller_PWM_CopterRocks_Working/Libraries/CMSIS/Include\cmsis_gcc.h ****   return(result);
1182:C:\Workspaces\DAVE-4.1\Flightcontroller_PWM_CopterRocks_Working/Libraries/CMSIS/Include\cmsis_gcc.h **** }
1183:C:\Workspaces\DAVE-4.1\Flightcontroller_PWM_CopterRocks_Working/Libraries/CMSIS/Include\cmsis_gcc.h **** 
1184:C:\Workspaces\DAVE-4.1\Flightcontroller_PWM_CopterRocks_Working/Libraries/CMSIS/Include\cmsis_gcc.h **** __attribute__( ( always_inline ) ) __STATIC_INLINE uint32_t __SMUAD  (uint32_t op1, uint32_t op2)
1185:C:\Workspaces\DAVE-4.1\Flightcontroller_PWM_CopterRocks_Working/Libraries/CMSIS/Include\cmsis_gcc.h **** {
1186:C:\Workspaces\DAVE-4.1\Flightcontroller_PWM_CopterRocks_Working/Libraries/CMSIS/Include\cmsis_gcc.h ****   uint32_t result;
1187:C:\Workspaces\DAVE-4.1\Flightcontroller_PWM_CopterRocks_Working/Libraries/CMSIS/Include\cmsis_gcc.h **** 
1188:C:\Workspaces\DAVE-4.1\Flightcontroller_PWM_CopterRocks_Working/Libraries/CMSIS/Include\cmsis_gcc.h ****   __ASM volatile ("smuad %0, %1, %2" : "=r" (result) : "r" (op1), "r" (op2) );
1189:C:\Workspaces\DAVE-4.1\Flightcontroller_PWM_CopterRocks_Working/Libraries/CMSIS/Include\cmsis_gcc.h ****   return(result);
1190:C:\Workspaces\DAVE-4.1\Flightcontroller_PWM_CopterRocks_Working/Libraries/CMSIS/Include\cmsis_gcc.h **** }
1191:C:\Workspaces\DAVE-4.1\Flightcontroller_PWM_CopterRocks_Working/Libraries/CMSIS/Include\cmsis_gcc.h **** 
1192:C:\Workspaces\DAVE-4.1\Flightcontroller_PWM_CopterRocks_Working/Libraries/CMSIS/Include\cmsis_gcc.h **** __attribute__( ( always_inline ) ) __STATIC_INLINE uint32_t __SMUADX (uint32_t op1, uint32_t op2)
1193:C:\Workspaces\DAVE-4.1\Flightcontroller_PWM_CopterRocks_Working/Libraries/CMSIS/Include\cmsis_gcc.h **** {
1194:C:\Workspaces\DAVE-4.1\Flightcontroller_PWM_CopterRocks_Working/Libraries/CMSIS/Include\cmsis_gcc.h ****   uint32_t result;
1195:C:\Workspaces\DAVE-4.1\Flightcontroller_PWM_CopterRocks_Working/Libraries/CMSIS/Include\cmsis_gcc.h **** 
1196:C:\Workspaces\DAVE-4.1\Flightcontroller_PWM_CopterRocks_Working/Libraries/CMSIS/Include\cmsis_gcc.h ****   __ASM volatile ("smuadx %0, %1, %2" : "=r" (result) : "r" (op1), "r" (op2) );
1197:C:\Workspaces\DAVE-4.1\Flightcontroller_PWM_CopterRocks_Working/Libraries/CMSIS/Include\cmsis_gcc.h ****   return(result);
1198:C:\Workspaces\DAVE-4.1\Flightcontroller_PWM_CopterRocks_Working/Libraries/CMSIS/Include\cmsis_gcc.h **** }
1199:C:\Workspaces\DAVE-4.1\Flightcontroller_PWM_CopterRocks_Working/Libraries/CMSIS/Include\cmsis_gcc.h **** 
1200:C:\Workspaces\DAVE-4.1\Flightcontroller_PWM_CopterRocks_Working/Libraries/CMSIS/Include\cmsis_gcc.h **** __attribute__( ( always_inline ) ) __STATIC_INLINE uint32_t __SMLAD (uint32_t op1, uint32_t op2, ui
1201:C:\Workspaces\DAVE-4.1\Flightcontroller_PWM_CopterRocks_Working/Libraries/CMSIS/Include\cmsis_gcc.h **** {
1202:C:\Workspaces\DAVE-4.1\Flightcontroller_PWM_CopterRocks_Working/Libraries/CMSIS/Include\cmsis_gcc.h ****   uint32_t result;
1203:C:\Workspaces\DAVE-4.1\Flightcontroller_PWM_CopterRocks_Working/Libraries/CMSIS/Include\cmsis_gcc.h **** 
1204:C:\Workspaces\DAVE-4.1\Flightcontroller_PWM_CopterRocks_Working/Libraries/CMSIS/Include\cmsis_gcc.h ****   __ASM volatile ("smlad %0, %1, %2, %3" : "=r" (result) : "r" (op1), "r" (op2), "r" (op3) );
1205:C:\Workspaces\DAVE-4.1\Flightcontroller_PWM_CopterRocks_Working/Libraries/CMSIS/Include\cmsis_gcc.h ****   return(result);
1206:C:\Workspaces\DAVE-4.1\Flightcontroller_PWM_CopterRocks_Working/Libraries/CMSIS/Include\cmsis_gcc.h **** }
1207:C:\Workspaces\DAVE-4.1\Flightcontroller_PWM_CopterRocks_Working/Libraries/CMSIS/Include\cmsis_gcc.h **** 
1208:C:\Workspaces\DAVE-4.1\Flightcontroller_PWM_CopterRocks_Working/Libraries/CMSIS/Include\cmsis_gcc.h **** __attribute__( ( always_inline ) ) __STATIC_INLINE uint32_t __SMLADX (uint32_t op1, uint32_t op2, u
1209:C:\Workspaces\DAVE-4.1\Flightcontroller_PWM_CopterRocks_Working/Libraries/CMSIS/Include\cmsis_gcc.h **** {
1210:C:\Workspaces\DAVE-4.1\Flightcontroller_PWM_CopterRocks_Working/Libraries/CMSIS/Include\cmsis_gcc.h ****   uint32_t result;
1211:C:\Workspaces\DAVE-4.1\Flightcontroller_PWM_CopterRocks_Working/Libraries/CMSIS/Include\cmsis_gcc.h **** 
1212:C:\Workspaces\DAVE-4.1\Flightcontroller_PWM_CopterRocks_Working/Libraries/CMSIS/Include\cmsis_gcc.h ****   __ASM volatile ("smladx %0, %1, %2, %3" : "=r" (result) : "r" (op1), "r" (op2), "r" (op3) );
1213:C:\Workspaces\DAVE-4.1\Flightcontroller_PWM_CopterRocks_Working/Libraries/CMSIS/Include\cmsis_gcc.h ****   return(result);
1214:C:\Workspaces\DAVE-4.1\Flightcontroller_PWM_CopterRocks_Working/Libraries/CMSIS/Include\cmsis_gcc.h **** }
1215:C:\Workspaces\DAVE-4.1\Flightcontroller_PWM_CopterRocks_Working/Libraries/CMSIS/Include\cmsis_gcc.h **** 
1216:C:\Workspaces\DAVE-4.1\Flightcontroller_PWM_CopterRocks_Working/Libraries/CMSIS/Include\cmsis_gcc.h **** __attribute__( ( always_inline ) ) __STATIC_INLINE uint64_t __SMLALD (uint32_t op1, uint32_t op2, u
1217:C:\Workspaces\DAVE-4.1\Flightcontroller_PWM_CopterRocks_Working/Libraries/CMSIS/Include\cmsis_gcc.h **** {
1218:C:\Workspaces\DAVE-4.1\Flightcontroller_PWM_CopterRocks_Working/Libraries/CMSIS/Include\cmsis_gcc.h ****   union llreg_u{
1219:C:\Workspaces\DAVE-4.1\Flightcontroller_PWM_CopterRocks_Working/Libraries/CMSIS/Include\cmsis_gcc.h ****     uint32_t w32[2];
1220:C:\Workspaces\DAVE-4.1\Flightcontroller_PWM_CopterRocks_Working/Libraries/CMSIS/Include\cmsis_gcc.h ****     uint64_t w64;
1221:C:\Workspaces\DAVE-4.1\Flightcontroller_PWM_CopterRocks_Working/Libraries/CMSIS/Include\cmsis_gcc.h ****   } llr;
1222:C:\Workspaces\DAVE-4.1\Flightcontroller_PWM_CopterRocks_Working/Libraries/CMSIS/Include\cmsis_gcc.h ****   llr.w64 = acc;
 375              	 .loc 2 1222 0
 376 032c 07F12801 	 add r1,r7,#40
 377 0330 07F58073 	 add r3,r7,#256
 378 0334 D3E90023 	 ldrd r2,[r3]
 379 0338 C1E90023 	 strd r2,[r1]
1223:C:\Workspaces\DAVE-4.1\Flightcontroller_PWM_CopterRocks_Working/Libraries/CMSIS/Include\cmsis_gcc.h **** 
1224:C:\Workspaces\DAVE-4.1\Flightcontroller_PWM_CopterRocks_Working/Libraries/CMSIS/Include\cmsis_gcc.h **** #ifndef __ARMEB__   /* Little endian */
1225:C:\Workspaces\DAVE-4.1\Flightcontroller_PWM_CopterRocks_Working/Libraries/CMSIS/Include\cmsis_gcc.h ****   __ASM volatile ("smlald %0, %1, %2, %3" : "=r" (llr.w32[0]), "=r" (llr.w32[1]): "r" (op1), "r" (o
 380              	 .loc 2 1225 0
 381 033c 07F12803 	 add r3,r7,#40
 382 0340 1A68     	 ldr r2,[r3]
 383 0342 07F12803 	 add r3,r7,#40
 384 0346 5B68     	 ldr r3,[r3,#4]
 385 0348 D7F80C01 	 ldr r0,[r7,#268]
 386 034c D7F80841 	 ldr r4,[r7,#264]
 387 0350 1146     	 mov r1,r2
 388              	
 389 0352 C0FBC413 	 smlald r1,r3,r0,r4
 390              	
 391              	 .thumb
 392 0356 07F12802 	 add r2,r7,#40
 393 035a 1160     	 str r1,[r2]
 394 035c 07F12802 	 add r2,r7,#40
 395 0360 5360     	 str r3,[r2,#4]
1226:C:\Workspaces\DAVE-4.1\Flightcontroller_PWM_CopterRocks_Working/Libraries/CMSIS/Include\cmsis_gcc.h **** #else               /* Big endian */
1227:C:\Workspaces\DAVE-4.1\Flightcontroller_PWM_CopterRocks_Working/Libraries/CMSIS/Include\cmsis_gcc.h ****   __ASM volatile ("smlald %0, %1, %2, %3" : "=r" (llr.w32[1]), "=r" (llr.w32[0]): "r" (op1), "r" (o
1228:C:\Workspaces\DAVE-4.1\Flightcontroller_PWM_CopterRocks_Working/Libraries/CMSIS/Include\cmsis_gcc.h **** #endif
1229:C:\Workspaces\DAVE-4.1\Flightcontroller_PWM_CopterRocks_Working/Libraries/CMSIS/Include\cmsis_gcc.h **** 
1230:C:\Workspaces\DAVE-4.1\Flightcontroller_PWM_CopterRocks_Working/Libraries/CMSIS/Include\cmsis_gcc.h ****   return(llr.w64);
 396              	 .loc 2 1230 0
 397 0362 07F12803 	 add r3,r7,#40
 398 0366 D3E90023 	 ldrd r2,[r3]
 399              	.LBE31:
 400              	.LBE30:
 401              	 .loc 1 235 0
 402 036a 07F5E071 	 add r1,r7,#448
 403 036e C1E90023 	 strd r2,[r1]
 236:../Dave/Generated/CMSIS_DSP/FilteringFunctions/arm_conv_partial_opt_q15.c ****         acc2 = __SMLALD(x2, y1, acc2);
 404              	 .loc 1 236 0
 405 0372 D7F8A001 	 ldr r0,[r7,#416]
 406 0376 D7F87C11 	 ldr r1,[r7,#380]
 407 037a 07F5D873 	 add r3,r7,#432
 408 037e D3E90023 	 ldrd r2,[r3]
 409 0382 C7F8FC00 	 str r0,[r7,#252]
 410 0386 C7F8F810 	 str r1,[r7,#248]
 411 038a C7E93C23 	 strd r2,[r7,#240]
 412              	.LBB32:
 413              	.LBB33:
1222:C:\Workspaces\DAVE-4.1\Flightcontroller_PWM_CopterRocks_Working/Libraries/CMSIS/Include\cmsis_gcc.h **** 
 414              	 .loc 2 1222 0
 415 038e 07F13001 	 add r1,r7,#48
 416 0392 D7E93C23 	 ldrd r2,[r7,#240]
 417 0396 C1E90023 	 strd r2,[r1]
1225:C:\Workspaces\DAVE-4.1\Flightcontroller_PWM_CopterRocks_Working/Libraries/CMSIS/Include\cmsis_gcc.h **** #else               /* Big endian */
 418              	 .loc 2 1225 0
 419 039a 07F13003 	 add r3,r7,#48
 420 039e 1A68     	 ldr r2,[r3]
 421 03a0 07F13003 	 add r3,r7,#48
 422 03a4 5B68     	 ldr r3,[r3,#4]
 423 03a6 D7F8FC00 	 ldr r0,[r7,#252]
 424 03aa D7F8F840 	 ldr r4,[r7,#248]
 425 03ae 1146     	 mov r1,r2
 426              	
 427 03b0 C0FBC413 	 smlald r1,r3,r0,r4
 428              	
 429              	 .thumb
 430 03b4 07F13002 	 add r2,r7,#48
 431 03b8 1160     	 str r1,[r2]
 432 03ba 07F13002 	 add r2,r7,#48
 433 03be 5360     	 str r3,[r2,#4]
 434              	 .loc 2 1230 0
 435 03c0 07F13003 	 add r3,r7,#48
 436 03c4 D3E90023 	 ldrd r2,[r3]
 437              	.LBE33:
 438              	.LBE32:
 439              	 .loc 1 236 0
 440 03c8 07F5D871 	 add r1,r7,#432
 441 03cc C1E90023 	 strd r2,[r1]
 442              	.LBB34:
 237:../Dave/Generated/CMSIS_DSP/FilteringFunctions/arm_conv_partial_opt_q15.c **** 
 238:../Dave/Generated/CMSIS_DSP/FilteringFunctions/arm_conv_partial_opt_q15.c ****         /* pack input data */
 239:../Dave/Generated/CMSIS_DSP/FilteringFunctions/arm_conv_partial_opt_q15.c **** #ifndef ARM_MATH_BIG_ENDIAN
 240:../Dave/Generated/CMSIS_DSP/FilteringFunctions/arm_conv_partial_opt_q15.c ****         x3 = __PKHBT(x2, x1, 0);
 443              	 .loc 1 240 0
 444 03d0 D7F8A031 	 ldr r3,[r7,#416]
 445 03d4 C7F87431 	 str r3,[r7,#372]
 446 03d8 D7F8A431 	 ldr r3,[r7,#420]
 447 03dc C7F87031 	 str r3,[r7,#368]
 448 03e0 D7F87431 	 ldr r3,[r7,#372]
 449 03e4 D7F87021 	 ldr r2,[r7,#368]
 450              	
 451 03e8 C3EA0203 	 pkhbt r3,r3,r2,lsl#0
 452              	
 453              	 .thumb
 454 03ec C7F86C31 	 str r3,[r7,#364]
 455 03f0 D7F86C31 	 ldr r3,[r7,#364]
 456              	.LBE34:
 457 03f4 C7F86831 	 str r3,[r7,#360]
 241:../Dave/Generated/CMSIS_DSP/FilteringFunctions/arm_conv_partial_opt_q15.c **** #else
 242:../Dave/Generated/CMSIS_DSP/FilteringFunctions/arm_conv_partial_opt_q15.c ****         x3 = __PKHBT(x1, x2, 0);
 243:../Dave/Generated/CMSIS_DSP/FilteringFunctions/arm_conv_partial_opt_q15.c **** #endif
 244:../Dave/Generated/CMSIS_DSP/FilteringFunctions/arm_conv_partial_opt_q15.c **** 
 245:../Dave/Generated/CMSIS_DSP/FilteringFunctions/arm_conv_partial_opt_q15.c ****         /* multiply and accumlate */
 246:../Dave/Generated/CMSIS_DSP/FilteringFunctions/arm_conv_partial_opt_q15.c ****         acc1 = __SMLALDX(x3, y1, acc1);
 458              	 .loc 1 246 0
 459 03f8 D7F86801 	 ldr r0,[r7,#360]
 460 03fc D7F87C11 	 ldr r1,[r7,#380]
 461 0400 07F5DC73 	 add r3,r7,#440
 462 0404 D3E90023 	 ldrd r2,[r3]
 463 0408 C7F8EC00 	 str r0,[r7,#236]
 464 040c C7F8E810 	 str r1,[r7,#232]
 465 0410 C7E93823 	 strd r2,[r7,#224]
 466              	.LBB35:
 467              	.LBB36:
1231:C:\Workspaces\DAVE-4.1\Flightcontroller_PWM_CopterRocks_Working/Libraries/CMSIS/Include\cmsis_gcc.h **** }
1232:C:\Workspaces\DAVE-4.1\Flightcontroller_PWM_CopterRocks_Working/Libraries/CMSIS/Include\cmsis_gcc.h **** 
1233:C:\Workspaces\DAVE-4.1\Flightcontroller_PWM_CopterRocks_Working/Libraries/CMSIS/Include\cmsis_gcc.h **** __attribute__( ( always_inline ) ) __STATIC_INLINE uint64_t __SMLALDX (uint32_t op1, uint32_t op2, 
1234:C:\Workspaces\DAVE-4.1\Flightcontroller_PWM_CopterRocks_Working/Libraries/CMSIS/Include\cmsis_gcc.h **** {
1235:C:\Workspaces\DAVE-4.1\Flightcontroller_PWM_CopterRocks_Working/Libraries/CMSIS/Include\cmsis_gcc.h ****   union llreg_u{
1236:C:\Workspaces\DAVE-4.1\Flightcontroller_PWM_CopterRocks_Working/Libraries/CMSIS/Include\cmsis_gcc.h ****     uint32_t w32[2];
1237:C:\Workspaces\DAVE-4.1\Flightcontroller_PWM_CopterRocks_Working/Libraries/CMSIS/Include\cmsis_gcc.h ****     uint64_t w64;
1238:C:\Workspaces\DAVE-4.1\Flightcontroller_PWM_CopterRocks_Working/Libraries/CMSIS/Include\cmsis_gcc.h ****   } llr;
1239:C:\Workspaces\DAVE-4.1\Flightcontroller_PWM_CopterRocks_Working/Libraries/CMSIS/Include\cmsis_gcc.h ****   llr.w64 = acc;
 468              	 .loc 2 1239 0
 469 0414 07F13801 	 add r1,r7,#56
 470 0418 D7E93823 	 ldrd r2,[r7,#224]
 471 041c C1E90023 	 strd r2,[r1]
1240:C:\Workspaces\DAVE-4.1\Flightcontroller_PWM_CopterRocks_Working/Libraries/CMSIS/Include\cmsis_gcc.h **** 
1241:C:\Workspaces\DAVE-4.1\Flightcontroller_PWM_CopterRocks_Working/Libraries/CMSIS/Include\cmsis_gcc.h **** #ifndef __ARMEB__   /* Little endian */
1242:C:\Workspaces\DAVE-4.1\Flightcontroller_PWM_CopterRocks_Working/Libraries/CMSIS/Include\cmsis_gcc.h ****   __ASM volatile ("smlaldx %0, %1, %2, %3" : "=r" (llr.w32[0]), "=r" (llr.w32[1]): "r" (op1), "r" (
 472              	 .loc 2 1242 0
 473 0420 07F13803 	 add r3,r7,#56
 474 0424 1A68     	 ldr r2,[r3]
 475 0426 07F13803 	 add r3,r7,#56
 476 042a 5B68     	 ldr r3,[r3,#4]
 477 042c D7F8EC00 	 ldr r0,[r7,#236]
 478 0430 D7F8E840 	 ldr r4,[r7,#232]
 479 0434 1146     	 mov r1,r2
 480              	
 481 0436 C0FBD413 	 smlaldx r1,r3,r0,r4
 482              	
 483              	 .thumb
 484 043a 07F13802 	 add r2,r7,#56
 485 043e 1160     	 str r1,[r2]
 486 0440 07F13802 	 add r2,r7,#56
 487 0444 5360     	 str r3,[r2,#4]
1243:C:\Workspaces\DAVE-4.1\Flightcontroller_PWM_CopterRocks_Working/Libraries/CMSIS/Include\cmsis_gcc.h **** #else               /* Big endian */
1244:C:\Workspaces\DAVE-4.1\Flightcontroller_PWM_CopterRocks_Working/Libraries/CMSIS/Include\cmsis_gcc.h ****   __ASM volatile ("smlaldx %0, %1, %2, %3" : "=r" (llr.w32[1]), "=r" (llr.w32[0]): "r" (op1), "r" (
1245:C:\Workspaces\DAVE-4.1\Flightcontroller_PWM_CopterRocks_Working/Libraries/CMSIS/Include\cmsis_gcc.h **** #endif
1246:C:\Workspaces\DAVE-4.1\Flightcontroller_PWM_CopterRocks_Working/Libraries/CMSIS/Include\cmsis_gcc.h **** 
1247:C:\Workspaces\DAVE-4.1\Flightcontroller_PWM_CopterRocks_Working/Libraries/CMSIS/Include\cmsis_gcc.h ****   return(llr.w64);
 488              	 .loc 2 1247 0
 489 0446 07F13803 	 add r3,r7,#56
 490 044a D3E90023 	 ldrd r2,[r3]
 491              	.LBE36:
 492              	.LBE35:
 493              	 .loc 1 246 0
 494 044e 07F5DC71 	 add r1,r7,#440
 495 0452 C1E90023 	 strd r2,[r1]
 247:../Dave/Generated/CMSIS_DSP/FilteringFunctions/arm_conv_partial_opt_q15.c **** 
 248:../Dave/Generated/CMSIS_DSP/FilteringFunctions/arm_conv_partial_opt_q15.c ****         /* Read next two samples from scratch1 buffer */
 249:../Dave/Generated/CMSIS_DSP/FilteringFunctions/arm_conv_partial_opt_q15.c ****         x1 = _SIMD32_OFFSET(pScr1);
 496              	 .loc 1 249 0
 497 0456 07F17803 	 add r3,r7,#120
 498 045a 1B68     	 ldr r3,[r3]
 499 045c 1B68     	 ldr r3,[r3]
 500 045e C7F8A431 	 str r3,[r7,#420]
 250:../Dave/Generated/CMSIS_DSP/FilteringFunctions/arm_conv_partial_opt_q15.c **** 
 251:../Dave/Generated/CMSIS_DSP/FilteringFunctions/arm_conv_partial_opt_q15.c ****         /* multiply and accumlate */
 252:../Dave/Generated/CMSIS_DSP/FilteringFunctions/arm_conv_partial_opt_q15.c ****         acc0 = __SMLALD(x2, y2, acc0);
 501              	 .loc 1 252 0
 502 0462 D7F8A021 	 ldr r2,[r7,#416]
 503 0466 D7F87831 	 ldr r3,[r7,#376]
 504 046a 07F5E071 	 add r1,r7,#448
 505 046e D1E90001 	 ldrd r0,[r1]
 506 0472 C7F8DC20 	 str r2,[r7,#220]
 507 0476 C7F8D830 	 str r3,[r7,#216]
 508 047a 07F1D003 	 add r3,r7,#208
 509 047e C3E90001 	 strd r0,[r3]
 510              	.LBB37:
 511              	.LBB38:
1222:C:\Workspaces\DAVE-4.1\Flightcontroller_PWM_CopterRocks_Working/Libraries/CMSIS/Include\cmsis_gcc.h **** 
 512              	 .loc 2 1222 0
 513 0482 07F14001 	 add r1,r7,#64
 514 0486 07F1D003 	 add r3,r7,#208
 515 048a D3E90023 	 ldrd r2,[r3]
 516 048e C1E90023 	 strd r2,[r1]
1225:C:\Workspaces\DAVE-4.1\Flightcontroller_PWM_CopterRocks_Working/Libraries/CMSIS/Include\cmsis_gcc.h **** #else               /* Big endian */
 517              	 .loc 2 1225 0
 518 0492 07F14003 	 add r3,r7,#64
 519 0496 1A68     	 ldr r2,[r3]
 520 0498 07F14003 	 add r3,r7,#64
 521 049c 5B68     	 ldr r3,[r3,#4]
 522 049e D7F8DC00 	 ldr r0,[r7,#220]
 523 04a2 D7F8D840 	 ldr r4,[r7,#216]
 524 04a6 1146     	 mov r1,r2
 525              	
 526 04a8 C0FBC413 	 smlald r1,r3,r0,r4
 527              	
 528              	 .thumb
 529 04ac 07F14002 	 add r2,r7,#64
 530 04b0 1160     	 str r1,[r2]
 531 04b2 07F14002 	 add r2,r7,#64
 532 04b6 5360     	 str r3,[r2,#4]
1230:C:\Workspaces\DAVE-4.1\Flightcontroller_PWM_CopterRocks_Working/Libraries/CMSIS/Include\cmsis_gcc.h **** }
 533              	 .loc 2 1230 0
 534 04b8 07F14003 	 add r3,r7,#64
 535 04bc D3E90023 	 ldrd r2,[r3]
 536              	.LBE38:
 537              	.LBE37:
 538              	 .loc 1 252 0
 539 04c0 07F5E071 	 add r1,r7,#448
 540 04c4 C1E90023 	 strd r2,[r1]
 253:../Dave/Generated/CMSIS_DSP/FilteringFunctions/arm_conv_partial_opt_q15.c ****         acc2 = __SMLALD(x1, y2, acc2);
 541              	 .loc 1 253 0
 542 04c8 D7F8A421 	 ldr r2,[r7,#420]
 543 04cc D7F87841 	 ldr r4,[r7,#376]
 544 04d0 07F5D873 	 add r3,r7,#432
 545 04d4 D3E90001 	 ldrd r0,[r3]
 546 04d8 07F1CC03 	 add r3,r7,#204
 547 04dc 1A60     	 str r2,[r3]
 548 04de 07F1C803 	 add r3,r7,#200
 549 04e2 1C60     	 str r4,[r3]
 550 04e4 07F1C003 	 add r3,r7,#192
 551 04e8 C3E90001 	 strd r0,[r3]
 552              	.LBB39:
 553              	.LBB40:
1222:C:\Workspaces\DAVE-4.1\Flightcontroller_PWM_CopterRocks_Working/Libraries/CMSIS/Include\cmsis_gcc.h **** 
 554              	 .loc 2 1222 0
 555 04ec 07F14801 	 add r1,r7,#72
 556 04f0 07F1C003 	 add r3,r7,#192
 557 04f4 D3E90023 	 ldrd r2,[r3]
 558 04f8 C1E90023 	 strd r2,[r1]
1225:C:\Workspaces\DAVE-4.1\Flightcontroller_PWM_CopterRocks_Working/Libraries/CMSIS/Include\cmsis_gcc.h **** #else               /* Big endian */
 559              	 .loc 2 1225 0
 560 04fc 07F14803 	 add r3,r7,#72
 561 0500 1968     	 ldr r1,[r3]
 562 0502 07F14803 	 add r3,r7,#72
 563 0506 5C68     	 ldr r4,[r3,#4]
 564 0508 07F1CC03 	 add r3,r7,#204
 565 050c 1868     	 ldr r0,[r3]
 566 050e 07F1C803 	 add r3,r7,#200
 567 0512 1A68     	 ldr r2,[r3]
 568 0514 2346     	 mov r3,r4
 569              	
 570 0516 C0FBC213 	 smlald r1,r3,r0,r2
 571              	
 572              	 .thumb
 573 051a 07F14802 	 add r2,r7,#72
 574 051e 1160     	 str r1,[r2]
 575 0520 07F14802 	 add r2,r7,#72
 576 0524 5360     	 str r3,[r2,#4]
1230:C:\Workspaces\DAVE-4.1\Flightcontroller_PWM_CopterRocks_Working/Libraries/CMSIS/Include\cmsis_gcc.h **** }
 577              	 .loc 2 1230 0
 578 0526 07F14803 	 add r3,r7,#72
 579 052a D3E90023 	 ldrd r2,[r3]
 580              	.LBE40:
 581              	.LBE39:
 582              	 .loc 1 253 0
 583 052e 07F5D871 	 add r1,r7,#432
 584 0532 C1E90023 	 strd r2,[r1]
 585              	.LBB41:
 254:../Dave/Generated/CMSIS_DSP/FilteringFunctions/arm_conv_partial_opt_q15.c **** 
 255:../Dave/Generated/CMSIS_DSP/FilteringFunctions/arm_conv_partial_opt_q15.c ****         /* pack input data */
 256:../Dave/Generated/CMSIS_DSP/FilteringFunctions/arm_conv_partial_opt_q15.c **** #ifndef ARM_MATH_BIG_ENDIAN
 257:../Dave/Generated/CMSIS_DSP/FilteringFunctions/arm_conv_partial_opt_q15.c ****         x3 = __PKHBT(x1, x2, 0);
 586              	 .loc 1 257 0
 587 0536 D7F8A431 	 ldr r3,[r7,#420]
 588 053a C7F86431 	 str r3,[r7,#356]
 589 053e D7F8A031 	 ldr r3,[r7,#416]
 590 0542 C7F86031 	 str r3,[r7,#352]
 591 0546 D7F86431 	 ldr r3,[r7,#356]
 592 054a D7F86021 	 ldr r2,[r7,#352]
 593              	
 594 054e C3EA0203 	 pkhbt r3,r3,r2,lsl#0
 595              	
 596              	 .thumb
 597 0552 C7F85C31 	 str r3,[r7,#348]
 598 0556 D7F85C31 	 ldr r3,[r7,#348]
 599              	.LBE41:
 600 055a C7F86831 	 str r3,[r7,#360]
 258:../Dave/Generated/CMSIS_DSP/FilteringFunctions/arm_conv_partial_opt_q15.c **** #else
 259:../Dave/Generated/CMSIS_DSP/FilteringFunctions/arm_conv_partial_opt_q15.c ****         x3 = __PKHBT(x2, x1, 0);
 260:../Dave/Generated/CMSIS_DSP/FilteringFunctions/arm_conv_partial_opt_q15.c **** #endif
 261:../Dave/Generated/CMSIS_DSP/FilteringFunctions/arm_conv_partial_opt_q15.c **** 
 262:../Dave/Generated/CMSIS_DSP/FilteringFunctions/arm_conv_partial_opt_q15.c ****         acc3 = __SMLALDX(x3, y1, acc3);
 601              	 .loc 1 262 0
 602 055e D7F86821 	 ldr r2,[r7,#360]
 603 0562 D7F87C41 	 ldr r4,[r7,#380]
 604 0566 07F5D473 	 add r3,r7,#424
 605 056a D3E90001 	 ldrd r0,[r3]
 606 056e 07F1BC03 	 add r3,r7,#188
 607 0572 1A60     	 str r2,[r3]
 608 0574 07F1B803 	 add r3,r7,#184
 609 0578 1C60     	 str r4,[r3]
 610 057a 07F1B003 	 add r3,r7,#176
 611 057e C3E90001 	 strd r0,[r3]
 612              	.LBB42:
 613              	.LBB43:
1239:C:\Workspaces\DAVE-4.1\Flightcontroller_PWM_CopterRocks_Working/Libraries/CMSIS/Include\cmsis_gcc.h **** 
 614              	 .loc 2 1239 0
 615 0582 07F15001 	 add r1,r7,#80
 616 0586 07F1B003 	 add r3,r7,#176
 617 058a D3E90023 	 ldrd r2,[r3]
 618 058e C1E90023 	 strd r2,[r1]
1242:C:\Workspaces\DAVE-4.1\Flightcontroller_PWM_CopterRocks_Working/Libraries/CMSIS/Include\cmsis_gcc.h **** #else               /* Big endian */
 619              	 .loc 2 1242 0
 620 0592 07F15003 	 add r3,r7,#80
 621 0596 1968     	 ldr r1,[r3]
 622 0598 07F15003 	 add r3,r7,#80
 623 059c 5C68     	 ldr r4,[r3,#4]
 624 059e 07F1BC03 	 add r3,r7,#188
 625 05a2 1868     	 ldr r0,[r3]
 626 05a4 07F1B803 	 add r3,r7,#184
 627 05a8 1A68     	 ldr r2,[r3]
 628 05aa 2346     	 mov r3,r4
 629              	
 630 05ac C0FBD213 	 smlaldx r1,r3,r0,r2
 631              	
 632              	 .thumb
 633 05b0 07F15002 	 add r2,r7,#80
 634 05b4 1160     	 str r1,[r2]
 635 05b6 07F15002 	 add r2,r7,#80
 636 05ba 5360     	 str r3,[r2,#4]
 637              	 .loc 2 1247 0
 638 05bc 07F15003 	 add r3,r7,#80
 639 05c0 D3E90023 	 ldrd r2,[r3]
 640              	.LBE43:
 641              	.LBE42:
 642              	 .loc 1 262 0
 643 05c4 07F5D471 	 add r1,r7,#424
 644 05c8 C1E90023 	 strd r2,[r1]
 263:../Dave/Generated/CMSIS_DSP/FilteringFunctions/arm_conv_partial_opt_q15.c ****         acc1 = __SMLALDX(x3, y2, acc1);
 645              	 .loc 1 263 0
 646 05cc D7F86821 	 ldr r2,[r7,#360]
 647 05d0 D7F87841 	 ldr r4,[r7,#376]
 648 05d4 07F5DC73 	 add r3,r7,#440
 649 05d8 D3E90001 	 ldrd r0,[r3]
 650 05dc 07F1AC03 	 add r3,r7,#172
 651 05e0 1A60     	 str r2,[r3]
 652 05e2 07F1A803 	 add r3,r7,#168
 653 05e6 1C60     	 str r4,[r3]
 654 05e8 07F1A003 	 add r3,r7,#160
 655 05ec C3E90001 	 strd r0,[r3]
 656              	.LBB44:
 657              	.LBB45:
1239:C:\Workspaces\DAVE-4.1\Flightcontroller_PWM_CopterRocks_Working/Libraries/CMSIS/Include\cmsis_gcc.h **** 
 658              	 .loc 2 1239 0
 659 05f0 07F15801 	 add r1,r7,#88
 660 05f4 07F1A003 	 add r3,r7,#160
 661 05f8 D3E90023 	 ldrd r2,[r3]
 662 05fc C1E90023 	 strd r2,[r1]
1242:C:\Workspaces\DAVE-4.1\Flightcontroller_PWM_CopterRocks_Working/Libraries/CMSIS/Include\cmsis_gcc.h **** #else               /* Big endian */
 663              	 .loc 2 1242 0
 664 0600 07F15803 	 add r3,r7,#88
 665 0604 1968     	 ldr r1,[r3]
 666 0606 07F15803 	 add r3,r7,#88
 667 060a 5C68     	 ldr r4,[r3,#4]
 668 060c 07F1AC03 	 add r3,r7,#172
 669 0610 1868     	 ldr r0,[r3]
 670 0612 07F1A803 	 add r3,r7,#168
 671 0616 1A68     	 ldr r2,[r3]
 672 0618 2346     	 mov r3,r4
 673              	
 674 061a C0FBD213 	 smlaldx r1,r3,r0,r2
 675              	
 676              	 .thumb
 677 061e 07F15802 	 add r2,r7,#88
 678 0622 1160     	 str r1,[r2]
 679 0624 07F15802 	 add r2,r7,#88
 680 0628 5360     	 str r3,[r2,#4]
 681              	 .loc 2 1247 0
 682 062a 07F15803 	 add r3,r7,#88
 683 062e D3E90023 	 ldrd r2,[r3]
 684              	.LBE45:
 685              	.LBE44:
 686              	 .loc 1 263 0
 687 0632 07F5DC71 	 add r1,r7,#440
 688 0636 C1E90023 	 strd r2,[r1]
 264:../Dave/Generated/CMSIS_DSP/FilteringFunctions/arm_conv_partial_opt_q15.c **** 
 265:../Dave/Generated/CMSIS_DSP/FilteringFunctions/arm_conv_partial_opt_q15.c ****         x2 = _SIMD32_OFFSET(pScr1 + 2u);
 689              	 .loc 1 265 0
 690 063a 07F17803 	 add r3,r7,#120
 691 063e 1B68     	 ldr r3,[r3]
 692 0640 5B68     	 ldr r3,[r3,#4]
 693 0642 C7F8A031 	 str r3,[r7,#416]
 694              	.LBB46:
 266:../Dave/Generated/CMSIS_DSP/FilteringFunctions/arm_conv_partial_opt_q15.c **** 
 267:../Dave/Generated/CMSIS_DSP/FilteringFunctions/arm_conv_partial_opt_q15.c **** #ifndef ARM_MATH_BIG_ENDIAN
 268:../Dave/Generated/CMSIS_DSP/FilteringFunctions/arm_conv_partial_opt_q15.c ****         x3 = __PKHBT(x2, x1, 0);
 695              	 .loc 1 268 0
 696 0646 D7F8A031 	 ldr r3,[r7,#416]
 697 064a C7F85831 	 str r3,[r7,#344]
 698 064e D7F8A431 	 ldr r3,[r7,#420]
 699 0652 C7F85431 	 str r3,[r7,#340]
 700 0656 D7F85831 	 ldr r3,[r7,#344]
 701 065a D7F85421 	 ldr r2,[r7,#340]
 702              	
 703 065e C3EA0203 	 pkhbt r3,r3,r2,lsl#0
 704              	
 705              	 .thumb
 706 0662 C7F85031 	 str r3,[r7,#336]
 707 0666 D7F85031 	 ldr r3,[r7,#336]
 708              	.LBE46:
 709 066a C7F86831 	 str r3,[r7,#360]
 269:../Dave/Generated/CMSIS_DSP/FilteringFunctions/arm_conv_partial_opt_q15.c **** #else
 270:../Dave/Generated/CMSIS_DSP/FilteringFunctions/arm_conv_partial_opt_q15.c ****         x3 = __PKHBT(x1, x2, 0);
 271:../Dave/Generated/CMSIS_DSP/FilteringFunctions/arm_conv_partial_opt_q15.c **** #endif
 272:../Dave/Generated/CMSIS_DSP/FilteringFunctions/arm_conv_partial_opt_q15.c **** 
 273:../Dave/Generated/CMSIS_DSP/FilteringFunctions/arm_conv_partial_opt_q15.c ****         acc3 = __SMLALDX(x3, y2, acc3);
 710              	 .loc 1 273 0
 711 066e D7F86821 	 ldr r2,[r7,#360]
 712 0672 D7F87841 	 ldr r4,[r7,#376]
 713 0676 07F5D473 	 add r3,r7,#424
 714 067a D3E90001 	 ldrd r0,[r3]
 715 067e 07F19C03 	 add r3,r7,#156
 716 0682 1A60     	 str r2,[r3]
 717 0684 07F19803 	 add r3,r7,#152
 718 0688 1C60     	 str r4,[r3]
 719 068a 07F19003 	 add r3,r7,#144
 720 068e C3E90001 	 strd r0,[r3]
 721              	.LBB47:
 722              	.LBB48:
1239:C:\Workspaces\DAVE-4.1\Flightcontroller_PWM_CopterRocks_Working/Libraries/CMSIS/Include\cmsis_gcc.h **** 
 723              	 .loc 2 1239 0
 724 0692 07F16001 	 add r1,r7,#96
 725 0696 07F19003 	 add r3,r7,#144
 726 069a D3E90023 	 ldrd r2,[r3]
 727 069e C1E90023 	 strd r2,[r1]
1242:C:\Workspaces\DAVE-4.1\Flightcontroller_PWM_CopterRocks_Working/Libraries/CMSIS/Include\cmsis_gcc.h **** #else               /* Big endian */
 728              	 .loc 2 1242 0
 729 06a2 07F16003 	 add r3,r7,#96
 730 06a6 1968     	 ldr r1,[r3]
 731 06a8 07F16003 	 add r3,r7,#96
 732 06ac 5C68     	 ldr r4,[r3,#4]
 733 06ae 07F19C03 	 add r3,r7,#156
 734 06b2 1868     	 ldr r0,[r3]
 735 06b4 07F19803 	 add r3,r7,#152
 736 06b8 1A68     	 ldr r2,[r3]
 737 06ba 2346     	 mov r3,r4
 738              	
 739 06bc C0FBD213 	 smlaldx r1,r3,r0,r2
 740              	
 741              	 .thumb
 742 06c0 07F16002 	 add r2,r7,#96
 743 06c4 1160     	 str r1,[r2]
 744 06c6 07F16002 	 add r2,r7,#96
 745 06ca 5360     	 str r3,[r2,#4]
 746              	 .loc 2 1247 0
 747 06cc 07F16003 	 add r3,r7,#96
 748 06d0 D3E90023 	 ldrd r2,[r3]
 749              	.LBE48:
 750              	.LBE47:
 751              	 .loc 1 273 0
 752 06d4 07F5D471 	 add r1,r7,#424
 753 06d8 C1E90023 	 strd r2,[r1]
 274:../Dave/Generated/CMSIS_DSP/FilteringFunctions/arm_conv_partial_opt_q15.c **** 
 275:../Dave/Generated/CMSIS_DSP/FilteringFunctions/arm_conv_partial_opt_q15.c ****         /* update scratch pointers */
 276:../Dave/Generated/CMSIS_DSP/FilteringFunctions/arm_conv_partial_opt_q15.c ****         pIn2 += 4u;
 754              	 .loc 1 276 0
 755 06dc 07F17403 	 add r3,r7,#116
 756 06e0 1B68     	 ldr r3,[r3]
 757 06e2 03F10802 	 add r2,r3,#8
 758 06e6 07F17403 	 add r3,r7,#116
 759 06ea 1A60     	 str r2,[r3]
 277:../Dave/Generated/CMSIS_DSP/FilteringFunctions/arm_conv_partial_opt_q15.c ****         pScr1 += 4u;
 760              	 .loc 1 277 0
 761 06ec 07F17803 	 add r3,r7,#120
 762 06f0 1B68     	 ldr r3,[r3]
 763 06f2 03F10802 	 add r2,r3,#8
 764 06f6 07F17803 	 add r3,r7,#120
 765 06fa 1A60     	 str r2,[r3]
 278:../Dave/Generated/CMSIS_DSP/FilteringFunctions/arm_conv_partial_opt_q15.c **** 
 279:../Dave/Generated/CMSIS_DSP/FilteringFunctions/arm_conv_partial_opt_q15.c **** 
 280:../Dave/Generated/CMSIS_DSP/FilteringFunctions/arm_conv_partial_opt_q15.c ****         /* Decrement the loop counter */
 281:../Dave/Generated/CMSIS_DSP/FilteringFunctions/arm_conv_partial_opt_q15.c ****         tapCnt--;
 766              	 .loc 1 281 0
 767 06fc D7F88831 	 ldr r3,[r7,#392]
 768 0700 013B     	 subs r3,r3,#1
 769 0702 C7F88831 	 str r3,[r7,#392]
 770              	.L11:
 227:../Dave/Generated/CMSIS_DSP/FilteringFunctions/arm_conv_partial_opt_q15.c ****       {
 771              	 .loc 1 227 0
 772 0706 D7F88831 	 ldr r3,[r7,#392]
 773 070a 002B     	 cmp r3,#0
 774 070c 7FF4F2AD 	 bne .L20
 282:../Dave/Generated/CMSIS_DSP/FilteringFunctions/arm_conv_partial_opt_q15.c ****       }
 283:../Dave/Generated/CMSIS_DSP/FilteringFunctions/arm_conv_partial_opt_q15.c **** 
 284:../Dave/Generated/CMSIS_DSP/FilteringFunctions/arm_conv_partial_opt_q15.c ****       /* Update scratch pointer for remaining samples of smaller length sequence */
 285:../Dave/Generated/CMSIS_DSP/FilteringFunctions/arm_conv_partial_opt_q15.c ****       pScr1 -= 4u;
 775              	 .loc 1 285 0
 776 0710 07F17803 	 add r3,r7,#120
 777 0714 1B68     	 ldr r3,[r3]
 778 0716 A3F10802 	 sub r2,r3,#8
 779 071a 07F17803 	 add r3,r7,#120
 780 071e 1A60     	 str r2,[r3]
 286:../Dave/Generated/CMSIS_DSP/FilteringFunctions/arm_conv_partial_opt_q15.c **** 
 287:../Dave/Generated/CMSIS_DSP/FilteringFunctions/arm_conv_partial_opt_q15.c ****       /* apply same above for remaining samples of smaller length sequence */
 288:../Dave/Generated/CMSIS_DSP/FilteringFunctions/arm_conv_partial_opt_q15.c ****       tapCnt = (srcBLen) & 3u;
 781              	 .loc 1 288 0
 782 0720 07F11803 	 add r3,r7,#24
 783 0724 1B68     	 ldr r3,[r3]
 784 0726 03F00303 	 and r3,r3,#3
 785 072a C7F88831 	 str r3,[r7,#392]
 289:../Dave/Generated/CMSIS_DSP/FilteringFunctions/arm_conv_partial_opt_q15.c **** 
 290:../Dave/Generated/CMSIS_DSP/FilteringFunctions/arm_conv_partial_opt_q15.c ****       while(tapCnt > 0u)
 786              	 .loc 1 290 0
 787 072e 87E0     	 b .L21
 788              	.L22:
 291:../Dave/Generated/CMSIS_DSP/FilteringFunctions/arm_conv_partial_opt_q15.c ****       {
 292:../Dave/Generated/CMSIS_DSP/FilteringFunctions/arm_conv_partial_opt_q15.c ****         /* accumlate the results */
 293:../Dave/Generated/CMSIS_DSP/FilteringFunctions/arm_conv_partial_opt_q15.c ****         acc0 += (*pScr1++ * *pIn2);
 789              	 .loc 1 293 0
 790 0730 07F17803 	 add r3,r7,#120
 791 0734 1B68     	 ldr r3,[r3]
 792 0736 991C     	 adds r1,r3,#2
 793 0738 07F17802 	 add r2,r7,#120
 794 073c 1160     	 str r1,[r2]
 795 073e 1B88     	 ldrh r3,[r3]
 796 0740 1BB2     	 sxth r3,r3
 797 0742 07F17402 	 add r2,r7,#116
 798 0746 1268     	 ldr r2,[r2]
 799 0748 1288     	 ldrh r2,[r2]
 800 074a 12B2     	 sxth r2,r2
 801 074c 02FB03F3 	 mul r3,r2,r3
 802 0750 1A46     	 mov r2,r3
 803 0752 4FEAE273 	 asr r3,r2,#31
 804 0756 07F5E071 	 add r1,r7,#448
 805 075a D1E90001 	 ldrd r0,[r1]
 806 075e 1218     	 adds r2,r2,r0
 807 0760 43EB0103 	 adc r3,r3,r1
 808 0764 07F5E071 	 add r1,r7,#448
 809 0768 C1E90023 	 strd r2,[r1]
 294:../Dave/Generated/CMSIS_DSP/FilteringFunctions/arm_conv_partial_opt_q15.c ****         acc1 += (*pScr1++ * *pIn2);
 810              	 .loc 1 294 0
 811 076c 07F17803 	 add r3,r7,#120
 812 0770 1B68     	 ldr r3,[r3]
 813 0772 991C     	 adds r1,r3,#2
 814 0774 07F17802 	 add r2,r7,#120
 815 0778 1160     	 str r1,[r2]
 816 077a 1B88     	 ldrh r3,[r3]
 817 077c 1BB2     	 sxth r3,r3
 818 077e 07F17402 	 add r2,r7,#116
 819 0782 1268     	 ldr r2,[r2]
 820 0784 1288     	 ldrh r2,[r2]
 821 0786 12B2     	 sxth r2,r2
 822 0788 02FB03F3 	 mul r3,r2,r3
 823 078c 1A46     	 mov r2,r3
 824 078e 4FEAE273 	 asr r3,r2,#31
 825 0792 07F5DC71 	 add r1,r7,#440
 826 0796 D1E90001 	 ldrd r0,[r1]
 827 079a 1218     	 adds r2,r2,r0
 828 079c 43EB0103 	 adc r3,r3,r1
 829 07a0 07F5DC71 	 add r1,r7,#440
 830 07a4 C1E90023 	 strd r2,[r1]
 295:../Dave/Generated/CMSIS_DSP/FilteringFunctions/arm_conv_partial_opt_q15.c ****         acc2 += (*pScr1++ * *pIn2);
 831              	 .loc 1 295 0
 832 07a8 07F17803 	 add r3,r7,#120
 833 07ac 1B68     	 ldr r3,[r3]
 834 07ae 991C     	 adds r1,r3,#2
 835 07b0 07F17802 	 add r2,r7,#120
 836 07b4 1160     	 str r1,[r2]
 837 07b6 1B88     	 ldrh r3,[r3]
 838 07b8 1BB2     	 sxth r3,r3
 839 07ba 07F17402 	 add r2,r7,#116
 840 07be 1268     	 ldr r2,[r2]
 841 07c0 1288     	 ldrh r2,[r2]
 842 07c2 12B2     	 sxth r2,r2
 843 07c4 02FB03F3 	 mul r3,r2,r3
 844 07c8 1A46     	 mov r2,r3
 845 07ca 4FEAE273 	 asr r3,r2,#31
 846 07ce 07F5D871 	 add r1,r7,#432
 847 07d2 D1E90001 	 ldrd r0,[r1]
 848 07d6 1218     	 adds r2,r2,r0
 849 07d8 43EB0103 	 adc r3,r3,r1
 850 07dc 07F5D871 	 add r1,r7,#432
 851 07e0 C1E90023 	 strd r2,[r1]
 296:../Dave/Generated/CMSIS_DSP/FilteringFunctions/arm_conv_partial_opt_q15.c ****         acc3 += (*pScr1++ * *pIn2++);
 852              	 .loc 1 296 0
 853 07e4 07F17803 	 add r3,r7,#120
 854 07e8 1B68     	 ldr r3,[r3]
 855 07ea 991C     	 adds r1,r3,#2
 856 07ec 07F17802 	 add r2,r7,#120
 857 07f0 1160     	 str r1,[r2]
 858 07f2 1B88     	 ldrh r3,[r3]
 859 07f4 1AB2     	 sxth r2,r3
 860 07f6 07F17403 	 add r3,r7,#116
 861 07fa 1B68     	 ldr r3,[r3]
 862 07fc 981C     	 adds r0,r3,#2
 863 07fe 07F17401 	 add r1,r7,#116
 864 0802 0860     	 str r0,[r1]
 865 0804 1B88     	 ldrh r3,[r3]
 866 0806 1BB2     	 sxth r3,r3
 867 0808 03FB02F3 	 mul r3,r3,r2
 868 080c 1A46     	 mov r2,r3
 869 080e 4FEAE273 	 asr r3,r2,#31
 870 0812 07F5D471 	 add r1,r7,#424
 871 0816 D1E90001 	 ldrd r0,[r1]
 872 081a 1218     	 adds r2,r2,r0
 873 081c 43EB0103 	 adc r3,r3,r1
 874 0820 07F5D471 	 add r1,r7,#424
 875 0824 C1E90023 	 strd r2,[r1]
 297:../Dave/Generated/CMSIS_DSP/FilteringFunctions/arm_conv_partial_opt_q15.c **** 
 298:../Dave/Generated/CMSIS_DSP/FilteringFunctions/arm_conv_partial_opt_q15.c ****         pScr1 -= 3u;
 876              	 .loc 1 298 0
 877 0828 07F17803 	 add r3,r7,#120
 878 082c 1B68     	 ldr r3,[r3]
 879 082e 9A1F     	 subs r2,r3,#6
 880 0830 07F17803 	 add r3,r7,#120
 881 0834 1A60     	 str r2,[r3]
 299:../Dave/Generated/CMSIS_DSP/FilteringFunctions/arm_conv_partial_opt_q15.c **** 
 300:../Dave/Generated/CMSIS_DSP/FilteringFunctions/arm_conv_partial_opt_q15.c ****         /* Decrement the loop counter */
 301:../Dave/Generated/CMSIS_DSP/FilteringFunctions/arm_conv_partial_opt_q15.c ****         tapCnt--;
 882              	 .loc 1 301 0
 883 0836 D7F88831 	 ldr r3,[r7,#392]
 884 083a 013B     	 subs r3,r3,#1
 885 083c C7F88831 	 str r3,[r7,#392]
 886              	.L21:
 290:../Dave/Generated/CMSIS_DSP/FilteringFunctions/arm_conv_partial_opt_q15.c ****       {
 887              	 .loc 1 290 0
 888 0840 D7F88831 	 ldr r3,[r7,#392]
 889 0844 002B     	 cmp r3,#0
 890 0846 7FF473AF 	 bne .L22
 302:../Dave/Generated/CMSIS_DSP/FilteringFunctions/arm_conv_partial_opt_q15.c ****       }
 303:../Dave/Generated/CMSIS_DSP/FilteringFunctions/arm_conv_partial_opt_q15.c **** 
 304:../Dave/Generated/CMSIS_DSP/FilteringFunctions/arm_conv_partial_opt_q15.c ****       blkCnt--;
 891              	 .loc 1 304 0
 892 084a D7F89031 	 ldr r3,[r7,#400]
 893 084e 013B     	 subs r3,r3,#1
 894 0850 C7F89031 	 str r3,[r7,#400]
 305:../Dave/Generated/CMSIS_DSP/FilteringFunctions/arm_conv_partial_opt_q15.c **** 
 306:../Dave/Generated/CMSIS_DSP/FilteringFunctions/arm_conv_partial_opt_q15.c **** 
 307:../Dave/Generated/CMSIS_DSP/FilteringFunctions/arm_conv_partial_opt_q15.c ****       /* Store the results in the accumulators in the destination buffer. */
 308:../Dave/Generated/CMSIS_DSP/FilteringFunctions/arm_conv_partial_opt_q15.c **** 
 309:../Dave/Generated/CMSIS_DSP/FilteringFunctions/arm_conv_partial_opt_q15.c **** #ifndef  ARM_MATH_BIG_ENDIAN
 310:../Dave/Generated/CMSIS_DSP/FilteringFunctions/arm_conv_partial_opt_q15.c **** 
 311:../Dave/Generated/CMSIS_DSP/FilteringFunctions/arm_conv_partial_opt_q15.c ****       *__SIMD32(pOut)++ =
 895              	 .loc 1 311 0
 896 0854 07F17C03 	 add r3,r7,#124
 897 0858 1968     	 ldr r1,[r3]
 898 085a 0A1D     	 adds r2,r1,#4
 899 085c 1A60     	 str r2,[r3]
 900              	.LBB49:
 901              	.LBB50:
 312:../Dave/Generated/CMSIS_DSP/FilteringFunctions/arm_conv_partial_opt_q15.c ****         __PKHBT(__SSAT((acc0 >> 15), 16), __SSAT((acc1 >> 15), 16), 16);
 902              	 .loc 1 312 0
 903 085e 07F5E073 	 add r3,r7,#448
 904 0862 D3E90023 	 ldrd r2,[r3]
 905 0866 4FEAD23A 	 lsr r10,r2,#15
 906 086a 4AEA434A 	 orr r10,r10,r3,lsl#17
 907 086e 4FEAE33B 	 asr fp,r3,#15
 908 0872 5346     	 mov r3,r10
 909 0874 C7F84C31 	 str r3,[r7,#332]
 910 0878 D7F84C31 	 ldr r3,[r7,#332]
 911              	
 912 087c 03F30F03 	 ssat r3,#16,r3
 913              	
 914              	 .thumb
 915 0880 C7F84831 	 str r3,[r7,#328]
 916 0884 D7F84831 	 ldr r3,[r7,#328]
 917              	.LBE50:
 918 0888 C7F84431 	 str r3,[r7,#324]
 919              	.LBB51:
 920 088c 07F5DC73 	 add r3,r7,#440
 921 0890 D3E90023 	 ldrd r2,[r3]
 922 0894 D00B     	 lsrs r0,r2,#15
 923 0896 3861     	 str r0,[r7,#16]
 924 0898 3869     	 ldr r0,[r7,#16]
 925 089a 40EA4340 	 orr r0,r0,r3,lsl#17
 926 089e 3861     	 str r0,[r7,#16]
 927 08a0 DB13     	 asrs r3,r3,#15
 928 08a2 7B61     	 str r3,[r7,#20]
 929 08a4 3B69     	 ldr r3,[r7,#16]
 930 08a6 C7F84031 	 str r3,[r7,#320]
 931 08aa D7F84031 	 ldr r3,[r7,#320]
 932              	
 933 08ae 03F30F03 	 ssat r3,#16,r3
 934              	
 935              	 .thumb
 936 08b2 C7F83C31 	 str r3,[r7,#316]
 937 08b6 D7F83C31 	 ldr r3,[r7,#316]
 938              	.LBE51:
 939 08ba C7F83831 	 str r3,[r7,#312]
 940 08be D7F84431 	 ldr r3,[r7,#324]
 941 08c2 D7F83821 	 ldr r2,[r7,#312]
 942              	
 943 08c6 C3EA0243 	 pkhbt r3,r3,r2,lsl#16
 944              	
 945              	 .thumb
 946 08ca C7F83431 	 str r3,[r7,#308]
 947 08ce D7F83431 	 ldr r3,[r7,#308]
 948              	.LBE49:
 311:../Dave/Generated/CMSIS_DSP/FilteringFunctions/arm_conv_partial_opt_q15.c ****         __PKHBT(__SSAT((acc0 >> 15), 16), __SSAT((acc1 >> 15), 16), 16);
 949              	 .loc 1 311 0
 950 08d2 0B60     	 str r3,[r1]
 313:../Dave/Generated/CMSIS_DSP/FilteringFunctions/arm_conv_partial_opt_q15.c ****       *__SIMD32(pOut)++ =
 951              	 .loc 1 313 0
 952 08d4 07F17C03 	 add r3,r7,#124
 953 08d8 1968     	 ldr r1,[r3]
 954 08da 0A1D     	 adds r2,r1,#4
 955 08dc 1A60     	 str r2,[r3]
 956              	.LBB52:
 957              	.LBB53:
 314:../Dave/Generated/CMSIS_DSP/FilteringFunctions/arm_conv_partial_opt_q15.c ****         __PKHBT(__SSAT((acc2 >> 15), 16), __SSAT((acc3 >> 15), 16), 16);
 958              	 .loc 1 314 0
 959 08de 07F5D873 	 add r3,r7,#432
 960 08e2 D3E90023 	 ldrd r2,[r3]
 961 08e6 D00B     	 lsrs r0,r2,#15
 962 08e8 B860     	 str r0,[r7,#8]
 963 08ea B868     	 ldr r0,[r7,#8]
 964 08ec 40EA4340 	 orr r0,r0,r3,lsl#17
 965 08f0 B860     	 str r0,[r7,#8]
 966 08f2 DB13     	 asrs r3,r3,#15
 967 08f4 FB60     	 str r3,[r7,#12]
 968 08f6 BB68     	 ldr r3,[r7,#8]
 969 08f8 C7F83031 	 str r3,[r7,#304]
 970 08fc D7F83031 	 ldr r3,[r7,#304]
 971              	
 972 0900 03F30F03 	 ssat r3,#16,r3
 973              	
 974              	 .thumb
 975 0904 C7F82C31 	 str r3,[r7,#300]
 976 0908 D7F82C31 	 ldr r3,[r7,#300]
 977              	.LBE53:
 978 090c C7F82831 	 str r3,[r7,#296]
 979              	.LBB54:
 980 0910 07F5D473 	 add r3,r7,#424
 981 0914 D3E90023 	 ldrd r2,[r3]
 982 0918 D00B     	 lsrs r0,r2,#15
 983 091a 3860     	 str r0,[r7]
 984 091c 3868     	 ldr r0,[r7]
 985 091e 40EA4340 	 orr r0,r0,r3,lsl#17
 986 0922 3860     	 str r0,[r7]
 987 0924 DB13     	 asrs r3,r3,#15
 988 0926 7B60     	 str r3,[r7,#4]
 989 0928 3B68     	 ldr r3,[r7]
 990 092a C7F82431 	 str r3,[r7,#292]
 991 092e D7F82431 	 ldr r3,[r7,#292]
 992              	
 993 0932 03F30F03 	 ssat r3,#16,r3
 994              	
 995              	 .thumb
 996 0936 C7F82031 	 str r3,[r7,#288]
 997 093a D7F82031 	 ldr r3,[r7,#288]
 998              	.LBE54:
 999 093e C7F81C31 	 str r3,[r7,#284]
 1000 0942 D7F82831 	 ldr r3,[r7,#296]
 1001 0946 D7F81C21 	 ldr r2,[r7,#284]
 1002              	
 1003 094a C3EA0243 	 pkhbt r3,r3,r2,lsl#16
 1004              	
 1005              	 .thumb
 1006 094e C7F81831 	 str r3,[r7,#280]
 1007 0952 D7F81831 	 ldr r3,[r7,#280]
 1008              	.LBE52:
 313:../Dave/Generated/CMSIS_DSP/FilteringFunctions/arm_conv_partial_opt_q15.c ****       *__SIMD32(pOut)++ =
 1009              	 .loc 1 313 0
 1010 0956 0B60     	 str r3,[r1]
 315:../Dave/Generated/CMSIS_DSP/FilteringFunctions/arm_conv_partial_opt_q15.c **** 
 316:../Dave/Generated/CMSIS_DSP/FilteringFunctions/arm_conv_partial_opt_q15.c **** #else
 317:../Dave/Generated/CMSIS_DSP/FilteringFunctions/arm_conv_partial_opt_q15.c **** 
 318:../Dave/Generated/CMSIS_DSP/FilteringFunctions/arm_conv_partial_opt_q15.c ****       *__SIMD32(pOut)++ =
 319:../Dave/Generated/CMSIS_DSP/FilteringFunctions/arm_conv_partial_opt_q15.c ****         __PKHBT(__SSAT((acc1 >> 15), 16), __SSAT((acc0 >> 15), 16), 16);
 320:../Dave/Generated/CMSIS_DSP/FilteringFunctions/arm_conv_partial_opt_q15.c ****       *__SIMD32(pOut)++ =
 321:../Dave/Generated/CMSIS_DSP/FilteringFunctions/arm_conv_partial_opt_q15.c ****         __PKHBT(__SSAT((acc3 >> 15), 16), __SSAT((acc2 >> 15), 16), 16);
 322:../Dave/Generated/CMSIS_DSP/FilteringFunctions/arm_conv_partial_opt_q15.c **** 
 323:../Dave/Generated/CMSIS_DSP/FilteringFunctions/arm_conv_partial_opt_q15.c **** #endif /*      #ifndef  ARM_MATH_BIG_ENDIAN    */
 324:../Dave/Generated/CMSIS_DSP/FilteringFunctions/arm_conv_partial_opt_q15.c **** 
 325:../Dave/Generated/CMSIS_DSP/FilteringFunctions/arm_conv_partial_opt_q15.c ****       /* Initialization of inputB pointer */
 326:../Dave/Generated/CMSIS_DSP/FilteringFunctions/arm_conv_partial_opt_q15.c ****       pIn2 = py;
 1011              	 .loc 1 326 0
 1012 0958 07F17403 	 add r3,r7,#116
 1013 095c D7F88021 	 ldr r2,[r7,#384]
 1014 0960 1A60     	 str r2,[r3]
 327:../Dave/Generated/CMSIS_DSP/FilteringFunctions/arm_conv_partial_opt_q15.c **** 
 328:../Dave/Generated/CMSIS_DSP/FilteringFunctions/arm_conv_partial_opt_q15.c ****       pScratch1 += 4u;
 1015              	 .loc 1 328 0
 1016 0962 D7F8FC31 	 ldr r3,[r7,#508]
 1017 0966 0833     	 adds r3,r3,#8
 1018 0968 C7F8FC31 	 str r3,[r7,#508]
 1019              	.L10:
 208:../Dave/Generated/CMSIS_DSP/FilteringFunctions/arm_conv_partial_opt_q15.c ****     {
 1020              	 .loc 1 208 0
 1021 096c D7F89031 	 ldr r3,[r7,#400]
 1022 0970 002B     	 cmp r3,#0
 1023 0972 7FF483AC 	 bne .L23
 329:../Dave/Generated/CMSIS_DSP/FilteringFunctions/arm_conv_partial_opt_q15.c **** 
 330:../Dave/Generated/CMSIS_DSP/FilteringFunctions/arm_conv_partial_opt_q15.c ****     }
 331:../Dave/Generated/CMSIS_DSP/FilteringFunctions/arm_conv_partial_opt_q15.c **** 
 332:../Dave/Generated/CMSIS_DSP/FilteringFunctions/arm_conv_partial_opt_q15.c **** 
 333:../Dave/Generated/CMSIS_DSP/FilteringFunctions/arm_conv_partial_opt_q15.c ****     blkCnt = numPoints & 0x3;
 1024              	 .loc 1 333 0
 1025 0976 D7F8F831 	 ldr r3,[r7,#504]
 1026 097a 03F00303 	 and r3,r3,#3
 1027 097e C7F89031 	 str r3,[r7,#400]
 334:../Dave/Generated/CMSIS_DSP/FilteringFunctions/arm_conv_partial_opt_q15.c **** 
 335:../Dave/Generated/CMSIS_DSP/FilteringFunctions/arm_conv_partial_opt_q15.c ****     /* Calculate convolution for remaining samples of Bigger length sequence */
 336:../Dave/Generated/CMSIS_DSP/FilteringFunctions/arm_conv_partial_opt_q15.c ****     while(blkCnt > 0)
 1028              	 .loc 1 336 0
 1029 0982 C3E0     	 b .L24
 1030              	.L30:
 337:../Dave/Generated/CMSIS_DSP/FilteringFunctions/arm_conv_partial_opt_q15.c ****     {
 338:../Dave/Generated/CMSIS_DSP/FilteringFunctions/arm_conv_partial_opt_q15.c ****       /* Initialze temporary scratch pointer as scratch1 */
 339:../Dave/Generated/CMSIS_DSP/FilteringFunctions/arm_conv_partial_opt_q15.c ****       pScr1 = pScratch1;
 1031              	 .loc 1 339 0
 1032 0984 07F17803 	 add r3,r7,#120
 1033 0988 D7F8FC21 	 ldr r2,[r7,#508]
 1034 098c 1A60     	 str r2,[r3]
 340:../Dave/Generated/CMSIS_DSP/FilteringFunctions/arm_conv_partial_opt_q15.c **** 
 341:../Dave/Generated/CMSIS_DSP/FilteringFunctions/arm_conv_partial_opt_q15.c ****       /* Clear Accumlators */
