   1              	 .syntax unified
   2              	 .cpu cortex-m4
   3              	 .eabi_attribute 27,3
   4              	 .fpu fpv4-sp-d16
   5              	 .eabi_attribute 20,1
   6              	 .eabi_attribute 21,1
   7              	 .eabi_attribute 23,3
   8              	 .eabi_attribute 24,1
   9              	 .eabi_attribute 25,1
  10              	 .eabi_attribute 26,1
  11              	 .eabi_attribute 30,6
  12              	 .eabi_attribute 34,1
  13              	 .eabi_attribute 18,4
  14              	 .thumb
  15              	 .file "arm_fir_lattice_init_q15.c"
  16              	 .text
  17              	.Ltext0:
  18              	 .cfi_sections .debug_frame
  19              	 .section .text.arm_fir_lattice_init_q15,"ax",%progbits
  20              	 .align 2
  21              	 .global arm_fir_lattice_init_q15
  22              	 .thumb
  23              	 .thumb_func
  25              	arm_fir_lattice_init_q15:
  26              	.LFB139:
  27              	 .file 1 "../Dave/Generated/CMSIS_DSP/FilteringFunctions/arm_fir_lattice_init_q15.c"
   1:../Dave/Generated/CMSIS_DSP/FilteringFunctions/arm_fir_lattice_init_q15.c **** /*-----------------------------------------------------------------------------    
   2:../Dave/Generated/CMSIS_DSP/FilteringFunctions/arm_fir_lattice_init_q15.c **** * Copyright (C) 2010-2014 ARM Limited. All rights reserved.    
   3:../Dave/Generated/CMSIS_DSP/FilteringFunctions/arm_fir_lattice_init_q15.c **** *    
   4:../Dave/Generated/CMSIS_DSP/FilteringFunctions/arm_fir_lattice_init_q15.c **** * $Date:        12. March 2014
   5:../Dave/Generated/CMSIS_DSP/FilteringFunctions/arm_fir_lattice_init_q15.c **** * $Revision: 	V1.4.4
   6:../Dave/Generated/CMSIS_DSP/FilteringFunctions/arm_fir_lattice_init_q15.c **** *    
   7:../Dave/Generated/CMSIS_DSP/FilteringFunctions/arm_fir_lattice_init_q15.c **** * Project: 	    CMSIS DSP Library    
   8:../Dave/Generated/CMSIS_DSP/FilteringFunctions/arm_fir_lattice_init_q15.c **** * Title:        arm_fir_lattice_init_q15.c    
   9:../Dave/Generated/CMSIS_DSP/FilteringFunctions/arm_fir_lattice_init_q15.c **** *    
  10:../Dave/Generated/CMSIS_DSP/FilteringFunctions/arm_fir_lattice_init_q15.c **** * Description:  Q15 FIR Lattice filter initialization function.    
  11:../Dave/Generated/CMSIS_DSP/FilteringFunctions/arm_fir_lattice_init_q15.c **** *    
  12:../Dave/Generated/CMSIS_DSP/FilteringFunctions/arm_fir_lattice_init_q15.c **** * Target Processor: Cortex-M4/Cortex-M3/Cortex-M0
  13:../Dave/Generated/CMSIS_DSP/FilteringFunctions/arm_fir_lattice_init_q15.c **** *  
  14:../Dave/Generated/CMSIS_DSP/FilteringFunctions/arm_fir_lattice_init_q15.c **** * Redistribution and use in source and binary forms, with or without 
  15:../Dave/Generated/CMSIS_DSP/FilteringFunctions/arm_fir_lattice_init_q15.c **** * modification, are permitted provided that the following conditions
  16:../Dave/Generated/CMSIS_DSP/FilteringFunctions/arm_fir_lattice_init_q15.c **** * are met:
  17:../Dave/Generated/CMSIS_DSP/FilteringFunctions/arm_fir_lattice_init_q15.c **** *   - Redistributions of source code must retain the above copyright
  18:../Dave/Generated/CMSIS_DSP/FilteringFunctions/arm_fir_lattice_init_q15.c **** *     notice, this list of conditions and the following disclaimer.
  19:../Dave/Generated/CMSIS_DSP/FilteringFunctions/arm_fir_lattice_init_q15.c **** *   - Redistributions in binary form must reproduce the above copyright
  20:../Dave/Generated/CMSIS_DSP/FilteringFunctions/arm_fir_lattice_init_q15.c **** *     notice, this list of conditions and the following disclaimer in
  21:../Dave/Generated/CMSIS_DSP/FilteringFunctions/arm_fir_lattice_init_q15.c **** *     the documentation and/or other materials provided with the 
  22:../Dave/Generated/CMSIS_DSP/FilteringFunctions/arm_fir_lattice_init_q15.c **** *     distribution.
  23:../Dave/Generated/CMSIS_DSP/FilteringFunctions/arm_fir_lattice_init_q15.c **** *   - Neither the name of ARM LIMITED nor the names of its contributors
  24:../Dave/Generated/CMSIS_DSP/FilteringFunctions/arm_fir_lattice_init_q15.c **** *     may be used to endorse or promote products derived from this
  25:../Dave/Generated/CMSIS_DSP/FilteringFunctions/arm_fir_lattice_init_q15.c **** *     software without specific prior written permission.
  26:../Dave/Generated/CMSIS_DSP/FilteringFunctions/arm_fir_lattice_init_q15.c **** *
  27:../Dave/Generated/CMSIS_DSP/FilteringFunctions/arm_fir_lattice_init_q15.c **** * THIS SOFTWARE IS PROVIDED BY THE COPYRIGHT HOLDERS AND CONTRIBUTORS
  28:../Dave/Generated/CMSIS_DSP/FilteringFunctions/arm_fir_lattice_init_q15.c **** * "AS IS" AND ANY EXPRESS OR IMPLIED WARRANTIES, INCLUDING, BUT NOT
  29:../Dave/Generated/CMSIS_DSP/FilteringFunctions/arm_fir_lattice_init_q15.c **** * LIMITED TO, THE IMPLIED WARRANTIES OF MERCHANTABILITY AND FITNESS
  30:../Dave/Generated/CMSIS_DSP/FilteringFunctions/arm_fir_lattice_init_q15.c **** * FOR A PARTICULAR PURPOSE ARE DISCLAIMED. IN NO EVENT SHALL THE 
  31:../Dave/Generated/CMSIS_DSP/FilteringFunctions/arm_fir_lattice_init_q15.c **** * COPYRIGHT OWNER OR CONTRIBUTORS BE LIABLE FOR ANY DIRECT, INDIRECT,
  32:../Dave/Generated/CMSIS_DSP/FilteringFunctions/arm_fir_lattice_init_q15.c **** * INCIDENTAL, SPECIAL, EXEMPLARY, OR CONSEQUENTIAL DAMAGES (INCLUDING,
  33:../Dave/Generated/CMSIS_DSP/FilteringFunctions/arm_fir_lattice_init_q15.c **** * BUT NOT LIMITED TO, PROCUREMENT OF SUBSTITUTE GOODS OR SERVICES;
  34:../Dave/Generated/CMSIS_DSP/FilteringFunctions/arm_fir_lattice_init_q15.c **** * LOSS OF USE, DATA, OR PROFITS; OR BUSINESS INTERRUPTION) HOWEVER
  35:../Dave/Generated/CMSIS_DSP/FilteringFunctions/arm_fir_lattice_init_q15.c **** * CAUSED AND ON ANY THEORY OF LIABILITY, WHETHER IN CONTRACT, STRICT
  36:../Dave/Generated/CMSIS_DSP/FilteringFunctions/arm_fir_lattice_init_q15.c **** * LIABILITY, OR TORT (INCLUDING NEGLIGENCE OR OTHERWISE) ARISING IN
  37:../Dave/Generated/CMSIS_DSP/FilteringFunctions/arm_fir_lattice_init_q15.c **** * ANY WAY OUT OF THE USE OF THIS SOFTWARE, EVEN IF ADVISED OF THE
  38:../Dave/Generated/CMSIS_DSP/FilteringFunctions/arm_fir_lattice_init_q15.c **** * POSSIBILITY OF SUCH DAMAGE.    
  39:../Dave/Generated/CMSIS_DSP/FilteringFunctions/arm_fir_lattice_init_q15.c **** * ---------------------------------------------------------------------------*/
  40:../Dave/Generated/CMSIS_DSP/FilteringFunctions/arm_fir_lattice_init_q15.c **** 
  41:../Dave/Generated/CMSIS_DSP/FilteringFunctions/arm_fir_lattice_init_q15.c **** #include "CMSIS_DSP/cmsis_dsp.h"
  42:../Dave/Generated/CMSIS_DSP/FilteringFunctions/arm_fir_lattice_init_q15.c **** 
  43:../Dave/Generated/CMSIS_DSP/FilteringFunctions/arm_fir_lattice_init_q15.c **** /**    
  44:../Dave/Generated/CMSIS_DSP/FilteringFunctions/arm_fir_lattice_init_q15.c ****  * @ingroup groupFilters    
  45:../Dave/Generated/CMSIS_DSP/FilteringFunctions/arm_fir_lattice_init_q15.c ****  */
  46:../Dave/Generated/CMSIS_DSP/FilteringFunctions/arm_fir_lattice_init_q15.c **** 
  47:../Dave/Generated/CMSIS_DSP/FilteringFunctions/arm_fir_lattice_init_q15.c **** /**    
  48:../Dave/Generated/CMSIS_DSP/FilteringFunctions/arm_fir_lattice_init_q15.c ****  * @addtogroup FIR_Lattice    
  49:../Dave/Generated/CMSIS_DSP/FilteringFunctions/arm_fir_lattice_init_q15.c ****  * @{    
  50:../Dave/Generated/CMSIS_DSP/FilteringFunctions/arm_fir_lattice_init_q15.c ****  */
  51:../Dave/Generated/CMSIS_DSP/FilteringFunctions/arm_fir_lattice_init_q15.c **** 
  52:../Dave/Generated/CMSIS_DSP/FilteringFunctions/arm_fir_lattice_init_q15.c ****   /**    
  53:../Dave/Generated/CMSIS_DSP/FilteringFunctions/arm_fir_lattice_init_q15.c ****    * @brief Initialization function for the Q15 FIR lattice filter.    
  54:../Dave/Generated/CMSIS_DSP/FilteringFunctions/arm_fir_lattice_init_q15.c ****    * @param[in] *S points to an instance of the Q15 FIR lattice structure.    
  55:../Dave/Generated/CMSIS_DSP/FilteringFunctions/arm_fir_lattice_init_q15.c ****    * @param[in] numStages  number of filter stages.    
  56:../Dave/Generated/CMSIS_DSP/FilteringFunctions/arm_fir_lattice_init_q15.c ****    * @param[in] *pCoeffs points to the coefficient buffer.  The array is of length numStages.     
  57:../Dave/Generated/CMSIS_DSP/FilteringFunctions/arm_fir_lattice_init_q15.c ****    * @param[in] *pState points to the state buffer.  The array is of length numStages.     
  58:../Dave/Generated/CMSIS_DSP/FilteringFunctions/arm_fir_lattice_init_q15.c ****    * @return none.    
  59:../Dave/Generated/CMSIS_DSP/FilteringFunctions/arm_fir_lattice_init_q15.c ****    */
  60:../Dave/Generated/CMSIS_DSP/FilteringFunctions/arm_fir_lattice_init_q15.c **** 
  61:../Dave/Generated/CMSIS_DSP/FilteringFunctions/arm_fir_lattice_init_q15.c **** void arm_fir_lattice_init_q15(
  62:../Dave/Generated/CMSIS_DSP/FilteringFunctions/arm_fir_lattice_init_q15.c ****   arm_fir_lattice_instance_q15 * S,
  63:../Dave/Generated/CMSIS_DSP/FilteringFunctions/arm_fir_lattice_init_q15.c ****   uint16_t numStages,
  64:../Dave/Generated/CMSIS_DSP/FilteringFunctions/arm_fir_lattice_init_q15.c ****   q15_t * pCoeffs,
  65:../Dave/Generated/CMSIS_DSP/FilteringFunctions/arm_fir_lattice_init_q15.c ****   q15_t * pState)
  66:../Dave/Generated/CMSIS_DSP/FilteringFunctions/arm_fir_lattice_init_q15.c **** {
  28              	 .loc 1 66 0
  29              	 .cfi_startproc
  30              	 
  31              	 
  32 0000 80B5     	 push {r7,lr}
  33              	.LCFI0:
  34              	 .cfi_def_cfa_offset 8
  35              	 .cfi_offset 7,-8
  36              	 .cfi_offset 14,-4
  37 0002 84B0     	 sub sp,sp,#16
  38              	.LCFI1:
  39              	 .cfi_def_cfa_offset 24
  40 0004 00AF     	 add r7,sp,#0
  41              	.LCFI2:
  42              	 .cfi_def_cfa_register 7
  43 0006 F860     	 str r0,[r7,#12]
  44 0008 7A60     	 str r2,[r7,#4]
  45 000a 3B60     	 str r3,[r7]
  46 000c 0B46     	 mov r3,r1
  47 000e 7B81     	 strh r3,[r7,#10]
  67:../Dave/Generated/CMSIS_DSP/FilteringFunctions/arm_fir_lattice_init_q15.c ****   /* Assign filter taps */
  68:../Dave/Generated/CMSIS_DSP/FilteringFunctions/arm_fir_lattice_init_q15.c ****   S->numStages = numStages;
  48              	 .loc 1 68 0
  49 0010 FB68     	 ldr r3,[r7,#12]
  50 0012 7A89     	 ldrh r2,[r7,#10]
  51 0014 1A80     	 strh r2,[r3]
  69:../Dave/Generated/CMSIS_DSP/FilteringFunctions/arm_fir_lattice_init_q15.c **** 
  70:../Dave/Generated/CMSIS_DSP/FilteringFunctions/arm_fir_lattice_init_q15.c ****   /* Assign coefficient pointer */
  71:../Dave/Generated/CMSIS_DSP/FilteringFunctions/arm_fir_lattice_init_q15.c ****   S->pCoeffs = pCoeffs;
  52              	 .loc 1 71 0
  53 0016 FB68     	 ldr r3,[r7,#12]
  54 0018 7A68     	 ldr r2,[r7,#4]
  55 001a 9A60     	 str r2,[r3,#8]
  72:../Dave/Generated/CMSIS_DSP/FilteringFunctions/arm_fir_lattice_init_q15.c **** 
  73:../Dave/Generated/CMSIS_DSP/FilteringFunctions/arm_fir_lattice_init_q15.c ****   /* Clear state buffer and size is always numStages */
  74:../Dave/Generated/CMSIS_DSP/FilteringFunctions/arm_fir_lattice_init_q15.c ****   memset(pState, 0, (numStages) * sizeof(q15_t));
  56              	 .loc 1 74 0
  57 001c 7B89     	 ldrh r3,[r7,#10]
  58 001e 5B00     	 lsls r3,r3,#1
  59 0020 3868     	 ldr r0,[r7]
  60 0022 0021     	 movs r1,#0
  61 0024 1A46     	 mov r2,r3
  62 0026 FFF7FEFF 	 bl memset
  75:../Dave/Generated/CMSIS_DSP/FilteringFunctions/arm_fir_lattice_init_q15.c **** 
  76:../Dave/Generated/CMSIS_DSP/FilteringFunctions/arm_fir_lattice_init_q15.c ****   /* Assign state pointer */
  77:../Dave/Generated/CMSIS_DSP/FilteringFunctions/arm_fir_lattice_init_q15.c ****   S->pState = pState;
  63              	 .loc 1 77 0
  64 002a FB68     	 ldr r3,[r7,#12]
  65 002c 3A68     	 ldr r2,[r7]
  66 002e 5A60     	 str r2,[r3,#4]
  78:../Dave/Generated/CMSIS_DSP/FilteringFunctions/arm_fir_lattice_init_q15.c **** 
  79:../Dave/Generated/CMSIS_DSP/FilteringFunctions/arm_fir_lattice_init_q15.c **** }
  67              	 .loc 1 79 0
  68 0030 1037     	 adds r7,r7,#16
  69              	.LCFI3:
  70              	 .cfi_def_cfa_offset 8
  71 0032 BD46     	 mov sp,r7
  72              	.LCFI4:
  73              	 .cfi_def_cfa_register 13
  74              	 
  75 0034 80BD     	 pop {r7,pc}
  76              	 .cfi_endproc
  77              	.LFE139:
  79 0036 00BF     	 .text
  80              	.Letext0:
  81              	 .file 2 "c:\\davev4\\dave-4.3.2\\eclipse\\arm-gcc-49\\arm-none-eabi\\include\\machine\\_default_types.h"
  82              	 .file 3 "c:\\davev4\\dave-4.3.2\\eclipse\\arm-gcc-49\\arm-none-eabi\\include\\stdint.h"
  83              	 .file 4 "C:/Workspaces/DAVE-4.3/WS_2016_09_02/Flightcontroller_PWM_CopterRocks_Working/Dave/Generated/CMSIS_DSP/arm_math.h"