   1              	 .syntax unified
   2              	 .cpu cortex-m4
   3              	 .eabi_attribute 27,3
   4              	 .fpu fpv4-sp-d16
   5              	 .eabi_attribute 20,1
   6              	 .eabi_attribute 21,1
   7              	 .eabi_attribute 23,3
   8              	 .eabi_attribute 24,1
   9              	 .eabi_attribute 25,1
  10              	 .eabi_attribute 26,1
  11              	 .eabi_attribute 30,6
  12              	 .eabi_attribute 34,1
  13              	 .eabi_attribute 18,4
  14              	 .thumb
  15              	 .file "arm_biquad_cascade_stereo_df2T_f32.c"
  16              	 .text
  17              	.Ltext0:
  18              	 .cfi_sections .debug_frame
  19              	 .section .text.arm_biquad_cascade_stereo_df2T_f32,"ax",%progbits
  20              	 .align 2
  21              	 .global arm_biquad_cascade_stereo_df2T_f32
  22              	 .thumb
  23              	 .thumb_func
  25              	arm_biquad_cascade_stereo_df2T_f32:
  26              	.LFB139:
  27              	 .file 1 "../Dave/Generated/CMSIS_DSP/FilteringFunctions/arm_biquad_cascade_stereo_df2T_f32.c"
   1:../Dave/Generated/CMSIS_DSP/FilteringFunctions/arm_biquad_cascade_stereo_df2T_f32.c **** /* ----------------------------------------------------------------------    
   2:../Dave/Generated/CMSIS_DSP/FilteringFunctions/arm_biquad_cascade_stereo_df2T_f32.c **** * Copyright (C) 2010-2014 ARM Limited. All rights reserved.    
   3:../Dave/Generated/CMSIS_DSP/FilteringFunctions/arm_biquad_cascade_stereo_df2T_f32.c **** *    
   4:../Dave/Generated/CMSIS_DSP/FilteringFunctions/arm_biquad_cascade_stereo_df2T_f32.c **** * $Date:        31. July 2014 
   5:../Dave/Generated/CMSIS_DSP/FilteringFunctions/arm_biquad_cascade_stereo_df2T_f32.c **** * $Revision: 	V1.4.4
   6:../Dave/Generated/CMSIS_DSP/FilteringFunctions/arm_biquad_cascade_stereo_df2T_f32.c **** *    
   7:../Dave/Generated/CMSIS_DSP/FilteringFunctions/arm_biquad_cascade_stereo_df2T_f32.c **** * Project: 	    CMSIS DSP Library    
   8:../Dave/Generated/CMSIS_DSP/FilteringFunctions/arm_biquad_cascade_stereo_df2T_f32.c **** * Title:	    arm_biquad_cascade_stereo_df2T_f32.c    
   9:../Dave/Generated/CMSIS_DSP/FilteringFunctions/arm_biquad_cascade_stereo_df2T_f32.c **** *    
  10:../Dave/Generated/CMSIS_DSP/FilteringFunctions/arm_biquad_cascade_stereo_df2T_f32.c **** * Description:  Processing function for the floating-point transposed    
  11:../Dave/Generated/CMSIS_DSP/FilteringFunctions/arm_biquad_cascade_stereo_df2T_f32.c **** *               direct form II Biquad cascade filter. 2 channels  
  12:../Dave/Generated/CMSIS_DSP/FilteringFunctions/arm_biquad_cascade_stereo_df2T_f32.c **** *    
  13:../Dave/Generated/CMSIS_DSP/FilteringFunctions/arm_biquad_cascade_stereo_df2T_f32.c **** * Target Processor: Cortex-M4/Cortex-M3/Cortex-M0
  14:../Dave/Generated/CMSIS_DSP/FilteringFunctions/arm_biquad_cascade_stereo_df2T_f32.c **** *  
  15:../Dave/Generated/CMSIS_DSP/FilteringFunctions/arm_biquad_cascade_stereo_df2T_f32.c **** * Redistribution and use in source and binary forms, with or without 
  16:../Dave/Generated/CMSIS_DSP/FilteringFunctions/arm_biquad_cascade_stereo_df2T_f32.c **** * modification, are permitted provided that the following conditions
  17:../Dave/Generated/CMSIS_DSP/FilteringFunctions/arm_biquad_cascade_stereo_df2T_f32.c **** * are met:
  18:../Dave/Generated/CMSIS_DSP/FilteringFunctions/arm_biquad_cascade_stereo_df2T_f32.c **** *   - Redistributions of source code must retain the above copyright
  19:../Dave/Generated/CMSIS_DSP/FilteringFunctions/arm_biquad_cascade_stereo_df2T_f32.c **** *     notice, this list of conditions and the following disclaimer.
  20:../Dave/Generated/CMSIS_DSP/FilteringFunctions/arm_biquad_cascade_stereo_df2T_f32.c **** *   - Redistributions in binary form must reproduce the above copyright
  21:../Dave/Generated/CMSIS_DSP/FilteringFunctions/arm_biquad_cascade_stereo_df2T_f32.c **** *     notice, this list of conditions and the following disclaimer in
  22:../Dave/Generated/CMSIS_DSP/FilteringFunctions/arm_biquad_cascade_stereo_df2T_f32.c **** *     the documentation and/or other materials provided with the 
  23:../Dave/Generated/CMSIS_DSP/FilteringFunctions/arm_biquad_cascade_stereo_df2T_f32.c **** *     distribution.
  24:../Dave/Generated/CMSIS_DSP/FilteringFunctions/arm_biquad_cascade_stereo_df2T_f32.c **** *   - Neither the name of ARM LIMITED nor the names of its contributors
  25:../Dave/Generated/CMSIS_DSP/FilteringFunctions/arm_biquad_cascade_stereo_df2T_f32.c **** *     may be used to endorse or promote products derived from this
  26:../Dave/Generated/CMSIS_DSP/FilteringFunctions/arm_biquad_cascade_stereo_df2T_f32.c **** *     software without specific prior written permission.
  27:../Dave/Generated/CMSIS_DSP/FilteringFunctions/arm_biquad_cascade_stereo_df2T_f32.c **** *
  28:../Dave/Generated/CMSIS_DSP/FilteringFunctions/arm_biquad_cascade_stereo_df2T_f32.c **** * THIS SOFTWARE IS PROVIDED BY THE COPYRIGHT HOLDERS AND CONTRIBUTORS
  29:../Dave/Generated/CMSIS_DSP/FilteringFunctions/arm_biquad_cascade_stereo_df2T_f32.c **** * "AS IS" AND ANY EXPRESS OR IMPLIED WARRANTIES, INCLUDING, BUT NOT
  30:../Dave/Generated/CMSIS_DSP/FilteringFunctions/arm_biquad_cascade_stereo_df2T_f32.c **** * LIMITED TO, THE IMPLIED WARRANTIES OF MERCHANTABILITY AND FITNESS
  31:../Dave/Generated/CMSIS_DSP/FilteringFunctions/arm_biquad_cascade_stereo_df2T_f32.c **** * FOR A PARTICULAR PURPOSE ARE DISCLAIMED. IN NO EVENT SHALL THE 
  32:../Dave/Generated/CMSIS_DSP/FilteringFunctions/arm_biquad_cascade_stereo_df2T_f32.c **** * COPYRIGHT OWNER OR CONTRIBUTORS BE LIABLE FOR ANY DIRECT, INDIRECT,
  33:../Dave/Generated/CMSIS_DSP/FilteringFunctions/arm_biquad_cascade_stereo_df2T_f32.c **** * INCIDENTAL, SPECIAL, EXEMPLARY, OR CONSEQUENTIAL DAMAGES (INCLUDING,
  34:../Dave/Generated/CMSIS_DSP/FilteringFunctions/arm_biquad_cascade_stereo_df2T_f32.c **** * BUT NOT LIMITED TO, PROCUREMENT OF SUBSTITUTE GOODS OR SERVICES;
  35:../Dave/Generated/CMSIS_DSP/FilteringFunctions/arm_biquad_cascade_stereo_df2T_f32.c **** * LOSS OF USE, DATA, OR PROFITS; OR BUSINESS INTERRUPTION) HOWEVER
  36:../Dave/Generated/CMSIS_DSP/FilteringFunctions/arm_biquad_cascade_stereo_df2T_f32.c **** * CAUSED AND ON ANY THEORY OF LIABILITY, WHETHER IN CONTRACT, STRICT
  37:../Dave/Generated/CMSIS_DSP/FilteringFunctions/arm_biquad_cascade_stereo_df2T_f32.c **** * LIABILITY, OR TORT (INCLUDING NEGLIGENCE OR OTHERWISE) ARISING IN
  38:../Dave/Generated/CMSIS_DSP/FilteringFunctions/arm_biquad_cascade_stereo_df2T_f32.c **** * ANY WAY OUT OF THE USE OF THIS SOFTWARE, EVEN IF ADVISED OF THE
  39:../Dave/Generated/CMSIS_DSP/FilteringFunctions/arm_biquad_cascade_stereo_df2T_f32.c **** * POSSIBILITY OF SUCH DAMAGE.   
  40:../Dave/Generated/CMSIS_DSP/FilteringFunctions/arm_biquad_cascade_stereo_df2T_f32.c **** * -------------------------------------------------------------------- */
  41:../Dave/Generated/CMSIS_DSP/FilteringFunctions/arm_biquad_cascade_stereo_df2T_f32.c **** 
  42:../Dave/Generated/CMSIS_DSP/FilteringFunctions/arm_biquad_cascade_stereo_df2T_f32.c **** #include "CMSIS_DSP/cmsis_dsp.h"
  43:../Dave/Generated/CMSIS_DSP/FilteringFunctions/arm_biquad_cascade_stereo_df2T_f32.c **** 
  44:../Dave/Generated/CMSIS_DSP/FilteringFunctions/arm_biquad_cascade_stereo_df2T_f32.c **** /**       
  45:../Dave/Generated/CMSIS_DSP/FilteringFunctions/arm_biquad_cascade_stereo_df2T_f32.c **** * @ingroup groupFilters       
  46:../Dave/Generated/CMSIS_DSP/FilteringFunctions/arm_biquad_cascade_stereo_df2T_f32.c **** */
  47:../Dave/Generated/CMSIS_DSP/FilteringFunctions/arm_biquad_cascade_stereo_df2T_f32.c **** 
  48:../Dave/Generated/CMSIS_DSP/FilteringFunctions/arm_biquad_cascade_stereo_df2T_f32.c **** /**       
  49:../Dave/Generated/CMSIS_DSP/FilteringFunctions/arm_biquad_cascade_stereo_df2T_f32.c **** * @defgroup BiquadCascadeDF2T Biquad Cascade IIR Filters Using a Direct Form II Transposed Structur
  50:../Dave/Generated/CMSIS_DSP/FilteringFunctions/arm_biquad_cascade_stereo_df2T_f32.c **** *       
  51:../Dave/Generated/CMSIS_DSP/FilteringFunctions/arm_biquad_cascade_stereo_df2T_f32.c **** * This set of functions implements arbitrary order recursive (IIR) filters using a transposed direc
  52:../Dave/Generated/CMSIS_DSP/FilteringFunctions/arm_biquad_cascade_stereo_df2T_f32.c **** * The filters are implemented as a cascade of second order Biquad sections.       
  53:../Dave/Generated/CMSIS_DSP/FilteringFunctions/arm_biquad_cascade_stereo_df2T_f32.c **** * These functions provide a slight memory savings as compared to the direct form I Biquad filter fu
  54:../Dave/Generated/CMSIS_DSP/FilteringFunctions/arm_biquad_cascade_stereo_df2T_f32.c **** * Only floating-point data is supported.       
  55:../Dave/Generated/CMSIS_DSP/FilteringFunctions/arm_biquad_cascade_stereo_df2T_f32.c **** *       
  56:../Dave/Generated/CMSIS_DSP/FilteringFunctions/arm_biquad_cascade_stereo_df2T_f32.c **** * This function operate on blocks of input and output data and each call to the function       
  57:../Dave/Generated/CMSIS_DSP/FilteringFunctions/arm_biquad_cascade_stereo_df2T_f32.c **** * processes <code>blockSize</code> samples through the filter.       
  58:../Dave/Generated/CMSIS_DSP/FilteringFunctions/arm_biquad_cascade_stereo_df2T_f32.c **** * <code>pSrc</code> points to the array of input data and       
  59:../Dave/Generated/CMSIS_DSP/FilteringFunctions/arm_biquad_cascade_stereo_df2T_f32.c **** * <code>pDst</code> points to the array of output data.       
  60:../Dave/Generated/CMSIS_DSP/FilteringFunctions/arm_biquad_cascade_stereo_df2T_f32.c **** * Both arrays contain <code>blockSize</code> values.       
  61:../Dave/Generated/CMSIS_DSP/FilteringFunctions/arm_biquad_cascade_stereo_df2T_f32.c **** *       
  62:../Dave/Generated/CMSIS_DSP/FilteringFunctions/arm_biquad_cascade_stereo_df2T_f32.c **** * \par Algorithm       
  63:../Dave/Generated/CMSIS_DSP/FilteringFunctions/arm_biquad_cascade_stereo_df2T_f32.c **** * Each Biquad stage implements a second order filter using the difference equation:       
  64:../Dave/Generated/CMSIS_DSP/FilteringFunctions/arm_biquad_cascade_stereo_df2T_f32.c **** * <pre>       
  65:../Dave/Generated/CMSIS_DSP/FilteringFunctions/arm_biquad_cascade_stereo_df2T_f32.c **** *    y[n] = b0 * x[n] + d1       
  66:../Dave/Generated/CMSIS_DSP/FilteringFunctions/arm_biquad_cascade_stereo_df2T_f32.c **** *    d1 = b1 * x[n] + a1 * y[n] + d2       
  67:../Dave/Generated/CMSIS_DSP/FilteringFunctions/arm_biquad_cascade_stereo_df2T_f32.c **** *    d2 = b2 * x[n] + a2 * y[n]       
  68:../Dave/Generated/CMSIS_DSP/FilteringFunctions/arm_biquad_cascade_stereo_df2T_f32.c **** * </pre>       
  69:../Dave/Generated/CMSIS_DSP/FilteringFunctions/arm_biquad_cascade_stereo_df2T_f32.c **** * where d1 and d2 represent the two state values.       
  70:../Dave/Generated/CMSIS_DSP/FilteringFunctions/arm_biquad_cascade_stereo_df2T_f32.c **** *       
  71:../Dave/Generated/CMSIS_DSP/FilteringFunctions/arm_biquad_cascade_stereo_df2T_f32.c **** * \par       
  72:../Dave/Generated/CMSIS_DSP/FilteringFunctions/arm_biquad_cascade_stereo_df2T_f32.c **** * A Biquad filter using a transposed Direct Form II structure is shown below.       
  73:../Dave/Generated/CMSIS_DSP/FilteringFunctions/arm_biquad_cascade_stereo_df2T_f32.c **** * \image html BiquadDF2Transposed.gif "Single transposed Direct Form II Biquad"       
  74:../Dave/Generated/CMSIS_DSP/FilteringFunctions/arm_biquad_cascade_stereo_df2T_f32.c **** * Coefficients <code>b0, b1, and b2 </code> multiply the input signal <code>x[n]</code> and are ref
  75:../Dave/Generated/CMSIS_DSP/FilteringFunctions/arm_biquad_cascade_stereo_df2T_f32.c **** * Coefficients <code>a1</code> and <code>a2</code> multiply the output signal <code>y[n]</code> and
  76:../Dave/Generated/CMSIS_DSP/FilteringFunctions/arm_biquad_cascade_stereo_df2T_f32.c **** * Pay careful attention to the sign of the feedback coefficients.       
  77:../Dave/Generated/CMSIS_DSP/FilteringFunctions/arm_biquad_cascade_stereo_df2T_f32.c **** * Some design tools flip the sign of the feedback coefficients:       
  78:../Dave/Generated/CMSIS_DSP/FilteringFunctions/arm_biquad_cascade_stereo_df2T_f32.c **** * <pre>       
  79:../Dave/Generated/CMSIS_DSP/FilteringFunctions/arm_biquad_cascade_stereo_df2T_f32.c **** *    y[n] = b0 * x[n] + d1;       
  80:../Dave/Generated/CMSIS_DSP/FilteringFunctions/arm_biquad_cascade_stereo_df2T_f32.c **** *    d1 = b1 * x[n] - a1 * y[n] + d2;       
  81:../Dave/Generated/CMSIS_DSP/FilteringFunctions/arm_biquad_cascade_stereo_df2T_f32.c **** *    d2 = b2 * x[n] - a2 * y[n];       
  82:../Dave/Generated/CMSIS_DSP/FilteringFunctions/arm_biquad_cascade_stereo_df2T_f32.c **** * </pre>       
  83:../Dave/Generated/CMSIS_DSP/FilteringFunctions/arm_biquad_cascade_stereo_df2T_f32.c **** * In this case the feedback coefficients <code>a1</code> and <code>a2</code> must be negated when u
  84:../Dave/Generated/CMSIS_DSP/FilteringFunctions/arm_biquad_cascade_stereo_df2T_f32.c **** *       
  85:../Dave/Generated/CMSIS_DSP/FilteringFunctions/arm_biquad_cascade_stereo_df2T_f32.c **** * \par       
  86:../Dave/Generated/CMSIS_DSP/FilteringFunctions/arm_biquad_cascade_stereo_df2T_f32.c **** * Higher order filters are realized as a cascade of second order sections.       
  87:../Dave/Generated/CMSIS_DSP/FilteringFunctions/arm_biquad_cascade_stereo_df2T_f32.c **** * <code>numStages</code> refers to the number of second order stages used.       
  88:../Dave/Generated/CMSIS_DSP/FilteringFunctions/arm_biquad_cascade_stereo_df2T_f32.c **** * For example, an 8th order filter would be realized with <code>numStages=4</code> second order sta
  89:../Dave/Generated/CMSIS_DSP/FilteringFunctions/arm_biquad_cascade_stereo_df2T_f32.c **** * A 9th order filter would be realized with <code>numStages=5</code> second order stages with the  
  90:../Dave/Generated/CMSIS_DSP/FilteringFunctions/arm_biquad_cascade_stereo_df2T_f32.c **** * coefficients for one of the stages configured as a first order filter (<code>b2=0</code> and <cod
  91:../Dave/Generated/CMSIS_DSP/FilteringFunctions/arm_biquad_cascade_stereo_df2T_f32.c **** *       
  92:../Dave/Generated/CMSIS_DSP/FilteringFunctions/arm_biquad_cascade_stereo_df2T_f32.c **** * \par       
  93:../Dave/Generated/CMSIS_DSP/FilteringFunctions/arm_biquad_cascade_stereo_df2T_f32.c **** * <code>pState</code> points to the state variable array.       
  94:../Dave/Generated/CMSIS_DSP/FilteringFunctions/arm_biquad_cascade_stereo_df2T_f32.c **** * Each Biquad stage has 2 state variables <code>d1</code> and <code>d2</code>.       
  95:../Dave/Generated/CMSIS_DSP/FilteringFunctions/arm_biquad_cascade_stereo_df2T_f32.c **** * The state variables are arranged in the <code>pState</code> array as:       
  96:../Dave/Generated/CMSIS_DSP/FilteringFunctions/arm_biquad_cascade_stereo_df2T_f32.c **** * <pre>       
  97:../Dave/Generated/CMSIS_DSP/FilteringFunctions/arm_biquad_cascade_stereo_df2T_f32.c **** *     {d11, d12, d21, d22, ...}       
  98:../Dave/Generated/CMSIS_DSP/FilteringFunctions/arm_biquad_cascade_stereo_df2T_f32.c **** * </pre>       
  99:../Dave/Generated/CMSIS_DSP/FilteringFunctions/arm_biquad_cascade_stereo_df2T_f32.c **** * where <code>d1x</code> refers to the state variables for the first Biquad and       
 100:../Dave/Generated/CMSIS_DSP/FilteringFunctions/arm_biquad_cascade_stereo_df2T_f32.c **** * <code>d2x</code> refers to the state variables for the second Biquad.       
 101:../Dave/Generated/CMSIS_DSP/FilteringFunctions/arm_biquad_cascade_stereo_df2T_f32.c **** * The state array has a total length of <code>2*numStages</code> values.       
 102:../Dave/Generated/CMSIS_DSP/FilteringFunctions/arm_biquad_cascade_stereo_df2T_f32.c **** * The state variables are updated after each block of data is processed; the coefficients are untou
 103:../Dave/Generated/CMSIS_DSP/FilteringFunctions/arm_biquad_cascade_stereo_df2T_f32.c **** *       
 104:../Dave/Generated/CMSIS_DSP/FilteringFunctions/arm_biquad_cascade_stereo_df2T_f32.c **** * \par       
 105:../Dave/Generated/CMSIS_DSP/FilteringFunctions/arm_biquad_cascade_stereo_df2T_f32.c **** * The CMSIS library contains Biquad filters in both Direct Form I and transposed Direct Form II.   
 106:../Dave/Generated/CMSIS_DSP/FilteringFunctions/arm_biquad_cascade_stereo_df2T_f32.c **** * The advantage of the Direct Form I structure is that it is numerically more robust for fixed-poin
 107:../Dave/Generated/CMSIS_DSP/FilteringFunctions/arm_biquad_cascade_stereo_df2T_f32.c **** * That is why the Direct Form I structure supports Q15 and Q31 data types.    
 108:../Dave/Generated/CMSIS_DSP/FilteringFunctions/arm_biquad_cascade_stereo_df2T_f32.c **** * The transposed Direct Form II structure, on the other hand, requires a wide dynamic range for the
 109:../Dave/Generated/CMSIS_DSP/FilteringFunctions/arm_biquad_cascade_stereo_df2T_f32.c **** * Because of this, the CMSIS library only has a floating-point version of the Direct Form II Biquad
 110:../Dave/Generated/CMSIS_DSP/FilteringFunctions/arm_biquad_cascade_stereo_df2T_f32.c **** * The advantage of the Direct Form II Biquad is that it requires half the number of state variables
 111:../Dave/Generated/CMSIS_DSP/FilteringFunctions/arm_biquad_cascade_stereo_df2T_f32.c **** *       
 112:../Dave/Generated/CMSIS_DSP/FilteringFunctions/arm_biquad_cascade_stereo_df2T_f32.c **** * \par Instance Structure       
 113:../Dave/Generated/CMSIS_DSP/FilteringFunctions/arm_biquad_cascade_stereo_df2T_f32.c **** * The coefficients and state variables for a filter are stored together in an instance data structu
 114:../Dave/Generated/CMSIS_DSP/FilteringFunctions/arm_biquad_cascade_stereo_df2T_f32.c **** * A separate instance structure must be defined for each filter.       
 115:../Dave/Generated/CMSIS_DSP/FilteringFunctions/arm_biquad_cascade_stereo_df2T_f32.c **** * Coefficient arrays may be shared among several instances while state variable arrays cannot be sh
 116:../Dave/Generated/CMSIS_DSP/FilteringFunctions/arm_biquad_cascade_stereo_df2T_f32.c **** *       
 117:../Dave/Generated/CMSIS_DSP/FilteringFunctions/arm_biquad_cascade_stereo_df2T_f32.c **** * \par Init Functions       
 118:../Dave/Generated/CMSIS_DSP/FilteringFunctions/arm_biquad_cascade_stereo_df2T_f32.c **** * There is also an associated initialization function.      
 119:../Dave/Generated/CMSIS_DSP/FilteringFunctions/arm_biquad_cascade_stereo_df2T_f32.c **** * The initialization function performs following operations:       
 120:../Dave/Generated/CMSIS_DSP/FilteringFunctions/arm_biquad_cascade_stereo_df2T_f32.c **** * - Sets the values of the internal structure fields.       
 121:../Dave/Generated/CMSIS_DSP/FilteringFunctions/arm_biquad_cascade_stereo_df2T_f32.c **** * - Zeros out the values in the state buffer.       
 122:../Dave/Generated/CMSIS_DSP/FilteringFunctions/arm_biquad_cascade_stereo_df2T_f32.c **** * To do this manually without calling the init function, assign the follow subfields of the instanc
 123:../Dave/Generated/CMSIS_DSP/FilteringFunctions/arm_biquad_cascade_stereo_df2T_f32.c **** * numStages, pCoeffs, pState. Also set all of the values in pState to zero. 
 124:../Dave/Generated/CMSIS_DSP/FilteringFunctions/arm_biquad_cascade_stereo_df2T_f32.c **** *       
 125:../Dave/Generated/CMSIS_DSP/FilteringFunctions/arm_biquad_cascade_stereo_df2T_f32.c **** * \par       
 126:../Dave/Generated/CMSIS_DSP/FilteringFunctions/arm_biquad_cascade_stereo_df2T_f32.c **** * Use of the initialization function is optional.       
 127:../Dave/Generated/CMSIS_DSP/FilteringFunctions/arm_biquad_cascade_stereo_df2T_f32.c **** * However, if the initialization function is used, then the instance structure cannot be placed int
 128:../Dave/Generated/CMSIS_DSP/FilteringFunctions/arm_biquad_cascade_stereo_df2T_f32.c **** * To place an instance structure into a const data section, the instance structure must be manually
 129:../Dave/Generated/CMSIS_DSP/FilteringFunctions/arm_biquad_cascade_stereo_df2T_f32.c **** * Set the values in the state buffer to zeros before static initialization.       
 130:../Dave/Generated/CMSIS_DSP/FilteringFunctions/arm_biquad_cascade_stereo_df2T_f32.c **** * For example, to statically initialize the instance structure use       
 131:../Dave/Generated/CMSIS_DSP/FilteringFunctions/arm_biquad_cascade_stereo_df2T_f32.c **** * <pre>       
 132:../Dave/Generated/CMSIS_DSP/FilteringFunctions/arm_biquad_cascade_stereo_df2T_f32.c **** *     arm_biquad_cascade_df2T_instance_f32 S1 = {numStages, pState, pCoeffs};       
 133:../Dave/Generated/CMSIS_DSP/FilteringFunctions/arm_biquad_cascade_stereo_df2T_f32.c **** * </pre>       
 134:../Dave/Generated/CMSIS_DSP/FilteringFunctions/arm_biquad_cascade_stereo_df2T_f32.c **** * where <code>numStages</code> is the number of Biquad stages in the filter; <code>pState</code> is
 135:../Dave/Generated/CMSIS_DSP/FilteringFunctions/arm_biquad_cascade_stereo_df2T_f32.c **** * <code>pCoeffs</code> is the address of the coefficient buffer;        
 136:../Dave/Generated/CMSIS_DSP/FilteringFunctions/arm_biquad_cascade_stereo_df2T_f32.c **** *       
 137:../Dave/Generated/CMSIS_DSP/FilteringFunctions/arm_biquad_cascade_stereo_df2T_f32.c **** */
 138:../Dave/Generated/CMSIS_DSP/FilteringFunctions/arm_biquad_cascade_stereo_df2T_f32.c **** 
 139:../Dave/Generated/CMSIS_DSP/FilteringFunctions/arm_biquad_cascade_stereo_df2T_f32.c **** /**       
 140:../Dave/Generated/CMSIS_DSP/FilteringFunctions/arm_biquad_cascade_stereo_df2T_f32.c **** * @addtogroup BiquadCascadeDF2T       
 141:../Dave/Generated/CMSIS_DSP/FilteringFunctions/arm_biquad_cascade_stereo_df2T_f32.c **** * @{       
 142:../Dave/Generated/CMSIS_DSP/FilteringFunctions/arm_biquad_cascade_stereo_df2T_f32.c **** */
 143:../Dave/Generated/CMSIS_DSP/FilteringFunctions/arm_biquad_cascade_stereo_df2T_f32.c **** 
 144:../Dave/Generated/CMSIS_DSP/FilteringFunctions/arm_biquad_cascade_stereo_df2T_f32.c **** /**      
 145:../Dave/Generated/CMSIS_DSP/FilteringFunctions/arm_biquad_cascade_stereo_df2T_f32.c **** * @brief Processing function for the floating-point transposed direct form II Biquad cascade filter
 146:../Dave/Generated/CMSIS_DSP/FilteringFunctions/arm_biquad_cascade_stereo_df2T_f32.c **** * @param[in]  *S        points to an instance of the filter data structure.      
 147:../Dave/Generated/CMSIS_DSP/FilteringFunctions/arm_biquad_cascade_stereo_df2T_f32.c **** * @param[in]  *pSrc     points to the block of input data.      
 148:../Dave/Generated/CMSIS_DSP/FilteringFunctions/arm_biquad_cascade_stereo_df2T_f32.c **** * @param[out] *pDst     points to the block of output data      
 149:../Dave/Generated/CMSIS_DSP/FilteringFunctions/arm_biquad_cascade_stereo_df2T_f32.c **** * @param[in]  blockSize number of samples to process.      
 150:../Dave/Generated/CMSIS_DSP/FilteringFunctions/arm_biquad_cascade_stereo_df2T_f32.c **** * @return none.      
 151:../Dave/Generated/CMSIS_DSP/FilteringFunctions/arm_biquad_cascade_stereo_df2T_f32.c **** */
 152:../Dave/Generated/CMSIS_DSP/FilteringFunctions/arm_biquad_cascade_stereo_df2T_f32.c **** 
 153:../Dave/Generated/CMSIS_DSP/FilteringFunctions/arm_biquad_cascade_stereo_df2T_f32.c **** 
 154:../Dave/Generated/CMSIS_DSP/FilteringFunctions/arm_biquad_cascade_stereo_df2T_f32.c **** LOW_OPTIMIZATION_ENTER
 155:../Dave/Generated/CMSIS_DSP/FilteringFunctions/arm_biquad_cascade_stereo_df2T_f32.c **** void arm_biquad_cascade_stereo_df2T_f32(
 156:../Dave/Generated/CMSIS_DSP/FilteringFunctions/arm_biquad_cascade_stereo_df2T_f32.c **** const arm_biquad_cascade_stereo_df2T_instance_f32 * S,
 157:../Dave/Generated/CMSIS_DSP/FilteringFunctions/arm_biquad_cascade_stereo_df2T_f32.c **** float32_t * pSrc,
 158:../Dave/Generated/CMSIS_DSP/FilteringFunctions/arm_biquad_cascade_stereo_df2T_f32.c **** float32_t * pDst,
 159:../Dave/Generated/CMSIS_DSP/FilteringFunctions/arm_biquad_cascade_stereo_df2T_f32.c **** uint32_t blockSize)
 160:../Dave/Generated/CMSIS_DSP/FilteringFunctions/arm_biquad_cascade_stereo_df2T_f32.c **** {
  28              	 .loc 1 160 0
  29              	 .cfi_startproc
  30              	 
  31              	 
  32 0000 2DE9704F 	 push {r4,r5,r6,r8,r9,r10,fp,lr}
  33              	.LCFI0:
  34              	 .cfi_def_cfa_offset 32
  35              	 .cfi_offset 4,-32
  36              	 .cfi_offset 5,-28
  37              	 .cfi_offset 6,-24
  38              	 .cfi_offset 8,-20
  39              	 .cfi_offset 9,-16
  40              	 .cfi_offset 10,-12
  41              	 .cfi_offset 11,-8
  42              	 .cfi_offset 14,-4
  43 0004 2DED068B 	 fstmfdd sp!,{d8,d9,d10}
  44              	.LCFI1:
  45              	 .cfi_def_cfa_offset 56
  46              	 .cfi_offset 80,-56
  47              	 .cfi_offset 81,-52
  48              	 .cfi_offset 82,-48
  49              	 .cfi_offset 83,-44
  50              	 .cfi_offset 84,-40
  51              	 .cfi_offset 85,-36
  52 0008 82B0     	 sub sp,sp,#8
  53              	.LCFI2:
  54              	 .cfi_def_cfa_offset 64
  55 000a 9146     	 mov r9,r2
 161:../Dave/Generated/CMSIS_DSP/FilteringFunctions/arm_biquad_cascade_stereo_df2T_f32.c **** 
 162:../Dave/Generated/CMSIS_DSP/FilteringFunctions/arm_biquad_cascade_stereo_df2T_f32.c ****     float32_t *pIn = pSrc;                         /*  source pointer            */
 163:../Dave/Generated/CMSIS_DSP/FilteringFunctions/arm_biquad_cascade_stereo_df2T_f32.c ****     float32_t *pOut = pDst;                        /*  destination pointer       */
 164:../Dave/Generated/CMSIS_DSP/FilteringFunctions/arm_biquad_cascade_stereo_df2T_f32.c ****     float32_t *pState = S->pState;                 /*  State pointer             */
 165:../Dave/Generated/CMSIS_DSP/FilteringFunctions/arm_biquad_cascade_stereo_df2T_f32.c ****     float32_t *pCoeffs = S->pCoeffs;               /*  coefficient pointer       */
 166:../Dave/Generated/CMSIS_DSP/FilteringFunctions/arm_biquad_cascade_stereo_df2T_f32.c ****     float32_t acc1a, acc1b;                        /*  accumulator               */
 167:../Dave/Generated/CMSIS_DSP/FilteringFunctions/arm_biquad_cascade_stereo_df2T_f32.c ****     float32_t b0, b1, b2, a1, a2;                  /*  Filter coefficients       */
 168:../Dave/Generated/CMSIS_DSP/FilteringFunctions/arm_biquad_cascade_stereo_df2T_f32.c ****     float32_t Xn1a, Xn1b;                          /*  temporary input           */
 169:../Dave/Generated/CMSIS_DSP/FilteringFunctions/arm_biquad_cascade_stereo_df2T_f32.c ****     float32_t d1a, d2a, d1b, d2b;                  /*  state variables           */
 170:../Dave/Generated/CMSIS_DSP/FilteringFunctions/arm_biquad_cascade_stereo_df2T_f32.c ****     uint32_t sample, stage = S->numStages;         /*  loop counters             */
  56              	 .loc 1 170 0
  57 000c 90F800C0 	 ldrb ip,[r0]
 171:../Dave/Generated/CMSIS_DSP/FilteringFunctions/arm_biquad_cascade_stereo_df2T_f32.c **** 
 172:../Dave/Generated/CMSIS_DSP/FilteringFunctions/arm_biquad_cascade_stereo_df2T_f32.c **** #if defined(ARM_MATH_CM7)
 173:../Dave/Generated/CMSIS_DSP/FilteringFunctions/arm_biquad_cascade_stereo_df2T_f32.c **** 	
 174:../Dave/Generated/CMSIS_DSP/FilteringFunctions/arm_biquad_cascade_stereo_df2T_f32.c ****     float32_t Xn2a, Xn3a, Xn4a, Xn5a, Xn6a, Xn7a, Xn8a;         /*  Input State variables     */
 175:../Dave/Generated/CMSIS_DSP/FilteringFunctions/arm_biquad_cascade_stereo_df2T_f32.c ****     float32_t Xn2b, Xn3b, Xn4b, Xn5b, Xn6b, Xn7b, Xn8b;         /*  Input State variables     */
 176:../Dave/Generated/CMSIS_DSP/FilteringFunctions/arm_biquad_cascade_stereo_df2T_f32.c ****     float32_t acc2a, acc3a, acc4a, acc5a, acc6a, acc7a, acc8a;  /*  Simulates the accumulator */
 177:../Dave/Generated/CMSIS_DSP/FilteringFunctions/arm_biquad_cascade_stereo_df2T_f32.c ****     float32_t acc2b, acc3b, acc4b, acc5b, acc6b, acc7b, acc8b;  /*  Simulates the accumulator */
 178:../Dave/Generated/CMSIS_DSP/FilteringFunctions/arm_biquad_cascade_stereo_df2T_f32.c **** 
 179:../Dave/Generated/CMSIS_DSP/FilteringFunctions/arm_biquad_cascade_stereo_df2T_f32.c ****     do
 180:../Dave/Generated/CMSIS_DSP/FilteringFunctions/arm_biquad_cascade_stereo_df2T_f32.c ****     {
 181:../Dave/Generated/CMSIS_DSP/FilteringFunctions/arm_biquad_cascade_stereo_df2T_f32.c ****         /* Reading the coefficients */ 
 182:../Dave/Generated/CMSIS_DSP/FilteringFunctions/arm_biquad_cascade_stereo_df2T_f32.c ****         b0 = pCoeffs[0]; 
 183:../Dave/Generated/CMSIS_DSP/FilteringFunctions/arm_biquad_cascade_stereo_df2T_f32.c ****         b1 = pCoeffs[1]; 
 184:../Dave/Generated/CMSIS_DSP/FilteringFunctions/arm_biquad_cascade_stereo_df2T_f32.c ****         b2 = pCoeffs[2]; 
 185:../Dave/Generated/CMSIS_DSP/FilteringFunctions/arm_biquad_cascade_stereo_df2T_f32.c ****         a1 = pCoeffs[3]; 
 186:../Dave/Generated/CMSIS_DSP/FilteringFunctions/arm_biquad_cascade_stereo_df2T_f32.c ****         /* Apply loop unrolling and compute 8 output values simultaneously. */ 
 187:../Dave/Generated/CMSIS_DSP/FilteringFunctions/arm_biquad_cascade_stereo_df2T_f32.c ****         sample = blockSize >> 3u; 
 188:../Dave/Generated/CMSIS_DSP/FilteringFunctions/arm_biquad_cascade_stereo_df2T_f32.c ****         a2 = pCoeffs[4]; 
 189:../Dave/Generated/CMSIS_DSP/FilteringFunctions/arm_biquad_cascade_stereo_df2T_f32.c **** 
 190:../Dave/Generated/CMSIS_DSP/FilteringFunctions/arm_biquad_cascade_stereo_df2T_f32.c ****         /*Reading the state values */ 
 191:../Dave/Generated/CMSIS_DSP/FilteringFunctions/arm_biquad_cascade_stereo_df2T_f32.c ****         d1a = pState[0]; 
 192:../Dave/Generated/CMSIS_DSP/FilteringFunctions/arm_biquad_cascade_stereo_df2T_f32.c ****         d2a = pState[1]; 
 193:../Dave/Generated/CMSIS_DSP/FilteringFunctions/arm_biquad_cascade_stereo_df2T_f32.c ****         d1b = pState[2]; 
 194:../Dave/Generated/CMSIS_DSP/FilteringFunctions/arm_biquad_cascade_stereo_df2T_f32.c ****         d2b = pState[3]; 
 195:../Dave/Generated/CMSIS_DSP/FilteringFunctions/arm_biquad_cascade_stereo_df2T_f32.c **** 
 196:../Dave/Generated/CMSIS_DSP/FilteringFunctions/arm_biquad_cascade_stereo_df2T_f32.c ****         pCoeffs += 5u;
 197:../Dave/Generated/CMSIS_DSP/FilteringFunctions/arm_biquad_cascade_stereo_df2T_f32.c **** 
 198:../Dave/Generated/CMSIS_DSP/FilteringFunctions/arm_biquad_cascade_stereo_df2T_f32.c ****         /* First part of the processing with loop unrolling.  Compute 8 outputs at a time.       
 199:../Dave/Generated/CMSIS_DSP/FilteringFunctions/arm_biquad_cascade_stereo_df2T_f32.c ****         ** a second loop below computes the remaining 1 to 7 samples. */
 200:../Dave/Generated/CMSIS_DSP/FilteringFunctions/arm_biquad_cascade_stereo_df2T_f32.c ****         while(sample > 0u) {
 201:../Dave/Generated/CMSIS_DSP/FilteringFunctions/arm_biquad_cascade_stereo_df2T_f32.c **** 
 202:../Dave/Generated/CMSIS_DSP/FilteringFunctions/arm_biquad_cascade_stereo_df2T_f32.c ****             /* y[n] = b0 * x[n] + d1 */
 203:../Dave/Generated/CMSIS_DSP/FilteringFunctions/arm_biquad_cascade_stereo_df2T_f32.c ****             /* d1 = b1 * x[n] + a1 * y[n] + d2 */
 204:../Dave/Generated/CMSIS_DSP/FilteringFunctions/arm_biquad_cascade_stereo_df2T_f32.c ****             /* d2 = b2 * x[n] + a2 * y[n] */
 205:../Dave/Generated/CMSIS_DSP/FilteringFunctions/arm_biquad_cascade_stereo_df2T_f32.c **** 
 206:../Dave/Generated/CMSIS_DSP/FilteringFunctions/arm_biquad_cascade_stereo_df2T_f32.c ****             /* Read the first 2 inputs. 2 cycles */
 207:../Dave/Generated/CMSIS_DSP/FilteringFunctions/arm_biquad_cascade_stereo_df2T_f32.c ****             Xn1a  = pIn[0 ];
 208:../Dave/Generated/CMSIS_DSP/FilteringFunctions/arm_biquad_cascade_stereo_df2T_f32.c ****             Xn1b  = pIn[1 ];
 209:../Dave/Generated/CMSIS_DSP/FilteringFunctions/arm_biquad_cascade_stereo_df2T_f32.c **** 
 210:../Dave/Generated/CMSIS_DSP/FilteringFunctions/arm_biquad_cascade_stereo_df2T_f32.c ****             /* Sample 1. 5 cycles */
 211:../Dave/Generated/CMSIS_DSP/FilteringFunctions/arm_biquad_cascade_stereo_df2T_f32.c ****             Xn2a  = pIn[2 ];
 212:../Dave/Generated/CMSIS_DSP/FilteringFunctions/arm_biquad_cascade_stereo_df2T_f32.c ****             acc1a = b0 * Xn1a + d1a;
 213:../Dave/Generated/CMSIS_DSP/FilteringFunctions/arm_biquad_cascade_stereo_df2T_f32.c **** 
 214:../Dave/Generated/CMSIS_DSP/FilteringFunctions/arm_biquad_cascade_stereo_df2T_f32.c ****             Xn2b  = pIn[3 ];
 215:../Dave/Generated/CMSIS_DSP/FilteringFunctions/arm_biquad_cascade_stereo_df2T_f32.c ****             d1a = b1 * Xn1a + d2a;
 216:../Dave/Generated/CMSIS_DSP/FilteringFunctions/arm_biquad_cascade_stereo_df2T_f32.c **** 
 217:../Dave/Generated/CMSIS_DSP/FilteringFunctions/arm_biquad_cascade_stereo_df2T_f32.c ****             Xn3a  = pIn[4 ];
 218:../Dave/Generated/CMSIS_DSP/FilteringFunctions/arm_biquad_cascade_stereo_df2T_f32.c ****             d2a = b2 * Xn1a;
 219:../Dave/Generated/CMSIS_DSP/FilteringFunctions/arm_biquad_cascade_stereo_df2T_f32.c **** 
 220:../Dave/Generated/CMSIS_DSP/FilteringFunctions/arm_biquad_cascade_stereo_df2T_f32.c ****             Xn3b  = pIn[5 ];
 221:../Dave/Generated/CMSIS_DSP/FilteringFunctions/arm_biquad_cascade_stereo_df2T_f32.c ****             d1a += a1 * acc1a;
 222:../Dave/Generated/CMSIS_DSP/FilteringFunctions/arm_biquad_cascade_stereo_df2T_f32.c **** 
 223:../Dave/Generated/CMSIS_DSP/FilteringFunctions/arm_biquad_cascade_stereo_df2T_f32.c ****             Xn4a  = pIn[6 ];
 224:../Dave/Generated/CMSIS_DSP/FilteringFunctions/arm_biquad_cascade_stereo_df2T_f32.c ****             d2a += a2 * acc1a;
 225:../Dave/Generated/CMSIS_DSP/FilteringFunctions/arm_biquad_cascade_stereo_df2T_f32.c **** 
 226:../Dave/Generated/CMSIS_DSP/FilteringFunctions/arm_biquad_cascade_stereo_df2T_f32.c ****             /* Sample 2. 5 cycles */
 227:../Dave/Generated/CMSIS_DSP/FilteringFunctions/arm_biquad_cascade_stereo_df2T_f32.c ****             Xn4b  = pIn[7 ];
 228:../Dave/Generated/CMSIS_DSP/FilteringFunctions/arm_biquad_cascade_stereo_df2T_f32.c ****             acc1b = b0 * Xn1b + d1b;
 229:../Dave/Generated/CMSIS_DSP/FilteringFunctions/arm_biquad_cascade_stereo_df2T_f32.c **** 
 230:../Dave/Generated/CMSIS_DSP/FilteringFunctions/arm_biquad_cascade_stereo_df2T_f32.c ****             Xn5a  = pIn[8 ];
 231:../Dave/Generated/CMSIS_DSP/FilteringFunctions/arm_biquad_cascade_stereo_df2T_f32.c ****             d1b = b1 * Xn1b + d2b;
 232:../Dave/Generated/CMSIS_DSP/FilteringFunctions/arm_biquad_cascade_stereo_df2T_f32.c **** 
 233:../Dave/Generated/CMSIS_DSP/FilteringFunctions/arm_biquad_cascade_stereo_df2T_f32.c ****             Xn5b = pIn[9 ];
 234:../Dave/Generated/CMSIS_DSP/FilteringFunctions/arm_biquad_cascade_stereo_df2T_f32.c ****             d2b = b2 * Xn1b;
 235:../Dave/Generated/CMSIS_DSP/FilteringFunctions/arm_biquad_cascade_stereo_df2T_f32.c **** 
 236:../Dave/Generated/CMSIS_DSP/FilteringFunctions/arm_biquad_cascade_stereo_df2T_f32.c ****             Xn6a = pIn[10];
 237:../Dave/Generated/CMSIS_DSP/FilteringFunctions/arm_biquad_cascade_stereo_df2T_f32.c ****             d1b += a1 * acc1b;
 238:../Dave/Generated/CMSIS_DSP/FilteringFunctions/arm_biquad_cascade_stereo_df2T_f32.c **** 
 239:../Dave/Generated/CMSIS_DSP/FilteringFunctions/arm_biquad_cascade_stereo_df2T_f32.c ****             Xn6b = pIn[11];
 240:../Dave/Generated/CMSIS_DSP/FilteringFunctions/arm_biquad_cascade_stereo_df2T_f32.c ****             d2b += a2 * acc1b;
 241:../Dave/Generated/CMSIS_DSP/FilteringFunctions/arm_biquad_cascade_stereo_df2T_f32.c **** 
 242:../Dave/Generated/CMSIS_DSP/FilteringFunctions/arm_biquad_cascade_stereo_df2T_f32.c ****             /* Sample 3. 5 cycles */
 243:../Dave/Generated/CMSIS_DSP/FilteringFunctions/arm_biquad_cascade_stereo_df2T_f32.c ****             Xn7a = pIn[12];
 244:../Dave/Generated/CMSIS_DSP/FilteringFunctions/arm_biquad_cascade_stereo_df2T_f32.c ****             acc2a = b0 * Xn2a + d1a;
 245:../Dave/Generated/CMSIS_DSP/FilteringFunctions/arm_biquad_cascade_stereo_df2T_f32.c **** 
 246:../Dave/Generated/CMSIS_DSP/FilteringFunctions/arm_biquad_cascade_stereo_df2T_f32.c ****             Xn7b = pIn[13];
 247:../Dave/Generated/CMSIS_DSP/FilteringFunctions/arm_biquad_cascade_stereo_df2T_f32.c ****             d1a = b1 * Xn2a + d2a;
 248:../Dave/Generated/CMSIS_DSP/FilteringFunctions/arm_biquad_cascade_stereo_df2T_f32.c **** 
 249:../Dave/Generated/CMSIS_DSP/FilteringFunctions/arm_biquad_cascade_stereo_df2T_f32.c ****             Xn8a = pIn[14];
 250:../Dave/Generated/CMSIS_DSP/FilteringFunctions/arm_biquad_cascade_stereo_df2T_f32.c ****             d2a = b2 * Xn2a;
 251:../Dave/Generated/CMSIS_DSP/FilteringFunctions/arm_biquad_cascade_stereo_df2T_f32.c **** 
 252:../Dave/Generated/CMSIS_DSP/FilteringFunctions/arm_biquad_cascade_stereo_df2T_f32.c ****             Xn8b = pIn[15];
 253:../Dave/Generated/CMSIS_DSP/FilteringFunctions/arm_biquad_cascade_stereo_df2T_f32.c ****             d1a += a1 * acc2a;
 254:../Dave/Generated/CMSIS_DSP/FilteringFunctions/arm_biquad_cascade_stereo_df2T_f32.c **** 
 255:../Dave/Generated/CMSIS_DSP/FilteringFunctions/arm_biquad_cascade_stereo_df2T_f32.c ****             pIn += 16;
 256:../Dave/Generated/CMSIS_DSP/FilteringFunctions/arm_biquad_cascade_stereo_df2T_f32.c ****             d2a += a2 * acc2a;
 257:../Dave/Generated/CMSIS_DSP/FilteringFunctions/arm_biquad_cascade_stereo_df2T_f32.c **** 
 258:../Dave/Generated/CMSIS_DSP/FilteringFunctions/arm_biquad_cascade_stereo_df2T_f32.c ****             /* Sample 4. 5 cycles */
 259:../Dave/Generated/CMSIS_DSP/FilteringFunctions/arm_biquad_cascade_stereo_df2T_f32.c ****             acc2b = b0 * Xn2b + d1b;
 260:../Dave/Generated/CMSIS_DSP/FilteringFunctions/arm_biquad_cascade_stereo_df2T_f32.c ****             d1b = b1 * Xn2b + d2b;
 261:../Dave/Generated/CMSIS_DSP/FilteringFunctions/arm_biquad_cascade_stereo_df2T_f32.c ****             d2b = b2 * Xn2b;
 262:../Dave/Generated/CMSIS_DSP/FilteringFunctions/arm_biquad_cascade_stereo_df2T_f32.c ****             d1b += a1 * acc2b;
 263:../Dave/Generated/CMSIS_DSP/FilteringFunctions/arm_biquad_cascade_stereo_df2T_f32.c ****             d2b += a2 * acc2b;
 264:../Dave/Generated/CMSIS_DSP/FilteringFunctions/arm_biquad_cascade_stereo_df2T_f32.c **** 
 265:../Dave/Generated/CMSIS_DSP/FilteringFunctions/arm_biquad_cascade_stereo_df2T_f32.c ****             /* Sample 5. 5 cycles */
 266:../Dave/Generated/CMSIS_DSP/FilteringFunctions/arm_biquad_cascade_stereo_df2T_f32.c ****             acc3a = b0 * Xn3a + d1a;
 267:../Dave/Generated/CMSIS_DSP/FilteringFunctions/arm_biquad_cascade_stereo_df2T_f32.c ****             d1a = b1 * Xn3a + d2a;
 268:../Dave/Generated/CMSIS_DSP/FilteringFunctions/arm_biquad_cascade_stereo_df2T_f32.c ****             d2a = b2 * Xn3a;
 269:../Dave/Generated/CMSIS_DSP/FilteringFunctions/arm_biquad_cascade_stereo_df2T_f32.c ****             d1a += a1 * acc3a;
 270:../Dave/Generated/CMSIS_DSP/FilteringFunctions/arm_biquad_cascade_stereo_df2T_f32.c ****             d2a += a2 * acc3a;
 271:../Dave/Generated/CMSIS_DSP/FilteringFunctions/arm_biquad_cascade_stereo_df2T_f32.c **** 
 272:../Dave/Generated/CMSIS_DSP/FilteringFunctions/arm_biquad_cascade_stereo_df2T_f32.c ****             /* Sample 6. 5 cycles */
 273:../Dave/Generated/CMSIS_DSP/FilteringFunctions/arm_biquad_cascade_stereo_df2T_f32.c ****             acc3b = b0 * Xn3b + d1b;
 274:../Dave/Generated/CMSIS_DSP/FilteringFunctions/arm_biquad_cascade_stereo_df2T_f32.c ****             d1b = b1 * Xn3b + d2b;
 275:../Dave/Generated/CMSIS_DSP/FilteringFunctions/arm_biquad_cascade_stereo_df2T_f32.c ****             d2b = b2 * Xn3b;
 276:../Dave/Generated/CMSIS_DSP/FilteringFunctions/arm_biquad_cascade_stereo_df2T_f32.c ****             d1b += a1 * acc3b;
 277:../Dave/Generated/CMSIS_DSP/FilteringFunctions/arm_biquad_cascade_stereo_df2T_f32.c ****             d2b += a2 * acc3b;
 278:../Dave/Generated/CMSIS_DSP/FilteringFunctions/arm_biquad_cascade_stereo_df2T_f32.c **** 
 279:../Dave/Generated/CMSIS_DSP/FilteringFunctions/arm_biquad_cascade_stereo_df2T_f32.c ****             /* Sample 7. 5 cycles */
 280:../Dave/Generated/CMSIS_DSP/FilteringFunctions/arm_biquad_cascade_stereo_df2T_f32.c ****             acc4a = b0 * Xn4a + d1a;
 281:../Dave/Generated/CMSIS_DSP/FilteringFunctions/arm_biquad_cascade_stereo_df2T_f32.c ****             d1a = b1 * Xn4a + d2a;
 282:../Dave/Generated/CMSIS_DSP/FilteringFunctions/arm_biquad_cascade_stereo_df2T_f32.c ****             d2a = b2 * Xn4a;
 283:../Dave/Generated/CMSIS_DSP/FilteringFunctions/arm_biquad_cascade_stereo_df2T_f32.c ****             d1a += a1 * acc4a;
 284:../Dave/Generated/CMSIS_DSP/FilteringFunctions/arm_biquad_cascade_stereo_df2T_f32.c ****             d2a += a2 * acc4a;
 285:../Dave/Generated/CMSIS_DSP/FilteringFunctions/arm_biquad_cascade_stereo_df2T_f32.c **** 
 286:../Dave/Generated/CMSIS_DSP/FilteringFunctions/arm_biquad_cascade_stereo_df2T_f32.c ****             /* Sample 8. 5 cycles */
 287:../Dave/Generated/CMSIS_DSP/FilteringFunctions/arm_biquad_cascade_stereo_df2T_f32.c ****             acc4b = b0 * Xn4b + d1b;
 288:../Dave/Generated/CMSIS_DSP/FilteringFunctions/arm_biquad_cascade_stereo_df2T_f32.c ****             d1b = b1 * Xn4b + d2b;
 289:../Dave/Generated/CMSIS_DSP/FilteringFunctions/arm_biquad_cascade_stereo_df2T_f32.c ****             d2b = b2 * Xn4b;
 290:../Dave/Generated/CMSIS_DSP/FilteringFunctions/arm_biquad_cascade_stereo_df2T_f32.c ****             d1b += a1 * acc4b;
 291:../Dave/Generated/CMSIS_DSP/FilteringFunctions/arm_biquad_cascade_stereo_df2T_f32.c ****             d2b += a2 * acc4b;
 292:../Dave/Generated/CMSIS_DSP/FilteringFunctions/arm_biquad_cascade_stereo_df2T_f32.c **** 
 293:../Dave/Generated/CMSIS_DSP/FilteringFunctions/arm_biquad_cascade_stereo_df2T_f32.c ****             /* Sample 9. 5 cycles */
 294:../Dave/Generated/CMSIS_DSP/FilteringFunctions/arm_biquad_cascade_stereo_df2T_f32.c ****             acc5a = b0 * Xn5a + d1a;
 295:../Dave/Generated/CMSIS_DSP/FilteringFunctions/arm_biquad_cascade_stereo_df2T_f32.c ****             d1a = b1 * Xn5a + d2a;
 296:../Dave/Generated/CMSIS_DSP/FilteringFunctions/arm_biquad_cascade_stereo_df2T_f32.c ****             d2a = b2 * Xn5a;
 297:../Dave/Generated/CMSIS_DSP/FilteringFunctions/arm_biquad_cascade_stereo_df2T_f32.c ****             d1a += a1 * acc5a;
 298:../Dave/Generated/CMSIS_DSP/FilteringFunctions/arm_biquad_cascade_stereo_df2T_f32.c ****             d2a += a2 * acc5a;
 299:../Dave/Generated/CMSIS_DSP/FilteringFunctions/arm_biquad_cascade_stereo_df2T_f32.c **** 
 300:../Dave/Generated/CMSIS_DSP/FilteringFunctions/arm_biquad_cascade_stereo_df2T_f32.c ****             /* Sample 10. 5 cycles */
 301:../Dave/Generated/CMSIS_DSP/FilteringFunctions/arm_biquad_cascade_stereo_df2T_f32.c ****             acc5b = b0 * Xn5b + d1b;
 302:../Dave/Generated/CMSIS_DSP/FilteringFunctions/arm_biquad_cascade_stereo_df2T_f32.c ****             d1b = b1 * Xn5b + d2b;
 303:../Dave/Generated/CMSIS_DSP/FilteringFunctions/arm_biquad_cascade_stereo_df2T_f32.c ****             d2b = b2 * Xn5b;
 304:../Dave/Generated/CMSIS_DSP/FilteringFunctions/arm_biquad_cascade_stereo_df2T_f32.c ****             d1b += a1 * acc5b;
 305:../Dave/Generated/CMSIS_DSP/FilteringFunctions/arm_biquad_cascade_stereo_df2T_f32.c ****             d2b += a2 * acc5b;
 306:../Dave/Generated/CMSIS_DSP/FilteringFunctions/arm_biquad_cascade_stereo_df2T_f32.c **** 
 307:../Dave/Generated/CMSIS_DSP/FilteringFunctions/arm_biquad_cascade_stereo_df2T_f32.c ****             /* Sample 11. 5 cycles */
 308:../Dave/Generated/CMSIS_DSP/FilteringFunctions/arm_biquad_cascade_stereo_df2T_f32.c ****             acc6a = b0 * Xn6a + d1a;
 309:../Dave/Generated/CMSIS_DSP/FilteringFunctions/arm_biquad_cascade_stereo_df2T_f32.c ****             d1a = b1 * Xn6a + d2a;
 310:../Dave/Generated/CMSIS_DSP/FilteringFunctions/arm_biquad_cascade_stereo_df2T_f32.c ****             d2a = b2 * Xn6a;
 311:../Dave/Generated/CMSIS_DSP/FilteringFunctions/arm_biquad_cascade_stereo_df2T_f32.c ****             d1a += a1 * acc6a;
 312:../Dave/Generated/CMSIS_DSP/FilteringFunctions/arm_biquad_cascade_stereo_df2T_f32.c ****             d2a += a2 * acc6a;
 313:../Dave/Generated/CMSIS_DSP/FilteringFunctions/arm_biquad_cascade_stereo_df2T_f32.c **** 
 314:../Dave/Generated/CMSIS_DSP/FilteringFunctions/arm_biquad_cascade_stereo_df2T_f32.c ****             /* Sample 12. 5 cycles */
 315:../Dave/Generated/CMSIS_DSP/FilteringFunctions/arm_biquad_cascade_stereo_df2T_f32.c ****             acc6b = b0 * Xn6b + d1b;
 316:../Dave/Generated/CMSIS_DSP/FilteringFunctions/arm_biquad_cascade_stereo_df2T_f32.c ****             d1b = b1 * Xn6b + d2b;
 317:../Dave/Generated/CMSIS_DSP/FilteringFunctions/arm_biquad_cascade_stereo_df2T_f32.c ****             d2b = b2 * Xn6b;
 318:../Dave/Generated/CMSIS_DSP/FilteringFunctions/arm_biquad_cascade_stereo_df2T_f32.c ****             d1b += a1 * acc6b;
 319:../Dave/Generated/CMSIS_DSP/FilteringFunctions/arm_biquad_cascade_stereo_df2T_f32.c ****             d2b += a2 * acc6b;
 320:../Dave/Generated/CMSIS_DSP/FilteringFunctions/arm_biquad_cascade_stereo_df2T_f32.c **** 
 321:../Dave/Generated/CMSIS_DSP/FilteringFunctions/arm_biquad_cascade_stereo_df2T_f32.c ****             /* Sample 13. 5 cycles */
 322:../Dave/Generated/CMSIS_DSP/FilteringFunctions/arm_biquad_cascade_stereo_df2T_f32.c ****             acc7a = b0 * Xn7a + d1a;         
 323:../Dave/Generated/CMSIS_DSP/FilteringFunctions/arm_biquad_cascade_stereo_df2T_f32.c ****             d1a = b1 * Xn7a + d2a;   
 324:../Dave/Generated/CMSIS_DSP/FilteringFunctions/arm_biquad_cascade_stereo_df2T_f32.c ****             
 325:../Dave/Generated/CMSIS_DSP/FilteringFunctions/arm_biquad_cascade_stereo_df2T_f32.c ****             pOut[0 ] = acc1a ;      
 326:../Dave/Generated/CMSIS_DSP/FilteringFunctions/arm_biquad_cascade_stereo_df2T_f32.c ****             d2a = b2 * Xn7a;
 327:../Dave/Generated/CMSIS_DSP/FilteringFunctions/arm_biquad_cascade_stereo_df2T_f32.c **** 
 328:../Dave/Generated/CMSIS_DSP/FilteringFunctions/arm_biquad_cascade_stereo_df2T_f32.c ****             pOut[1 ] = acc1b ;	
 329:../Dave/Generated/CMSIS_DSP/FilteringFunctions/arm_biquad_cascade_stereo_df2T_f32.c ****             d1a += a1 * acc7a;
 330:../Dave/Generated/CMSIS_DSP/FilteringFunctions/arm_biquad_cascade_stereo_df2T_f32.c **** 
 331:../Dave/Generated/CMSIS_DSP/FilteringFunctions/arm_biquad_cascade_stereo_df2T_f32.c ****             pOut[2 ] = acc2a ;	
 332:../Dave/Generated/CMSIS_DSP/FilteringFunctions/arm_biquad_cascade_stereo_df2T_f32.c ****             d2a += a2 * acc7a;
 333:../Dave/Generated/CMSIS_DSP/FilteringFunctions/arm_biquad_cascade_stereo_df2T_f32.c **** 
 334:../Dave/Generated/CMSIS_DSP/FilteringFunctions/arm_biquad_cascade_stereo_df2T_f32.c ****             /* Sample 14. 5 cycles */
 335:../Dave/Generated/CMSIS_DSP/FilteringFunctions/arm_biquad_cascade_stereo_df2T_f32.c ****             pOut[3 ] = acc2b ;
 336:../Dave/Generated/CMSIS_DSP/FilteringFunctions/arm_biquad_cascade_stereo_df2T_f32.c ****             acc7b = b0 * Xn7b + d1b;
 337:../Dave/Generated/CMSIS_DSP/FilteringFunctions/arm_biquad_cascade_stereo_df2T_f32.c **** 
 338:../Dave/Generated/CMSIS_DSP/FilteringFunctions/arm_biquad_cascade_stereo_df2T_f32.c ****             pOut[4 ] = acc3a ; 
 339:../Dave/Generated/CMSIS_DSP/FilteringFunctions/arm_biquad_cascade_stereo_df2T_f32.c ****             d1b = b1 * Xn7b + d2b;
 340:../Dave/Generated/CMSIS_DSP/FilteringFunctions/arm_biquad_cascade_stereo_df2T_f32.c **** 
 341:../Dave/Generated/CMSIS_DSP/FilteringFunctions/arm_biquad_cascade_stereo_df2T_f32.c ****             pOut[5 ] = acc3b ;	
 342:../Dave/Generated/CMSIS_DSP/FilteringFunctions/arm_biquad_cascade_stereo_df2T_f32.c ****             d2b = b2 * Xn7b;
 343:../Dave/Generated/CMSIS_DSP/FilteringFunctions/arm_biquad_cascade_stereo_df2T_f32.c **** 
 344:../Dave/Generated/CMSIS_DSP/FilteringFunctions/arm_biquad_cascade_stereo_df2T_f32.c ****             pOut[6 ] = acc4a ;	  
 345:../Dave/Generated/CMSIS_DSP/FilteringFunctions/arm_biquad_cascade_stereo_df2T_f32.c ****             d1b += a1 * acc7b;
 346:../Dave/Generated/CMSIS_DSP/FilteringFunctions/arm_biquad_cascade_stereo_df2T_f32.c **** 
 347:../Dave/Generated/CMSIS_DSP/FilteringFunctions/arm_biquad_cascade_stereo_df2T_f32.c ****             pOut[7 ] = acc4b ;
 348:../Dave/Generated/CMSIS_DSP/FilteringFunctions/arm_biquad_cascade_stereo_df2T_f32.c ****             d2b += a2 * acc7b;
 349:../Dave/Generated/CMSIS_DSP/FilteringFunctions/arm_biquad_cascade_stereo_df2T_f32.c **** 
 350:../Dave/Generated/CMSIS_DSP/FilteringFunctions/arm_biquad_cascade_stereo_df2T_f32.c ****             /* Sample 15. 5 cycles */
 351:../Dave/Generated/CMSIS_DSP/FilteringFunctions/arm_biquad_cascade_stereo_df2T_f32.c ****             pOut[8 ] = acc5a ;  
 352:../Dave/Generated/CMSIS_DSP/FilteringFunctions/arm_biquad_cascade_stereo_df2T_f32.c ****             acc8a = b0 * Xn8a + d1a;
 353:../Dave/Generated/CMSIS_DSP/FilteringFunctions/arm_biquad_cascade_stereo_df2T_f32.c **** 
 354:../Dave/Generated/CMSIS_DSP/FilteringFunctions/arm_biquad_cascade_stereo_df2T_f32.c ****             pOut[9 ] = acc5b;	
 355:../Dave/Generated/CMSIS_DSP/FilteringFunctions/arm_biquad_cascade_stereo_df2T_f32.c ****             d1a = b1 * Xn8a + d2a;
 356:../Dave/Generated/CMSIS_DSP/FilteringFunctions/arm_biquad_cascade_stereo_df2T_f32.c **** 
 357:../Dave/Generated/CMSIS_DSP/FilteringFunctions/arm_biquad_cascade_stereo_df2T_f32.c ****             pOut[10] = acc6a;	
 358:../Dave/Generated/CMSIS_DSP/FilteringFunctions/arm_biquad_cascade_stereo_df2T_f32.c ****             d2a = b2 * Xn8a;
 359:../Dave/Generated/CMSIS_DSP/FilteringFunctions/arm_biquad_cascade_stereo_df2T_f32.c **** 
 360:../Dave/Generated/CMSIS_DSP/FilteringFunctions/arm_biquad_cascade_stereo_df2T_f32.c ****             pOut[11] = acc6b;
 361:../Dave/Generated/CMSIS_DSP/FilteringFunctions/arm_biquad_cascade_stereo_df2T_f32.c ****             d1a += a1 * acc8a;
 362:../Dave/Generated/CMSIS_DSP/FilteringFunctions/arm_biquad_cascade_stereo_df2T_f32.c **** 
 363:../Dave/Generated/CMSIS_DSP/FilteringFunctions/arm_biquad_cascade_stereo_df2T_f32.c ****             pOut[12] = acc7a;
 364:../Dave/Generated/CMSIS_DSP/FilteringFunctions/arm_biquad_cascade_stereo_df2T_f32.c ****             d2a += a2 * acc8a;
 365:../Dave/Generated/CMSIS_DSP/FilteringFunctions/arm_biquad_cascade_stereo_df2T_f32.c **** 
 366:../Dave/Generated/CMSIS_DSP/FilteringFunctions/arm_biquad_cascade_stereo_df2T_f32.c ****             /* Sample 16. 5 cycles */
 367:../Dave/Generated/CMSIS_DSP/FilteringFunctions/arm_biquad_cascade_stereo_df2T_f32.c ****             pOut[13] = acc7b;	
 368:../Dave/Generated/CMSIS_DSP/FilteringFunctions/arm_biquad_cascade_stereo_df2T_f32.c ****             acc8b = b0 * Xn8b + d1b;
 369:../Dave/Generated/CMSIS_DSP/FilteringFunctions/arm_biquad_cascade_stereo_df2T_f32.c **** 
 370:../Dave/Generated/CMSIS_DSP/FilteringFunctions/arm_biquad_cascade_stereo_df2T_f32.c ****             pOut[14] = acc8a;	
 371:../Dave/Generated/CMSIS_DSP/FilteringFunctions/arm_biquad_cascade_stereo_df2T_f32.c ****             d1b = b1 * Xn8b + d2b;
 372:../Dave/Generated/CMSIS_DSP/FilteringFunctions/arm_biquad_cascade_stereo_df2T_f32.c **** 
 373:../Dave/Generated/CMSIS_DSP/FilteringFunctions/arm_biquad_cascade_stereo_df2T_f32.c ****             pOut[15] = acc8b;
 374:../Dave/Generated/CMSIS_DSP/FilteringFunctions/arm_biquad_cascade_stereo_df2T_f32.c ****             d2b = b2 * Xn8b;
 375:../Dave/Generated/CMSIS_DSP/FilteringFunctions/arm_biquad_cascade_stereo_df2T_f32.c **** 
 376:../Dave/Generated/CMSIS_DSP/FilteringFunctions/arm_biquad_cascade_stereo_df2T_f32.c ****             sample--;	 
 377:../Dave/Generated/CMSIS_DSP/FilteringFunctions/arm_biquad_cascade_stereo_df2T_f32.c ****             d1b += a1 * acc8b;
 378:../Dave/Generated/CMSIS_DSP/FilteringFunctions/arm_biquad_cascade_stereo_df2T_f32.c **** 
 379:../Dave/Generated/CMSIS_DSP/FilteringFunctions/arm_biquad_cascade_stereo_df2T_f32.c ****             pOut += 16;
 380:../Dave/Generated/CMSIS_DSP/FilteringFunctions/arm_biquad_cascade_stereo_df2T_f32.c ****             d2b += a2 * acc8b;
 381:../Dave/Generated/CMSIS_DSP/FilteringFunctions/arm_biquad_cascade_stereo_df2T_f32.c ****         }
 382:../Dave/Generated/CMSIS_DSP/FilteringFunctions/arm_biquad_cascade_stereo_df2T_f32.c **** 
 383:../Dave/Generated/CMSIS_DSP/FilteringFunctions/arm_biquad_cascade_stereo_df2T_f32.c ****         sample = blockSize & 0x7u;
 384:../Dave/Generated/CMSIS_DSP/FilteringFunctions/arm_biquad_cascade_stereo_df2T_f32.c ****         while(sample > 0u) {
 385:../Dave/Generated/CMSIS_DSP/FilteringFunctions/arm_biquad_cascade_stereo_df2T_f32.c ****             /* Read the input */
 386:../Dave/Generated/CMSIS_DSP/FilteringFunctions/arm_biquad_cascade_stereo_df2T_f32.c ****             Xn1a = *pIn++; //Channel a
 387:../Dave/Generated/CMSIS_DSP/FilteringFunctions/arm_biquad_cascade_stereo_df2T_f32.c ****             Xn1b = *pIn++; //Channel b
 388:../Dave/Generated/CMSIS_DSP/FilteringFunctions/arm_biquad_cascade_stereo_df2T_f32.c **** 
 389:../Dave/Generated/CMSIS_DSP/FilteringFunctions/arm_biquad_cascade_stereo_df2T_f32.c ****             /* y[n] = b0 * x[n] + d1 */
 390:../Dave/Generated/CMSIS_DSP/FilteringFunctions/arm_biquad_cascade_stereo_df2T_f32.c ****             acc1a = (b0 * Xn1a) + d1a;
 391:../Dave/Generated/CMSIS_DSP/FilteringFunctions/arm_biquad_cascade_stereo_df2T_f32.c ****             acc1b = (b0 * Xn1b) + d1b;
 392:../Dave/Generated/CMSIS_DSP/FilteringFunctions/arm_biquad_cascade_stereo_df2T_f32.c **** 
 393:../Dave/Generated/CMSIS_DSP/FilteringFunctions/arm_biquad_cascade_stereo_df2T_f32.c ****             /* Store the result in the accumulator in the destination buffer. */
 394:../Dave/Generated/CMSIS_DSP/FilteringFunctions/arm_biquad_cascade_stereo_df2T_f32.c ****             *pOut++ = acc1a;
 395:../Dave/Generated/CMSIS_DSP/FilteringFunctions/arm_biquad_cascade_stereo_df2T_f32.c ****             *pOut++ = acc1b;
 396:../Dave/Generated/CMSIS_DSP/FilteringFunctions/arm_biquad_cascade_stereo_df2T_f32.c **** 
 397:../Dave/Generated/CMSIS_DSP/FilteringFunctions/arm_biquad_cascade_stereo_df2T_f32.c ****             /* Every time after the output is computed state should be updated. */
 398:../Dave/Generated/CMSIS_DSP/FilteringFunctions/arm_biquad_cascade_stereo_df2T_f32.c ****             /* d1 = b1 * x[n] + a1 * y[n] + d2 */
 399:../Dave/Generated/CMSIS_DSP/FilteringFunctions/arm_biquad_cascade_stereo_df2T_f32.c ****             d1a = ((b1 * Xn1a) + (a1 * acc1a)) + d2a;
 400:../Dave/Generated/CMSIS_DSP/FilteringFunctions/arm_biquad_cascade_stereo_df2T_f32.c ****             d1b = ((b1 * Xn1b) + (a1 * acc1b)) + d2b;
 401:../Dave/Generated/CMSIS_DSP/FilteringFunctions/arm_biquad_cascade_stereo_df2T_f32.c **** 
 402:../Dave/Generated/CMSIS_DSP/FilteringFunctions/arm_biquad_cascade_stereo_df2T_f32.c ****             /* d2 = b2 * x[n] + a2 * y[n] */
 403:../Dave/Generated/CMSIS_DSP/FilteringFunctions/arm_biquad_cascade_stereo_df2T_f32.c ****             d2a = (b2 * Xn1a) + (a2 * acc1a);
 404:../Dave/Generated/CMSIS_DSP/FilteringFunctions/arm_biquad_cascade_stereo_df2T_f32.c ****             d2b = (b2 * Xn1b) + (a2 * acc1b);
 405:../Dave/Generated/CMSIS_DSP/FilteringFunctions/arm_biquad_cascade_stereo_df2T_f32.c **** 
 406:../Dave/Generated/CMSIS_DSP/FilteringFunctions/arm_biquad_cascade_stereo_df2T_f32.c ****             sample--;	
 407:../Dave/Generated/CMSIS_DSP/FilteringFunctions/arm_biquad_cascade_stereo_df2T_f32.c ****         }
 408:../Dave/Generated/CMSIS_DSP/FilteringFunctions/arm_biquad_cascade_stereo_df2T_f32.c **** 
 409:../Dave/Generated/CMSIS_DSP/FilteringFunctions/arm_biquad_cascade_stereo_df2T_f32.c ****         /* Store the updated state variables back into the state array */ 
 410:../Dave/Generated/CMSIS_DSP/FilteringFunctions/arm_biquad_cascade_stereo_df2T_f32.c ****         pState[0] = d1a; 
 411:../Dave/Generated/CMSIS_DSP/FilteringFunctions/arm_biquad_cascade_stereo_df2T_f32.c ****         pState[1] = d2a;         
 412:../Dave/Generated/CMSIS_DSP/FilteringFunctions/arm_biquad_cascade_stereo_df2T_f32.c **** 
 413:../Dave/Generated/CMSIS_DSP/FilteringFunctions/arm_biquad_cascade_stereo_df2T_f32.c ****         pState[2] = d1b; 
 414:../Dave/Generated/CMSIS_DSP/FilteringFunctions/arm_biquad_cascade_stereo_df2T_f32.c ****         pState[3] = d2b; 
 415:../Dave/Generated/CMSIS_DSP/FilteringFunctions/arm_biquad_cascade_stereo_df2T_f32.c ****         
 416:../Dave/Generated/CMSIS_DSP/FilteringFunctions/arm_biquad_cascade_stereo_df2T_f32.c ****         /* The current stage input is given as the output to the next stage */ 
 417:../Dave/Generated/CMSIS_DSP/FilteringFunctions/arm_biquad_cascade_stereo_df2T_f32.c ****         pIn = pDst; 
 418:../Dave/Generated/CMSIS_DSP/FilteringFunctions/arm_biquad_cascade_stereo_df2T_f32.c ****         /* decrement the loop counter */ 
 419:../Dave/Generated/CMSIS_DSP/FilteringFunctions/arm_biquad_cascade_stereo_df2T_f32.c ****         stage--; 
 420:../Dave/Generated/CMSIS_DSP/FilteringFunctions/arm_biquad_cascade_stereo_df2T_f32.c **** 
 421:../Dave/Generated/CMSIS_DSP/FilteringFunctions/arm_biquad_cascade_stereo_df2T_f32.c ****         pState += 4u;
 422:../Dave/Generated/CMSIS_DSP/FilteringFunctions/arm_biquad_cascade_stereo_df2T_f32.c ****         /*Reset the output working pointer */ 
 423:../Dave/Generated/CMSIS_DSP/FilteringFunctions/arm_biquad_cascade_stereo_df2T_f32.c ****         pOut = pDst; 
 424:../Dave/Generated/CMSIS_DSP/FilteringFunctions/arm_biquad_cascade_stereo_df2T_f32.c **** 
 425:../Dave/Generated/CMSIS_DSP/FilteringFunctions/arm_biquad_cascade_stereo_df2T_f32.c ****     } while(stage > 0u);
 426:../Dave/Generated/CMSIS_DSP/FilteringFunctions/arm_biquad_cascade_stereo_df2T_f32.c **** 	
 427:../Dave/Generated/CMSIS_DSP/FilteringFunctions/arm_biquad_cascade_stereo_df2T_f32.c **** #elif defined(ARM_MATH_CM0_FAMILY)
 428:../Dave/Generated/CMSIS_DSP/FilteringFunctions/arm_biquad_cascade_stereo_df2T_f32.c **** 
 429:../Dave/Generated/CMSIS_DSP/FilteringFunctions/arm_biquad_cascade_stereo_df2T_f32.c ****     /* Run the below code for Cortex-M0 */
 430:../Dave/Generated/CMSIS_DSP/FilteringFunctions/arm_biquad_cascade_stereo_df2T_f32.c **** 
 431:../Dave/Generated/CMSIS_DSP/FilteringFunctions/arm_biquad_cascade_stereo_df2T_f32.c ****     do
 432:../Dave/Generated/CMSIS_DSP/FilteringFunctions/arm_biquad_cascade_stereo_df2T_f32.c ****     {
 433:../Dave/Generated/CMSIS_DSP/FilteringFunctions/arm_biquad_cascade_stereo_df2T_f32.c ****         /* Reading the coefficients */
 434:../Dave/Generated/CMSIS_DSP/FilteringFunctions/arm_biquad_cascade_stereo_df2T_f32.c ****         b0 = *pCoeffs++;
 435:../Dave/Generated/CMSIS_DSP/FilteringFunctions/arm_biquad_cascade_stereo_df2T_f32.c ****         b1 = *pCoeffs++;
 436:../Dave/Generated/CMSIS_DSP/FilteringFunctions/arm_biquad_cascade_stereo_df2T_f32.c ****         b2 = *pCoeffs++;
 437:../Dave/Generated/CMSIS_DSP/FilteringFunctions/arm_biquad_cascade_stereo_df2T_f32.c ****         a1 = *pCoeffs++;
 438:../Dave/Generated/CMSIS_DSP/FilteringFunctions/arm_biquad_cascade_stereo_df2T_f32.c ****         a2 = *pCoeffs++;
 439:../Dave/Generated/CMSIS_DSP/FilteringFunctions/arm_biquad_cascade_stereo_df2T_f32.c **** 
 440:../Dave/Generated/CMSIS_DSP/FilteringFunctions/arm_biquad_cascade_stereo_df2T_f32.c ****         /*Reading the state values */
 441:../Dave/Generated/CMSIS_DSP/FilteringFunctions/arm_biquad_cascade_stereo_df2T_f32.c ****         d1a = pState[0];
 442:../Dave/Generated/CMSIS_DSP/FilteringFunctions/arm_biquad_cascade_stereo_df2T_f32.c ****         d2a = pState[1];
 443:../Dave/Generated/CMSIS_DSP/FilteringFunctions/arm_biquad_cascade_stereo_df2T_f32.c ****         d1b = pState[2];
 444:../Dave/Generated/CMSIS_DSP/FilteringFunctions/arm_biquad_cascade_stereo_df2T_f32.c ****         d2b = pState[3];
 445:../Dave/Generated/CMSIS_DSP/FilteringFunctions/arm_biquad_cascade_stereo_df2T_f32.c **** 
 446:../Dave/Generated/CMSIS_DSP/FilteringFunctions/arm_biquad_cascade_stereo_df2T_f32.c **** 
 447:../Dave/Generated/CMSIS_DSP/FilteringFunctions/arm_biquad_cascade_stereo_df2T_f32.c ****         sample = blockSize;
 448:../Dave/Generated/CMSIS_DSP/FilteringFunctions/arm_biquad_cascade_stereo_df2T_f32.c **** 
 449:../Dave/Generated/CMSIS_DSP/FilteringFunctions/arm_biquad_cascade_stereo_df2T_f32.c ****         while(sample > 0u)
 450:../Dave/Generated/CMSIS_DSP/FilteringFunctions/arm_biquad_cascade_stereo_df2T_f32.c ****         {
 451:../Dave/Generated/CMSIS_DSP/FilteringFunctions/arm_biquad_cascade_stereo_df2T_f32.c ****             /* Read the input */
 452:../Dave/Generated/CMSIS_DSP/FilteringFunctions/arm_biquad_cascade_stereo_df2T_f32.c ****             Xn1a = *pIn++; //Channel a
 453:../Dave/Generated/CMSIS_DSP/FilteringFunctions/arm_biquad_cascade_stereo_df2T_f32.c ****             Xn1b = *pIn++; //Channel b
 454:../Dave/Generated/CMSIS_DSP/FilteringFunctions/arm_biquad_cascade_stereo_df2T_f32.c **** 
 455:../Dave/Generated/CMSIS_DSP/FilteringFunctions/arm_biquad_cascade_stereo_df2T_f32.c ****             /* y[n] = b0 * x[n] + d1 */
 456:../Dave/Generated/CMSIS_DSP/FilteringFunctions/arm_biquad_cascade_stereo_df2T_f32.c ****             acc1a = (b0 * Xn1a) + d1a;
 457:../Dave/Generated/CMSIS_DSP/FilteringFunctions/arm_biquad_cascade_stereo_df2T_f32.c ****             acc1b = (b0 * Xn1b) + d1b;
 458:../Dave/Generated/CMSIS_DSP/FilteringFunctions/arm_biquad_cascade_stereo_df2T_f32.c **** 
 459:../Dave/Generated/CMSIS_DSP/FilteringFunctions/arm_biquad_cascade_stereo_df2T_f32.c ****             /* Store the result in the accumulator in the destination buffer. */
 460:../Dave/Generated/CMSIS_DSP/FilteringFunctions/arm_biquad_cascade_stereo_df2T_f32.c ****             *pOut++ = acc1a;
 461:../Dave/Generated/CMSIS_DSP/FilteringFunctions/arm_biquad_cascade_stereo_df2T_f32.c ****             *pOut++ = acc1b;
 462:../Dave/Generated/CMSIS_DSP/FilteringFunctions/arm_biquad_cascade_stereo_df2T_f32.c **** 
 463:../Dave/Generated/CMSIS_DSP/FilteringFunctions/arm_biquad_cascade_stereo_df2T_f32.c ****             /* Every time after the output is computed state should be updated. */
 464:../Dave/Generated/CMSIS_DSP/FilteringFunctions/arm_biquad_cascade_stereo_df2T_f32.c ****             /* d1 = b1 * x[n] + a1 * y[n] + d2 */
 465:../Dave/Generated/CMSIS_DSP/FilteringFunctions/arm_biquad_cascade_stereo_df2T_f32.c ****             d1a = ((b1 * Xn1a) + (a1 * acc1a)) + d2a;
 466:../Dave/Generated/CMSIS_DSP/FilteringFunctions/arm_biquad_cascade_stereo_df2T_f32.c ****             d1b = ((b1 * Xn1b) + (a1 * acc1b)) + d2b;
 467:../Dave/Generated/CMSIS_DSP/FilteringFunctions/arm_biquad_cascade_stereo_df2T_f32.c **** 
 468:../Dave/Generated/CMSIS_DSP/FilteringFunctions/arm_biquad_cascade_stereo_df2T_f32.c ****             /* d2 = b2 * x[n] + a2 * y[n] */
 469:../Dave/Generated/CMSIS_DSP/FilteringFunctions/arm_biquad_cascade_stereo_df2T_f32.c ****             d2a = (b2 * Xn1a) + (a2 * acc1a);
 470:../Dave/Generated/CMSIS_DSP/FilteringFunctions/arm_biquad_cascade_stereo_df2T_f32.c ****             d2b = (b2 * Xn1b) + (a2 * acc1b);
 471:../Dave/Generated/CMSIS_DSP/FilteringFunctions/arm_biquad_cascade_stereo_df2T_f32.c **** 
 472:../Dave/Generated/CMSIS_DSP/FilteringFunctions/arm_biquad_cascade_stereo_df2T_f32.c ****             /* decrement the loop counter */
 473:../Dave/Generated/CMSIS_DSP/FilteringFunctions/arm_biquad_cascade_stereo_df2T_f32.c ****             sample--;
 474:../Dave/Generated/CMSIS_DSP/FilteringFunctions/arm_biquad_cascade_stereo_df2T_f32.c ****         }
 475:../Dave/Generated/CMSIS_DSP/FilteringFunctions/arm_biquad_cascade_stereo_df2T_f32.c **** 
 476:../Dave/Generated/CMSIS_DSP/FilteringFunctions/arm_biquad_cascade_stereo_df2T_f32.c ****         /* Store the updated state variables back into the state array */
 477:../Dave/Generated/CMSIS_DSP/FilteringFunctions/arm_biquad_cascade_stereo_df2T_f32.c ****         *pState++ = d1a;
 478:../Dave/Generated/CMSIS_DSP/FilteringFunctions/arm_biquad_cascade_stereo_df2T_f32.c ****         *pState++ = d2a;
 479:../Dave/Generated/CMSIS_DSP/FilteringFunctions/arm_biquad_cascade_stereo_df2T_f32.c ****         *pState++ = d1b;
 480:../Dave/Generated/CMSIS_DSP/FilteringFunctions/arm_biquad_cascade_stereo_df2T_f32.c ****         *pState++ = d2b;
 481:../Dave/Generated/CMSIS_DSP/FilteringFunctions/arm_biquad_cascade_stereo_df2T_f32.c **** 
 482:../Dave/Generated/CMSIS_DSP/FilteringFunctions/arm_biquad_cascade_stereo_df2T_f32.c ****         /* The current stage input is given as the output to the next stage */
 483:../Dave/Generated/CMSIS_DSP/FilteringFunctions/arm_biquad_cascade_stereo_df2T_f32.c ****         pIn = pDst;
 484:../Dave/Generated/CMSIS_DSP/FilteringFunctions/arm_biquad_cascade_stereo_df2T_f32.c **** 
 485:../Dave/Generated/CMSIS_DSP/FilteringFunctions/arm_biquad_cascade_stereo_df2T_f32.c ****         /*Reset the output working pointer */
 486:../Dave/Generated/CMSIS_DSP/FilteringFunctions/arm_biquad_cascade_stereo_df2T_f32.c ****         pOut = pDst;
 487:../Dave/Generated/CMSIS_DSP/FilteringFunctions/arm_biquad_cascade_stereo_df2T_f32.c **** 
 488:../Dave/Generated/CMSIS_DSP/FilteringFunctions/arm_biquad_cascade_stereo_df2T_f32.c ****         /* decrement the loop counter */
 489:../Dave/Generated/CMSIS_DSP/FilteringFunctions/arm_biquad_cascade_stereo_df2T_f32.c ****         stage--;
 490:../Dave/Generated/CMSIS_DSP/FilteringFunctions/arm_biquad_cascade_stereo_df2T_f32.c **** 
 491:../Dave/Generated/CMSIS_DSP/FilteringFunctions/arm_biquad_cascade_stereo_df2T_f32.c ****     } while(stage > 0u);
 492:../Dave/Generated/CMSIS_DSP/FilteringFunctions/arm_biquad_cascade_stereo_df2T_f32.c **** 	 
 493:../Dave/Generated/CMSIS_DSP/FilteringFunctions/arm_biquad_cascade_stereo_df2T_f32.c **** #else
 494:../Dave/Generated/CMSIS_DSP/FilteringFunctions/arm_biquad_cascade_stereo_df2T_f32.c **** 
 495:../Dave/Generated/CMSIS_DSP/FilteringFunctions/arm_biquad_cascade_stereo_df2T_f32.c ****     float32_t Xn2a, Xn3a, Xn4a;                          /*  Input State variables     */
 496:../Dave/Generated/CMSIS_DSP/FilteringFunctions/arm_biquad_cascade_stereo_df2T_f32.c ****     float32_t Xn2b, Xn3b, Xn4b;                          /*  Input State variables     */
 497:../Dave/Generated/CMSIS_DSP/FilteringFunctions/arm_biquad_cascade_stereo_df2T_f32.c ****     float32_t acc2a, acc3a, acc4a;                       /*  accumulator               */
 498:../Dave/Generated/CMSIS_DSP/FilteringFunctions/arm_biquad_cascade_stereo_df2T_f32.c ****     float32_t acc2b, acc3b, acc4b;                       /*  accumulator               */
 499:../Dave/Generated/CMSIS_DSP/FilteringFunctions/arm_biquad_cascade_stereo_df2T_f32.c ****     float32_t p0a, p1a, p2a, p3a, p4a, A1a;
 500:../Dave/Generated/CMSIS_DSP/FilteringFunctions/arm_biquad_cascade_stereo_df2T_f32.c ****     float32_t p0b, p1b, p2b, p3b, p4b, A1b;
 501:../Dave/Generated/CMSIS_DSP/FilteringFunctions/arm_biquad_cascade_stereo_df2T_f32.c **** 
 502:../Dave/Generated/CMSIS_DSP/FilteringFunctions/arm_biquad_cascade_stereo_df2T_f32.c ****     /* Run the below code for Cortex-M4 and Cortex-M3 */
 503:../Dave/Generated/CMSIS_DSP/FilteringFunctions/arm_biquad_cascade_stereo_df2T_f32.c ****     do
 504:../Dave/Generated/CMSIS_DSP/FilteringFunctions/arm_biquad_cascade_stereo_df2T_f32.c ****     {
 505:../Dave/Generated/CMSIS_DSP/FilteringFunctions/arm_biquad_cascade_stereo_df2T_f32.c ****         /* Reading the coefficients */     
 506:../Dave/Generated/CMSIS_DSP/FilteringFunctions/arm_biquad_cascade_stereo_df2T_f32.c ****         b0 = *pCoeffs++;
 507:../Dave/Generated/CMSIS_DSP/FilteringFunctions/arm_biquad_cascade_stereo_df2T_f32.c ****         b1 = *pCoeffs++;
 508:../Dave/Generated/CMSIS_DSP/FilteringFunctions/arm_biquad_cascade_stereo_df2T_f32.c ****         b2 = *pCoeffs++;
 509:../Dave/Generated/CMSIS_DSP/FilteringFunctions/arm_biquad_cascade_stereo_df2T_f32.c ****         a1 = *pCoeffs++;
 510:../Dave/Generated/CMSIS_DSP/FilteringFunctions/arm_biquad_cascade_stereo_df2T_f32.c ****         a2 = *pCoeffs++;      
 511:../Dave/Generated/CMSIS_DSP/FilteringFunctions/arm_biquad_cascade_stereo_df2T_f32.c **** 
 512:../Dave/Generated/CMSIS_DSP/FilteringFunctions/arm_biquad_cascade_stereo_df2T_f32.c ****         /*Reading the state values */
 513:../Dave/Generated/CMSIS_DSP/FilteringFunctions/arm_biquad_cascade_stereo_df2T_f32.c ****         d1a = pState[0];
 514:../Dave/Generated/CMSIS_DSP/FilteringFunctions/arm_biquad_cascade_stereo_df2T_f32.c ****         d2a = pState[1];
 515:../Dave/Generated/CMSIS_DSP/FilteringFunctions/arm_biquad_cascade_stereo_df2T_f32.c ****         d1b = pState[2];
 516:../Dave/Generated/CMSIS_DSP/FilteringFunctions/arm_biquad_cascade_stereo_df2T_f32.c ****         d2b = pState[3];
 517:../Dave/Generated/CMSIS_DSP/FilteringFunctions/arm_biquad_cascade_stereo_df2T_f32.c **** 
 518:../Dave/Generated/CMSIS_DSP/FilteringFunctions/arm_biquad_cascade_stereo_df2T_f32.c ****         /* Apply loop unrolling and compute 4 output values simultaneously. */
 519:../Dave/Generated/CMSIS_DSP/FilteringFunctions/arm_biquad_cascade_stereo_df2T_f32.c ****         sample = blockSize >> 2u;
  58              	 .loc 1 519 0
  59 0010 4FEA9308 	 lsr r8,r3,#2
  60 0014 8668     	 ldr r6,[r0,#8]
  61 0016 1436     	 adds r6,r6,#20
  62 0018 4568     	 ldr r5,[r0,#4]
  63 001a 1035     	 adds r5,r5,#16
  64 001c 4FEA481A 	 lsl r10,r8,#5
 520:../Dave/Generated/CMSIS_DSP/FilteringFunctions/arm_biquad_cascade_stereo_df2T_f32.c **** 
 521:../Dave/Generated/CMSIS_DSP/FilteringFunctions/arm_biquad_cascade_stereo_df2T_f32.c ****         /* First part of the processing with loop unrolling.  Compute 4 outputs at a time.       
 522:../Dave/Generated/CMSIS_DSP/FilteringFunctions/arm_biquad_cascade_stereo_df2T_f32.c ****         ** a second loop below computes the remaining 1 to 3 samples. */
 523:../Dave/Generated/CMSIS_DSP/FilteringFunctions/arm_biquad_cascade_stereo_df2T_f32.c ****         while(sample > 0u) {
  65              	 .loc 1 523 0
  66 0020 0092     	 str r2,[sp]
  67 0022 CDF80480 	 str r8,[sp,#4]
 524:../Dave/Generated/CMSIS_DSP/FilteringFunctions/arm_biquad_cascade_stereo_df2T_f32.c **** 
 525:../Dave/Generated/CMSIS_DSP/FilteringFunctions/arm_biquad_cascade_stereo_df2T_f32.c ****             /* y[n] = b0 * x[n] + d1 */
 526:../Dave/Generated/CMSIS_DSP/FilteringFunctions/arm_biquad_cascade_stereo_df2T_f32.c ****             /* d1 = b1 * x[n] + a1 * y[n] + d2 */
 527:../Dave/Generated/CMSIS_DSP/FilteringFunctions/arm_biquad_cascade_stereo_df2T_f32.c ****             /* d2 = b2 * x[n] + a2 * y[n] */
 528:../Dave/Generated/CMSIS_DSP/FilteringFunctions/arm_biquad_cascade_stereo_df2T_f32.c **** 
 529:../Dave/Generated/CMSIS_DSP/FilteringFunctions/arm_biquad_cascade_stereo_df2T_f32.c ****             /* Read the four inputs */
 530:../Dave/Generated/CMSIS_DSP/FilteringFunctions/arm_biquad_cascade_stereo_df2T_f32.c ****             Xn1a = pIn[0];
 531:../Dave/Generated/CMSIS_DSP/FilteringFunctions/arm_biquad_cascade_stereo_df2T_f32.c ****             Xn1b = pIn[1];
 532:../Dave/Generated/CMSIS_DSP/FilteringFunctions/arm_biquad_cascade_stereo_df2T_f32.c ****             Xn2a = pIn[2];
 533:../Dave/Generated/CMSIS_DSP/FilteringFunctions/arm_biquad_cascade_stereo_df2T_f32.c ****             Xn2b = pIn[3];
 534:../Dave/Generated/CMSIS_DSP/FilteringFunctions/arm_biquad_cascade_stereo_df2T_f32.c ****             Xn3a = pIn[4];
 535:../Dave/Generated/CMSIS_DSP/FilteringFunctions/arm_biquad_cascade_stereo_df2T_f32.c ****             Xn3b = pIn[5];
 536:../Dave/Generated/CMSIS_DSP/FilteringFunctions/arm_biquad_cascade_stereo_df2T_f32.c ****             Xn4a = pIn[6];
 537:../Dave/Generated/CMSIS_DSP/FilteringFunctions/arm_biquad_cascade_stereo_df2T_f32.c ****             Xn4b = pIn[7];
 538:../Dave/Generated/CMSIS_DSP/FilteringFunctions/arm_biquad_cascade_stereo_df2T_f32.c ****             pIn += 8;     
 539:../Dave/Generated/CMSIS_DSP/FilteringFunctions/arm_biquad_cascade_stereo_df2T_f32.c ****             
 540:../Dave/Generated/CMSIS_DSP/FilteringFunctions/arm_biquad_cascade_stereo_df2T_f32.c ****             p0a = b0 * Xn1a; 
 541:../Dave/Generated/CMSIS_DSP/FilteringFunctions/arm_biquad_cascade_stereo_df2T_f32.c ****             p0b = b0 * Xn1b; 
 542:../Dave/Generated/CMSIS_DSP/FilteringFunctions/arm_biquad_cascade_stereo_df2T_f32.c ****             p1a = b1 * Xn1a;
 543:../Dave/Generated/CMSIS_DSP/FilteringFunctions/arm_biquad_cascade_stereo_df2T_f32.c ****             p1b = b1 * Xn1b;
 544:../Dave/Generated/CMSIS_DSP/FilteringFunctions/arm_biquad_cascade_stereo_df2T_f32.c ****             acc1a = p0a + d1a;
 545:../Dave/Generated/CMSIS_DSP/FilteringFunctions/arm_biquad_cascade_stereo_df2T_f32.c ****             acc1b = p0b + d1b;
 546:../Dave/Generated/CMSIS_DSP/FilteringFunctions/arm_biquad_cascade_stereo_df2T_f32.c ****             p0a = b0 * Xn2a; 
 547:../Dave/Generated/CMSIS_DSP/FilteringFunctions/arm_biquad_cascade_stereo_df2T_f32.c ****             p0b = b0 * Xn2b; 
 548:../Dave/Generated/CMSIS_DSP/FilteringFunctions/arm_biquad_cascade_stereo_df2T_f32.c ****             p3a = a1 * acc1a;
 549:../Dave/Generated/CMSIS_DSP/FilteringFunctions/arm_biquad_cascade_stereo_df2T_f32.c ****             p3b = a1 * acc1b;
 550:../Dave/Generated/CMSIS_DSP/FilteringFunctions/arm_biquad_cascade_stereo_df2T_f32.c ****             p2a = b2 * Xn1a;
 551:../Dave/Generated/CMSIS_DSP/FilteringFunctions/arm_biquad_cascade_stereo_df2T_f32.c ****             p2b = b2 * Xn1b;
 552:../Dave/Generated/CMSIS_DSP/FilteringFunctions/arm_biquad_cascade_stereo_df2T_f32.c ****             A1a = p1a + p3a;
 553:../Dave/Generated/CMSIS_DSP/FilteringFunctions/arm_biquad_cascade_stereo_df2T_f32.c ****             A1b = p1b + p3b;
 554:../Dave/Generated/CMSIS_DSP/FilteringFunctions/arm_biquad_cascade_stereo_df2T_f32.c ****             p4a = a2 * acc1a;
 555:../Dave/Generated/CMSIS_DSP/FilteringFunctions/arm_biquad_cascade_stereo_df2T_f32.c ****             p4b = a2 * acc1b;
 556:../Dave/Generated/CMSIS_DSP/FilteringFunctions/arm_biquad_cascade_stereo_df2T_f32.c ****             d1a = A1a + d2a;
 557:../Dave/Generated/CMSIS_DSP/FilteringFunctions/arm_biquad_cascade_stereo_df2T_f32.c ****             d1b = A1b + d2b;
 558:../Dave/Generated/CMSIS_DSP/FilteringFunctions/arm_biquad_cascade_stereo_df2T_f32.c ****             d2a = p2a + p4a;
 559:../Dave/Generated/CMSIS_DSP/FilteringFunctions/arm_biquad_cascade_stereo_df2T_f32.c ****             d2b = p2b + p4b;
 560:../Dave/Generated/CMSIS_DSP/FilteringFunctions/arm_biquad_cascade_stereo_df2T_f32.c ****             
 561:../Dave/Generated/CMSIS_DSP/FilteringFunctions/arm_biquad_cascade_stereo_df2T_f32.c ****             p1a = b1 * Xn2a;
 562:../Dave/Generated/CMSIS_DSP/FilteringFunctions/arm_biquad_cascade_stereo_df2T_f32.c ****             p1b = b1 * Xn2b;
 563:../Dave/Generated/CMSIS_DSP/FilteringFunctions/arm_biquad_cascade_stereo_df2T_f32.c ****             acc2a = p0a + d1a;
 564:../Dave/Generated/CMSIS_DSP/FilteringFunctions/arm_biquad_cascade_stereo_df2T_f32.c ****             acc2b = p0b + d1b;
 565:../Dave/Generated/CMSIS_DSP/FilteringFunctions/arm_biquad_cascade_stereo_df2T_f32.c ****             p0a = b0 * Xn3a; 
 566:../Dave/Generated/CMSIS_DSP/FilteringFunctions/arm_biquad_cascade_stereo_df2T_f32.c ****             p0b = b0 * Xn3b; 
 567:../Dave/Generated/CMSIS_DSP/FilteringFunctions/arm_biquad_cascade_stereo_df2T_f32.c ****             p3a = a1 * acc2a;
 568:../Dave/Generated/CMSIS_DSP/FilteringFunctions/arm_biquad_cascade_stereo_df2T_f32.c ****             p3b = a1 * acc2b;
 569:../Dave/Generated/CMSIS_DSP/FilteringFunctions/arm_biquad_cascade_stereo_df2T_f32.c ****             p2a = b2 * Xn2a;
 570:../Dave/Generated/CMSIS_DSP/FilteringFunctions/arm_biquad_cascade_stereo_df2T_f32.c ****             p2b = b2 * Xn2b;
 571:../Dave/Generated/CMSIS_DSP/FilteringFunctions/arm_biquad_cascade_stereo_df2T_f32.c ****             A1a = p1a + p3a;
 572:../Dave/Generated/CMSIS_DSP/FilteringFunctions/arm_biquad_cascade_stereo_df2T_f32.c ****             A1b = p1b + p3b;
 573:../Dave/Generated/CMSIS_DSP/FilteringFunctions/arm_biquad_cascade_stereo_df2T_f32.c ****             p4a = a2 * acc2a;
 574:../Dave/Generated/CMSIS_DSP/FilteringFunctions/arm_biquad_cascade_stereo_df2T_f32.c ****             p4b = a2 * acc2b;
 575:../Dave/Generated/CMSIS_DSP/FilteringFunctions/arm_biquad_cascade_stereo_df2T_f32.c ****             d1a = A1a + d2a;
 576:../Dave/Generated/CMSIS_DSP/FilteringFunctions/arm_biquad_cascade_stereo_df2T_f32.c ****             d1b = A1b + d2b;
 577:../Dave/Generated/CMSIS_DSP/FilteringFunctions/arm_biquad_cascade_stereo_df2T_f32.c ****             d2a = p2a + p4a;
 578:../Dave/Generated/CMSIS_DSP/FilteringFunctions/arm_biquad_cascade_stereo_df2T_f32.c ****             d2b = p2b + p4b;
 579:../Dave/Generated/CMSIS_DSP/FilteringFunctions/arm_biquad_cascade_stereo_df2T_f32.c ****             
 580:../Dave/Generated/CMSIS_DSP/FilteringFunctions/arm_biquad_cascade_stereo_df2T_f32.c ****             p1a = b1 * Xn3a;
 581:../Dave/Generated/CMSIS_DSP/FilteringFunctions/arm_biquad_cascade_stereo_df2T_f32.c ****             p1b = b1 * Xn3b;
 582:../Dave/Generated/CMSIS_DSP/FilteringFunctions/arm_biquad_cascade_stereo_df2T_f32.c ****             acc3a = p0a + d1a;
 583:../Dave/Generated/CMSIS_DSP/FilteringFunctions/arm_biquad_cascade_stereo_df2T_f32.c ****             acc3b = p0b + d1b;
 584:../Dave/Generated/CMSIS_DSP/FilteringFunctions/arm_biquad_cascade_stereo_df2T_f32.c ****             p0a = b0 * Xn4a; 
 585:../Dave/Generated/CMSIS_DSP/FilteringFunctions/arm_biquad_cascade_stereo_df2T_f32.c ****             p0b = b0 * Xn4b; 
 586:../Dave/Generated/CMSIS_DSP/FilteringFunctions/arm_biquad_cascade_stereo_df2T_f32.c ****             p3a = a1 * acc3a;
 587:../Dave/Generated/CMSIS_DSP/FilteringFunctions/arm_biquad_cascade_stereo_df2T_f32.c ****             p3b = a1 * acc3b;
 588:../Dave/Generated/CMSIS_DSP/FilteringFunctions/arm_biquad_cascade_stereo_df2T_f32.c ****             p2a = b2 * Xn3a;
 589:../Dave/Generated/CMSIS_DSP/FilteringFunctions/arm_biquad_cascade_stereo_df2T_f32.c ****             p2b = b2 * Xn3b;
 590:../Dave/Generated/CMSIS_DSP/FilteringFunctions/arm_biquad_cascade_stereo_df2T_f32.c ****             A1a = p1a + p3a;
 591:../Dave/Generated/CMSIS_DSP/FilteringFunctions/arm_biquad_cascade_stereo_df2T_f32.c ****             A1b = p1b + p3b;
 592:../Dave/Generated/CMSIS_DSP/FilteringFunctions/arm_biquad_cascade_stereo_df2T_f32.c ****             p4a = a2 * acc3a;
 593:../Dave/Generated/CMSIS_DSP/FilteringFunctions/arm_biquad_cascade_stereo_df2T_f32.c ****             p4b = a2 * acc3b;
 594:../Dave/Generated/CMSIS_DSP/FilteringFunctions/arm_biquad_cascade_stereo_df2T_f32.c ****             d1a = A1a + d2a;
 595:../Dave/Generated/CMSIS_DSP/FilteringFunctions/arm_biquad_cascade_stereo_df2T_f32.c ****             d1b = A1b + d2b;
 596:../Dave/Generated/CMSIS_DSP/FilteringFunctions/arm_biquad_cascade_stereo_df2T_f32.c ****             d2a = p2a + p4a;
 597:../Dave/Generated/CMSIS_DSP/FilteringFunctions/arm_biquad_cascade_stereo_df2T_f32.c ****             d2b = p2b + p4b;
 598:../Dave/Generated/CMSIS_DSP/FilteringFunctions/arm_biquad_cascade_stereo_df2T_f32.c ****             
 599:../Dave/Generated/CMSIS_DSP/FilteringFunctions/arm_biquad_cascade_stereo_df2T_f32.c ****             acc4a = p0a + d1a;
 600:../Dave/Generated/CMSIS_DSP/FilteringFunctions/arm_biquad_cascade_stereo_df2T_f32.c ****             acc4b = p0b + d1b;
 601:../Dave/Generated/CMSIS_DSP/FilteringFunctions/arm_biquad_cascade_stereo_df2T_f32.c ****             p1a = b1 * Xn4a;
 602:../Dave/Generated/CMSIS_DSP/FilteringFunctions/arm_biquad_cascade_stereo_df2T_f32.c ****             p1b = b1 * Xn4b;
 603:../Dave/Generated/CMSIS_DSP/FilteringFunctions/arm_biquad_cascade_stereo_df2T_f32.c ****             p3a = a1 * acc4a;
 604:../Dave/Generated/CMSIS_DSP/FilteringFunctions/arm_biquad_cascade_stereo_df2T_f32.c ****             p3b = a1 * acc4b;
 605:../Dave/Generated/CMSIS_DSP/FilteringFunctions/arm_biquad_cascade_stereo_df2T_f32.c ****             p2a = b2 * Xn4a;
 606:../Dave/Generated/CMSIS_DSP/FilteringFunctions/arm_biquad_cascade_stereo_df2T_f32.c ****             p2b = b2 * Xn4b;
 607:../Dave/Generated/CMSIS_DSP/FilteringFunctions/arm_biquad_cascade_stereo_df2T_f32.c ****             A1a = p1a + p3a;
 608:../Dave/Generated/CMSIS_DSP/FilteringFunctions/arm_biquad_cascade_stereo_df2T_f32.c ****             A1b = p1b + p3b;
 609:../Dave/Generated/CMSIS_DSP/FilteringFunctions/arm_biquad_cascade_stereo_df2T_f32.c ****             p4a = a2 * acc4a;
 610:../Dave/Generated/CMSIS_DSP/FilteringFunctions/arm_biquad_cascade_stereo_df2T_f32.c ****             p4b = a2 * acc4b;
 611:../Dave/Generated/CMSIS_DSP/FilteringFunctions/arm_biquad_cascade_stereo_df2T_f32.c ****             d1a = A1a + d2a;
 612:../Dave/Generated/CMSIS_DSP/FilteringFunctions/arm_biquad_cascade_stereo_df2T_f32.c ****             d1b = A1b + d2b;
 613:../Dave/Generated/CMSIS_DSP/FilteringFunctions/arm_biquad_cascade_stereo_df2T_f32.c ****             d2a = p2a + p4a;
 614:../Dave/Generated/CMSIS_DSP/FilteringFunctions/arm_biquad_cascade_stereo_df2T_f32.c ****             d2b = p2b + p4b;
 615:../Dave/Generated/CMSIS_DSP/FilteringFunctions/arm_biquad_cascade_stereo_df2T_f32.c **** 
 616:../Dave/Generated/CMSIS_DSP/FilteringFunctions/arm_biquad_cascade_stereo_df2T_f32.c ****             pOut[0] = acc1a;	
 617:../Dave/Generated/CMSIS_DSP/FilteringFunctions/arm_biquad_cascade_stereo_df2T_f32.c ****             pOut[1] = acc1b;	
 618:../Dave/Generated/CMSIS_DSP/FilteringFunctions/arm_biquad_cascade_stereo_df2T_f32.c ****             pOut[2] = acc2a;	
 619:../Dave/Generated/CMSIS_DSP/FilteringFunctions/arm_biquad_cascade_stereo_df2T_f32.c ****             pOut[3] = acc2b;
 620:../Dave/Generated/CMSIS_DSP/FilteringFunctions/arm_biquad_cascade_stereo_df2T_f32.c ****             pOut[4] = acc3a;	
 621:../Dave/Generated/CMSIS_DSP/FilteringFunctions/arm_biquad_cascade_stereo_df2T_f32.c ****             pOut[5] = acc3b;	
 622:../Dave/Generated/CMSIS_DSP/FilteringFunctions/arm_biquad_cascade_stereo_df2T_f32.c ****             pOut[6] = acc4a;	
 623:../Dave/Generated/CMSIS_DSP/FilteringFunctions/arm_biquad_cascade_stereo_df2T_f32.c ****             pOut[7] = acc4b;
 624:../Dave/Generated/CMSIS_DSP/FilteringFunctions/arm_biquad_cascade_stereo_df2T_f32.c ****             pOut += 8;
  68              	 .loc 1 624 0
  69 0026 02EB0A0B 	 add fp,r2,r10
 625:../Dave/Generated/CMSIS_DSP/FilteringFunctions/arm_biquad_cascade_stereo_df2T_f32.c ****              
 626:../Dave/Generated/CMSIS_DSP/FilteringFunctions/arm_biquad_cascade_stereo_df2T_f32.c ****             sample--;	       
 627:../Dave/Generated/CMSIS_DSP/FilteringFunctions/arm_biquad_cascade_stereo_df2T_f32.c ****         }
 628:../Dave/Generated/CMSIS_DSP/FilteringFunctions/arm_biquad_cascade_stereo_df2T_f32.c **** 
 629:../Dave/Generated/CMSIS_DSP/FilteringFunctions/arm_biquad_cascade_stereo_df2T_f32.c ****         sample = blockSize & 0x3u;
  70              	 .loc 1 629 0
  71 002a 03F00302 	 and r2,r3,#3
  72              	.L6:
 506:../Dave/Generated/CMSIS_DSP/FilteringFunctions/arm_biquad_cascade_stereo_df2T_f32.c ****         b1 = *pCoeffs++;
  73              	 .loc 1 506 0
  74 002e 56ED054A 	 flds s9,[r6,#-20]
 507:../Dave/Generated/CMSIS_DSP/FilteringFunctions/arm_biquad_cascade_stereo_df2T_f32.c ****         b2 = *pCoeffs++;
  75              	 .loc 1 507 0
  76 0032 16ED045A 	 flds s10,[r6,#-16]
 508:../Dave/Generated/CMSIS_DSP/FilteringFunctions/arm_biquad_cascade_stereo_df2T_f32.c ****         a1 = *pCoeffs++;
  77              	 .loc 1 508 0
  78 0036 16ED036A 	 flds s12,[r6,#-12]
 509:../Dave/Generated/CMSIS_DSP/FilteringFunctions/arm_biquad_cascade_stereo_df2T_f32.c ****         a2 = *pCoeffs++;      
  79              	 .loc 1 509 0
  80 003a 56ED025A 	 flds s11,[r6,#-8]
 510:../Dave/Generated/CMSIS_DSP/FilteringFunctions/arm_biquad_cascade_stereo_df2T_f32.c **** 
  81              	 .loc 1 510 0
  82 003e 56ED016A 	 flds s13,[r6,#-4]
  83 0042 AE46     	 mov lr,r5
 513:../Dave/Generated/CMSIS_DSP/FilteringFunctions/arm_biquad_cascade_stereo_df2T_f32.c ****         d2a = pState[1];
  84              	 .loc 1 513 0
  85 0044 15ED047A 	 flds s14,[r5,#-16]
 514:../Dave/Generated/CMSIS_DSP/FilteringFunctions/arm_biquad_cascade_stereo_df2T_f32.c ****         d1b = pState[2];
  86              	 .loc 1 514 0
  87 0048 55ED033A 	 flds s7,[r5,#-12]
 515:../Dave/Generated/CMSIS_DSP/FilteringFunctions/arm_biquad_cascade_stereo_df2T_f32.c ****         d2b = pState[3];
  88              	 .loc 1 515 0
  89 004c 55ED027A 	 flds s15,[r5,#-8]
 516:../Dave/Generated/CMSIS_DSP/FilteringFunctions/arm_biquad_cascade_stereo_df2T_f32.c **** 
  90              	 .loc 1 516 0
  91 0050 15ED014A 	 flds s8,[r5,#-4]
 523:../Dave/Generated/CMSIS_DSP/FilteringFunctions/arm_biquad_cascade_stereo_df2T_f32.c **** 
  92              	 .loc 1 523 0
  93 0054 B8F1000F 	 cmp r8,#0
  94 0058 00F0BD80 	 beq .L7
  95 005c 01F12000 	 add r0,r1,#32
  96 0060 09F12003 	 add r3,r9,#32
  97 0064 019C     	 ldr r4,[sp,#4]
  98              	.L3:
 530:../Dave/Generated/CMSIS_DSP/FilteringFunctions/arm_biquad_cascade_stereo_df2T_f32.c ****             Xn1b = pIn[1];
  99              	 .loc 1 530 0
 100 0066 50ED080A 	 flds s1,[r0,#-32]
 531:../Dave/Generated/CMSIS_DSP/FilteringFunctions/arm_biquad_cascade_stereo_df2T_f32.c ****             Xn2a = pIn[2];
 101              	 .loc 1 531 0
 102 006a 10ED071A 	 flds s2,[r0,#-28]
 532:../Dave/Generated/CMSIS_DSP/FilteringFunctions/arm_biquad_cascade_stereo_df2T_f32.c ****             Xn2b = pIn[3];
 103              	 .loc 1 532 0
 104 006e 50ED061A 	 flds s3,[r0,#-24]
 533:../Dave/Generated/CMSIS_DSP/FilteringFunctions/arm_biquad_cascade_stereo_df2T_f32.c ****             Xn3a = pIn[4];
 105              	 .loc 1 533 0
 106 0072 10ED052A 	 flds s4,[r0,#-20]
 534:../Dave/Generated/CMSIS_DSP/FilteringFunctions/arm_biquad_cascade_stereo_df2T_f32.c ****             Xn3b = pIn[5];
 107              	 .loc 1 534 0
 108 0076 50ED042A 	 flds s5,[r0,#-16]
 535:../Dave/Generated/CMSIS_DSP/FilteringFunctions/arm_biquad_cascade_stereo_df2T_f32.c ****             Xn4a = pIn[6];
 109              	 .loc 1 535 0
 110 007a 10ED033A 	 flds s6,[r0,#-12]
 536:../Dave/Generated/CMSIS_DSP/FilteringFunctions/arm_biquad_cascade_stereo_df2T_f32.c ****             Xn4b = pIn[7];
 111              	 .loc 1 536 0
 112 007e 10ED02AA 	 flds s20,[r0,#-8]
 537:../Dave/Generated/CMSIS_DSP/FilteringFunctions/arm_biquad_cascade_stereo_df2T_f32.c ****             pIn += 8;     
 113              	 .loc 1 537 0
 114 0082 50ED019A 	 flds s19,[r0,#-4]
 540:../Dave/Generated/CMSIS_DSP/FilteringFunctions/arm_biquad_cascade_stereo_df2T_f32.c ****             p0b = b0 * Xn1b; 
 115              	 .loc 1 540 0
 116 0086 24EEA09A 	 fmuls s18,s9,s1
 544:../Dave/Generated/CMSIS_DSP/FilteringFunctions/arm_biquad_cascade_stereo_df2T_f32.c ****             acc1b = p0b + d1b;
 117              	 .loc 1 544 0
 118 008a 39EE079A 	 fadds s18,s18,s14
 541:../Dave/Generated/CMSIS_DSP/FilteringFunctions/arm_biquad_cascade_stereo_df2T_f32.c ****             p1a = b1 * Xn1a;
 119              	 .loc 1 541 0
 120 008e 64EE818A 	 fmuls s17,s9,s2
 545:../Dave/Generated/CMSIS_DSP/FilteringFunctions/arm_biquad_cascade_stereo_df2T_f32.c ****             p0a = b0 * Xn2a; 
 121              	 .loc 1 545 0
 122 0092 78EEA78A 	 fadds s17,s17,s15
 546:../Dave/Generated/CMSIS_DSP/FilteringFunctions/arm_biquad_cascade_stereo_df2T_f32.c ****             p0b = b0 * Xn2b; 
 123              	 .loc 1 546 0
 124 0096 24EEA17A 	 fmuls s14,s9,s3
 542:../Dave/Generated/CMSIS_DSP/FilteringFunctions/arm_biquad_cascade_stereo_df2T_f32.c ****             p1b = b1 * Xn1b;
 125              	 .loc 1 542 0
 126 009a 65EE207A 	 fmuls s15,s10,s1
 548:../Dave/Generated/CMSIS_DSP/FilteringFunctions/arm_biquad_cascade_stereo_df2T_f32.c ****             p3b = a1 * acc1b;
 127              	 .loc 1 548 0
 128 009e 25EE898A 	 fmuls s16,s11,s18
 552:../Dave/Generated/CMSIS_DSP/FilteringFunctions/arm_biquad_cascade_stereo_df2T_f32.c ****             A1b = p1b + p3b;
 129              	 .loc 1 552 0
 130 00a2 37EE888A 	 fadds s16,s15,s16
 556:../Dave/Generated/CMSIS_DSP/FilteringFunctions/arm_biquad_cascade_stereo_df2T_f32.c ****             d1b = A1b + d2b;
 131              	 .loc 1 556 0
 132 00a6 78EE233A 	 fadds s7,s16,s7
 563:../Dave/Generated/CMSIS_DSP/FilteringFunctions/arm_biquad_cascade_stereo_df2T_f32.c ****             acc2b = p0b + d1b;
 133              	 .loc 1 563 0
 134 00aa 37EE238A 	 fadds s16,s14,s7
 547:../Dave/Generated/CMSIS_DSP/FilteringFunctions/arm_biquad_cascade_stereo_df2T_f32.c ****             p3a = a1 * acc1a;
 135              	 .loc 1 547 0
 136 00ae 24EE827A 	 fmuls s14,s9,s4
 543:../Dave/Generated/CMSIS_DSP/FilteringFunctions/arm_biquad_cascade_stereo_df2T_f32.c ****             acc1a = p0a + d1a;
 137              	 .loc 1 543 0
 138 00b2 65EE017A 	 fmuls s15,s10,s2
 549:../Dave/Generated/CMSIS_DSP/FilteringFunctions/arm_biquad_cascade_stereo_df2T_f32.c ****             p2a = b2 * Xn1a;
 139              	 .loc 1 549 0
 140 00b6 25EEA80A 	 fmuls s0,s11,s17
 553:../Dave/Generated/CMSIS_DSP/FilteringFunctions/arm_biquad_cascade_stereo_df2T_f32.c ****             p4a = a2 * acc1a;
 141              	 .loc 1 553 0
 142 00ba 37EE800A 	 fadds s0,s15,s0
 557:../Dave/Generated/CMSIS_DSP/FilteringFunctions/arm_biquad_cascade_stereo_df2T_f32.c ****             d2a = p2a + p4a;
 143              	 .loc 1 557 0
 144 00be 30EE044A 	 fadds s8,s0,s8
 564:../Dave/Generated/CMSIS_DSP/FilteringFunctions/arm_biquad_cascade_stereo_df2T_f32.c ****             p0a = b0 * Xn3a; 
 145              	 .loc 1 564 0
 146 00c2 37EE040A 	 fadds s0,s14,s8
 565:../Dave/Generated/CMSIS_DSP/FilteringFunctions/arm_biquad_cascade_stereo_df2T_f32.c ****             p0b = b0 * Xn3b; 
 147              	 .loc 1 565 0
 148 00c6 24EEA27A 	 fmuls s14,s9,s5
 561:../Dave/Generated/CMSIS_DSP/FilteringFunctions/arm_biquad_cascade_stereo_df2T_f32.c ****             p1b = b1 * Xn2b;
 149              	 .loc 1 561 0
 150 00ca 65EE217A 	 fmuls s15,s10,s3
 567:../Dave/Generated/CMSIS_DSP/FilteringFunctions/arm_biquad_cascade_stereo_df2T_f32.c ****             p3b = a1 * acc2b;
 151              	 .loc 1 567 0
 152 00ce 25EE884A 	 fmuls s8,s11,s16
 571:../Dave/Generated/CMSIS_DSP/FilteringFunctions/arm_biquad_cascade_stereo_df2T_f32.c ****             A1b = p1b + p3b;
 153              	 .loc 1 571 0
 154 00d2 77EE847A 	 fadds s15,s15,s8
 550:../Dave/Generated/CMSIS_DSP/FilteringFunctions/arm_biquad_cascade_stereo_df2T_f32.c ****             p2b = b2 * Xn1b;
 155              	 .loc 1 550 0
 156 00d6 66EE200A 	 fmuls s1,s12,s1
 554:../Dave/Generated/CMSIS_DSP/FilteringFunctions/arm_biquad_cascade_stereo_df2T_f32.c ****             p4b = a2 * acc1b;
 157              	 .loc 1 554 0
 158 00da 26EE894A 	 fmuls s8,s13,s18
 558:../Dave/Generated/CMSIS_DSP/FilteringFunctions/arm_biquad_cascade_stereo_df2T_f32.c ****             d2b = p2b + p4b;
 159              	 .loc 1 558 0
 160 00de 70EE840A 	 fadds s1,s1,s8
 575:../Dave/Generated/CMSIS_DSP/FilteringFunctions/arm_biquad_cascade_stereo_df2T_f32.c ****             d1b = A1b + d2b;
 161              	 .loc 1 575 0
 162 00e2 77EEA00A 	 fadds s1,s15,s1
 582:../Dave/Generated/CMSIS_DSP/FilteringFunctions/arm_biquad_cascade_stereo_df2T_f32.c ****             acc3b = p0b + d1b;
 163              	 .loc 1 582 0
 164 00e6 77EE200A 	 fadds s1,s14,s1
 566:../Dave/Generated/CMSIS_DSP/FilteringFunctions/arm_biquad_cascade_stereo_df2T_f32.c ****             p3a = a1 * acc2a;
 165              	 .loc 1 566 0
 166 00ea 24EE837A 	 fmuls s14,s9,s6
 562:../Dave/Generated/CMSIS_DSP/FilteringFunctions/arm_biquad_cascade_stereo_df2T_f32.c ****             acc2a = p0a + d1a;
 167              	 .loc 1 562 0
 168 00ee 65EE027A 	 fmuls s15,s10,s4
 568:../Dave/Generated/CMSIS_DSP/FilteringFunctions/arm_biquad_cascade_stereo_df2T_f32.c ****             p2a = b2 * Xn2a;
 169              	 .loc 1 568 0
 170 00f2 25EE804A 	 fmuls s8,s11,s0
 572:../Dave/Generated/CMSIS_DSP/FilteringFunctions/arm_biquad_cascade_stereo_df2T_f32.c ****             p4a = a2 * acc2a;
 171              	 .loc 1 572 0
 172 00f6 77EE847A 	 fadds s15,s15,s8
 551:../Dave/Generated/CMSIS_DSP/FilteringFunctions/arm_biquad_cascade_stereo_df2T_f32.c ****             A1a = p1a + p3a;
 173              	 .loc 1 551 0
 174 00fa 26EE011A 	 fmuls s2,s12,s2
 555:../Dave/Generated/CMSIS_DSP/FilteringFunctions/arm_biquad_cascade_stereo_df2T_f32.c ****             d1a = A1a + d2a;
 175              	 .loc 1 555 0
 176 00fe 26EEA84A 	 fmuls s8,s13,s17
 559:../Dave/Generated/CMSIS_DSP/FilteringFunctions/arm_biquad_cascade_stereo_df2T_f32.c ****             
 177              	 .loc 1 559 0
 178 0102 31EE041A 	 fadds s2,s2,s8
 576:../Dave/Generated/CMSIS_DSP/FilteringFunctions/arm_biquad_cascade_stereo_df2T_f32.c ****             d2a = p2a + p4a;
 179              	 .loc 1 576 0
 180 0106 37EE811A 	 fadds s2,s15,s2
 583:../Dave/Generated/CMSIS_DSP/FilteringFunctions/arm_biquad_cascade_stereo_df2T_f32.c ****             p0a = b0 * Xn4a; 
 181              	 .loc 1 583 0
 182 010a 37EE011A 	 fadds s2,s14,s2
 584:../Dave/Generated/CMSIS_DSP/FilteringFunctions/arm_biquad_cascade_stereo_df2T_f32.c ****             p0b = b0 * Xn4b; 
 183              	 .loc 1 584 0
 184 010e 24EE8A7A 	 fmuls s14,s9,s20
 580:../Dave/Generated/CMSIS_DSP/FilteringFunctions/arm_biquad_cascade_stereo_df2T_f32.c ****             p1b = b1 * Xn3b;
 185              	 .loc 1 580 0
 186 0112 65EE227A 	 fmuls s15,s10,s5
 586:../Dave/Generated/CMSIS_DSP/FilteringFunctions/arm_biquad_cascade_stereo_df2T_f32.c ****             p3b = a1 * acc3b;
 187              	 .loc 1 586 0
 188 0116 25EEA04A 	 fmuls s8,s11,s1
 590:../Dave/Generated/CMSIS_DSP/FilteringFunctions/arm_biquad_cascade_stereo_df2T_f32.c ****             A1b = p1b + p3b;
 189              	 .loc 1 590 0
 190 011a 77EE847A 	 fadds s15,s15,s8
 569:../Dave/Generated/CMSIS_DSP/FilteringFunctions/arm_biquad_cascade_stereo_df2T_f32.c ****             p2b = b2 * Xn2b;
 191              	 .loc 1 569 0
 192 011e 66EE211A 	 fmuls s3,s12,s3
 573:../Dave/Generated/CMSIS_DSP/FilteringFunctions/arm_biquad_cascade_stereo_df2T_f32.c ****             p4b = a2 * acc2b;
 193              	 .loc 1 573 0
 194 0122 26EE884A 	 fmuls s8,s13,s16
 577:../Dave/Generated/CMSIS_DSP/FilteringFunctions/arm_biquad_cascade_stereo_df2T_f32.c ****             d2b = p2b + p4b;
 195              	 .loc 1 577 0
 196 0126 71EE841A 	 fadds s3,s3,s8
 594:../Dave/Generated/CMSIS_DSP/FilteringFunctions/arm_biquad_cascade_stereo_df2T_f32.c ****             d1b = A1b + d2b;
 197              	 .loc 1 594 0
 198 012a 77EEA11A 	 fadds s3,s15,s3
 599:../Dave/Generated/CMSIS_DSP/FilteringFunctions/arm_biquad_cascade_stereo_df2T_f32.c ****             acc4b = p0b + d1b;
 199              	 .loc 1 599 0
 200 012e 77EE211A 	 fadds s3,s14,s3
 585:../Dave/Generated/CMSIS_DSP/FilteringFunctions/arm_biquad_cascade_stereo_df2T_f32.c ****             p3a = a1 * acc3a;
 201              	 .loc 1 585 0
 202 0132 24EEA97A 	 fmuls s14,s9,s19
 581:../Dave/Generated/CMSIS_DSP/FilteringFunctions/arm_biquad_cascade_stereo_df2T_f32.c ****             acc3a = p0a + d1a;
 203              	 .loc 1 581 0
 204 0136 65EE037A 	 fmuls s15,s10,s6
 587:../Dave/Generated/CMSIS_DSP/FilteringFunctions/arm_biquad_cascade_stereo_df2T_f32.c ****             p2a = b2 * Xn3a;
 205              	 .loc 1 587 0
 206 013a 25EE814A 	 fmuls s8,s11,s2
 591:../Dave/Generated/CMSIS_DSP/FilteringFunctions/arm_biquad_cascade_stereo_df2T_f32.c ****             p4a = a2 * acc3a;
 207              	 .loc 1 591 0
 208 013e 77EE847A 	 fadds s15,s15,s8
 570:../Dave/Generated/CMSIS_DSP/FilteringFunctions/arm_biquad_cascade_stereo_df2T_f32.c ****             A1a = p1a + p3a;
 209              	 .loc 1 570 0
 210 0142 26EE022A 	 fmuls s4,s12,s4
 574:../Dave/Generated/CMSIS_DSP/FilteringFunctions/arm_biquad_cascade_stereo_df2T_f32.c ****             d1a = A1a + d2a;
 211              	 .loc 1 574 0
 212 0146 26EE804A 	 fmuls s8,s13,s0
 578:../Dave/Generated/CMSIS_DSP/FilteringFunctions/arm_biquad_cascade_stereo_df2T_f32.c ****             
 213              	 .loc 1 578 0
 214 014a 32EE042A 	 fadds s4,s4,s8
 595:../Dave/Generated/CMSIS_DSP/FilteringFunctions/arm_biquad_cascade_stereo_df2T_f32.c ****             d2a = p2a + p4a;
 215              	 .loc 1 595 0
 216 014e 37EE822A 	 fadds s4,s15,s4
 600:../Dave/Generated/CMSIS_DSP/FilteringFunctions/arm_biquad_cascade_stereo_df2T_f32.c ****             p1a = b1 * Xn4a;
 217              	 .loc 1 600 0
 218 0152 37EE022A 	 fadds s4,s14,s4
 601:../Dave/Generated/CMSIS_DSP/FilteringFunctions/arm_biquad_cascade_stereo_df2T_f32.c ****             p1b = b1 * Xn4b;
 219              	 .loc 1 601 0
 220 0156 65EE0A7A 	 fmuls s15,s10,s20
 603:../Dave/Generated/CMSIS_DSP/FilteringFunctions/arm_biquad_cascade_stereo_df2T_f32.c ****             p3b = a1 * acc4b;
 221              	 .loc 1 603 0
 222 015a 25EEA17A 	 fmuls s14,s11,s3
 607:../Dave/Generated/CMSIS_DSP/FilteringFunctions/arm_biquad_cascade_stereo_df2T_f32.c ****             A1b = p1b + p3b;
 223              	 .loc 1 607 0
 224 015e 77EE877A 	 fadds s15,s15,s14
 588:../Dave/Generated/CMSIS_DSP/FilteringFunctions/arm_biquad_cascade_stereo_df2T_f32.c ****             p2b = b2 * Xn3b;
 225              	 .loc 1 588 0
 226 0162 66EE222A 	 fmuls s5,s12,s5
 592:../Dave/Generated/CMSIS_DSP/FilteringFunctions/arm_biquad_cascade_stereo_df2T_f32.c ****             p4b = a2 * acc3b;
 227              	 .loc 1 592 0
 228 0166 26EEA07A 	 fmuls s14,s13,s1
 596:../Dave/Generated/CMSIS_DSP/FilteringFunctions/arm_biquad_cascade_stereo_df2T_f32.c ****             d2b = p2b + p4b;
 229              	 .loc 1 596 0
 230 016a 72EE872A 	 fadds s5,s5,s14
 611:../Dave/Generated/CMSIS_DSP/FilteringFunctions/arm_biquad_cascade_stereo_df2T_f32.c ****             d1b = A1b + d2b;
 231              	 .loc 1 611 0
 232 016e 37EEA27A 	 fadds s14,s15,s5
 602:../Dave/Generated/CMSIS_DSP/FilteringFunctions/arm_biquad_cascade_stereo_df2T_f32.c ****             p3a = a1 * acc4a;
 233              	 .loc 1 602 0
 234 0172 65EE297A 	 fmuls s15,s10,s19
 604:../Dave/Generated/CMSIS_DSP/FilteringFunctions/arm_biquad_cascade_stereo_df2T_f32.c ****             p2a = b2 * Xn4a;
 235              	 .loc 1 604 0
 236 0176 25EE824A 	 fmuls s8,s11,s4
 608:../Dave/Generated/CMSIS_DSP/FilteringFunctions/arm_biquad_cascade_stereo_df2T_f32.c ****             p4a = a2 * acc4a;
 237              	 .loc 1 608 0
 238 017a 37EE844A 	 fadds s8,s15,s8
 589:../Dave/Generated/CMSIS_DSP/FilteringFunctions/arm_biquad_cascade_stereo_df2T_f32.c ****             A1a = p1a + p3a;
 239              	 .loc 1 589 0
 240 017e 26EE033A 	 fmuls s6,s12,s6
 593:../Dave/Generated/CMSIS_DSP/FilteringFunctions/arm_biquad_cascade_stereo_df2T_f32.c ****             d1a = A1a + d2a;
 241              	 .loc 1 593 0
 242 0182 66EE817A 	 fmuls s15,s13,s2
 597:../Dave/Generated/CMSIS_DSP/FilteringFunctions/arm_biquad_cascade_stereo_df2T_f32.c ****             
 243              	 .loc 1 597 0
 244 0186 33EE273A 	 fadds s6,s6,s15
 612:../Dave/Generated/CMSIS_DSP/FilteringFunctions/arm_biquad_cascade_stereo_df2T_f32.c ****             d2a = p2a + p4a;
 245              	 .loc 1 612 0
 246 018a 74EE037A 	 fadds s15,s8,s6
 605:../Dave/Generated/CMSIS_DSP/FilteringFunctions/arm_biquad_cascade_stereo_df2T_f32.c ****             p2b = b2 * Xn4b;
 247              	 .loc 1 605 0
 248 018e 26EE0AAA 	 fmuls s20,s12,s20
 609:../Dave/Generated/CMSIS_DSP/FilteringFunctions/arm_biquad_cascade_stereo_df2T_f32.c ****             p4b = a2 * acc4b;
 249              	 .loc 1 609 0
 250 0192 66EEA13A 	 fmuls s7,s13,s3
 613:../Dave/Generated/CMSIS_DSP/FilteringFunctions/arm_biquad_cascade_stereo_df2T_f32.c ****             d2b = p2b + p4b;
 251              	 .loc 1 613 0
 252 0196 7AEE233A 	 fadds s7,s20,s7
 606:../Dave/Generated/CMSIS_DSP/FilteringFunctions/arm_biquad_cascade_stereo_df2T_f32.c ****             A1a = p1a + p3a;
 253              	 .loc 1 606 0
 254 019a 66EE299A 	 fmuls s19,s12,s19
 610:../Dave/Generated/CMSIS_DSP/FilteringFunctions/arm_biquad_cascade_stereo_df2T_f32.c ****             d1a = A1a + d2a;
 255              	 .loc 1 610 0
 256 019e 26EE824A 	 fmuls s8,s13,s4
 614:../Dave/Generated/CMSIS_DSP/FilteringFunctions/arm_biquad_cascade_stereo_df2T_f32.c **** 
 257              	 .loc 1 614 0
 258 01a2 39EE844A 	 fadds s8,s19,s8
 616:../Dave/Generated/CMSIS_DSP/FilteringFunctions/arm_biquad_cascade_stereo_df2T_f32.c ****             pOut[1] = acc1b;	
 259              	 .loc 1 616 0
 260 01a6 03ED089A 	 fsts s18,[r3,#-32]
 617:../Dave/Generated/CMSIS_DSP/FilteringFunctions/arm_biquad_cascade_stereo_df2T_f32.c ****             pOut[2] = acc2a;	
 261              	 .loc 1 617 0
 262 01aa 43ED078A 	 fsts s17,[r3,#-28]
 618:../Dave/Generated/CMSIS_DSP/FilteringFunctions/arm_biquad_cascade_stereo_df2T_f32.c ****             pOut[3] = acc2b;
 263              	 .loc 1 618 0
 264 01ae 03ED068A 	 fsts s16,[r3,#-24]
 619:../Dave/Generated/CMSIS_DSP/FilteringFunctions/arm_biquad_cascade_stereo_df2T_f32.c ****             pOut[4] = acc3a;	
 265              	 .loc 1 619 0
 266 01b2 03ED050A 	 fsts s0,[r3,#-20]
 620:../Dave/Generated/CMSIS_DSP/FilteringFunctions/arm_biquad_cascade_stereo_df2T_f32.c ****             pOut[5] = acc3b;	
 267              	 .loc 1 620 0
 268 01b6 43ED040A 	 fsts s1,[r3,#-16]
 621:../Dave/Generated/CMSIS_DSP/FilteringFunctions/arm_biquad_cascade_stereo_df2T_f32.c ****             pOut[6] = acc4a;	
 269              	 .loc 1 621 0
 270 01ba 03ED031A 	 fsts s2,[r3,#-12]
 622:../Dave/Generated/CMSIS_DSP/FilteringFunctions/arm_biquad_cascade_stereo_df2T_f32.c ****             pOut[7] = acc4b;
 271              	 .loc 1 622 0
 272 01be 43ED021A 	 fsts s3,[r3,#-8]
 623:../Dave/Generated/CMSIS_DSP/FilteringFunctions/arm_biquad_cascade_stereo_df2T_f32.c ****             pOut += 8;
 273              	 .loc 1 623 0
 274 01c2 03ED012A 	 fsts s4,[r3,#-4]
 275 01c6 2030     	 adds r0,r0,#32
 276 01c8 2033     	 adds r3,r3,#32
 523:../Dave/Generated/CMSIS_DSP/FilteringFunctions/arm_biquad_cascade_stereo_df2T_f32.c **** 
 277              	 .loc 1 523 0
 278 01ca 013C     	 subs r4,r4,#1
 279 01cc 7FF44BAF 	 bne .L3
 280 01d0 5144     	 add r1,r1,r10
 624:../Dave/Generated/CMSIS_DSP/FilteringFunctions/arm_biquad_cascade_stereo_df2T_f32.c ****              
 281              	 .loc 1 624 0
 282 01d2 5B46     	 mov r3,fp
 283 01d4 00E0     	 b .L2
 284              	.L7:
 523:../Dave/Generated/CMSIS_DSP/FilteringFunctions/arm_biquad_cascade_stereo_df2T_f32.c **** 
 285              	 .loc 1 523 0
 286 01d6 009B     	 ldr r3,[sp]
 287              	.L2:
 288              	 .loc 1 629 0
 289 01d8 1046     	 mov r0,r2
 630:../Dave/Generated/CMSIS_DSP/FilteringFunctions/arm_biquad_cascade_stereo_df2T_f32.c ****         while(sample > 0u) {
 290              	 .loc 1 630 0
 291 01da 8AB3     	 cbz r2,.L4
 292 01dc 0831     	 adds r1,r1,#8
 293 01de 0833     	 adds r3,r3,#8
 294              	.L5:
 631:../Dave/Generated/CMSIS_DSP/FilteringFunctions/arm_biquad_cascade_stereo_df2T_f32.c ****             Xn1a = *pIn++;
 295              	 .loc 1 631 0
 296 01e0 51ED021A 	 flds s3,[r1,#-8]
 632:../Dave/Generated/CMSIS_DSP/FilteringFunctions/arm_biquad_cascade_stereo_df2T_f32.c ****             Xn1b = *pIn++;
 297              	 .loc 1 632 0
 298 01e4 11ED012A 	 flds s4,[r1,#-4]
 633:../Dave/Generated/CMSIS_DSP/FilteringFunctions/arm_biquad_cascade_stereo_df2T_f32.c **** 
 634:../Dave/Generated/CMSIS_DSP/FilteringFunctions/arm_biquad_cascade_stereo_df2T_f32.c ****             p0a = b0 * Xn1a; 
 299              	 .loc 1 634 0
 300 01e8 64EEA12A 	 fmuls s5,s9,s3
 635:../Dave/Generated/CMSIS_DSP/FilteringFunctions/arm_biquad_cascade_stereo_df2T_f32.c ****             p0b = b0 * Xn1b; 
 636:../Dave/Generated/CMSIS_DSP/FilteringFunctions/arm_biquad_cascade_stereo_df2T_f32.c ****             p1a = b1 * Xn1a;
 637:../Dave/Generated/CMSIS_DSP/FilteringFunctions/arm_biquad_cascade_stereo_df2T_f32.c ****             p1b = b1 * Xn1b;
 638:../Dave/Generated/CMSIS_DSP/FilteringFunctions/arm_biquad_cascade_stereo_df2T_f32.c ****             acc1a = p0a + d1a;
 301              	 .loc 1 638 0
 302 01ec 72EE872A 	 fadds s5,s5,s14
 635:../Dave/Generated/CMSIS_DSP/FilteringFunctions/arm_biquad_cascade_stereo_df2T_f32.c ****             p0b = b0 * Xn1b; 
 303              	 .loc 1 635 0
 304 01f0 24EE823A 	 fmuls s6,s9,s4
 639:../Dave/Generated/CMSIS_DSP/FilteringFunctions/arm_biquad_cascade_stereo_df2T_f32.c ****             acc1b = p0b + d1b;
 305              	 .loc 1 639 0
 306 01f4 33EE273A 	 fadds s6,s6,s15
 636:../Dave/Generated/CMSIS_DSP/FilteringFunctions/arm_biquad_cascade_stereo_df2T_f32.c ****             p1b = b1 * Xn1b;
 307              	 .loc 1 636 0
 308 01f8 65EE217A 	 fmuls s15,s10,s3
 640:../Dave/Generated/CMSIS_DSP/FilteringFunctions/arm_biquad_cascade_stereo_df2T_f32.c ****             p3a = a1 * acc1a;
 309              	 .loc 1 640 0
 310 01fc 25EEA27A 	 fmuls s14,s11,s5
 641:../Dave/Generated/CMSIS_DSP/FilteringFunctions/arm_biquad_cascade_stereo_df2T_f32.c ****             p3b = a1 * acc1b;
 642:../Dave/Generated/CMSIS_DSP/FilteringFunctions/arm_biquad_cascade_stereo_df2T_f32.c ****             p2a = b2 * Xn1a;
 643:../Dave/Generated/CMSIS_DSP/FilteringFunctions/arm_biquad_cascade_stereo_df2T_f32.c ****             p2b = b2 * Xn1b;
 644:../Dave/Generated/CMSIS_DSP/FilteringFunctions/arm_biquad_cascade_stereo_df2T_f32.c ****             A1a = p1a + p3a;
 311              	 .loc 1 644 0
 312 0200 37EE877A 	 fadds s14,s15,s14
 645:../Dave/Generated/CMSIS_DSP/FilteringFunctions/arm_biquad_cascade_stereo_df2T_f32.c ****             A1b = p1b + p3b;
 646:../Dave/Generated/CMSIS_DSP/FilteringFunctions/arm_biquad_cascade_stereo_df2T_f32.c ****             p4a = a2 * acc1a;
 647:../Dave/Generated/CMSIS_DSP/FilteringFunctions/arm_biquad_cascade_stereo_df2T_f32.c ****             p4b = a2 * acc1b;
 648:../Dave/Generated/CMSIS_DSP/FilteringFunctions/arm_biquad_cascade_stereo_df2T_f32.c ****             d1a = A1a + d2a;
 313              	 .loc 1 648 0
 314 0204 37EE237A 	 fadds s14,s14,s7
 637:../Dave/Generated/CMSIS_DSP/FilteringFunctions/arm_biquad_cascade_stereo_df2T_f32.c ****             acc1a = p0a + d1a;
 315              	 .loc 1 637 0
 316 0208 65EE027A 	 fmuls s15,s10,s4
 641:../Dave/Generated/CMSIS_DSP/FilteringFunctions/arm_biquad_cascade_stereo_df2T_f32.c ****             p3b = a1 * acc1b;
 317              	 .loc 1 641 0
 318 020c 65EE833A 	 fmuls s7,s11,s6
 645:../Dave/Generated/CMSIS_DSP/FilteringFunctions/arm_biquad_cascade_stereo_df2T_f32.c ****             A1b = p1b + p3b;
 319              	 .loc 1 645 0
 320 0210 77EEA37A 	 fadds s15,s15,s7
 649:../Dave/Generated/CMSIS_DSP/FilteringFunctions/arm_biquad_cascade_stereo_df2T_f32.c ****             d1b = A1b + d2b;
 321              	 .loc 1 649 0
 322 0214 77EE847A 	 fadds s15,s15,s8
 642:../Dave/Generated/CMSIS_DSP/FilteringFunctions/arm_biquad_cascade_stereo_df2T_f32.c ****             p2b = b2 * Xn1b;
 323              	 .loc 1 642 0
 324 0218 66EE211A 	 fmuls s3,s12,s3
 646:../Dave/Generated/CMSIS_DSP/FilteringFunctions/arm_biquad_cascade_stereo_df2T_f32.c ****             p4b = a2 * acc1b;
 325              	 .loc 1 646 0
 326 021c 66EEA23A 	 fmuls s7,s13,s5
 650:../Dave/Generated/CMSIS_DSP/FilteringFunctions/arm_biquad_cascade_stereo_df2T_f32.c ****             d2a = p2a + p4a;
 327              	 .loc 1 650 0
 328 0220 71EEA33A 	 fadds s7,s3,s7
 643:../Dave/Generated/CMSIS_DSP/FilteringFunctions/arm_biquad_cascade_stereo_df2T_f32.c ****             A1a = p1a + p3a;
 329              	 .loc 1 643 0
 330 0224 26EE022A 	 fmuls s4,s12,s4
 647:../Dave/Generated/CMSIS_DSP/FilteringFunctions/arm_biquad_cascade_stereo_df2T_f32.c ****             d1a = A1a + d2a;
 331              	 .loc 1 647 0
 332 0228 26EE834A 	 fmuls s8,s13,s6
 651:../Dave/Generated/CMSIS_DSP/FilteringFunctions/arm_biquad_cascade_stereo_df2T_f32.c ****             d2b = p2b + p4b;
 333              	 .loc 1 651 0
 334 022c 32EE044A 	 fadds s8,s4,s8
 652:../Dave/Generated/CMSIS_DSP/FilteringFunctions/arm_biquad_cascade_stereo_df2T_f32.c **** 
 653:../Dave/Generated/CMSIS_DSP/FilteringFunctions/arm_biquad_cascade_stereo_df2T_f32.c ****             *pOut++ = acc1a;
 335              	 .loc 1 653 0
 336 0230 43ED022A 	 fsts s5,[r3,#-8]
 654:../Dave/Generated/CMSIS_DSP/FilteringFunctions/arm_biquad_cascade_stereo_df2T_f32.c ****             *pOut++ = acc1b;
 337              	 .loc 1 654 0
 338 0234 03ED013A 	 fsts s6,[r3,#-4]
 339 0238 0831     	 adds r1,r1,#8
 340 023a 0833     	 adds r3,r3,#8
 630:../Dave/Generated/CMSIS_DSP/FilteringFunctions/arm_biquad_cascade_stereo_df2T_f32.c ****             Xn1a = *pIn++;
 341              	 .loc 1 630 0
 342 023c 0138     	 subs r0,r0,#1
 343 023e CFD1     	 bne .L5
 344              	.L4:
 655:../Dave/Generated/CMSIS_DSP/FilteringFunctions/arm_biquad_cascade_stereo_df2T_f32.c **** 
 656:../Dave/Generated/CMSIS_DSP/FilteringFunctions/arm_biquad_cascade_stereo_df2T_f32.c ****             sample--;	       
 657:../Dave/Generated/CMSIS_DSP/FilteringFunctions/arm_biquad_cascade_stereo_df2T_f32.c ****         }
 658:../Dave/Generated/CMSIS_DSP/FilteringFunctions/arm_biquad_cascade_stereo_df2T_f32.c **** 
 659:../Dave/Generated/CMSIS_DSP/FilteringFunctions/arm_biquad_cascade_stereo_df2T_f32.c ****         /* Store the updated state variables back into the state array */
 660:../Dave/Generated/CMSIS_DSP/FilteringFunctions/arm_biquad_cascade_stereo_df2T_f32.c ****         *pState++ = d1a;
 345              	 .loc 1 660 0
 346 0240 0EED047A 	 fsts s14,[lr,#-16]
 661:../Dave/Generated/CMSIS_DSP/FilteringFunctions/arm_biquad_cascade_stereo_df2T_f32.c ****         *pState++ = d2a;
 347              	 .loc 1 661 0
 348 0244 4EED033A 	 fsts s7,[lr,#-12]
 662:../Dave/Generated/CMSIS_DSP/FilteringFunctions/arm_biquad_cascade_stereo_df2T_f32.c ****         *pState++ = d1b;
 349              	 .loc 1 662 0
 350 0248 4EED027A 	 fsts s15,[lr,#-8]
 663:../Dave/Generated/CMSIS_DSP/FilteringFunctions/arm_biquad_cascade_stereo_df2T_f32.c ****         *pState++ = d2b;
 351              	 .loc 1 663 0
 352 024c 0EED014A 	 fsts s8,[lr,#-4]
 353 0250 1436     	 adds r6,r6,#20
 354 0252 1035     	 adds r5,r5,#16
 664:../Dave/Generated/CMSIS_DSP/FilteringFunctions/arm_biquad_cascade_stereo_df2T_f32.c **** 
 665:../Dave/Generated/CMSIS_DSP/FilteringFunctions/arm_biquad_cascade_stereo_df2T_f32.c ****         /* The current stage input is given as the output to the next stage */
 666:../Dave/Generated/CMSIS_DSP/FilteringFunctions/arm_biquad_cascade_stereo_df2T_f32.c ****         pIn = pDst;
 355              	 .loc 1 666 0
 356 0254 0099     	 ldr r1,[sp]
 667:../Dave/Generated/CMSIS_DSP/FilteringFunctions/arm_biquad_cascade_stereo_df2T_f32.c **** 
 668:../Dave/Generated/CMSIS_DSP/FilteringFunctions/arm_biquad_cascade_stereo_df2T_f32.c ****         /*Reset the output working pointer */
 669:../Dave/Generated/CMSIS_DSP/FilteringFunctions/arm_biquad_cascade_stereo_df2T_f32.c ****         pOut = pDst;
 670:../Dave/Generated/CMSIS_DSP/FilteringFunctions/arm_biquad_cascade_stereo_df2T_f32.c **** 
 671:../Dave/Generated/CMSIS_DSP/FilteringFunctions/arm_biquad_cascade_stereo_df2T_f32.c ****         /* decrement the loop counter */
 672:../Dave/Generated/CMSIS_DSP/FilteringFunctions/arm_biquad_cascade_stereo_df2T_f32.c ****         stage--;
 673:../Dave/Generated/CMSIS_DSP/FilteringFunctions/arm_biquad_cascade_stereo_df2T_f32.c **** 
 674:../Dave/Generated/CMSIS_DSP/FilteringFunctions/arm_biquad_cascade_stereo_df2T_f32.c ****     } while(stage > 0u);
 357              	 .loc 1 674 0
 358 0256 BCF1010C 	 subs ip,ip,#1
 359 025a 7FF4E8AE 	 bne .L6
 675:../Dave/Generated/CMSIS_DSP/FilteringFunctions/arm_biquad_cascade_stereo_df2T_f32.c **** 
 676:../Dave/Generated/CMSIS_DSP/FilteringFunctions/arm_biquad_cascade_stereo_df2T_f32.c **** #endif 
 677:../Dave/Generated/CMSIS_DSP/FilteringFunctions/arm_biquad_cascade_stereo_df2T_f32.c **** 
 678:../Dave/Generated/CMSIS_DSP/FilteringFunctions/arm_biquad_cascade_stereo_df2T_f32.c **** }
 360              	 .loc 1 678 0
 361 025e 02B0     	 add sp,sp,#8
 362              	.LCFI3:
 363              	 .cfi_def_cfa_offset 56
 364              	 
 365 0260 BDEC068B 	 fldmfdd sp!,{d8-d10}
 366              	.LCFI4:
 367              	 .cfi_restore 84
 368              	 .cfi_restore 85
 369              	 .cfi_restore 82
 370              	 .cfi_restore 83
 371              	 .cfi_restore 80
 372              	 .cfi_restore 81
 373              	 .cfi_def_cfa_offset 32
 374 0264 BDE8708F 	 pop {r4,r5,r6,r8,r9,r10,fp,pc}
 375              	 .cfi_endproc
 376              	.LFE139:
 378              	 .text
 379              	.Letext0:
 380              	 .file 2 "c:\\davev4\\dave-4.1.2\\eclipse\\arm-gcc-49\\arm-none-eabi\\include\\machine\\_default_types.h"
 381              	 .file 3 "c:\\davev4\\dave-4.1.2\\eclipse\\arm-gcc-49\\arm-none-eabi\\include\\stdint.h"
 382              	 .file 4 "C:\\Workspaces\\DAVE-4.1\\Flightcontroller_PWM_CopterRocks_Working\\Dave\\Generated/CMSIS_DSP/arm_math.h"