   1              	 .syntax unified
   2              	 .cpu cortex-m4
   3              	 .eabi_attribute 27,3
   4              	 .fpu fpv4-sp-d16
   5              	 .eabi_attribute 20,1
   6              	 .eabi_attribute 21,1
   7              	 .eabi_attribute 23,3
   8              	 .eabi_attribute 24,1
   9              	 .eabi_attribute 25,1
  10              	 .eabi_attribute 26,1
  11              	 .eabi_attribute 30,6
  12              	 .eabi_attribute 34,1
  13              	 .eabi_attribute 18,4
  14              	 .thumb
  15              	 .file "arm_conv_q7.c"
  16              	 .text
  17              	.Ltext0:
  18              	 .cfi_sections .debug_frame
  19              	 .section .text.arm_conv_q7,"ax",%progbits
  20              	 .align 2
  21              	 .global arm_conv_q7
  22              	 .thumb
  23              	 .thumb_func
  25              	arm_conv_q7:
  26              	.LFB139:
  27              	 .file 1 "../Dave/Generated/CMSIS_DSP/FilteringFunctions/arm_conv_q7.c"
   1:../Dave/Generated/CMSIS_DSP/FilteringFunctions/arm_conv_q7.c **** /* ----------------------------------------------------------------------   
   2:../Dave/Generated/CMSIS_DSP/FilteringFunctions/arm_conv_q7.c **** * Copyright (C) 2010-2014 ARM Limited. All rights reserved.   
   3:../Dave/Generated/CMSIS_DSP/FilteringFunctions/arm_conv_q7.c **** *   
   4:../Dave/Generated/CMSIS_DSP/FilteringFunctions/arm_conv_q7.c **** * $Date:        12. March 2014
   5:../Dave/Generated/CMSIS_DSP/FilteringFunctions/arm_conv_q7.c **** * $Revision: 	V1.4.4
   6:../Dave/Generated/CMSIS_DSP/FilteringFunctions/arm_conv_q7.c **** *   
   7:../Dave/Generated/CMSIS_DSP/FilteringFunctions/arm_conv_q7.c **** * Project: 	    CMSIS DSP Library   
   8:../Dave/Generated/CMSIS_DSP/FilteringFunctions/arm_conv_q7.c **** * Title:		arm_conv_q7.c   
   9:../Dave/Generated/CMSIS_DSP/FilteringFunctions/arm_conv_q7.c **** *   
  10:../Dave/Generated/CMSIS_DSP/FilteringFunctions/arm_conv_q7.c **** * Description:	Convolution of Q7 sequences. 
  11:../Dave/Generated/CMSIS_DSP/FilteringFunctions/arm_conv_q7.c **** *   
  12:../Dave/Generated/CMSIS_DSP/FilteringFunctions/arm_conv_q7.c **** * Target Processor: Cortex-M4/Cortex-M3/Cortex-M0
  13:../Dave/Generated/CMSIS_DSP/FilteringFunctions/arm_conv_q7.c **** *  
  14:../Dave/Generated/CMSIS_DSP/FilteringFunctions/arm_conv_q7.c **** * Redistribution and use in source and binary forms, with or without 
  15:../Dave/Generated/CMSIS_DSP/FilteringFunctions/arm_conv_q7.c **** * modification, are permitted provided that the following conditions
  16:../Dave/Generated/CMSIS_DSP/FilteringFunctions/arm_conv_q7.c **** * are met:
  17:../Dave/Generated/CMSIS_DSP/FilteringFunctions/arm_conv_q7.c **** *   - Redistributions of source code must retain the above copyright
  18:../Dave/Generated/CMSIS_DSP/FilteringFunctions/arm_conv_q7.c **** *     notice, this list of conditions and the following disclaimer.
  19:../Dave/Generated/CMSIS_DSP/FilteringFunctions/arm_conv_q7.c **** *   - Redistributions in binary form must reproduce the above copyright
  20:../Dave/Generated/CMSIS_DSP/FilteringFunctions/arm_conv_q7.c **** *     notice, this list of conditions and the following disclaimer in
  21:../Dave/Generated/CMSIS_DSP/FilteringFunctions/arm_conv_q7.c **** *     the documentation and/or other materials provided with the 
  22:../Dave/Generated/CMSIS_DSP/FilteringFunctions/arm_conv_q7.c **** *     distribution.
  23:../Dave/Generated/CMSIS_DSP/FilteringFunctions/arm_conv_q7.c **** *   - Neither the name of ARM LIMITED nor the names of its contributors
  24:../Dave/Generated/CMSIS_DSP/FilteringFunctions/arm_conv_q7.c **** *     may be used to endorse or promote products derived from this
  25:../Dave/Generated/CMSIS_DSP/FilteringFunctions/arm_conv_q7.c **** *     software without specific prior written permission.
  26:../Dave/Generated/CMSIS_DSP/FilteringFunctions/arm_conv_q7.c **** *
  27:../Dave/Generated/CMSIS_DSP/FilteringFunctions/arm_conv_q7.c **** * THIS SOFTWARE IS PROVIDED BY THE COPYRIGHT HOLDERS AND CONTRIBUTORS
  28:../Dave/Generated/CMSIS_DSP/FilteringFunctions/arm_conv_q7.c **** * "AS IS" AND ANY EXPRESS OR IMPLIED WARRANTIES, INCLUDING, BUT NOT
  29:../Dave/Generated/CMSIS_DSP/FilteringFunctions/arm_conv_q7.c **** * LIMITED TO, THE IMPLIED WARRANTIES OF MERCHANTABILITY AND FITNESS
  30:../Dave/Generated/CMSIS_DSP/FilteringFunctions/arm_conv_q7.c **** * FOR A PARTICULAR PURPOSE ARE DISCLAIMED. IN NO EVENT SHALL THE 
  31:../Dave/Generated/CMSIS_DSP/FilteringFunctions/arm_conv_q7.c **** * COPYRIGHT OWNER OR CONTRIBUTORS BE LIABLE FOR ANY DIRECT, INDIRECT,
  32:../Dave/Generated/CMSIS_DSP/FilteringFunctions/arm_conv_q7.c **** * INCIDENTAL, SPECIAL, EXEMPLARY, OR CONSEQUENTIAL DAMAGES (INCLUDING,
  33:../Dave/Generated/CMSIS_DSP/FilteringFunctions/arm_conv_q7.c **** * BUT NOT LIMITED TO, PROCUREMENT OF SUBSTITUTE GOODS OR SERVICES;
  34:../Dave/Generated/CMSIS_DSP/FilteringFunctions/arm_conv_q7.c **** * LOSS OF USE, DATA, OR PROFITS; OR BUSINESS INTERRUPTION) HOWEVER
  35:../Dave/Generated/CMSIS_DSP/FilteringFunctions/arm_conv_q7.c **** * CAUSED AND ON ANY THEORY OF LIABILITY, WHETHER IN CONTRACT, STRICT
  36:../Dave/Generated/CMSIS_DSP/FilteringFunctions/arm_conv_q7.c **** * LIABILITY, OR TORT (INCLUDING NEGLIGENCE OR OTHERWISE) ARISING IN
  37:../Dave/Generated/CMSIS_DSP/FilteringFunctions/arm_conv_q7.c **** * ANY WAY OUT OF THE USE OF THIS SOFTWARE, EVEN IF ADVISED OF THE
  38:../Dave/Generated/CMSIS_DSP/FilteringFunctions/arm_conv_q7.c **** * POSSIBILITY OF SUCH DAMAGE.    
  39:../Dave/Generated/CMSIS_DSP/FilteringFunctions/arm_conv_q7.c **** * -------------------------------------------------------------------- */
  40:../Dave/Generated/CMSIS_DSP/FilteringFunctions/arm_conv_q7.c **** 
  41:../Dave/Generated/CMSIS_DSP/FilteringFunctions/arm_conv_q7.c **** #include "CMSIS_DSP/cmsis_dsp.h"
  42:../Dave/Generated/CMSIS_DSP/FilteringFunctions/arm_conv_q7.c **** 
  43:../Dave/Generated/CMSIS_DSP/FilteringFunctions/arm_conv_q7.c **** /**   
  44:../Dave/Generated/CMSIS_DSP/FilteringFunctions/arm_conv_q7.c ****  * @ingroup groupFilters   
  45:../Dave/Generated/CMSIS_DSP/FilteringFunctions/arm_conv_q7.c ****  */
  46:../Dave/Generated/CMSIS_DSP/FilteringFunctions/arm_conv_q7.c **** 
  47:../Dave/Generated/CMSIS_DSP/FilteringFunctions/arm_conv_q7.c **** /**   
  48:../Dave/Generated/CMSIS_DSP/FilteringFunctions/arm_conv_q7.c ****  * @addtogroup Conv   
  49:../Dave/Generated/CMSIS_DSP/FilteringFunctions/arm_conv_q7.c ****  * @{   
  50:../Dave/Generated/CMSIS_DSP/FilteringFunctions/arm_conv_q7.c ****  */
  51:../Dave/Generated/CMSIS_DSP/FilteringFunctions/arm_conv_q7.c **** 
  52:../Dave/Generated/CMSIS_DSP/FilteringFunctions/arm_conv_q7.c **** /**   
  53:../Dave/Generated/CMSIS_DSP/FilteringFunctions/arm_conv_q7.c ****  * @brief Convolution of Q7 sequences.   
  54:../Dave/Generated/CMSIS_DSP/FilteringFunctions/arm_conv_q7.c ****  * @param[in] *pSrcA points to the first input sequence.   
  55:../Dave/Generated/CMSIS_DSP/FilteringFunctions/arm_conv_q7.c ****  * @param[in] srcALen length of the first input sequence.   
  56:../Dave/Generated/CMSIS_DSP/FilteringFunctions/arm_conv_q7.c ****  * @param[in] *pSrcB points to the second input sequence.   
  57:../Dave/Generated/CMSIS_DSP/FilteringFunctions/arm_conv_q7.c ****  * @param[in] srcBLen length of the second input sequence.   
  58:../Dave/Generated/CMSIS_DSP/FilteringFunctions/arm_conv_q7.c ****  * @param[out] *pDst points to the location where the output result is written.  Length srcALen+src
  59:../Dave/Generated/CMSIS_DSP/FilteringFunctions/arm_conv_q7.c ****  * @return none.   
  60:../Dave/Generated/CMSIS_DSP/FilteringFunctions/arm_conv_q7.c ****  *   
  61:../Dave/Generated/CMSIS_DSP/FilteringFunctions/arm_conv_q7.c ****  * @details   
  62:../Dave/Generated/CMSIS_DSP/FilteringFunctions/arm_conv_q7.c ****  * <b>Scaling and Overflow Behavior:</b>   
  63:../Dave/Generated/CMSIS_DSP/FilteringFunctions/arm_conv_q7.c ****  *   
  64:../Dave/Generated/CMSIS_DSP/FilteringFunctions/arm_conv_q7.c ****  * \par   
  65:../Dave/Generated/CMSIS_DSP/FilteringFunctions/arm_conv_q7.c ****  * The function is implemented using a 32-bit internal accumulator.   
  66:../Dave/Generated/CMSIS_DSP/FilteringFunctions/arm_conv_q7.c ****  * Both the inputs are represented in 1.7 format and multiplications yield a 2.14 result.   
  67:../Dave/Generated/CMSIS_DSP/FilteringFunctions/arm_conv_q7.c ****  * The 2.14 intermediate results are accumulated in a 32-bit accumulator in 18.14 format.   
  68:../Dave/Generated/CMSIS_DSP/FilteringFunctions/arm_conv_q7.c ****  * This approach provides 17 guard bits and there is no risk of overflow as long as <code>max(srcAL
  69:../Dave/Generated/CMSIS_DSP/FilteringFunctions/arm_conv_q7.c ****  * The 18.14 result is then truncated to 18.7 format by discarding the low 7 bits and then saturate
  70:../Dave/Generated/CMSIS_DSP/FilteringFunctions/arm_conv_q7.c ****  *
  71:../Dave/Generated/CMSIS_DSP/FilteringFunctions/arm_conv_q7.c ****  * \par    
  72:../Dave/Generated/CMSIS_DSP/FilteringFunctions/arm_conv_q7.c ****  * Refer the function <code>arm_conv_opt_q7()</code> for a faster implementation of this function.
  73:../Dave/Generated/CMSIS_DSP/FilteringFunctions/arm_conv_q7.c ****  * 
  74:../Dave/Generated/CMSIS_DSP/FilteringFunctions/arm_conv_q7.c ****  */
  75:../Dave/Generated/CMSIS_DSP/FilteringFunctions/arm_conv_q7.c **** 
  76:../Dave/Generated/CMSIS_DSP/FilteringFunctions/arm_conv_q7.c **** void arm_conv_q7(
  77:../Dave/Generated/CMSIS_DSP/FilteringFunctions/arm_conv_q7.c ****   q7_t * pSrcA,
  78:../Dave/Generated/CMSIS_DSP/FilteringFunctions/arm_conv_q7.c ****   uint32_t srcALen,
  79:../Dave/Generated/CMSIS_DSP/FilteringFunctions/arm_conv_q7.c ****   q7_t * pSrcB,
  80:../Dave/Generated/CMSIS_DSP/FilteringFunctions/arm_conv_q7.c ****   uint32_t srcBLen,
  81:../Dave/Generated/CMSIS_DSP/FilteringFunctions/arm_conv_q7.c ****   q7_t * pDst)
  82:../Dave/Generated/CMSIS_DSP/FilteringFunctions/arm_conv_q7.c **** {
  28              	 .loc 1 82 0
  29              	 .cfi_startproc
  30              	 
  31              	 
  32              	 
  33 0000 90B4     	 push {r4,r7}
  34              	.LCFI0:
  35              	 .cfi_def_cfa_offset 8
  36              	 .cfi_offset 4,-8
  37              	 .cfi_offset 7,-4
  38 0002 E4B0     	 sub sp,sp,#400
  39              	.LCFI1:
  40              	 .cfi_def_cfa_offset 408
  41 0004 00AF     	 add r7,sp,#0
  42              	.LCFI2:
  43              	 .cfi_def_cfa_register 7
  44 0006 07F10C04 	 add r4,r7,#12
  45 000a 2060     	 str r0,[r4]
  46 000c 07F10800 	 add r0,r7,#8
  47 0010 0160     	 str r1,[r0]
  48 0012 391D     	 adds r1,r7,#4
  49 0014 0A60     	 str r2,[r1]
  50 0016 3A46     	 mov r2,r7
  51 0018 1360     	 str r3,[r2]
  83:../Dave/Generated/CMSIS_DSP/FilteringFunctions/arm_conv_q7.c **** 
  84:../Dave/Generated/CMSIS_DSP/FilteringFunctions/arm_conv_q7.c **** 
  85:../Dave/Generated/CMSIS_DSP/FilteringFunctions/arm_conv_q7.c **** #ifndef ARM_MATH_CM0_FAMILY
  86:../Dave/Generated/CMSIS_DSP/FilteringFunctions/arm_conv_q7.c **** 
  87:../Dave/Generated/CMSIS_DSP/FilteringFunctions/arm_conv_q7.c ****   /* Run the below code for Cortex-M4 and Cortex-M3 */
  88:../Dave/Generated/CMSIS_DSP/FilteringFunctions/arm_conv_q7.c **** 
  89:../Dave/Generated/CMSIS_DSP/FilteringFunctions/arm_conv_q7.c ****   q7_t *pIn1;                                    /* inputA pointer */
  90:../Dave/Generated/CMSIS_DSP/FilteringFunctions/arm_conv_q7.c ****   q7_t *pIn2;                                    /* inputB pointer */
  91:../Dave/Generated/CMSIS_DSP/FilteringFunctions/arm_conv_q7.c ****   q7_t *pOut = pDst;                             /* output pointer */
  52              	 .loc 1 91 0
  53 001a D7F89831 	 ldr r3,[r7,#408]
  54 001e C7F88431 	 str r3,[r7,#388]
  92:../Dave/Generated/CMSIS_DSP/FilteringFunctions/arm_conv_q7.c ****   q7_t *px;                                      /* Intermediate inputA pointer */
  93:../Dave/Generated/CMSIS_DSP/FilteringFunctions/arm_conv_q7.c ****   q7_t *py;                                      /* Intermediate inputB pointer */
  94:../Dave/Generated/CMSIS_DSP/FilteringFunctions/arm_conv_q7.c ****   q7_t *pSrc1, *pSrc2;                           /* Intermediate pointers */
  95:../Dave/Generated/CMSIS_DSP/FilteringFunctions/arm_conv_q7.c ****   q7_t x0, x1, x2, x3, c0, c1;                   /* Temporary variables to hold state and coefficie
  96:../Dave/Generated/CMSIS_DSP/FilteringFunctions/arm_conv_q7.c ****   q31_t sum, acc0, acc1, acc2, acc3;             /* Accumulator */
  97:../Dave/Generated/CMSIS_DSP/FilteringFunctions/arm_conv_q7.c ****   q31_t input1, input2;                          /* Temporary input variables */
  98:../Dave/Generated/CMSIS_DSP/FilteringFunctions/arm_conv_q7.c ****   q15_t in1, in2;                                /* Temporary input variables */
  99:../Dave/Generated/CMSIS_DSP/FilteringFunctions/arm_conv_q7.c ****   uint32_t j, k, count, blkCnt, blockSize1, blockSize2, blockSize3;     /* loop counter */
 100:../Dave/Generated/CMSIS_DSP/FilteringFunctions/arm_conv_q7.c **** 
 101:../Dave/Generated/CMSIS_DSP/FilteringFunctions/arm_conv_q7.c ****   /* The algorithm implementation is based on the lengths of the inputs. */
 102:../Dave/Generated/CMSIS_DSP/FilteringFunctions/arm_conv_q7.c ****   /* srcB is always made to slide across srcA. */
 103:../Dave/Generated/CMSIS_DSP/FilteringFunctions/arm_conv_q7.c ****   /* So srcBLen is always considered as shorter or equal to srcALen */
 104:../Dave/Generated/CMSIS_DSP/FilteringFunctions/arm_conv_q7.c ****   if(srcALen >= srcBLen)
  55              	 .loc 1 104 0
  56 0022 07F10802 	 add r2,r7,#8
  57 0026 3B46     	 mov r3,r7
  58 0028 1268     	 ldr r2,[r2]
  59 002a 1B68     	 ldr r3,[r3]
  60 002c 9A42     	 cmp r2,r3
  61 002e 09D3     	 bcc .L2
 105:../Dave/Generated/CMSIS_DSP/FilteringFunctions/arm_conv_q7.c ****   {
 106:../Dave/Generated/CMSIS_DSP/FilteringFunctions/arm_conv_q7.c ****     /* Initialization of inputA pointer */
 107:../Dave/Generated/CMSIS_DSP/FilteringFunctions/arm_conv_q7.c ****     pIn1 = pSrcA;
  62              	 .loc 1 107 0
  63 0030 07F10C03 	 add r3,r7,#12
  64 0034 1B68     	 ldr r3,[r3]
  65 0036 C7F88C31 	 str r3,[r7,#396]
 108:../Dave/Generated/CMSIS_DSP/FilteringFunctions/arm_conv_q7.c **** 
 109:../Dave/Generated/CMSIS_DSP/FilteringFunctions/arm_conv_q7.c ****     /* Initialization of inputB pointer */
 110:../Dave/Generated/CMSIS_DSP/FilteringFunctions/arm_conv_q7.c ****     pIn2 = pSrcB;
  66              	 .loc 1 110 0
  67 003a 3B1D     	 adds r3,r7,#4
  68 003c 1B68     	 ldr r3,[r3]
  69 003e C7F88831 	 str r3,[r7,#392]
  70 0042 16E0     	 b .L3
  71              	.L2:
 111:../Dave/Generated/CMSIS_DSP/FilteringFunctions/arm_conv_q7.c ****   }
 112:../Dave/Generated/CMSIS_DSP/FilteringFunctions/arm_conv_q7.c ****   else
 113:../Dave/Generated/CMSIS_DSP/FilteringFunctions/arm_conv_q7.c ****   {
 114:../Dave/Generated/CMSIS_DSP/FilteringFunctions/arm_conv_q7.c ****     /* Initialization of inputA pointer */
 115:../Dave/Generated/CMSIS_DSP/FilteringFunctions/arm_conv_q7.c ****     pIn1 = pSrcB;
  72              	 .loc 1 115 0
  73 0044 3B1D     	 adds r3,r7,#4
  74 0046 1B68     	 ldr r3,[r3]
  75 0048 C7F88C31 	 str r3,[r7,#396]
 116:../Dave/Generated/CMSIS_DSP/FilteringFunctions/arm_conv_q7.c **** 
 117:../Dave/Generated/CMSIS_DSP/FilteringFunctions/arm_conv_q7.c ****     /* Initialization of inputB pointer */
 118:../Dave/Generated/CMSIS_DSP/FilteringFunctions/arm_conv_q7.c ****     pIn2 = pSrcA;
  76              	 .loc 1 118 0
  77 004c 07F10C03 	 add r3,r7,#12
  78 0050 1B68     	 ldr r3,[r3]
  79 0052 C7F88831 	 str r3,[r7,#392]
 119:../Dave/Generated/CMSIS_DSP/FilteringFunctions/arm_conv_q7.c **** 
 120:../Dave/Generated/CMSIS_DSP/FilteringFunctions/arm_conv_q7.c ****     /* srcBLen is always considered as shorter or equal to srcALen */
 121:../Dave/Generated/CMSIS_DSP/FilteringFunctions/arm_conv_q7.c ****     j = srcBLen;
  80              	 .loc 1 121 0
  81 0056 3B46     	 mov r3,r7
  82 0058 1B68     	 ldr r3,[r3]
  83 005a C7F84831 	 str r3,[r7,#328]
 122:../Dave/Generated/CMSIS_DSP/FilteringFunctions/arm_conv_q7.c ****     srcBLen = srcALen;
  84              	 .loc 1 122 0
  85 005e 3B46     	 mov r3,r7
  86 0060 07F10802 	 add r2,r7,#8
  87 0064 1268     	 ldr r2,[r2]
  88 0066 1A60     	 str r2,[r3]
 123:../Dave/Generated/CMSIS_DSP/FilteringFunctions/arm_conv_q7.c ****     srcALen = j;
  89              	 .loc 1 123 0
  90 0068 07F10803 	 add r3,r7,#8
  91 006c D7F84821 	 ldr r2,[r7,#328]
  92 0070 1A60     	 str r2,[r3]
  93              	.L3:
 124:../Dave/Generated/CMSIS_DSP/FilteringFunctions/arm_conv_q7.c ****   }
 125:../Dave/Generated/CMSIS_DSP/FilteringFunctions/arm_conv_q7.c **** 
 126:../Dave/Generated/CMSIS_DSP/FilteringFunctions/arm_conv_q7.c ****   /* conv(x,y) at n = x[n] * y[0] + x[n-1] * y[1] + x[n-2] * y[2] + ...+ x[n-N+1] * y[N -1] */
 127:../Dave/Generated/CMSIS_DSP/FilteringFunctions/arm_conv_q7.c ****   /* The function is internally   
 128:../Dave/Generated/CMSIS_DSP/FilteringFunctions/arm_conv_q7.c ****    * divided into three stages according to the number of multiplications that has to be   
 129:../Dave/Generated/CMSIS_DSP/FilteringFunctions/arm_conv_q7.c ****    * taken place between inputA samples and inputB samples. In the first stage of the   
 130:../Dave/Generated/CMSIS_DSP/FilteringFunctions/arm_conv_q7.c ****    * algorithm, the multiplications increase by one for every iteration.   
 131:../Dave/Generated/CMSIS_DSP/FilteringFunctions/arm_conv_q7.c ****    * In the second stage of the algorithm, srcBLen number of multiplications are done.   
 132:../Dave/Generated/CMSIS_DSP/FilteringFunctions/arm_conv_q7.c ****    * In the third stage of the algorithm, the multiplications decrease by one   
 133:../Dave/Generated/CMSIS_DSP/FilteringFunctions/arm_conv_q7.c ****    * for every iteration. */
 134:../Dave/Generated/CMSIS_DSP/FilteringFunctions/arm_conv_q7.c **** 
 135:../Dave/Generated/CMSIS_DSP/FilteringFunctions/arm_conv_q7.c ****   /* The algorithm is implemented in three stages.   
 136:../Dave/Generated/CMSIS_DSP/FilteringFunctions/arm_conv_q7.c ****      The loop counters of each stage is initiated here. */
 137:../Dave/Generated/CMSIS_DSP/FilteringFunctions/arm_conv_q7.c ****   blockSize1 = srcBLen - 1u;
  94              	 .loc 1 137 0
  95 0072 3B46     	 mov r3,r7
  96 0074 1B68     	 ldr r3,[r3]
  97 0076 013B     	 subs r3,r3,#1
  98 0078 C7F85031 	 str r3,[r7,#336]
 138:../Dave/Generated/CMSIS_DSP/FilteringFunctions/arm_conv_q7.c ****   blockSize2 = (srcALen - srcBLen) + 1u;
  99              	 .loc 1 138 0
 100 007c 07F10802 	 add r2,r7,#8
 101 0080 3B46     	 mov r3,r7
 102 0082 1268     	 ldr r2,[r2]
 103 0084 1B68     	 ldr r3,[r3]
 104 0086 D31A     	 subs r3,r2,r3
 105 0088 0133     	 adds r3,r3,#1
 106 008a C7F84431 	 str r3,[r7,#324]
 139:../Dave/Generated/CMSIS_DSP/FilteringFunctions/arm_conv_q7.c ****   blockSize3 = blockSize1;
 107              	 .loc 1 139 0
 108 008e D7F85031 	 ldr r3,[r7,#336]
 109 0092 C7F84C31 	 str r3,[r7,#332]
 140:../Dave/Generated/CMSIS_DSP/FilteringFunctions/arm_conv_q7.c **** 
 141:../Dave/Generated/CMSIS_DSP/FilteringFunctions/arm_conv_q7.c ****   /* --------------------------   
 142:../Dave/Generated/CMSIS_DSP/FilteringFunctions/arm_conv_q7.c ****    * Initializations of stage1   
 143:../Dave/Generated/CMSIS_DSP/FilteringFunctions/arm_conv_q7.c ****    * -------------------------*/
 144:../Dave/Generated/CMSIS_DSP/FilteringFunctions/arm_conv_q7.c **** 
 145:../Dave/Generated/CMSIS_DSP/FilteringFunctions/arm_conv_q7.c ****   /* sum = x[0] * y[0]   
 146:../Dave/Generated/CMSIS_DSP/FilteringFunctions/arm_conv_q7.c ****    * sum = x[0] * y[1] + x[1] * y[0]   
 147:../Dave/Generated/CMSIS_DSP/FilteringFunctions/arm_conv_q7.c ****    * ....   
 148:../Dave/Generated/CMSIS_DSP/FilteringFunctions/arm_conv_q7.c ****    * sum = x[0] * y[srcBlen - 1] + x[1] * y[srcBlen - 2] +...+ x[srcBLen - 1] * y[0]   
 149:../Dave/Generated/CMSIS_DSP/FilteringFunctions/arm_conv_q7.c ****    */
 150:../Dave/Generated/CMSIS_DSP/FilteringFunctions/arm_conv_q7.c **** 
 151:../Dave/Generated/CMSIS_DSP/FilteringFunctions/arm_conv_q7.c ****   /* In this stage the MAC operations are increased by 1 for every iteration.   
 152:../Dave/Generated/CMSIS_DSP/FilteringFunctions/arm_conv_q7.c ****      The count variable holds the number of MAC operations performed */
 153:../Dave/Generated/CMSIS_DSP/FilteringFunctions/arm_conv_q7.c ****   count = 1u;
 110              	 .loc 1 153 0
 111 0096 0123     	 movs r3,#1
 112 0098 C7F85831 	 str r3,[r7,#344]
 154:../Dave/Generated/CMSIS_DSP/FilteringFunctions/arm_conv_q7.c **** 
 155:../Dave/Generated/CMSIS_DSP/FilteringFunctions/arm_conv_q7.c ****   /* Working pointer of inputA */
 156:../Dave/Generated/CMSIS_DSP/FilteringFunctions/arm_conv_q7.c ****   px = pIn1;
 113              	 .loc 1 156 0
 114 009c D7F88C31 	 ldr r3,[r7,#396]
 115 00a0 C7F88031 	 str r3,[r7,#384]
 157:../Dave/Generated/CMSIS_DSP/FilteringFunctions/arm_conv_q7.c **** 
 158:../Dave/Generated/CMSIS_DSP/FilteringFunctions/arm_conv_q7.c ****   /* Working pointer of inputB */
 159:../Dave/Generated/CMSIS_DSP/FilteringFunctions/arm_conv_q7.c ****   py = pIn2;
 116              	 .loc 1 159 0
 117 00a4 D7F88831 	 ldr r3,[r7,#392]
 118 00a8 C7F87C31 	 str r3,[r7,#380]
 160:../Dave/Generated/CMSIS_DSP/FilteringFunctions/arm_conv_q7.c **** 
 161:../Dave/Generated/CMSIS_DSP/FilteringFunctions/arm_conv_q7.c **** 
 162:../Dave/Generated/CMSIS_DSP/FilteringFunctions/arm_conv_q7.c ****   /* ------------------------   
 163:../Dave/Generated/CMSIS_DSP/FilteringFunctions/arm_conv_q7.c ****    * Stage1 process   
 164:../Dave/Generated/CMSIS_DSP/FilteringFunctions/arm_conv_q7.c ****    * ----------------------*/
 165:../Dave/Generated/CMSIS_DSP/FilteringFunctions/arm_conv_q7.c **** 
 166:../Dave/Generated/CMSIS_DSP/FilteringFunctions/arm_conv_q7.c ****   /* The first stage starts here */
 167:../Dave/Generated/CMSIS_DSP/FilteringFunctions/arm_conv_q7.c ****   while(blockSize1 > 0u)
 119              	 .loc 1 167 0
 120 00ac 00E1     	 b .L4
 121              	.L11:
 168:../Dave/Generated/CMSIS_DSP/FilteringFunctions/arm_conv_q7.c ****   {
 169:../Dave/Generated/CMSIS_DSP/FilteringFunctions/arm_conv_q7.c ****     /* Accumulator is made zero for every iteration */
 170:../Dave/Generated/CMSIS_DSP/FilteringFunctions/arm_conv_q7.c ****     sum = 0;
 122              	 .loc 1 170 0
 123 00ae 0023     	 movs r3,#0
 124 00b0 C7F87031 	 str r3,[r7,#368]
 171:../Dave/Generated/CMSIS_DSP/FilteringFunctions/arm_conv_q7.c **** 
 172:../Dave/Generated/CMSIS_DSP/FilteringFunctions/arm_conv_q7.c ****     /* Apply loop unrolling and compute 4 MACs simultaneously. */
 173:../Dave/Generated/CMSIS_DSP/FilteringFunctions/arm_conv_q7.c ****     k = count >> 2u;
 125              	 .loc 1 173 0
 126 00b4 D7F85831 	 ldr r3,[r7,#344]
 127 00b8 9B08     	 lsrs r3,r3,#2
 128 00ba C7F85C31 	 str r3,[r7,#348]
 174:../Dave/Generated/CMSIS_DSP/FilteringFunctions/arm_conv_q7.c **** 
 175:../Dave/Generated/CMSIS_DSP/FilteringFunctions/arm_conv_q7.c ****     /* First part of the processing with loop unrolling.  Compute 4 MACs at a time.   
 176:../Dave/Generated/CMSIS_DSP/FilteringFunctions/arm_conv_q7.c ****      ** a second loop below computes MACs for the remaining 1 to 3 samples. */
 177:../Dave/Generated/CMSIS_DSP/FilteringFunctions/arm_conv_q7.c ****     while(k > 0u)
 129              	 .loc 1 177 0
 130 00be A4E0     	 b .L5
 131              	.L8:
 178:../Dave/Generated/CMSIS_DSP/FilteringFunctions/arm_conv_q7.c ****     {
 179:../Dave/Generated/CMSIS_DSP/FilteringFunctions/arm_conv_q7.c ****       /* x[0] , x[1] */
 180:../Dave/Generated/CMSIS_DSP/FilteringFunctions/arm_conv_q7.c ****       in1 = (q15_t) * px++;
 132              	 .loc 1 180 0
 133 00c0 D7F88031 	 ldr r3,[r7,#384]
 134 00c4 5A1C     	 adds r2,r3,#1
 135 00c6 C7F88021 	 str r2,[r7,#384]
 136 00ca 1B78     	 ldrb r3,[r3]
 137 00cc 5BB2     	 sxtb r3,r3
 138 00ce A7F84231 	 strh r3,[r7,#322]
 181:../Dave/Generated/CMSIS_DSP/FilteringFunctions/arm_conv_q7.c ****       in2 = (q15_t) * px++;
 139              	 .loc 1 181 0
 140 00d2 D7F88031 	 ldr r3,[r7,#384]
 141 00d6 5A1C     	 adds r2,r3,#1
 142 00d8 C7F88021 	 str r2,[r7,#384]
 143 00dc 1B78     	 ldrb r3,[r3]
 144 00de 5BB2     	 sxtb r3,r3
 145 00e0 A7F84031 	 strh r3,[r7,#320]
 182:../Dave/Generated/CMSIS_DSP/FilteringFunctions/arm_conv_q7.c ****       input1 = ((q31_t) in1 & 0x0000FFFF) | ((q31_t) in2 << 16u);
 146              	 .loc 1 182 0
 147 00e4 B7F94231 	 ldrsh r3,[r7,#322]
 148 00e8 9AB2     	 uxth r2,r3
 149 00ea B7F94031 	 ldrsh r3,[r7,#320]
 150 00ee 1B04     	 lsls r3,r3,#16
 151 00f0 1343     	 orrs r3,r3,r2
 152 00f2 C7F83C31 	 str r3,[r7,#316]
 183:../Dave/Generated/CMSIS_DSP/FilteringFunctions/arm_conv_q7.c **** 
 184:../Dave/Generated/CMSIS_DSP/FilteringFunctions/arm_conv_q7.c ****       /* y[srcBLen - 1] , y[srcBLen - 2] */
 185:../Dave/Generated/CMSIS_DSP/FilteringFunctions/arm_conv_q7.c ****       in1 = (q15_t) * py--;
 153              	 .loc 1 185 0
 154 00f6 D7F87C31 	 ldr r3,[r7,#380]
 155 00fa 5A1E     	 subs r2,r3,#1
 156 00fc C7F87C21 	 str r2,[r7,#380]
 157 0100 1B78     	 ldrb r3,[r3]
 158 0102 5BB2     	 sxtb r3,r3
 159 0104 A7F84231 	 strh r3,[r7,#322]
 186:../Dave/Generated/CMSIS_DSP/FilteringFunctions/arm_conv_q7.c ****       in2 = (q15_t) * py--;
 160              	 .loc 1 186 0
 161 0108 D7F87C31 	 ldr r3,[r7,#380]
 162 010c 5A1E     	 subs r2,r3,#1
 163 010e C7F87C21 	 str r2,[r7,#380]
 164 0112 1B78     	 ldrb r3,[r3]
 165 0114 5BB2     	 sxtb r3,r3
 166 0116 A7F84031 	 strh r3,[r7,#320]
 187:../Dave/Generated/CMSIS_DSP/FilteringFunctions/arm_conv_q7.c ****       input2 = ((q31_t) in1 & 0x0000FFFF) | ((q31_t) in2 << 16u);
 167              	 .loc 1 187 0
 168 011a B7F94231 	 ldrsh r3,[r7,#322]
 169 011e 9AB2     	 uxth r2,r3
 170 0120 B7F94031 	 ldrsh r3,[r7,#320]
 171 0124 1B04     	 lsls r3,r3,#16
 172 0126 1343     	 orrs r3,r3,r2
 173 0128 C7F83831 	 str r3,[r7,#312]
 188:../Dave/Generated/CMSIS_DSP/FilteringFunctions/arm_conv_q7.c **** 
 189:../Dave/Generated/CMSIS_DSP/FilteringFunctions/arm_conv_q7.c ****       /* x[0] * y[srcBLen - 1] */
 190:../Dave/Generated/CMSIS_DSP/FilteringFunctions/arm_conv_q7.c ****       /* x[1] * y[srcBLen - 2] */
 191:../Dave/Generated/CMSIS_DSP/FilteringFunctions/arm_conv_q7.c ****       sum = __SMLAD(input1, input2, sum);
 174              	 .loc 1 191 0
 175 012c D7F83C11 	 ldr r1,[r7,#316]
 176 0130 D7F83821 	 ldr r2,[r7,#312]
 177 0134 D7F87031 	 ldr r3,[r7,#368]
 178 0138 C7F8EC10 	 str r1,[r7,#236]
 179 013c C7F8E820 	 str r2,[r7,#232]
 180 0140 C7F8E430 	 str r3,[r7,#228]
 181              	.LBB38:
 182              	.LBB39:
 183              	 .file 2 "C:/Workspaces/DAVE-4.3/WS_2016_09_02/Flightcontroller_PWM_CopterRocks_Working/Libraries/CMSIS/Include/cmsis_gcc.h"
   1:C:/Workspaces/DAVE-4.3/WS_2016_09_02/Flightcontroller_PWM_CopterRocks_Working/Libraries/CMSIS/Include\cmsis_gcc.h **** /**************************************************************************//**
   2:C:/Workspaces/DAVE-4.3/WS_2016_09_02/Flightcontroller_PWM_CopterRocks_Working/Libraries/CMSIS/Include\cmsis_gcc.h ****  * @file     cmsis_gcc.h
   3:C:/Workspaces/DAVE-4.3/WS_2016_09_02/Flightcontroller_PWM_CopterRocks_Working/Libraries/CMSIS/Include\cmsis_gcc.h ****  * @brief    CMSIS Cortex-M Core Function/Instruction Header File
   4:C:/Workspaces/DAVE-4.3/WS_2016_09_02/Flightcontroller_PWM_CopterRocks_Working/Libraries/CMSIS/Include\cmsis_gcc.h ****  * @version  V4.30
   5:C:/Workspaces/DAVE-4.3/WS_2016_09_02/Flightcontroller_PWM_CopterRocks_Working/Libraries/CMSIS/Include\cmsis_gcc.h ****  * @date     20. October 2015
   6:C:/Workspaces/DAVE-4.3/WS_2016_09_02/Flightcontroller_PWM_CopterRocks_Working/Libraries/CMSIS/Include\cmsis_gcc.h ****  ******************************************************************************/
   7:C:/Workspaces/DAVE-4.3/WS_2016_09_02/Flightcontroller_PWM_CopterRocks_Working/Libraries/CMSIS/Include\cmsis_gcc.h **** /* Copyright (c) 2009 - 2015 ARM LIMITED
   8:C:/Workspaces/DAVE-4.3/WS_2016_09_02/Flightcontroller_PWM_CopterRocks_Working/Libraries/CMSIS/Include\cmsis_gcc.h **** 
   9:C:/Workspaces/DAVE-4.3/WS_2016_09_02/Flightcontroller_PWM_CopterRocks_Working/Libraries/CMSIS/Include\cmsis_gcc.h ****    All rights reserved.
  10:C:/Workspaces/DAVE-4.3/WS_2016_09_02/Flightcontroller_PWM_CopterRocks_Working/Libraries/CMSIS/Include\cmsis_gcc.h ****    Redistribution and use in source and binary forms, with or without
  11:C:/Workspaces/DAVE-4.3/WS_2016_09_02/Flightcontroller_PWM_CopterRocks_Working/Libraries/CMSIS/Include\cmsis_gcc.h ****    modification, are permitted provided that the following conditions are met:
  12:C:/Workspaces/DAVE-4.3/WS_2016_09_02/Flightcontroller_PWM_CopterRocks_Working/Libraries/CMSIS/Include\cmsis_gcc.h ****    - Redistributions of source code must retain the above copyright
  13:C:/Workspaces/DAVE-4.3/WS_2016_09_02/Flightcontroller_PWM_CopterRocks_Working/Libraries/CMSIS/Include\cmsis_gcc.h ****      notice, this list of conditions and the following disclaimer.
  14:C:/Workspaces/DAVE-4.3/WS_2016_09_02/Flightcontroller_PWM_CopterRocks_Working/Libraries/CMSIS/Include\cmsis_gcc.h ****    - Redistributions in binary form must reproduce the above copyright
  15:C:/Workspaces/DAVE-4.3/WS_2016_09_02/Flightcontroller_PWM_CopterRocks_Working/Libraries/CMSIS/Include\cmsis_gcc.h ****      notice, this list of conditions and the following disclaimer in the
  16:C:/Workspaces/DAVE-4.3/WS_2016_09_02/Flightcontroller_PWM_CopterRocks_Working/Libraries/CMSIS/Include\cmsis_gcc.h ****      documentation and/or other materials provided with the distribution.
  17:C:/Workspaces/DAVE-4.3/WS_2016_09_02/Flightcontroller_PWM_CopterRocks_Working/Libraries/CMSIS/Include\cmsis_gcc.h ****    - Neither the name of ARM nor the names of its contributors may be used
  18:C:/Workspaces/DAVE-4.3/WS_2016_09_02/Flightcontroller_PWM_CopterRocks_Working/Libraries/CMSIS/Include\cmsis_gcc.h ****      to endorse or promote products derived from this software without
  19:C:/Workspaces/DAVE-4.3/WS_2016_09_02/Flightcontroller_PWM_CopterRocks_Working/Libraries/CMSIS/Include\cmsis_gcc.h ****      specific prior written permission.
  20:C:/Workspaces/DAVE-4.3/WS_2016_09_02/Flightcontroller_PWM_CopterRocks_Working/Libraries/CMSIS/Include\cmsis_gcc.h ****    *
  21:C:/Workspaces/DAVE-4.3/WS_2016_09_02/Flightcontroller_PWM_CopterRocks_Working/Libraries/CMSIS/Include\cmsis_gcc.h ****    THIS SOFTWARE IS PROVIDED BY THE COPYRIGHT HOLDERS AND CONTRIBUTORS "AS IS"
  22:C:/Workspaces/DAVE-4.3/WS_2016_09_02/Flightcontroller_PWM_CopterRocks_Working/Libraries/CMSIS/Include\cmsis_gcc.h ****    AND ANY EXPRESS OR IMPLIED WARRANTIES, INCLUDING, BUT NOT LIMITED TO, THE
  23:C:/Workspaces/DAVE-4.3/WS_2016_09_02/Flightcontroller_PWM_CopterRocks_Working/Libraries/CMSIS/Include\cmsis_gcc.h ****    IMPLIED WARRANTIES OF MERCHANTABILITY AND FITNESS FOR A PARTICULAR PURPOSE
  24:C:/Workspaces/DAVE-4.3/WS_2016_09_02/Flightcontroller_PWM_CopterRocks_Working/Libraries/CMSIS/Include\cmsis_gcc.h ****    ARE DISCLAIMED. IN NO EVENT SHALL COPYRIGHT HOLDERS AND CONTRIBUTORS BE
  25:C:/Workspaces/DAVE-4.3/WS_2016_09_02/Flightcontroller_PWM_CopterRocks_Working/Libraries/CMSIS/Include\cmsis_gcc.h ****    LIABLE FOR ANY DIRECT, INDIRECT, INCIDENTAL, SPECIAL, EXEMPLARY, OR
  26:C:/Workspaces/DAVE-4.3/WS_2016_09_02/Flightcontroller_PWM_CopterRocks_Working/Libraries/CMSIS/Include\cmsis_gcc.h ****    CONSEQUENTIAL DAMAGES (INCLUDING, BUT NOT LIMITED TO, PROCUREMENT OF
  27:C:/Workspaces/DAVE-4.3/WS_2016_09_02/Flightcontroller_PWM_CopterRocks_Working/Libraries/CMSIS/Include\cmsis_gcc.h ****    SUBSTITUTE GOODS OR SERVICES; LOSS OF USE, DATA, OR PROFITS; OR BUSINESS
  28:C:/Workspaces/DAVE-4.3/WS_2016_09_02/Flightcontroller_PWM_CopterRocks_Working/Libraries/CMSIS/Include\cmsis_gcc.h ****    INTERRUPTION) HOWEVER CAUSED AND ON ANY THEORY OF LIABILITY, WHETHER IN
  29:C:/Workspaces/DAVE-4.3/WS_2016_09_02/Flightcontroller_PWM_CopterRocks_Working/Libraries/CMSIS/Include\cmsis_gcc.h ****    CONTRACT, STRICT LIABILITY, OR TORT (INCLUDING NEGLIGENCE OR OTHERWISE)
  30:C:/Workspaces/DAVE-4.3/WS_2016_09_02/Flightcontroller_PWM_CopterRocks_Working/Libraries/CMSIS/Include\cmsis_gcc.h ****    ARISING IN ANY WAY OUT OF THE USE OF THIS SOFTWARE, EVEN IF ADVISED OF THE
  31:C:/Workspaces/DAVE-4.3/WS_2016_09_02/Flightcontroller_PWM_CopterRocks_Working/Libraries/CMSIS/Include\cmsis_gcc.h ****    POSSIBILITY OF SUCH DAMAGE.
  32:C:/Workspaces/DAVE-4.3/WS_2016_09_02/Flightcontroller_PWM_CopterRocks_Working/Libraries/CMSIS/Include\cmsis_gcc.h ****    ---------------------------------------------------------------------------*/
  33:C:/Workspaces/DAVE-4.3/WS_2016_09_02/Flightcontroller_PWM_CopterRocks_Working/Libraries/CMSIS/Include\cmsis_gcc.h **** 
  34:C:/Workspaces/DAVE-4.3/WS_2016_09_02/Flightcontroller_PWM_CopterRocks_Working/Libraries/CMSIS/Include\cmsis_gcc.h **** 
  35:C:/Workspaces/DAVE-4.3/WS_2016_09_02/Flightcontroller_PWM_CopterRocks_Working/Libraries/CMSIS/Include\cmsis_gcc.h **** #ifndef __CMSIS_GCC_H
  36:C:/Workspaces/DAVE-4.3/WS_2016_09_02/Flightcontroller_PWM_CopterRocks_Working/Libraries/CMSIS/Include\cmsis_gcc.h **** #define __CMSIS_GCC_H
  37:C:/Workspaces/DAVE-4.3/WS_2016_09_02/Flightcontroller_PWM_CopterRocks_Working/Libraries/CMSIS/Include\cmsis_gcc.h **** 
  38:C:/Workspaces/DAVE-4.3/WS_2016_09_02/Flightcontroller_PWM_CopterRocks_Working/Libraries/CMSIS/Include\cmsis_gcc.h **** /* ignore some GCC warnings */
  39:C:/Workspaces/DAVE-4.3/WS_2016_09_02/Flightcontroller_PWM_CopterRocks_Working/Libraries/CMSIS/Include\cmsis_gcc.h **** #if defined ( __GNUC__ )
  40:C:/Workspaces/DAVE-4.3/WS_2016_09_02/Flightcontroller_PWM_CopterRocks_Working/Libraries/CMSIS/Include\cmsis_gcc.h **** #pragma GCC diagnostic push
  41:C:/Workspaces/DAVE-4.3/WS_2016_09_02/Flightcontroller_PWM_CopterRocks_Working/Libraries/CMSIS/Include\cmsis_gcc.h **** #pragma GCC diagnostic ignored "-Wsign-conversion"
  42:C:/Workspaces/DAVE-4.3/WS_2016_09_02/Flightcontroller_PWM_CopterRocks_Working/Libraries/CMSIS/Include\cmsis_gcc.h **** #pragma GCC diagnostic ignored "-Wconversion"
  43:C:/Workspaces/DAVE-4.3/WS_2016_09_02/Flightcontroller_PWM_CopterRocks_Working/Libraries/CMSIS/Include\cmsis_gcc.h **** #pragma GCC diagnostic ignored "-Wunused-parameter"
  44:C:/Workspaces/DAVE-4.3/WS_2016_09_02/Flightcontroller_PWM_CopterRocks_Working/Libraries/CMSIS/Include\cmsis_gcc.h **** #endif
  45:C:/Workspaces/DAVE-4.3/WS_2016_09_02/Flightcontroller_PWM_CopterRocks_Working/Libraries/CMSIS/Include\cmsis_gcc.h **** 
  46:C:/Workspaces/DAVE-4.3/WS_2016_09_02/Flightcontroller_PWM_CopterRocks_Working/Libraries/CMSIS/Include\cmsis_gcc.h **** 
  47:C:/Workspaces/DAVE-4.3/WS_2016_09_02/Flightcontroller_PWM_CopterRocks_Working/Libraries/CMSIS/Include\cmsis_gcc.h **** /* ###########################  Core Function Access  ########################### */
  48:C:/Workspaces/DAVE-4.3/WS_2016_09_02/Flightcontroller_PWM_CopterRocks_Working/Libraries/CMSIS/Include\cmsis_gcc.h **** /** \ingroup  CMSIS_Core_FunctionInterface
  49:C:/Workspaces/DAVE-4.3/WS_2016_09_02/Flightcontroller_PWM_CopterRocks_Working/Libraries/CMSIS/Include\cmsis_gcc.h ****     \defgroup CMSIS_Core_RegAccFunctions CMSIS Core Register Access Functions
  50:C:/Workspaces/DAVE-4.3/WS_2016_09_02/Flightcontroller_PWM_CopterRocks_Working/Libraries/CMSIS/Include\cmsis_gcc.h ****   @{
  51:C:/Workspaces/DAVE-4.3/WS_2016_09_02/Flightcontroller_PWM_CopterRocks_Working/Libraries/CMSIS/Include\cmsis_gcc.h ****  */
  52:C:/Workspaces/DAVE-4.3/WS_2016_09_02/Flightcontroller_PWM_CopterRocks_Working/Libraries/CMSIS/Include\cmsis_gcc.h **** 
  53:C:/Workspaces/DAVE-4.3/WS_2016_09_02/Flightcontroller_PWM_CopterRocks_Working/Libraries/CMSIS/Include\cmsis_gcc.h **** /**
  54:C:/Workspaces/DAVE-4.3/WS_2016_09_02/Flightcontroller_PWM_CopterRocks_Working/Libraries/CMSIS/Include\cmsis_gcc.h ****   \brief   Enable IRQ Interrupts
  55:C:/Workspaces/DAVE-4.3/WS_2016_09_02/Flightcontroller_PWM_CopterRocks_Working/Libraries/CMSIS/Include\cmsis_gcc.h ****   \details Enables IRQ interrupts by clearing the I-bit in the CPSR.
  56:C:/Workspaces/DAVE-4.3/WS_2016_09_02/Flightcontroller_PWM_CopterRocks_Working/Libraries/CMSIS/Include\cmsis_gcc.h ****            Can only be executed in Privileged modes.
  57:C:/Workspaces/DAVE-4.3/WS_2016_09_02/Flightcontroller_PWM_CopterRocks_Working/Libraries/CMSIS/Include\cmsis_gcc.h ****  */
  58:C:/Workspaces/DAVE-4.3/WS_2016_09_02/Flightcontroller_PWM_CopterRocks_Working/Libraries/CMSIS/Include\cmsis_gcc.h **** __attribute__( ( always_inline ) ) __STATIC_INLINE void __enable_irq(void)
  59:C:/Workspaces/DAVE-4.3/WS_2016_09_02/Flightcontroller_PWM_CopterRocks_Working/Libraries/CMSIS/Include\cmsis_gcc.h **** {
  60:C:/Workspaces/DAVE-4.3/WS_2016_09_02/Flightcontroller_PWM_CopterRocks_Working/Libraries/CMSIS/Include\cmsis_gcc.h ****   __ASM volatile ("cpsie i" : : : "memory");
  61:C:/Workspaces/DAVE-4.3/WS_2016_09_02/Flightcontroller_PWM_CopterRocks_Working/Libraries/CMSIS/Include\cmsis_gcc.h **** }
  62:C:/Workspaces/DAVE-4.3/WS_2016_09_02/Flightcontroller_PWM_CopterRocks_Working/Libraries/CMSIS/Include\cmsis_gcc.h **** 
  63:C:/Workspaces/DAVE-4.3/WS_2016_09_02/Flightcontroller_PWM_CopterRocks_Working/Libraries/CMSIS/Include\cmsis_gcc.h **** 
  64:C:/Workspaces/DAVE-4.3/WS_2016_09_02/Flightcontroller_PWM_CopterRocks_Working/Libraries/CMSIS/Include\cmsis_gcc.h **** /**
  65:C:/Workspaces/DAVE-4.3/WS_2016_09_02/Flightcontroller_PWM_CopterRocks_Working/Libraries/CMSIS/Include\cmsis_gcc.h ****   \brief   Disable IRQ Interrupts
  66:C:/Workspaces/DAVE-4.3/WS_2016_09_02/Flightcontroller_PWM_CopterRocks_Working/Libraries/CMSIS/Include\cmsis_gcc.h ****   \details Disables IRQ interrupts by setting the I-bit in the CPSR.
  67:C:/Workspaces/DAVE-4.3/WS_2016_09_02/Flightcontroller_PWM_CopterRocks_Working/Libraries/CMSIS/Include\cmsis_gcc.h ****   Can only be executed in Privileged modes.
  68:C:/Workspaces/DAVE-4.3/WS_2016_09_02/Flightcontroller_PWM_CopterRocks_Working/Libraries/CMSIS/Include\cmsis_gcc.h ****  */
  69:C:/Workspaces/DAVE-4.3/WS_2016_09_02/Flightcontroller_PWM_CopterRocks_Working/Libraries/CMSIS/Include\cmsis_gcc.h **** __attribute__( ( always_inline ) ) __STATIC_INLINE void __disable_irq(void)
  70:C:/Workspaces/DAVE-4.3/WS_2016_09_02/Flightcontroller_PWM_CopterRocks_Working/Libraries/CMSIS/Include\cmsis_gcc.h **** {
  71:C:/Workspaces/DAVE-4.3/WS_2016_09_02/Flightcontroller_PWM_CopterRocks_Working/Libraries/CMSIS/Include\cmsis_gcc.h ****   __ASM volatile ("cpsid i" : : : "memory");
  72:C:/Workspaces/DAVE-4.3/WS_2016_09_02/Flightcontroller_PWM_CopterRocks_Working/Libraries/CMSIS/Include\cmsis_gcc.h **** }
  73:C:/Workspaces/DAVE-4.3/WS_2016_09_02/Flightcontroller_PWM_CopterRocks_Working/Libraries/CMSIS/Include\cmsis_gcc.h **** 
  74:C:/Workspaces/DAVE-4.3/WS_2016_09_02/Flightcontroller_PWM_CopterRocks_Working/Libraries/CMSIS/Include\cmsis_gcc.h **** 
  75:C:/Workspaces/DAVE-4.3/WS_2016_09_02/Flightcontroller_PWM_CopterRocks_Working/Libraries/CMSIS/Include\cmsis_gcc.h **** /**
  76:C:/Workspaces/DAVE-4.3/WS_2016_09_02/Flightcontroller_PWM_CopterRocks_Working/Libraries/CMSIS/Include\cmsis_gcc.h ****   \brief   Get Control Register
  77:C:/Workspaces/DAVE-4.3/WS_2016_09_02/Flightcontroller_PWM_CopterRocks_Working/Libraries/CMSIS/Include\cmsis_gcc.h ****   \details Returns the content of the Control Register.
  78:C:/Workspaces/DAVE-4.3/WS_2016_09_02/Flightcontroller_PWM_CopterRocks_Working/Libraries/CMSIS/Include\cmsis_gcc.h ****   \return               Control Register value
  79:C:/Workspaces/DAVE-4.3/WS_2016_09_02/Flightcontroller_PWM_CopterRocks_Working/Libraries/CMSIS/Include\cmsis_gcc.h ****  */
  80:C:/Workspaces/DAVE-4.3/WS_2016_09_02/Flightcontroller_PWM_CopterRocks_Working/Libraries/CMSIS/Include\cmsis_gcc.h **** __attribute__( ( always_inline ) ) __STATIC_INLINE uint32_t __get_CONTROL(void)
  81:C:/Workspaces/DAVE-4.3/WS_2016_09_02/Flightcontroller_PWM_CopterRocks_Working/Libraries/CMSIS/Include\cmsis_gcc.h **** {
  82:C:/Workspaces/DAVE-4.3/WS_2016_09_02/Flightcontroller_PWM_CopterRocks_Working/Libraries/CMSIS/Include\cmsis_gcc.h ****   uint32_t result;
  83:C:/Workspaces/DAVE-4.3/WS_2016_09_02/Flightcontroller_PWM_CopterRocks_Working/Libraries/CMSIS/Include\cmsis_gcc.h **** 
  84:C:/Workspaces/DAVE-4.3/WS_2016_09_02/Flightcontroller_PWM_CopterRocks_Working/Libraries/CMSIS/Include\cmsis_gcc.h ****   __ASM volatile ("MRS %0, control" : "=r" (result) );
  85:C:/Workspaces/DAVE-4.3/WS_2016_09_02/Flightcontroller_PWM_CopterRocks_Working/Libraries/CMSIS/Include\cmsis_gcc.h ****   return(result);
  86:C:/Workspaces/DAVE-4.3/WS_2016_09_02/Flightcontroller_PWM_CopterRocks_Working/Libraries/CMSIS/Include\cmsis_gcc.h **** }
  87:C:/Workspaces/DAVE-4.3/WS_2016_09_02/Flightcontroller_PWM_CopterRocks_Working/Libraries/CMSIS/Include\cmsis_gcc.h **** 
  88:C:/Workspaces/DAVE-4.3/WS_2016_09_02/Flightcontroller_PWM_CopterRocks_Working/Libraries/CMSIS/Include\cmsis_gcc.h **** 
  89:C:/Workspaces/DAVE-4.3/WS_2016_09_02/Flightcontroller_PWM_CopterRocks_Working/Libraries/CMSIS/Include\cmsis_gcc.h **** /**
  90:C:/Workspaces/DAVE-4.3/WS_2016_09_02/Flightcontroller_PWM_CopterRocks_Working/Libraries/CMSIS/Include\cmsis_gcc.h ****   \brief   Set Control Register
  91:C:/Workspaces/DAVE-4.3/WS_2016_09_02/Flightcontroller_PWM_CopterRocks_Working/Libraries/CMSIS/Include\cmsis_gcc.h ****   \details Writes the given value to the Control Register.
  92:C:/Workspaces/DAVE-4.3/WS_2016_09_02/Flightcontroller_PWM_CopterRocks_Working/Libraries/CMSIS/Include\cmsis_gcc.h ****   \param [in]    control  Control Register value to set
  93:C:/Workspaces/DAVE-4.3/WS_2016_09_02/Flightcontroller_PWM_CopterRocks_Working/Libraries/CMSIS/Include\cmsis_gcc.h ****  */
  94:C:/Workspaces/DAVE-4.3/WS_2016_09_02/Flightcontroller_PWM_CopterRocks_Working/Libraries/CMSIS/Include\cmsis_gcc.h **** __attribute__( ( always_inline ) ) __STATIC_INLINE void __set_CONTROL(uint32_t control)
  95:C:/Workspaces/DAVE-4.3/WS_2016_09_02/Flightcontroller_PWM_CopterRocks_Working/Libraries/CMSIS/Include\cmsis_gcc.h **** {
  96:C:/Workspaces/DAVE-4.3/WS_2016_09_02/Flightcontroller_PWM_CopterRocks_Working/Libraries/CMSIS/Include\cmsis_gcc.h ****   __ASM volatile ("MSR control, %0" : : "r" (control) : "memory");
  97:C:/Workspaces/DAVE-4.3/WS_2016_09_02/Flightcontroller_PWM_CopterRocks_Working/Libraries/CMSIS/Include\cmsis_gcc.h **** }
  98:C:/Workspaces/DAVE-4.3/WS_2016_09_02/Flightcontroller_PWM_CopterRocks_Working/Libraries/CMSIS/Include\cmsis_gcc.h **** 
  99:C:/Workspaces/DAVE-4.3/WS_2016_09_02/Flightcontroller_PWM_CopterRocks_Working/Libraries/CMSIS/Include\cmsis_gcc.h **** 
 100:C:/Workspaces/DAVE-4.3/WS_2016_09_02/Flightcontroller_PWM_CopterRocks_Working/Libraries/CMSIS/Include\cmsis_gcc.h **** /**
 101:C:/Workspaces/DAVE-4.3/WS_2016_09_02/Flightcontroller_PWM_CopterRocks_Working/Libraries/CMSIS/Include\cmsis_gcc.h ****   \brief   Get IPSR Register
 102:C:/Workspaces/DAVE-4.3/WS_2016_09_02/Flightcontroller_PWM_CopterRocks_Working/Libraries/CMSIS/Include\cmsis_gcc.h ****   \details Returns the content of the IPSR Register.
 103:C:/Workspaces/DAVE-4.3/WS_2016_09_02/Flightcontroller_PWM_CopterRocks_Working/Libraries/CMSIS/Include\cmsis_gcc.h ****   \return               IPSR Register value
 104:C:/Workspaces/DAVE-4.3/WS_2016_09_02/Flightcontroller_PWM_CopterRocks_Working/Libraries/CMSIS/Include\cmsis_gcc.h ****  */
 105:C:/Workspaces/DAVE-4.3/WS_2016_09_02/Flightcontroller_PWM_CopterRocks_Working/Libraries/CMSIS/Include\cmsis_gcc.h **** __attribute__( ( always_inline ) ) __STATIC_INLINE uint32_t __get_IPSR(void)
 106:C:/Workspaces/DAVE-4.3/WS_2016_09_02/Flightcontroller_PWM_CopterRocks_Working/Libraries/CMSIS/Include\cmsis_gcc.h **** {
 107:C:/Workspaces/DAVE-4.3/WS_2016_09_02/Flightcontroller_PWM_CopterRocks_Working/Libraries/CMSIS/Include\cmsis_gcc.h ****   uint32_t result;
 108:C:/Workspaces/DAVE-4.3/WS_2016_09_02/Flightcontroller_PWM_CopterRocks_Working/Libraries/CMSIS/Include\cmsis_gcc.h **** 
 109:C:/Workspaces/DAVE-4.3/WS_2016_09_02/Flightcontroller_PWM_CopterRocks_Working/Libraries/CMSIS/Include\cmsis_gcc.h ****   __ASM volatile ("MRS %0, ipsr" : "=r" (result) );
 110:C:/Workspaces/DAVE-4.3/WS_2016_09_02/Flightcontroller_PWM_CopterRocks_Working/Libraries/CMSIS/Include\cmsis_gcc.h ****   return(result);
 111:C:/Workspaces/DAVE-4.3/WS_2016_09_02/Flightcontroller_PWM_CopterRocks_Working/Libraries/CMSIS/Include\cmsis_gcc.h **** }
 112:C:/Workspaces/DAVE-4.3/WS_2016_09_02/Flightcontroller_PWM_CopterRocks_Working/Libraries/CMSIS/Include\cmsis_gcc.h **** 
 113:C:/Workspaces/DAVE-4.3/WS_2016_09_02/Flightcontroller_PWM_CopterRocks_Working/Libraries/CMSIS/Include\cmsis_gcc.h **** 
 114:C:/Workspaces/DAVE-4.3/WS_2016_09_02/Flightcontroller_PWM_CopterRocks_Working/Libraries/CMSIS/Include\cmsis_gcc.h **** /**
 115:C:/Workspaces/DAVE-4.3/WS_2016_09_02/Flightcontroller_PWM_CopterRocks_Working/Libraries/CMSIS/Include\cmsis_gcc.h ****   \brief   Get APSR Register
 116:C:/Workspaces/DAVE-4.3/WS_2016_09_02/Flightcontroller_PWM_CopterRocks_Working/Libraries/CMSIS/Include\cmsis_gcc.h ****   \details Returns the content of the APSR Register.
 117:C:/Workspaces/DAVE-4.3/WS_2016_09_02/Flightcontroller_PWM_CopterRocks_Working/Libraries/CMSIS/Include\cmsis_gcc.h ****   \return               APSR Register value
 118:C:/Workspaces/DAVE-4.3/WS_2016_09_02/Flightcontroller_PWM_CopterRocks_Working/Libraries/CMSIS/Include\cmsis_gcc.h ****  */
 119:C:/Workspaces/DAVE-4.3/WS_2016_09_02/Flightcontroller_PWM_CopterRocks_Working/Libraries/CMSIS/Include\cmsis_gcc.h **** __attribute__( ( always_inline ) ) __STATIC_INLINE uint32_t __get_APSR(void)
 120:C:/Workspaces/DAVE-4.3/WS_2016_09_02/Flightcontroller_PWM_CopterRocks_Working/Libraries/CMSIS/Include\cmsis_gcc.h **** {
 121:C:/Workspaces/DAVE-4.3/WS_2016_09_02/Flightcontroller_PWM_CopterRocks_Working/Libraries/CMSIS/Include\cmsis_gcc.h ****   uint32_t result;
 122:C:/Workspaces/DAVE-4.3/WS_2016_09_02/Flightcontroller_PWM_CopterRocks_Working/Libraries/CMSIS/Include\cmsis_gcc.h **** 
 123:C:/Workspaces/DAVE-4.3/WS_2016_09_02/Flightcontroller_PWM_CopterRocks_Working/Libraries/CMSIS/Include\cmsis_gcc.h ****   __ASM volatile ("MRS %0, apsr" : "=r" (result) );
 124:C:/Workspaces/DAVE-4.3/WS_2016_09_02/Flightcontroller_PWM_CopterRocks_Working/Libraries/CMSIS/Include\cmsis_gcc.h ****   return(result);
 125:C:/Workspaces/DAVE-4.3/WS_2016_09_02/Flightcontroller_PWM_CopterRocks_Working/Libraries/CMSIS/Include\cmsis_gcc.h **** }
 126:C:/Workspaces/DAVE-4.3/WS_2016_09_02/Flightcontroller_PWM_CopterRocks_Working/Libraries/CMSIS/Include\cmsis_gcc.h **** 
 127:C:/Workspaces/DAVE-4.3/WS_2016_09_02/Flightcontroller_PWM_CopterRocks_Working/Libraries/CMSIS/Include\cmsis_gcc.h **** 
 128:C:/Workspaces/DAVE-4.3/WS_2016_09_02/Flightcontroller_PWM_CopterRocks_Working/Libraries/CMSIS/Include\cmsis_gcc.h **** /**
 129:C:/Workspaces/DAVE-4.3/WS_2016_09_02/Flightcontroller_PWM_CopterRocks_Working/Libraries/CMSIS/Include\cmsis_gcc.h ****   \brief   Get xPSR Register
 130:C:/Workspaces/DAVE-4.3/WS_2016_09_02/Flightcontroller_PWM_CopterRocks_Working/Libraries/CMSIS/Include\cmsis_gcc.h ****   \details Returns the content of the xPSR Register.
 131:C:/Workspaces/DAVE-4.3/WS_2016_09_02/Flightcontroller_PWM_CopterRocks_Working/Libraries/CMSIS/Include\cmsis_gcc.h **** 
 132:C:/Workspaces/DAVE-4.3/WS_2016_09_02/Flightcontroller_PWM_CopterRocks_Working/Libraries/CMSIS/Include\cmsis_gcc.h ****     \return               xPSR Register value
 133:C:/Workspaces/DAVE-4.3/WS_2016_09_02/Flightcontroller_PWM_CopterRocks_Working/Libraries/CMSIS/Include\cmsis_gcc.h ****  */
 134:C:/Workspaces/DAVE-4.3/WS_2016_09_02/Flightcontroller_PWM_CopterRocks_Working/Libraries/CMSIS/Include\cmsis_gcc.h **** __attribute__( ( always_inline ) ) __STATIC_INLINE uint32_t __get_xPSR(void)
 135:C:/Workspaces/DAVE-4.3/WS_2016_09_02/Flightcontroller_PWM_CopterRocks_Working/Libraries/CMSIS/Include\cmsis_gcc.h **** {
 136:C:/Workspaces/DAVE-4.3/WS_2016_09_02/Flightcontroller_PWM_CopterRocks_Working/Libraries/CMSIS/Include\cmsis_gcc.h ****   uint32_t result;
 137:C:/Workspaces/DAVE-4.3/WS_2016_09_02/Flightcontroller_PWM_CopterRocks_Working/Libraries/CMSIS/Include\cmsis_gcc.h **** 
 138:C:/Workspaces/DAVE-4.3/WS_2016_09_02/Flightcontroller_PWM_CopterRocks_Working/Libraries/CMSIS/Include\cmsis_gcc.h ****   __ASM volatile ("MRS %0, xpsr" : "=r" (result) );
 139:C:/Workspaces/DAVE-4.3/WS_2016_09_02/Flightcontroller_PWM_CopterRocks_Working/Libraries/CMSIS/Include\cmsis_gcc.h ****   return(result);
 140:C:/Workspaces/DAVE-4.3/WS_2016_09_02/Flightcontroller_PWM_CopterRocks_Working/Libraries/CMSIS/Include\cmsis_gcc.h **** }
 141:C:/Workspaces/DAVE-4.3/WS_2016_09_02/Flightcontroller_PWM_CopterRocks_Working/Libraries/CMSIS/Include\cmsis_gcc.h **** 
 142:C:/Workspaces/DAVE-4.3/WS_2016_09_02/Flightcontroller_PWM_CopterRocks_Working/Libraries/CMSIS/Include\cmsis_gcc.h **** 
 143:C:/Workspaces/DAVE-4.3/WS_2016_09_02/Flightcontroller_PWM_CopterRocks_Working/Libraries/CMSIS/Include\cmsis_gcc.h **** /**
 144:C:/Workspaces/DAVE-4.3/WS_2016_09_02/Flightcontroller_PWM_CopterRocks_Working/Libraries/CMSIS/Include\cmsis_gcc.h ****   \brief   Get Process Stack Pointer
 145:C:/Workspaces/DAVE-4.3/WS_2016_09_02/Flightcontroller_PWM_CopterRocks_Working/Libraries/CMSIS/Include\cmsis_gcc.h ****   \details Returns the current value of the Process Stack Pointer (PSP).
 146:C:/Workspaces/DAVE-4.3/WS_2016_09_02/Flightcontroller_PWM_CopterRocks_Working/Libraries/CMSIS/Include\cmsis_gcc.h ****   \return               PSP Register value
 147:C:/Workspaces/DAVE-4.3/WS_2016_09_02/Flightcontroller_PWM_CopterRocks_Working/Libraries/CMSIS/Include\cmsis_gcc.h ****  */
 148:C:/Workspaces/DAVE-4.3/WS_2016_09_02/Flightcontroller_PWM_CopterRocks_Working/Libraries/CMSIS/Include\cmsis_gcc.h **** __attribute__( ( always_inline ) ) __STATIC_INLINE uint32_t __get_PSP(void)
 149:C:/Workspaces/DAVE-4.3/WS_2016_09_02/Flightcontroller_PWM_CopterRocks_Working/Libraries/CMSIS/Include\cmsis_gcc.h **** {
 150:C:/Workspaces/DAVE-4.3/WS_2016_09_02/Flightcontroller_PWM_CopterRocks_Working/Libraries/CMSIS/Include\cmsis_gcc.h ****   register uint32_t result;
 151:C:/Workspaces/DAVE-4.3/WS_2016_09_02/Flightcontroller_PWM_CopterRocks_Working/Libraries/CMSIS/Include\cmsis_gcc.h **** 
 152:C:/Workspaces/DAVE-4.3/WS_2016_09_02/Flightcontroller_PWM_CopterRocks_Working/Libraries/CMSIS/Include\cmsis_gcc.h ****   __ASM volatile ("MRS %0, psp\n"  : "=r" (result) );
 153:C:/Workspaces/DAVE-4.3/WS_2016_09_02/Flightcontroller_PWM_CopterRocks_Working/Libraries/CMSIS/Include\cmsis_gcc.h ****   return(result);
 154:C:/Workspaces/DAVE-4.3/WS_2016_09_02/Flightcontroller_PWM_CopterRocks_Working/Libraries/CMSIS/Include\cmsis_gcc.h **** }
 155:C:/Workspaces/DAVE-4.3/WS_2016_09_02/Flightcontroller_PWM_CopterRocks_Working/Libraries/CMSIS/Include\cmsis_gcc.h **** 
 156:C:/Workspaces/DAVE-4.3/WS_2016_09_02/Flightcontroller_PWM_CopterRocks_Working/Libraries/CMSIS/Include\cmsis_gcc.h **** 
 157:C:/Workspaces/DAVE-4.3/WS_2016_09_02/Flightcontroller_PWM_CopterRocks_Working/Libraries/CMSIS/Include\cmsis_gcc.h **** /**
 158:C:/Workspaces/DAVE-4.3/WS_2016_09_02/Flightcontroller_PWM_CopterRocks_Working/Libraries/CMSIS/Include\cmsis_gcc.h ****   \brief   Set Process Stack Pointer
 159:C:/Workspaces/DAVE-4.3/WS_2016_09_02/Flightcontroller_PWM_CopterRocks_Working/Libraries/CMSIS/Include\cmsis_gcc.h ****   \details Assigns the given value to the Process Stack Pointer (PSP).
 160:C:/Workspaces/DAVE-4.3/WS_2016_09_02/Flightcontroller_PWM_CopterRocks_Working/Libraries/CMSIS/Include\cmsis_gcc.h ****   \param [in]    topOfProcStack  Process Stack Pointer value to set
 161:C:/Workspaces/DAVE-4.3/WS_2016_09_02/Flightcontroller_PWM_CopterRocks_Working/Libraries/CMSIS/Include\cmsis_gcc.h ****  */
 162:C:/Workspaces/DAVE-4.3/WS_2016_09_02/Flightcontroller_PWM_CopterRocks_Working/Libraries/CMSIS/Include\cmsis_gcc.h **** __attribute__( ( always_inline ) ) __STATIC_INLINE void __set_PSP(uint32_t topOfProcStack)
 163:C:/Workspaces/DAVE-4.3/WS_2016_09_02/Flightcontroller_PWM_CopterRocks_Working/Libraries/CMSIS/Include\cmsis_gcc.h **** {
 164:C:/Workspaces/DAVE-4.3/WS_2016_09_02/Flightcontroller_PWM_CopterRocks_Working/Libraries/CMSIS/Include\cmsis_gcc.h ****   __ASM volatile ("MSR psp, %0\n" : : "r" (topOfProcStack) : "sp");
 165:C:/Workspaces/DAVE-4.3/WS_2016_09_02/Flightcontroller_PWM_CopterRocks_Working/Libraries/CMSIS/Include\cmsis_gcc.h **** }
 166:C:/Workspaces/DAVE-4.3/WS_2016_09_02/Flightcontroller_PWM_CopterRocks_Working/Libraries/CMSIS/Include\cmsis_gcc.h **** 
 167:C:/Workspaces/DAVE-4.3/WS_2016_09_02/Flightcontroller_PWM_CopterRocks_Working/Libraries/CMSIS/Include\cmsis_gcc.h **** 
 168:C:/Workspaces/DAVE-4.3/WS_2016_09_02/Flightcontroller_PWM_CopterRocks_Working/Libraries/CMSIS/Include\cmsis_gcc.h **** /**
 169:C:/Workspaces/DAVE-4.3/WS_2016_09_02/Flightcontroller_PWM_CopterRocks_Working/Libraries/CMSIS/Include\cmsis_gcc.h ****   \brief   Get Main Stack Pointer
 170:C:/Workspaces/DAVE-4.3/WS_2016_09_02/Flightcontroller_PWM_CopterRocks_Working/Libraries/CMSIS/Include\cmsis_gcc.h ****   \details Returns the current value of the Main Stack Pointer (MSP).
 171:C:/Workspaces/DAVE-4.3/WS_2016_09_02/Flightcontroller_PWM_CopterRocks_Working/Libraries/CMSIS/Include\cmsis_gcc.h ****   \return               MSP Register value
 172:C:/Workspaces/DAVE-4.3/WS_2016_09_02/Flightcontroller_PWM_CopterRocks_Working/Libraries/CMSIS/Include\cmsis_gcc.h ****  */
 173:C:/Workspaces/DAVE-4.3/WS_2016_09_02/Flightcontroller_PWM_CopterRocks_Working/Libraries/CMSIS/Include\cmsis_gcc.h **** __attribute__( ( always_inline ) ) __STATIC_INLINE uint32_t __get_MSP(void)
 174:C:/Workspaces/DAVE-4.3/WS_2016_09_02/Flightcontroller_PWM_CopterRocks_Working/Libraries/CMSIS/Include\cmsis_gcc.h **** {
 175:C:/Workspaces/DAVE-4.3/WS_2016_09_02/Flightcontroller_PWM_CopterRocks_Working/Libraries/CMSIS/Include\cmsis_gcc.h ****   register uint32_t result;
 176:C:/Workspaces/DAVE-4.3/WS_2016_09_02/Flightcontroller_PWM_CopterRocks_Working/Libraries/CMSIS/Include\cmsis_gcc.h **** 
 177:C:/Workspaces/DAVE-4.3/WS_2016_09_02/Flightcontroller_PWM_CopterRocks_Working/Libraries/CMSIS/Include\cmsis_gcc.h ****   __ASM volatile ("MRS %0, msp\n" : "=r" (result) );
 178:C:/Workspaces/DAVE-4.3/WS_2016_09_02/Flightcontroller_PWM_CopterRocks_Working/Libraries/CMSIS/Include\cmsis_gcc.h ****   return(result);
 179:C:/Workspaces/DAVE-4.3/WS_2016_09_02/Flightcontroller_PWM_CopterRocks_Working/Libraries/CMSIS/Include\cmsis_gcc.h **** }
 180:C:/Workspaces/DAVE-4.3/WS_2016_09_02/Flightcontroller_PWM_CopterRocks_Working/Libraries/CMSIS/Include\cmsis_gcc.h **** 
 181:C:/Workspaces/DAVE-4.3/WS_2016_09_02/Flightcontroller_PWM_CopterRocks_Working/Libraries/CMSIS/Include\cmsis_gcc.h **** 
 182:C:/Workspaces/DAVE-4.3/WS_2016_09_02/Flightcontroller_PWM_CopterRocks_Working/Libraries/CMSIS/Include\cmsis_gcc.h **** /**
 183:C:/Workspaces/DAVE-4.3/WS_2016_09_02/Flightcontroller_PWM_CopterRocks_Working/Libraries/CMSIS/Include\cmsis_gcc.h ****   \brief   Set Main Stack Pointer
 184:C:/Workspaces/DAVE-4.3/WS_2016_09_02/Flightcontroller_PWM_CopterRocks_Working/Libraries/CMSIS/Include\cmsis_gcc.h ****   \details Assigns the given value to the Main Stack Pointer (MSP).
 185:C:/Workspaces/DAVE-4.3/WS_2016_09_02/Flightcontroller_PWM_CopterRocks_Working/Libraries/CMSIS/Include\cmsis_gcc.h **** 
 186:C:/Workspaces/DAVE-4.3/WS_2016_09_02/Flightcontroller_PWM_CopterRocks_Working/Libraries/CMSIS/Include\cmsis_gcc.h ****     \param [in]    topOfMainStack  Main Stack Pointer value to set
 187:C:/Workspaces/DAVE-4.3/WS_2016_09_02/Flightcontroller_PWM_CopterRocks_Working/Libraries/CMSIS/Include\cmsis_gcc.h ****  */
 188:C:/Workspaces/DAVE-4.3/WS_2016_09_02/Flightcontroller_PWM_CopterRocks_Working/Libraries/CMSIS/Include\cmsis_gcc.h **** __attribute__( ( always_inline ) ) __STATIC_INLINE void __set_MSP(uint32_t topOfMainStack)
 189:C:/Workspaces/DAVE-4.3/WS_2016_09_02/Flightcontroller_PWM_CopterRocks_Working/Libraries/CMSIS/Include\cmsis_gcc.h **** {
 190:C:/Workspaces/DAVE-4.3/WS_2016_09_02/Flightcontroller_PWM_CopterRocks_Working/Libraries/CMSIS/Include\cmsis_gcc.h ****   __ASM volatile ("MSR msp, %0\n" : : "r" (topOfMainStack) : "sp");
 191:C:/Workspaces/DAVE-4.3/WS_2016_09_02/Flightcontroller_PWM_CopterRocks_Working/Libraries/CMSIS/Include\cmsis_gcc.h **** }
 192:C:/Workspaces/DAVE-4.3/WS_2016_09_02/Flightcontroller_PWM_CopterRocks_Working/Libraries/CMSIS/Include\cmsis_gcc.h **** 
 193:C:/Workspaces/DAVE-4.3/WS_2016_09_02/Flightcontroller_PWM_CopterRocks_Working/Libraries/CMSIS/Include\cmsis_gcc.h **** 
 194:C:/Workspaces/DAVE-4.3/WS_2016_09_02/Flightcontroller_PWM_CopterRocks_Working/Libraries/CMSIS/Include\cmsis_gcc.h **** /**
 195:C:/Workspaces/DAVE-4.3/WS_2016_09_02/Flightcontroller_PWM_CopterRocks_Working/Libraries/CMSIS/Include\cmsis_gcc.h ****   \brief   Get Priority Mask
 196:C:/Workspaces/DAVE-4.3/WS_2016_09_02/Flightcontroller_PWM_CopterRocks_Working/Libraries/CMSIS/Include\cmsis_gcc.h ****   \details Returns the current state of the priority mask bit from the Priority Mask Register.
 197:C:/Workspaces/DAVE-4.3/WS_2016_09_02/Flightcontroller_PWM_CopterRocks_Working/Libraries/CMSIS/Include\cmsis_gcc.h ****   \return               Priority Mask value
 198:C:/Workspaces/DAVE-4.3/WS_2016_09_02/Flightcontroller_PWM_CopterRocks_Working/Libraries/CMSIS/Include\cmsis_gcc.h ****  */
 199:C:/Workspaces/DAVE-4.3/WS_2016_09_02/Flightcontroller_PWM_CopterRocks_Working/Libraries/CMSIS/Include\cmsis_gcc.h **** __attribute__( ( always_inline ) ) __STATIC_INLINE uint32_t __get_PRIMASK(void)
 200:C:/Workspaces/DAVE-4.3/WS_2016_09_02/Flightcontroller_PWM_CopterRocks_Working/Libraries/CMSIS/Include\cmsis_gcc.h **** {
 201:C:/Workspaces/DAVE-4.3/WS_2016_09_02/Flightcontroller_PWM_CopterRocks_Working/Libraries/CMSIS/Include\cmsis_gcc.h ****   uint32_t result;
 202:C:/Workspaces/DAVE-4.3/WS_2016_09_02/Flightcontroller_PWM_CopterRocks_Working/Libraries/CMSIS/Include\cmsis_gcc.h **** 
 203:C:/Workspaces/DAVE-4.3/WS_2016_09_02/Flightcontroller_PWM_CopterRocks_Working/Libraries/CMSIS/Include\cmsis_gcc.h ****   __ASM volatile ("MRS %0, primask" : "=r" (result) );
 204:C:/Workspaces/DAVE-4.3/WS_2016_09_02/Flightcontroller_PWM_CopterRocks_Working/Libraries/CMSIS/Include\cmsis_gcc.h ****   return(result);
 205:C:/Workspaces/DAVE-4.3/WS_2016_09_02/Flightcontroller_PWM_CopterRocks_Working/Libraries/CMSIS/Include\cmsis_gcc.h **** }
 206:C:/Workspaces/DAVE-4.3/WS_2016_09_02/Flightcontroller_PWM_CopterRocks_Working/Libraries/CMSIS/Include\cmsis_gcc.h **** 
 207:C:/Workspaces/DAVE-4.3/WS_2016_09_02/Flightcontroller_PWM_CopterRocks_Working/Libraries/CMSIS/Include\cmsis_gcc.h **** 
 208:C:/Workspaces/DAVE-4.3/WS_2016_09_02/Flightcontroller_PWM_CopterRocks_Working/Libraries/CMSIS/Include\cmsis_gcc.h **** /**
 209:C:/Workspaces/DAVE-4.3/WS_2016_09_02/Flightcontroller_PWM_CopterRocks_Working/Libraries/CMSIS/Include\cmsis_gcc.h ****   \brief   Set Priority Mask
 210:C:/Workspaces/DAVE-4.3/WS_2016_09_02/Flightcontroller_PWM_CopterRocks_Working/Libraries/CMSIS/Include\cmsis_gcc.h ****   \details Assigns the given value to the Priority Mask Register.
 211:C:/Workspaces/DAVE-4.3/WS_2016_09_02/Flightcontroller_PWM_CopterRocks_Working/Libraries/CMSIS/Include\cmsis_gcc.h ****   \param [in]    priMask  Priority Mask
 212:C:/Workspaces/DAVE-4.3/WS_2016_09_02/Flightcontroller_PWM_CopterRocks_Working/Libraries/CMSIS/Include\cmsis_gcc.h ****  */
 213:C:/Workspaces/DAVE-4.3/WS_2016_09_02/Flightcontroller_PWM_CopterRocks_Working/Libraries/CMSIS/Include\cmsis_gcc.h **** __attribute__( ( always_inline ) ) __STATIC_INLINE void __set_PRIMASK(uint32_t priMask)
 214:C:/Workspaces/DAVE-4.3/WS_2016_09_02/Flightcontroller_PWM_CopterRocks_Working/Libraries/CMSIS/Include\cmsis_gcc.h **** {
 215:C:/Workspaces/DAVE-4.3/WS_2016_09_02/Flightcontroller_PWM_CopterRocks_Working/Libraries/CMSIS/Include\cmsis_gcc.h ****   __ASM volatile ("MSR primask, %0" : : "r" (priMask) : "memory");
 216:C:/Workspaces/DAVE-4.3/WS_2016_09_02/Flightcontroller_PWM_CopterRocks_Working/Libraries/CMSIS/Include\cmsis_gcc.h **** }
 217:C:/Workspaces/DAVE-4.3/WS_2016_09_02/Flightcontroller_PWM_CopterRocks_Working/Libraries/CMSIS/Include\cmsis_gcc.h **** 
 218:C:/Workspaces/DAVE-4.3/WS_2016_09_02/Flightcontroller_PWM_CopterRocks_Working/Libraries/CMSIS/Include\cmsis_gcc.h **** 
 219:C:/Workspaces/DAVE-4.3/WS_2016_09_02/Flightcontroller_PWM_CopterRocks_Working/Libraries/CMSIS/Include\cmsis_gcc.h **** #if       (__CORTEX_M >= 0x03U)
 220:C:/Workspaces/DAVE-4.3/WS_2016_09_02/Flightcontroller_PWM_CopterRocks_Working/Libraries/CMSIS/Include\cmsis_gcc.h **** 
 221:C:/Workspaces/DAVE-4.3/WS_2016_09_02/Flightcontroller_PWM_CopterRocks_Working/Libraries/CMSIS/Include\cmsis_gcc.h **** /**
 222:C:/Workspaces/DAVE-4.3/WS_2016_09_02/Flightcontroller_PWM_CopterRocks_Working/Libraries/CMSIS/Include\cmsis_gcc.h ****   \brief   Enable FIQ
 223:C:/Workspaces/DAVE-4.3/WS_2016_09_02/Flightcontroller_PWM_CopterRocks_Working/Libraries/CMSIS/Include\cmsis_gcc.h ****   \details Enables FIQ interrupts by clearing the F-bit in the CPSR.
 224:C:/Workspaces/DAVE-4.3/WS_2016_09_02/Flightcontroller_PWM_CopterRocks_Working/Libraries/CMSIS/Include\cmsis_gcc.h ****            Can only be executed in Privileged modes.
 225:C:/Workspaces/DAVE-4.3/WS_2016_09_02/Flightcontroller_PWM_CopterRocks_Working/Libraries/CMSIS/Include\cmsis_gcc.h ****  */
 226:C:/Workspaces/DAVE-4.3/WS_2016_09_02/Flightcontroller_PWM_CopterRocks_Working/Libraries/CMSIS/Include\cmsis_gcc.h **** __attribute__( ( always_inline ) ) __STATIC_INLINE void __enable_fault_irq(void)
 227:C:/Workspaces/DAVE-4.3/WS_2016_09_02/Flightcontroller_PWM_CopterRocks_Working/Libraries/CMSIS/Include\cmsis_gcc.h **** {
 228:C:/Workspaces/DAVE-4.3/WS_2016_09_02/Flightcontroller_PWM_CopterRocks_Working/Libraries/CMSIS/Include\cmsis_gcc.h ****   __ASM volatile ("cpsie f" : : : "memory");
 229:C:/Workspaces/DAVE-4.3/WS_2016_09_02/Flightcontroller_PWM_CopterRocks_Working/Libraries/CMSIS/Include\cmsis_gcc.h **** }
 230:C:/Workspaces/DAVE-4.3/WS_2016_09_02/Flightcontroller_PWM_CopterRocks_Working/Libraries/CMSIS/Include\cmsis_gcc.h **** 
 231:C:/Workspaces/DAVE-4.3/WS_2016_09_02/Flightcontroller_PWM_CopterRocks_Working/Libraries/CMSIS/Include\cmsis_gcc.h **** 
 232:C:/Workspaces/DAVE-4.3/WS_2016_09_02/Flightcontroller_PWM_CopterRocks_Working/Libraries/CMSIS/Include\cmsis_gcc.h **** /**
 233:C:/Workspaces/DAVE-4.3/WS_2016_09_02/Flightcontroller_PWM_CopterRocks_Working/Libraries/CMSIS/Include\cmsis_gcc.h ****   \brief   Disable FIQ
 234:C:/Workspaces/DAVE-4.3/WS_2016_09_02/Flightcontroller_PWM_CopterRocks_Working/Libraries/CMSIS/Include\cmsis_gcc.h ****   \details Disables FIQ interrupts by setting the F-bit in the CPSR.
 235:C:/Workspaces/DAVE-4.3/WS_2016_09_02/Flightcontroller_PWM_CopterRocks_Working/Libraries/CMSIS/Include\cmsis_gcc.h ****            Can only be executed in Privileged modes.
 236:C:/Workspaces/DAVE-4.3/WS_2016_09_02/Flightcontroller_PWM_CopterRocks_Working/Libraries/CMSIS/Include\cmsis_gcc.h ****  */
 237:C:/Workspaces/DAVE-4.3/WS_2016_09_02/Flightcontroller_PWM_CopterRocks_Working/Libraries/CMSIS/Include\cmsis_gcc.h **** __attribute__( ( always_inline ) ) __STATIC_INLINE void __disable_fault_irq(void)
 238:C:/Workspaces/DAVE-4.3/WS_2016_09_02/Flightcontroller_PWM_CopterRocks_Working/Libraries/CMSIS/Include\cmsis_gcc.h **** {
 239:C:/Workspaces/DAVE-4.3/WS_2016_09_02/Flightcontroller_PWM_CopterRocks_Working/Libraries/CMSIS/Include\cmsis_gcc.h ****   __ASM volatile ("cpsid f" : : : "memory");
 240:C:/Workspaces/DAVE-4.3/WS_2016_09_02/Flightcontroller_PWM_CopterRocks_Working/Libraries/CMSIS/Include\cmsis_gcc.h **** }
 241:C:/Workspaces/DAVE-4.3/WS_2016_09_02/Flightcontroller_PWM_CopterRocks_Working/Libraries/CMSIS/Include\cmsis_gcc.h **** 
 242:C:/Workspaces/DAVE-4.3/WS_2016_09_02/Flightcontroller_PWM_CopterRocks_Working/Libraries/CMSIS/Include\cmsis_gcc.h **** 
 243:C:/Workspaces/DAVE-4.3/WS_2016_09_02/Flightcontroller_PWM_CopterRocks_Working/Libraries/CMSIS/Include\cmsis_gcc.h **** /**
 244:C:/Workspaces/DAVE-4.3/WS_2016_09_02/Flightcontroller_PWM_CopterRocks_Working/Libraries/CMSIS/Include\cmsis_gcc.h ****   \brief   Get Base Priority
 245:C:/Workspaces/DAVE-4.3/WS_2016_09_02/Flightcontroller_PWM_CopterRocks_Working/Libraries/CMSIS/Include\cmsis_gcc.h ****   \details Returns the current value of the Base Priority register.
 246:C:/Workspaces/DAVE-4.3/WS_2016_09_02/Flightcontroller_PWM_CopterRocks_Working/Libraries/CMSIS/Include\cmsis_gcc.h ****   \return               Base Priority register value
 247:C:/Workspaces/DAVE-4.3/WS_2016_09_02/Flightcontroller_PWM_CopterRocks_Working/Libraries/CMSIS/Include\cmsis_gcc.h ****  */
 248:C:/Workspaces/DAVE-4.3/WS_2016_09_02/Flightcontroller_PWM_CopterRocks_Working/Libraries/CMSIS/Include\cmsis_gcc.h **** __attribute__( ( always_inline ) ) __STATIC_INLINE uint32_t __get_BASEPRI(void)
 249:C:/Workspaces/DAVE-4.3/WS_2016_09_02/Flightcontroller_PWM_CopterRocks_Working/Libraries/CMSIS/Include\cmsis_gcc.h **** {
 250:C:/Workspaces/DAVE-4.3/WS_2016_09_02/Flightcontroller_PWM_CopterRocks_Working/Libraries/CMSIS/Include\cmsis_gcc.h ****   uint32_t result;
 251:C:/Workspaces/DAVE-4.3/WS_2016_09_02/Flightcontroller_PWM_CopterRocks_Working/Libraries/CMSIS/Include\cmsis_gcc.h **** 
 252:C:/Workspaces/DAVE-4.3/WS_2016_09_02/Flightcontroller_PWM_CopterRocks_Working/Libraries/CMSIS/Include\cmsis_gcc.h ****   __ASM volatile ("MRS %0, basepri" : "=r" (result) );
 253:C:/Workspaces/DAVE-4.3/WS_2016_09_02/Flightcontroller_PWM_CopterRocks_Working/Libraries/CMSIS/Include\cmsis_gcc.h ****   return(result);
 254:C:/Workspaces/DAVE-4.3/WS_2016_09_02/Flightcontroller_PWM_CopterRocks_Working/Libraries/CMSIS/Include\cmsis_gcc.h **** }
 255:C:/Workspaces/DAVE-4.3/WS_2016_09_02/Flightcontroller_PWM_CopterRocks_Working/Libraries/CMSIS/Include\cmsis_gcc.h **** 
 256:C:/Workspaces/DAVE-4.3/WS_2016_09_02/Flightcontroller_PWM_CopterRocks_Working/Libraries/CMSIS/Include\cmsis_gcc.h **** 
 257:C:/Workspaces/DAVE-4.3/WS_2016_09_02/Flightcontroller_PWM_CopterRocks_Working/Libraries/CMSIS/Include\cmsis_gcc.h **** /**
 258:C:/Workspaces/DAVE-4.3/WS_2016_09_02/Flightcontroller_PWM_CopterRocks_Working/Libraries/CMSIS/Include\cmsis_gcc.h ****   \brief   Set Base Priority
 259:C:/Workspaces/DAVE-4.3/WS_2016_09_02/Flightcontroller_PWM_CopterRocks_Working/Libraries/CMSIS/Include\cmsis_gcc.h ****   \details Assigns the given value to the Base Priority register.
 260:C:/Workspaces/DAVE-4.3/WS_2016_09_02/Flightcontroller_PWM_CopterRocks_Working/Libraries/CMSIS/Include\cmsis_gcc.h ****   \param [in]    basePri  Base Priority value to set
 261:C:/Workspaces/DAVE-4.3/WS_2016_09_02/Flightcontroller_PWM_CopterRocks_Working/Libraries/CMSIS/Include\cmsis_gcc.h ****  */
 262:C:/Workspaces/DAVE-4.3/WS_2016_09_02/Flightcontroller_PWM_CopterRocks_Working/Libraries/CMSIS/Include\cmsis_gcc.h **** __attribute__( ( always_inline ) ) __STATIC_INLINE void __set_BASEPRI(uint32_t value)
 263:C:/Workspaces/DAVE-4.3/WS_2016_09_02/Flightcontroller_PWM_CopterRocks_Working/Libraries/CMSIS/Include\cmsis_gcc.h **** {
 264:C:/Workspaces/DAVE-4.3/WS_2016_09_02/Flightcontroller_PWM_CopterRocks_Working/Libraries/CMSIS/Include\cmsis_gcc.h ****   __ASM volatile ("MSR basepri, %0" : : "r" (value) : "memory");
 265:C:/Workspaces/DAVE-4.3/WS_2016_09_02/Flightcontroller_PWM_CopterRocks_Working/Libraries/CMSIS/Include\cmsis_gcc.h **** }
 266:C:/Workspaces/DAVE-4.3/WS_2016_09_02/Flightcontroller_PWM_CopterRocks_Working/Libraries/CMSIS/Include\cmsis_gcc.h **** 
 267:C:/Workspaces/DAVE-4.3/WS_2016_09_02/Flightcontroller_PWM_CopterRocks_Working/Libraries/CMSIS/Include\cmsis_gcc.h **** 
 268:C:/Workspaces/DAVE-4.3/WS_2016_09_02/Flightcontroller_PWM_CopterRocks_Working/Libraries/CMSIS/Include\cmsis_gcc.h **** /**
 269:C:/Workspaces/DAVE-4.3/WS_2016_09_02/Flightcontroller_PWM_CopterRocks_Working/Libraries/CMSIS/Include\cmsis_gcc.h ****   \brief   Set Base Priority with condition
 270:C:/Workspaces/DAVE-4.3/WS_2016_09_02/Flightcontroller_PWM_CopterRocks_Working/Libraries/CMSIS/Include\cmsis_gcc.h ****   \details Assigns the given value to the Base Priority register only if BASEPRI masking is disable
 271:C:/Workspaces/DAVE-4.3/WS_2016_09_02/Flightcontroller_PWM_CopterRocks_Working/Libraries/CMSIS/Include\cmsis_gcc.h ****            or the new value increases the BASEPRI priority level.
 272:C:/Workspaces/DAVE-4.3/WS_2016_09_02/Flightcontroller_PWM_CopterRocks_Working/Libraries/CMSIS/Include\cmsis_gcc.h ****   \param [in]    basePri  Base Priority value to set
 273:C:/Workspaces/DAVE-4.3/WS_2016_09_02/Flightcontroller_PWM_CopterRocks_Working/Libraries/CMSIS/Include\cmsis_gcc.h ****  */
 274:C:/Workspaces/DAVE-4.3/WS_2016_09_02/Flightcontroller_PWM_CopterRocks_Working/Libraries/CMSIS/Include\cmsis_gcc.h **** __attribute__( ( always_inline ) ) __STATIC_INLINE void __set_BASEPRI_MAX(uint32_t value)
 275:C:/Workspaces/DAVE-4.3/WS_2016_09_02/Flightcontroller_PWM_CopterRocks_Working/Libraries/CMSIS/Include\cmsis_gcc.h **** {
 276:C:/Workspaces/DAVE-4.3/WS_2016_09_02/Flightcontroller_PWM_CopterRocks_Working/Libraries/CMSIS/Include\cmsis_gcc.h ****   __ASM volatile ("MSR basepri_max, %0" : : "r" (value) : "memory");
 277:C:/Workspaces/DAVE-4.3/WS_2016_09_02/Flightcontroller_PWM_CopterRocks_Working/Libraries/CMSIS/Include\cmsis_gcc.h **** }
 278:C:/Workspaces/DAVE-4.3/WS_2016_09_02/Flightcontroller_PWM_CopterRocks_Working/Libraries/CMSIS/Include\cmsis_gcc.h **** 
 279:C:/Workspaces/DAVE-4.3/WS_2016_09_02/Flightcontroller_PWM_CopterRocks_Working/Libraries/CMSIS/Include\cmsis_gcc.h **** 
 280:C:/Workspaces/DAVE-4.3/WS_2016_09_02/Flightcontroller_PWM_CopterRocks_Working/Libraries/CMSIS/Include\cmsis_gcc.h **** /**
 281:C:/Workspaces/DAVE-4.3/WS_2016_09_02/Flightcontroller_PWM_CopterRocks_Working/Libraries/CMSIS/Include\cmsis_gcc.h ****   \brief   Get Fault Mask
 282:C:/Workspaces/DAVE-4.3/WS_2016_09_02/Flightcontroller_PWM_CopterRocks_Working/Libraries/CMSIS/Include\cmsis_gcc.h ****   \details Returns the current value of the Fault Mask register.
 283:C:/Workspaces/DAVE-4.3/WS_2016_09_02/Flightcontroller_PWM_CopterRocks_Working/Libraries/CMSIS/Include\cmsis_gcc.h ****   \return               Fault Mask register value
 284:C:/Workspaces/DAVE-4.3/WS_2016_09_02/Flightcontroller_PWM_CopterRocks_Working/Libraries/CMSIS/Include\cmsis_gcc.h ****  */
 285:C:/Workspaces/DAVE-4.3/WS_2016_09_02/Flightcontroller_PWM_CopterRocks_Working/Libraries/CMSIS/Include\cmsis_gcc.h **** __attribute__( ( always_inline ) ) __STATIC_INLINE uint32_t __get_FAULTMASK(void)
 286:C:/Workspaces/DAVE-4.3/WS_2016_09_02/Flightcontroller_PWM_CopterRocks_Working/Libraries/CMSIS/Include\cmsis_gcc.h **** {
 287:C:/Workspaces/DAVE-4.3/WS_2016_09_02/Flightcontroller_PWM_CopterRocks_Working/Libraries/CMSIS/Include\cmsis_gcc.h ****   uint32_t result;
 288:C:/Workspaces/DAVE-4.3/WS_2016_09_02/Flightcontroller_PWM_CopterRocks_Working/Libraries/CMSIS/Include\cmsis_gcc.h **** 
 289:C:/Workspaces/DAVE-4.3/WS_2016_09_02/Flightcontroller_PWM_CopterRocks_Working/Libraries/CMSIS/Include\cmsis_gcc.h ****   __ASM volatile ("MRS %0, faultmask" : "=r" (result) );
 290:C:/Workspaces/DAVE-4.3/WS_2016_09_02/Flightcontroller_PWM_CopterRocks_Working/Libraries/CMSIS/Include\cmsis_gcc.h ****   return(result);
 291:C:/Workspaces/DAVE-4.3/WS_2016_09_02/Flightcontroller_PWM_CopterRocks_Working/Libraries/CMSIS/Include\cmsis_gcc.h **** }
 292:C:/Workspaces/DAVE-4.3/WS_2016_09_02/Flightcontroller_PWM_CopterRocks_Working/Libraries/CMSIS/Include\cmsis_gcc.h **** 
 293:C:/Workspaces/DAVE-4.3/WS_2016_09_02/Flightcontroller_PWM_CopterRocks_Working/Libraries/CMSIS/Include\cmsis_gcc.h **** 
 294:C:/Workspaces/DAVE-4.3/WS_2016_09_02/Flightcontroller_PWM_CopterRocks_Working/Libraries/CMSIS/Include\cmsis_gcc.h **** /**
 295:C:/Workspaces/DAVE-4.3/WS_2016_09_02/Flightcontroller_PWM_CopterRocks_Working/Libraries/CMSIS/Include\cmsis_gcc.h ****   \brief   Set Fault Mask
 296:C:/Workspaces/DAVE-4.3/WS_2016_09_02/Flightcontroller_PWM_CopterRocks_Working/Libraries/CMSIS/Include\cmsis_gcc.h ****   \details Assigns the given value to the Fault Mask register.
 297:C:/Workspaces/DAVE-4.3/WS_2016_09_02/Flightcontroller_PWM_CopterRocks_Working/Libraries/CMSIS/Include\cmsis_gcc.h ****   \param [in]    faultMask  Fault Mask value to set
 298:C:/Workspaces/DAVE-4.3/WS_2016_09_02/Flightcontroller_PWM_CopterRocks_Working/Libraries/CMSIS/Include\cmsis_gcc.h ****  */
 299:C:/Workspaces/DAVE-4.3/WS_2016_09_02/Flightcontroller_PWM_CopterRocks_Working/Libraries/CMSIS/Include\cmsis_gcc.h **** __attribute__( ( always_inline ) ) __STATIC_INLINE void __set_FAULTMASK(uint32_t faultMask)
 300:C:/Workspaces/DAVE-4.3/WS_2016_09_02/Flightcontroller_PWM_CopterRocks_Working/Libraries/CMSIS/Include\cmsis_gcc.h **** {
 301:C:/Workspaces/DAVE-4.3/WS_2016_09_02/Flightcontroller_PWM_CopterRocks_Working/Libraries/CMSIS/Include\cmsis_gcc.h ****   __ASM volatile ("MSR faultmask, %0" : : "r" (faultMask) : "memory");
 302:C:/Workspaces/DAVE-4.3/WS_2016_09_02/Flightcontroller_PWM_CopterRocks_Working/Libraries/CMSIS/Include\cmsis_gcc.h **** }
 303:C:/Workspaces/DAVE-4.3/WS_2016_09_02/Flightcontroller_PWM_CopterRocks_Working/Libraries/CMSIS/Include\cmsis_gcc.h **** 
 304:C:/Workspaces/DAVE-4.3/WS_2016_09_02/Flightcontroller_PWM_CopterRocks_Working/Libraries/CMSIS/Include\cmsis_gcc.h **** #endif /* (__CORTEX_M >= 0x03U) */
 305:C:/Workspaces/DAVE-4.3/WS_2016_09_02/Flightcontroller_PWM_CopterRocks_Working/Libraries/CMSIS/Include\cmsis_gcc.h **** 
 306:C:/Workspaces/DAVE-4.3/WS_2016_09_02/Flightcontroller_PWM_CopterRocks_Working/Libraries/CMSIS/Include\cmsis_gcc.h **** 
 307:C:/Workspaces/DAVE-4.3/WS_2016_09_02/Flightcontroller_PWM_CopterRocks_Working/Libraries/CMSIS/Include\cmsis_gcc.h **** #if       (__CORTEX_M == 0x04U) || (__CORTEX_M == 0x07U)
 308:C:/Workspaces/DAVE-4.3/WS_2016_09_02/Flightcontroller_PWM_CopterRocks_Working/Libraries/CMSIS/Include\cmsis_gcc.h **** 
 309:C:/Workspaces/DAVE-4.3/WS_2016_09_02/Flightcontroller_PWM_CopterRocks_Working/Libraries/CMSIS/Include\cmsis_gcc.h **** /**
 310:C:/Workspaces/DAVE-4.3/WS_2016_09_02/Flightcontroller_PWM_CopterRocks_Working/Libraries/CMSIS/Include\cmsis_gcc.h ****   \brief   Get FPSCR
 311:C:/Workspaces/DAVE-4.3/WS_2016_09_02/Flightcontroller_PWM_CopterRocks_Working/Libraries/CMSIS/Include\cmsis_gcc.h ****   \details Returns the current value of the Floating Point Status/Control register.
 312:C:/Workspaces/DAVE-4.3/WS_2016_09_02/Flightcontroller_PWM_CopterRocks_Working/Libraries/CMSIS/Include\cmsis_gcc.h ****   \return               Floating Point Status/Control register value
 313:C:/Workspaces/DAVE-4.3/WS_2016_09_02/Flightcontroller_PWM_CopterRocks_Working/Libraries/CMSIS/Include\cmsis_gcc.h ****  */
 314:C:/Workspaces/DAVE-4.3/WS_2016_09_02/Flightcontroller_PWM_CopterRocks_Working/Libraries/CMSIS/Include\cmsis_gcc.h **** __attribute__( ( always_inline ) ) __STATIC_INLINE uint32_t __get_FPSCR(void)
 315:C:/Workspaces/DAVE-4.3/WS_2016_09_02/Flightcontroller_PWM_CopterRocks_Working/Libraries/CMSIS/Include\cmsis_gcc.h **** {
 316:C:/Workspaces/DAVE-4.3/WS_2016_09_02/Flightcontroller_PWM_CopterRocks_Working/Libraries/CMSIS/Include\cmsis_gcc.h **** #if (__FPU_PRESENT == 1U) && (__FPU_USED == 1U)
 317:C:/Workspaces/DAVE-4.3/WS_2016_09_02/Flightcontroller_PWM_CopterRocks_Working/Libraries/CMSIS/Include\cmsis_gcc.h ****   uint32_t result;
 318:C:/Workspaces/DAVE-4.3/WS_2016_09_02/Flightcontroller_PWM_CopterRocks_Working/Libraries/CMSIS/Include\cmsis_gcc.h **** 
 319:C:/Workspaces/DAVE-4.3/WS_2016_09_02/Flightcontroller_PWM_CopterRocks_Working/Libraries/CMSIS/Include\cmsis_gcc.h ****   /* Empty asm statement works as a scheduling barrier */
 320:C:/Workspaces/DAVE-4.3/WS_2016_09_02/Flightcontroller_PWM_CopterRocks_Working/Libraries/CMSIS/Include\cmsis_gcc.h ****   __ASM volatile ("");
 321:C:/Workspaces/DAVE-4.3/WS_2016_09_02/Flightcontroller_PWM_CopterRocks_Working/Libraries/CMSIS/Include\cmsis_gcc.h ****   __ASM volatile ("VMRS %0, fpscr" : "=r" (result) );
 322:C:/Workspaces/DAVE-4.3/WS_2016_09_02/Flightcontroller_PWM_CopterRocks_Working/Libraries/CMSIS/Include\cmsis_gcc.h ****   __ASM volatile ("");
 323:C:/Workspaces/DAVE-4.3/WS_2016_09_02/Flightcontroller_PWM_CopterRocks_Working/Libraries/CMSIS/Include\cmsis_gcc.h ****   return(result);
 324:C:/Workspaces/DAVE-4.3/WS_2016_09_02/Flightcontroller_PWM_CopterRocks_Working/Libraries/CMSIS/Include\cmsis_gcc.h **** #else
 325:C:/Workspaces/DAVE-4.3/WS_2016_09_02/Flightcontroller_PWM_CopterRocks_Working/Libraries/CMSIS/Include\cmsis_gcc.h ****    return(0);
 326:C:/Workspaces/DAVE-4.3/WS_2016_09_02/Flightcontroller_PWM_CopterRocks_Working/Libraries/CMSIS/Include\cmsis_gcc.h **** #endif
 327:C:/Workspaces/DAVE-4.3/WS_2016_09_02/Flightcontroller_PWM_CopterRocks_Working/Libraries/CMSIS/Include\cmsis_gcc.h **** }
 328:C:/Workspaces/DAVE-4.3/WS_2016_09_02/Flightcontroller_PWM_CopterRocks_Working/Libraries/CMSIS/Include\cmsis_gcc.h **** 
 329:C:/Workspaces/DAVE-4.3/WS_2016_09_02/Flightcontroller_PWM_CopterRocks_Working/Libraries/CMSIS/Include\cmsis_gcc.h **** 
 330:C:/Workspaces/DAVE-4.3/WS_2016_09_02/Flightcontroller_PWM_CopterRocks_Working/Libraries/CMSIS/Include\cmsis_gcc.h **** /**
 331:C:/Workspaces/DAVE-4.3/WS_2016_09_02/Flightcontroller_PWM_CopterRocks_Working/Libraries/CMSIS/Include\cmsis_gcc.h ****   \brief   Set FPSCR
 332:C:/Workspaces/DAVE-4.3/WS_2016_09_02/Flightcontroller_PWM_CopterRocks_Working/Libraries/CMSIS/Include\cmsis_gcc.h ****   \details Assigns the given value to the Floating Point Status/Control register.
 333:C:/Workspaces/DAVE-4.3/WS_2016_09_02/Flightcontroller_PWM_CopterRocks_Working/Libraries/CMSIS/Include\cmsis_gcc.h ****   \param [in]    fpscr  Floating Point Status/Control value to set
 334:C:/Workspaces/DAVE-4.3/WS_2016_09_02/Flightcontroller_PWM_CopterRocks_Working/Libraries/CMSIS/Include\cmsis_gcc.h ****  */
 335:C:/Workspaces/DAVE-4.3/WS_2016_09_02/Flightcontroller_PWM_CopterRocks_Working/Libraries/CMSIS/Include\cmsis_gcc.h **** __attribute__( ( always_inline ) ) __STATIC_INLINE void __set_FPSCR(uint32_t fpscr)
 336:C:/Workspaces/DAVE-4.3/WS_2016_09_02/Flightcontroller_PWM_CopterRocks_Working/Libraries/CMSIS/Include\cmsis_gcc.h **** {
 337:C:/Workspaces/DAVE-4.3/WS_2016_09_02/Flightcontroller_PWM_CopterRocks_Working/Libraries/CMSIS/Include\cmsis_gcc.h **** #if (__FPU_PRESENT == 1U) && (__FPU_USED == 1U)
 338:C:/Workspaces/DAVE-4.3/WS_2016_09_02/Flightcontroller_PWM_CopterRocks_Working/Libraries/CMSIS/Include\cmsis_gcc.h ****   /* Empty asm statement works as a scheduling barrier */
 339:C:/Workspaces/DAVE-4.3/WS_2016_09_02/Flightcontroller_PWM_CopterRocks_Working/Libraries/CMSIS/Include\cmsis_gcc.h ****   __ASM volatile ("");
 340:C:/Workspaces/DAVE-4.3/WS_2016_09_02/Flightcontroller_PWM_CopterRocks_Working/Libraries/CMSIS/Include\cmsis_gcc.h ****   __ASM volatile ("VMSR fpscr, %0" : : "r" (fpscr) : "vfpcc");
 341:C:/Workspaces/DAVE-4.3/WS_2016_09_02/Flightcontroller_PWM_CopterRocks_Working/Libraries/CMSIS/Include\cmsis_gcc.h ****   __ASM volatile ("");
 342:C:/Workspaces/DAVE-4.3/WS_2016_09_02/Flightcontroller_PWM_CopterRocks_Working/Libraries/CMSIS/Include\cmsis_gcc.h **** #endif
 343:C:/Workspaces/DAVE-4.3/WS_2016_09_02/Flightcontroller_PWM_CopterRocks_Working/Libraries/CMSIS/Include\cmsis_gcc.h **** }
 344:C:/Workspaces/DAVE-4.3/WS_2016_09_02/Flightcontroller_PWM_CopterRocks_Working/Libraries/CMSIS/Include\cmsis_gcc.h **** 
 345:C:/Workspaces/DAVE-4.3/WS_2016_09_02/Flightcontroller_PWM_CopterRocks_Working/Libraries/CMSIS/Include\cmsis_gcc.h **** #endif /* (__CORTEX_M == 0x04U) || (__CORTEX_M == 0x07U) */
 346:C:/Workspaces/DAVE-4.3/WS_2016_09_02/Flightcontroller_PWM_CopterRocks_Working/Libraries/CMSIS/Include\cmsis_gcc.h **** 
 347:C:/Workspaces/DAVE-4.3/WS_2016_09_02/Flightcontroller_PWM_CopterRocks_Working/Libraries/CMSIS/Include\cmsis_gcc.h **** 
 348:C:/Workspaces/DAVE-4.3/WS_2016_09_02/Flightcontroller_PWM_CopterRocks_Working/Libraries/CMSIS/Include\cmsis_gcc.h **** 
 349:C:/Workspaces/DAVE-4.3/WS_2016_09_02/Flightcontroller_PWM_CopterRocks_Working/Libraries/CMSIS/Include\cmsis_gcc.h **** /*@} end of CMSIS_Core_RegAccFunctions */
 350:C:/Workspaces/DAVE-4.3/WS_2016_09_02/Flightcontroller_PWM_CopterRocks_Working/Libraries/CMSIS/Include\cmsis_gcc.h **** 
 351:C:/Workspaces/DAVE-4.3/WS_2016_09_02/Flightcontroller_PWM_CopterRocks_Working/Libraries/CMSIS/Include\cmsis_gcc.h **** 
 352:C:/Workspaces/DAVE-4.3/WS_2016_09_02/Flightcontroller_PWM_CopterRocks_Working/Libraries/CMSIS/Include\cmsis_gcc.h **** /* ##########################  Core Instruction Access  ######################### */
 353:C:/Workspaces/DAVE-4.3/WS_2016_09_02/Flightcontroller_PWM_CopterRocks_Working/Libraries/CMSIS/Include\cmsis_gcc.h **** /** \defgroup CMSIS_Core_InstructionInterface CMSIS Core Instruction Interface
 354:C:/Workspaces/DAVE-4.3/WS_2016_09_02/Flightcontroller_PWM_CopterRocks_Working/Libraries/CMSIS/Include\cmsis_gcc.h ****   Access to dedicated instructions
 355:C:/Workspaces/DAVE-4.3/WS_2016_09_02/Flightcontroller_PWM_CopterRocks_Working/Libraries/CMSIS/Include\cmsis_gcc.h ****   @{
 356:C:/Workspaces/DAVE-4.3/WS_2016_09_02/Flightcontroller_PWM_CopterRocks_Working/Libraries/CMSIS/Include\cmsis_gcc.h **** */
 357:C:/Workspaces/DAVE-4.3/WS_2016_09_02/Flightcontroller_PWM_CopterRocks_Working/Libraries/CMSIS/Include\cmsis_gcc.h **** 
 358:C:/Workspaces/DAVE-4.3/WS_2016_09_02/Flightcontroller_PWM_CopterRocks_Working/Libraries/CMSIS/Include\cmsis_gcc.h **** /* Define macros for porting to both thumb1 and thumb2.
 359:C:/Workspaces/DAVE-4.3/WS_2016_09_02/Flightcontroller_PWM_CopterRocks_Working/Libraries/CMSIS/Include\cmsis_gcc.h ****  * For thumb1, use low register (r0-r7), specified by constraint "l"
 360:C:/Workspaces/DAVE-4.3/WS_2016_09_02/Flightcontroller_PWM_CopterRocks_Working/Libraries/CMSIS/Include\cmsis_gcc.h ****  * Otherwise, use general registers, specified by constraint "r" */
 361:C:/Workspaces/DAVE-4.3/WS_2016_09_02/Flightcontroller_PWM_CopterRocks_Working/Libraries/CMSIS/Include\cmsis_gcc.h **** #if defined (__thumb__) && !defined (__thumb2__)
 362:C:/Workspaces/DAVE-4.3/WS_2016_09_02/Flightcontroller_PWM_CopterRocks_Working/Libraries/CMSIS/Include\cmsis_gcc.h **** #define __CMSIS_GCC_OUT_REG(r) "=l" (r)
 363:C:/Workspaces/DAVE-4.3/WS_2016_09_02/Flightcontroller_PWM_CopterRocks_Working/Libraries/CMSIS/Include\cmsis_gcc.h **** #define __CMSIS_GCC_USE_REG(r) "l" (r)
 364:C:/Workspaces/DAVE-4.3/WS_2016_09_02/Flightcontroller_PWM_CopterRocks_Working/Libraries/CMSIS/Include\cmsis_gcc.h **** #else
 365:C:/Workspaces/DAVE-4.3/WS_2016_09_02/Flightcontroller_PWM_CopterRocks_Working/Libraries/CMSIS/Include\cmsis_gcc.h **** #define __CMSIS_GCC_OUT_REG(r) "=r" (r)
 366:C:/Workspaces/DAVE-4.3/WS_2016_09_02/Flightcontroller_PWM_CopterRocks_Working/Libraries/CMSIS/Include\cmsis_gcc.h **** #define __CMSIS_GCC_USE_REG(r) "r" (r)
 367:C:/Workspaces/DAVE-4.3/WS_2016_09_02/Flightcontroller_PWM_CopterRocks_Working/Libraries/CMSIS/Include\cmsis_gcc.h **** #endif
 368:C:/Workspaces/DAVE-4.3/WS_2016_09_02/Flightcontroller_PWM_CopterRocks_Working/Libraries/CMSIS/Include\cmsis_gcc.h **** 
 369:C:/Workspaces/DAVE-4.3/WS_2016_09_02/Flightcontroller_PWM_CopterRocks_Working/Libraries/CMSIS/Include\cmsis_gcc.h **** /**
 370:C:/Workspaces/DAVE-4.3/WS_2016_09_02/Flightcontroller_PWM_CopterRocks_Working/Libraries/CMSIS/Include\cmsis_gcc.h ****   \brief   No Operation
 371:C:/Workspaces/DAVE-4.3/WS_2016_09_02/Flightcontroller_PWM_CopterRocks_Working/Libraries/CMSIS/Include\cmsis_gcc.h ****   \details No Operation does nothing. This instruction can be used for code alignment purposes.
 372:C:/Workspaces/DAVE-4.3/WS_2016_09_02/Flightcontroller_PWM_CopterRocks_Working/Libraries/CMSIS/Include\cmsis_gcc.h ****  */
 373:C:/Workspaces/DAVE-4.3/WS_2016_09_02/Flightcontroller_PWM_CopterRocks_Working/Libraries/CMSIS/Include\cmsis_gcc.h **** __attribute__((always_inline)) __STATIC_INLINE void __NOP(void)
 374:C:/Workspaces/DAVE-4.3/WS_2016_09_02/Flightcontroller_PWM_CopterRocks_Working/Libraries/CMSIS/Include\cmsis_gcc.h **** {
 375:C:/Workspaces/DAVE-4.3/WS_2016_09_02/Flightcontroller_PWM_CopterRocks_Working/Libraries/CMSIS/Include\cmsis_gcc.h ****   __ASM volatile ("nop");
 376:C:/Workspaces/DAVE-4.3/WS_2016_09_02/Flightcontroller_PWM_CopterRocks_Working/Libraries/CMSIS/Include\cmsis_gcc.h **** }
 377:C:/Workspaces/DAVE-4.3/WS_2016_09_02/Flightcontroller_PWM_CopterRocks_Working/Libraries/CMSIS/Include\cmsis_gcc.h **** 
 378:C:/Workspaces/DAVE-4.3/WS_2016_09_02/Flightcontroller_PWM_CopterRocks_Working/Libraries/CMSIS/Include\cmsis_gcc.h **** 
 379:C:/Workspaces/DAVE-4.3/WS_2016_09_02/Flightcontroller_PWM_CopterRocks_Working/Libraries/CMSIS/Include\cmsis_gcc.h **** /**
 380:C:/Workspaces/DAVE-4.3/WS_2016_09_02/Flightcontroller_PWM_CopterRocks_Working/Libraries/CMSIS/Include\cmsis_gcc.h ****   \brief   Wait For Interrupt
 381:C:/Workspaces/DAVE-4.3/WS_2016_09_02/Flightcontroller_PWM_CopterRocks_Working/Libraries/CMSIS/Include\cmsis_gcc.h ****   \details Wait For Interrupt is a hint instruction that suspends execution until one of a number o
 382:C:/Workspaces/DAVE-4.3/WS_2016_09_02/Flightcontroller_PWM_CopterRocks_Working/Libraries/CMSIS/Include\cmsis_gcc.h ****  */
 383:C:/Workspaces/DAVE-4.3/WS_2016_09_02/Flightcontroller_PWM_CopterRocks_Working/Libraries/CMSIS/Include\cmsis_gcc.h **** __attribute__((always_inline)) __STATIC_INLINE void __WFI(void)
 384:C:/Workspaces/DAVE-4.3/WS_2016_09_02/Flightcontroller_PWM_CopterRocks_Working/Libraries/CMSIS/Include\cmsis_gcc.h **** {
 385:C:/Workspaces/DAVE-4.3/WS_2016_09_02/Flightcontroller_PWM_CopterRocks_Working/Libraries/CMSIS/Include\cmsis_gcc.h ****   __ASM volatile ("wfi");
 386:C:/Workspaces/DAVE-4.3/WS_2016_09_02/Flightcontroller_PWM_CopterRocks_Working/Libraries/CMSIS/Include\cmsis_gcc.h **** }
 387:C:/Workspaces/DAVE-4.3/WS_2016_09_02/Flightcontroller_PWM_CopterRocks_Working/Libraries/CMSIS/Include\cmsis_gcc.h **** 
 388:C:/Workspaces/DAVE-4.3/WS_2016_09_02/Flightcontroller_PWM_CopterRocks_Working/Libraries/CMSIS/Include\cmsis_gcc.h **** 
 389:C:/Workspaces/DAVE-4.3/WS_2016_09_02/Flightcontroller_PWM_CopterRocks_Working/Libraries/CMSIS/Include\cmsis_gcc.h **** /**
 390:C:/Workspaces/DAVE-4.3/WS_2016_09_02/Flightcontroller_PWM_CopterRocks_Working/Libraries/CMSIS/Include\cmsis_gcc.h ****   \brief   Wait For Event
 391:C:/Workspaces/DAVE-4.3/WS_2016_09_02/Flightcontroller_PWM_CopterRocks_Working/Libraries/CMSIS/Include\cmsis_gcc.h ****   \details Wait For Event is a hint instruction that permits the processor to enter
 392:C:/Workspaces/DAVE-4.3/WS_2016_09_02/Flightcontroller_PWM_CopterRocks_Working/Libraries/CMSIS/Include\cmsis_gcc.h ****     a low-power state until one of a number of events occurs.
 393:C:/Workspaces/DAVE-4.3/WS_2016_09_02/Flightcontroller_PWM_CopterRocks_Working/Libraries/CMSIS/Include\cmsis_gcc.h ****  */
 394:C:/Workspaces/DAVE-4.3/WS_2016_09_02/Flightcontroller_PWM_CopterRocks_Working/Libraries/CMSIS/Include\cmsis_gcc.h **** __attribute__((always_inline)) __STATIC_INLINE void __WFE(void)
 395:C:/Workspaces/DAVE-4.3/WS_2016_09_02/Flightcontroller_PWM_CopterRocks_Working/Libraries/CMSIS/Include\cmsis_gcc.h **** {
 396:C:/Workspaces/DAVE-4.3/WS_2016_09_02/Flightcontroller_PWM_CopterRocks_Working/Libraries/CMSIS/Include\cmsis_gcc.h ****   __ASM volatile ("wfe");
 397:C:/Workspaces/DAVE-4.3/WS_2016_09_02/Flightcontroller_PWM_CopterRocks_Working/Libraries/CMSIS/Include\cmsis_gcc.h **** }
 398:C:/Workspaces/DAVE-4.3/WS_2016_09_02/Flightcontroller_PWM_CopterRocks_Working/Libraries/CMSIS/Include\cmsis_gcc.h **** 
 399:C:/Workspaces/DAVE-4.3/WS_2016_09_02/Flightcontroller_PWM_CopterRocks_Working/Libraries/CMSIS/Include\cmsis_gcc.h **** 
 400:C:/Workspaces/DAVE-4.3/WS_2016_09_02/Flightcontroller_PWM_CopterRocks_Working/Libraries/CMSIS/Include\cmsis_gcc.h **** /**
 401:C:/Workspaces/DAVE-4.3/WS_2016_09_02/Flightcontroller_PWM_CopterRocks_Working/Libraries/CMSIS/Include\cmsis_gcc.h ****   \brief   Send Event
 402:C:/Workspaces/DAVE-4.3/WS_2016_09_02/Flightcontroller_PWM_CopterRocks_Working/Libraries/CMSIS/Include\cmsis_gcc.h ****   \details Send Event is a hint instruction. It causes an event to be signaled to the CPU.
 403:C:/Workspaces/DAVE-4.3/WS_2016_09_02/Flightcontroller_PWM_CopterRocks_Working/Libraries/CMSIS/Include\cmsis_gcc.h ****  */
 404:C:/Workspaces/DAVE-4.3/WS_2016_09_02/Flightcontroller_PWM_CopterRocks_Working/Libraries/CMSIS/Include\cmsis_gcc.h **** __attribute__((always_inline)) __STATIC_INLINE void __SEV(void)
 405:C:/Workspaces/DAVE-4.3/WS_2016_09_02/Flightcontroller_PWM_CopterRocks_Working/Libraries/CMSIS/Include\cmsis_gcc.h **** {
 406:C:/Workspaces/DAVE-4.3/WS_2016_09_02/Flightcontroller_PWM_CopterRocks_Working/Libraries/CMSIS/Include\cmsis_gcc.h ****   __ASM volatile ("sev");
 407:C:/Workspaces/DAVE-4.3/WS_2016_09_02/Flightcontroller_PWM_CopterRocks_Working/Libraries/CMSIS/Include\cmsis_gcc.h **** }
 408:C:/Workspaces/DAVE-4.3/WS_2016_09_02/Flightcontroller_PWM_CopterRocks_Working/Libraries/CMSIS/Include\cmsis_gcc.h **** 
 409:C:/Workspaces/DAVE-4.3/WS_2016_09_02/Flightcontroller_PWM_CopterRocks_Working/Libraries/CMSIS/Include\cmsis_gcc.h **** 
 410:C:/Workspaces/DAVE-4.3/WS_2016_09_02/Flightcontroller_PWM_CopterRocks_Working/Libraries/CMSIS/Include\cmsis_gcc.h **** /**
 411:C:/Workspaces/DAVE-4.3/WS_2016_09_02/Flightcontroller_PWM_CopterRocks_Working/Libraries/CMSIS/Include\cmsis_gcc.h ****   \brief   Instruction Synchronization Barrier
 412:C:/Workspaces/DAVE-4.3/WS_2016_09_02/Flightcontroller_PWM_CopterRocks_Working/Libraries/CMSIS/Include\cmsis_gcc.h ****   \details Instruction Synchronization Barrier flushes the pipeline in the processor,
 413:C:/Workspaces/DAVE-4.3/WS_2016_09_02/Flightcontroller_PWM_CopterRocks_Working/Libraries/CMSIS/Include\cmsis_gcc.h ****            so that all instructions following the ISB are fetched from cache or memory,
 414:C:/Workspaces/DAVE-4.3/WS_2016_09_02/Flightcontroller_PWM_CopterRocks_Working/Libraries/CMSIS/Include\cmsis_gcc.h ****            after the instruction has been completed.
 415:C:/Workspaces/DAVE-4.3/WS_2016_09_02/Flightcontroller_PWM_CopterRocks_Working/Libraries/CMSIS/Include\cmsis_gcc.h ****  */
 416:C:/Workspaces/DAVE-4.3/WS_2016_09_02/Flightcontroller_PWM_CopterRocks_Working/Libraries/CMSIS/Include\cmsis_gcc.h **** __attribute__((always_inline)) __STATIC_INLINE void __ISB(void)
 417:C:/Workspaces/DAVE-4.3/WS_2016_09_02/Flightcontroller_PWM_CopterRocks_Working/Libraries/CMSIS/Include\cmsis_gcc.h **** {
 418:C:/Workspaces/DAVE-4.3/WS_2016_09_02/Flightcontroller_PWM_CopterRocks_Working/Libraries/CMSIS/Include\cmsis_gcc.h ****   __ASM volatile ("isb 0xF":::"memory");
 419:C:/Workspaces/DAVE-4.3/WS_2016_09_02/Flightcontroller_PWM_CopterRocks_Working/Libraries/CMSIS/Include\cmsis_gcc.h **** }
 420:C:/Workspaces/DAVE-4.3/WS_2016_09_02/Flightcontroller_PWM_CopterRocks_Working/Libraries/CMSIS/Include\cmsis_gcc.h **** 
 421:C:/Workspaces/DAVE-4.3/WS_2016_09_02/Flightcontroller_PWM_CopterRocks_Working/Libraries/CMSIS/Include\cmsis_gcc.h **** 
 422:C:/Workspaces/DAVE-4.3/WS_2016_09_02/Flightcontroller_PWM_CopterRocks_Working/Libraries/CMSIS/Include\cmsis_gcc.h **** /**
 423:C:/Workspaces/DAVE-4.3/WS_2016_09_02/Flightcontroller_PWM_CopterRocks_Working/Libraries/CMSIS/Include\cmsis_gcc.h ****   \brief   Data Synchronization Barrier
 424:C:/Workspaces/DAVE-4.3/WS_2016_09_02/Flightcontroller_PWM_CopterRocks_Working/Libraries/CMSIS/Include\cmsis_gcc.h ****   \details Acts as a special kind of Data Memory Barrier.
 425:C:/Workspaces/DAVE-4.3/WS_2016_09_02/Flightcontroller_PWM_CopterRocks_Working/Libraries/CMSIS/Include\cmsis_gcc.h ****            It completes when all explicit memory accesses before this instruction complete.
 426:C:/Workspaces/DAVE-4.3/WS_2016_09_02/Flightcontroller_PWM_CopterRocks_Working/Libraries/CMSIS/Include\cmsis_gcc.h ****  */
 427:C:/Workspaces/DAVE-4.3/WS_2016_09_02/Flightcontroller_PWM_CopterRocks_Working/Libraries/CMSIS/Include\cmsis_gcc.h **** __attribute__((always_inline)) __STATIC_INLINE void __DSB(void)
 428:C:/Workspaces/DAVE-4.3/WS_2016_09_02/Flightcontroller_PWM_CopterRocks_Working/Libraries/CMSIS/Include\cmsis_gcc.h **** {
 429:C:/Workspaces/DAVE-4.3/WS_2016_09_02/Flightcontroller_PWM_CopterRocks_Working/Libraries/CMSIS/Include\cmsis_gcc.h ****   __ASM volatile ("dsb 0xF":::"memory");
 430:C:/Workspaces/DAVE-4.3/WS_2016_09_02/Flightcontroller_PWM_CopterRocks_Working/Libraries/CMSIS/Include\cmsis_gcc.h **** }
 431:C:/Workspaces/DAVE-4.3/WS_2016_09_02/Flightcontroller_PWM_CopterRocks_Working/Libraries/CMSIS/Include\cmsis_gcc.h **** 
 432:C:/Workspaces/DAVE-4.3/WS_2016_09_02/Flightcontroller_PWM_CopterRocks_Working/Libraries/CMSIS/Include\cmsis_gcc.h **** 
 433:C:/Workspaces/DAVE-4.3/WS_2016_09_02/Flightcontroller_PWM_CopterRocks_Working/Libraries/CMSIS/Include\cmsis_gcc.h **** /**
 434:C:/Workspaces/DAVE-4.3/WS_2016_09_02/Flightcontroller_PWM_CopterRocks_Working/Libraries/CMSIS/Include\cmsis_gcc.h ****   \brief   Data Memory Barrier
 435:C:/Workspaces/DAVE-4.3/WS_2016_09_02/Flightcontroller_PWM_CopterRocks_Working/Libraries/CMSIS/Include\cmsis_gcc.h ****   \details Ensures the apparent order of the explicit memory operations before
 436:C:/Workspaces/DAVE-4.3/WS_2016_09_02/Flightcontroller_PWM_CopterRocks_Working/Libraries/CMSIS/Include\cmsis_gcc.h ****            and after the instruction, without ensuring their completion.
 437:C:/Workspaces/DAVE-4.3/WS_2016_09_02/Flightcontroller_PWM_CopterRocks_Working/Libraries/CMSIS/Include\cmsis_gcc.h ****  */
 438:C:/Workspaces/DAVE-4.3/WS_2016_09_02/Flightcontroller_PWM_CopterRocks_Working/Libraries/CMSIS/Include\cmsis_gcc.h **** __attribute__((always_inline)) __STATIC_INLINE void __DMB(void)
 439:C:/Workspaces/DAVE-4.3/WS_2016_09_02/Flightcontroller_PWM_CopterRocks_Working/Libraries/CMSIS/Include\cmsis_gcc.h **** {
 440:C:/Workspaces/DAVE-4.3/WS_2016_09_02/Flightcontroller_PWM_CopterRocks_Working/Libraries/CMSIS/Include\cmsis_gcc.h ****   __ASM volatile ("dmb 0xF":::"memory");
 441:C:/Workspaces/DAVE-4.3/WS_2016_09_02/Flightcontroller_PWM_CopterRocks_Working/Libraries/CMSIS/Include\cmsis_gcc.h **** }
 442:C:/Workspaces/DAVE-4.3/WS_2016_09_02/Flightcontroller_PWM_CopterRocks_Working/Libraries/CMSIS/Include\cmsis_gcc.h **** 
 443:C:/Workspaces/DAVE-4.3/WS_2016_09_02/Flightcontroller_PWM_CopterRocks_Working/Libraries/CMSIS/Include\cmsis_gcc.h **** 
 444:C:/Workspaces/DAVE-4.3/WS_2016_09_02/Flightcontroller_PWM_CopterRocks_Working/Libraries/CMSIS/Include\cmsis_gcc.h **** /**
 445:C:/Workspaces/DAVE-4.3/WS_2016_09_02/Flightcontroller_PWM_CopterRocks_Working/Libraries/CMSIS/Include\cmsis_gcc.h ****   \brief   Reverse byte order (32 bit)
 446:C:/Workspaces/DAVE-4.3/WS_2016_09_02/Flightcontroller_PWM_CopterRocks_Working/Libraries/CMSIS/Include\cmsis_gcc.h ****   \details Reverses the byte order in integer value.
 447:C:/Workspaces/DAVE-4.3/WS_2016_09_02/Flightcontroller_PWM_CopterRocks_Working/Libraries/CMSIS/Include\cmsis_gcc.h ****   \param [in]    value  Value to reverse
 448:C:/Workspaces/DAVE-4.3/WS_2016_09_02/Flightcontroller_PWM_CopterRocks_Working/Libraries/CMSIS/Include\cmsis_gcc.h ****   \return               Reversed value
 449:C:/Workspaces/DAVE-4.3/WS_2016_09_02/Flightcontroller_PWM_CopterRocks_Working/Libraries/CMSIS/Include\cmsis_gcc.h ****  */
 450:C:/Workspaces/DAVE-4.3/WS_2016_09_02/Flightcontroller_PWM_CopterRocks_Working/Libraries/CMSIS/Include\cmsis_gcc.h **** __attribute__((always_inline)) __STATIC_INLINE uint32_t __REV(uint32_t value)
 451:C:/Workspaces/DAVE-4.3/WS_2016_09_02/Flightcontroller_PWM_CopterRocks_Working/Libraries/CMSIS/Include\cmsis_gcc.h **** {
 452:C:/Workspaces/DAVE-4.3/WS_2016_09_02/Flightcontroller_PWM_CopterRocks_Working/Libraries/CMSIS/Include\cmsis_gcc.h **** #if (__GNUC__ > 4) || (__GNUC__ == 4 && __GNUC_MINOR__ >= 5)
 453:C:/Workspaces/DAVE-4.3/WS_2016_09_02/Flightcontroller_PWM_CopterRocks_Working/Libraries/CMSIS/Include\cmsis_gcc.h ****   return __builtin_bswap32(value);
 454:C:/Workspaces/DAVE-4.3/WS_2016_09_02/Flightcontroller_PWM_CopterRocks_Working/Libraries/CMSIS/Include\cmsis_gcc.h **** #else
 455:C:/Workspaces/DAVE-4.3/WS_2016_09_02/Flightcontroller_PWM_CopterRocks_Working/Libraries/CMSIS/Include\cmsis_gcc.h ****   uint32_t result;
 456:C:/Workspaces/DAVE-4.3/WS_2016_09_02/Flightcontroller_PWM_CopterRocks_Working/Libraries/CMSIS/Include\cmsis_gcc.h **** 
 457:C:/Workspaces/DAVE-4.3/WS_2016_09_02/Flightcontroller_PWM_CopterRocks_Working/Libraries/CMSIS/Include\cmsis_gcc.h ****   __ASM volatile ("rev %0, %1" : __CMSIS_GCC_OUT_REG (result) : __CMSIS_GCC_USE_REG (value) );
 458:C:/Workspaces/DAVE-4.3/WS_2016_09_02/Flightcontroller_PWM_CopterRocks_Working/Libraries/CMSIS/Include\cmsis_gcc.h ****   return(result);
 459:C:/Workspaces/DAVE-4.3/WS_2016_09_02/Flightcontroller_PWM_CopterRocks_Working/Libraries/CMSIS/Include\cmsis_gcc.h **** #endif
 460:C:/Workspaces/DAVE-4.3/WS_2016_09_02/Flightcontroller_PWM_CopterRocks_Working/Libraries/CMSIS/Include\cmsis_gcc.h **** }
 461:C:/Workspaces/DAVE-4.3/WS_2016_09_02/Flightcontroller_PWM_CopterRocks_Working/Libraries/CMSIS/Include\cmsis_gcc.h **** 
 462:C:/Workspaces/DAVE-4.3/WS_2016_09_02/Flightcontroller_PWM_CopterRocks_Working/Libraries/CMSIS/Include\cmsis_gcc.h **** 
 463:C:/Workspaces/DAVE-4.3/WS_2016_09_02/Flightcontroller_PWM_CopterRocks_Working/Libraries/CMSIS/Include\cmsis_gcc.h **** /**
 464:C:/Workspaces/DAVE-4.3/WS_2016_09_02/Flightcontroller_PWM_CopterRocks_Working/Libraries/CMSIS/Include\cmsis_gcc.h ****   \brief   Reverse byte order (16 bit)
 465:C:/Workspaces/DAVE-4.3/WS_2016_09_02/Flightcontroller_PWM_CopterRocks_Working/Libraries/CMSIS/Include\cmsis_gcc.h ****   \details Reverses the byte order in two unsigned short values.
 466:C:/Workspaces/DAVE-4.3/WS_2016_09_02/Flightcontroller_PWM_CopterRocks_Working/Libraries/CMSIS/Include\cmsis_gcc.h ****   \param [in]    value  Value to reverse
 467:C:/Workspaces/DAVE-4.3/WS_2016_09_02/Flightcontroller_PWM_CopterRocks_Working/Libraries/CMSIS/Include\cmsis_gcc.h ****   \return               Reversed value
 468:C:/Workspaces/DAVE-4.3/WS_2016_09_02/Flightcontroller_PWM_CopterRocks_Working/Libraries/CMSIS/Include\cmsis_gcc.h ****  */
 469:C:/Workspaces/DAVE-4.3/WS_2016_09_02/Flightcontroller_PWM_CopterRocks_Working/Libraries/CMSIS/Include\cmsis_gcc.h **** __attribute__((always_inline)) __STATIC_INLINE uint32_t __REV16(uint32_t value)
 470:C:/Workspaces/DAVE-4.3/WS_2016_09_02/Flightcontroller_PWM_CopterRocks_Working/Libraries/CMSIS/Include\cmsis_gcc.h **** {
 471:C:/Workspaces/DAVE-4.3/WS_2016_09_02/Flightcontroller_PWM_CopterRocks_Working/Libraries/CMSIS/Include\cmsis_gcc.h ****   uint32_t result;
 472:C:/Workspaces/DAVE-4.3/WS_2016_09_02/Flightcontroller_PWM_CopterRocks_Working/Libraries/CMSIS/Include\cmsis_gcc.h **** 
 473:C:/Workspaces/DAVE-4.3/WS_2016_09_02/Flightcontroller_PWM_CopterRocks_Working/Libraries/CMSIS/Include\cmsis_gcc.h ****   __ASM volatile ("rev16 %0, %1" : __CMSIS_GCC_OUT_REG (result) : __CMSIS_GCC_USE_REG (value) );
 474:C:/Workspaces/DAVE-4.3/WS_2016_09_02/Flightcontroller_PWM_CopterRocks_Working/Libraries/CMSIS/Include\cmsis_gcc.h ****   return(result);
 475:C:/Workspaces/DAVE-4.3/WS_2016_09_02/Flightcontroller_PWM_CopterRocks_Working/Libraries/CMSIS/Include\cmsis_gcc.h **** }
 476:C:/Workspaces/DAVE-4.3/WS_2016_09_02/Flightcontroller_PWM_CopterRocks_Working/Libraries/CMSIS/Include\cmsis_gcc.h **** 
 477:C:/Workspaces/DAVE-4.3/WS_2016_09_02/Flightcontroller_PWM_CopterRocks_Working/Libraries/CMSIS/Include\cmsis_gcc.h **** 
 478:C:/Workspaces/DAVE-4.3/WS_2016_09_02/Flightcontroller_PWM_CopterRocks_Working/Libraries/CMSIS/Include\cmsis_gcc.h **** /**
 479:C:/Workspaces/DAVE-4.3/WS_2016_09_02/Flightcontroller_PWM_CopterRocks_Working/Libraries/CMSIS/Include\cmsis_gcc.h ****   \brief   Reverse byte order in signed short value
 480:C:/Workspaces/DAVE-4.3/WS_2016_09_02/Flightcontroller_PWM_CopterRocks_Working/Libraries/CMSIS/Include\cmsis_gcc.h ****   \details Reverses the byte order in a signed short value with sign extension to integer.
 481:C:/Workspaces/DAVE-4.3/WS_2016_09_02/Flightcontroller_PWM_CopterRocks_Working/Libraries/CMSIS/Include\cmsis_gcc.h ****   \param [in]    value  Value to reverse
 482:C:/Workspaces/DAVE-4.3/WS_2016_09_02/Flightcontroller_PWM_CopterRocks_Working/Libraries/CMSIS/Include\cmsis_gcc.h ****   \return               Reversed value
 483:C:/Workspaces/DAVE-4.3/WS_2016_09_02/Flightcontroller_PWM_CopterRocks_Working/Libraries/CMSIS/Include\cmsis_gcc.h ****  */
 484:C:/Workspaces/DAVE-4.3/WS_2016_09_02/Flightcontroller_PWM_CopterRocks_Working/Libraries/CMSIS/Include\cmsis_gcc.h **** __attribute__((always_inline)) __STATIC_INLINE int32_t __REVSH(int32_t value)
 485:C:/Workspaces/DAVE-4.3/WS_2016_09_02/Flightcontroller_PWM_CopterRocks_Working/Libraries/CMSIS/Include\cmsis_gcc.h **** {
 486:C:/Workspaces/DAVE-4.3/WS_2016_09_02/Flightcontroller_PWM_CopterRocks_Working/Libraries/CMSIS/Include\cmsis_gcc.h **** #if (__GNUC__ > 4) || (__GNUC__ == 4 && __GNUC_MINOR__ >= 8)
 487:C:/Workspaces/DAVE-4.3/WS_2016_09_02/Flightcontroller_PWM_CopterRocks_Working/Libraries/CMSIS/Include\cmsis_gcc.h ****   return (short)__builtin_bswap16(value);
 488:C:/Workspaces/DAVE-4.3/WS_2016_09_02/Flightcontroller_PWM_CopterRocks_Working/Libraries/CMSIS/Include\cmsis_gcc.h **** #else
 489:C:/Workspaces/DAVE-4.3/WS_2016_09_02/Flightcontroller_PWM_CopterRocks_Working/Libraries/CMSIS/Include\cmsis_gcc.h ****   int32_t result;
 490:C:/Workspaces/DAVE-4.3/WS_2016_09_02/Flightcontroller_PWM_CopterRocks_Working/Libraries/CMSIS/Include\cmsis_gcc.h **** 
 491:C:/Workspaces/DAVE-4.3/WS_2016_09_02/Flightcontroller_PWM_CopterRocks_Working/Libraries/CMSIS/Include\cmsis_gcc.h ****   __ASM volatile ("revsh %0, %1" : __CMSIS_GCC_OUT_REG (result) : __CMSIS_GCC_USE_REG (value) );
 492:C:/Workspaces/DAVE-4.3/WS_2016_09_02/Flightcontroller_PWM_CopterRocks_Working/Libraries/CMSIS/Include\cmsis_gcc.h ****   return(result);
 493:C:/Workspaces/DAVE-4.3/WS_2016_09_02/Flightcontroller_PWM_CopterRocks_Working/Libraries/CMSIS/Include\cmsis_gcc.h **** #endif
 494:C:/Workspaces/DAVE-4.3/WS_2016_09_02/Flightcontroller_PWM_CopterRocks_Working/Libraries/CMSIS/Include\cmsis_gcc.h **** }
 495:C:/Workspaces/DAVE-4.3/WS_2016_09_02/Flightcontroller_PWM_CopterRocks_Working/Libraries/CMSIS/Include\cmsis_gcc.h **** 
 496:C:/Workspaces/DAVE-4.3/WS_2016_09_02/Flightcontroller_PWM_CopterRocks_Working/Libraries/CMSIS/Include\cmsis_gcc.h **** 
 497:C:/Workspaces/DAVE-4.3/WS_2016_09_02/Flightcontroller_PWM_CopterRocks_Working/Libraries/CMSIS/Include\cmsis_gcc.h **** /**
 498:C:/Workspaces/DAVE-4.3/WS_2016_09_02/Flightcontroller_PWM_CopterRocks_Working/Libraries/CMSIS/Include\cmsis_gcc.h ****   \brief   Rotate Right in unsigned value (32 bit)
 499:C:/Workspaces/DAVE-4.3/WS_2016_09_02/Flightcontroller_PWM_CopterRocks_Working/Libraries/CMSIS/Include\cmsis_gcc.h ****   \details Rotate Right (immediate) provides the value of the contents of a register rotated by a v
 500:C:/Workspaces/DAVE-4.3/WS_2016_09_02/Flightcontroller_PWM_CopterRocks_Working/Libraries/CMSIS/Include\cmsis_gcc.h ****   \param [in]    value  Value to rotate
 501:C:/Workspaces/DAVE-4.3/WS_2016_09_02/Flightcontroller_PWM_CopterRocks_Working/Libraries/CMSIS/Include\cmsis_gcc.h ****   \param [in]    value  Number of Bits to rotate
 502:C:/Workspaces/DAVE-4.3/WS_2016_09_02/Flightcontroller_PWM_CopterRocks_Working/Libraries/CMSIS/Include\cmsis_gcc.h ****   \return               Rotated value
 503:C:/Workspaces/DAVE-4.3/WS_2016_09_02/Flightcontroller_PWM_CopterRocks_Working/Libraries/CMSIS/Include\cmsis_gcc.h ****  */
 504:C:/Workspaces/DAVE-4.3/WS_2016_09_02/Flightcontroller_PWM_CopterRocks_Working/Libraries/CMSIS/Include\cmsis_gcc.h **** __attribute__((always_inline)) __STATIC_INLINE uint32_t __ROR(uint32_t op1, uint32_t op2)
 505:C:/Workspaces/DAVE-4.3/WS_2016_09_02/Flightcontroller_PWM_CopterRocks_Working/Libraries/CMSIS/Include\cmsis_gcc.h **** {
 506:C:/Workspaces/DAVE-4.3/WS_2016_09_02/Flightcontroller_PWM_CopterRocks_Working/Libraries/CMSIS/Include\cmsis_gcc.h ****   return (op1 >> op2) | (op1 << (32U - op2));
 507:C:/Workspaces/DAVE-4.3/WS_2016_09_02/Flightcontroller_PWM_CopterRocks_Working/Libraries/CMSIS/Include\cmsis_gcc.h **** }
 508:C:/Workspaces/DAVE-4.3/WS_2016_09_02/Flightcontroller_PWM_CopterRocks_Working/Libraries/CMSIS/Include\cmsis_gcc.h **** 
 509:C:/Workspaces/DAVE-4.3/WS_2016_09_02/Flightcontroller_PWM_CopterRocks_Working/Libraries/CMSIS/Include\cmsis_gcc.h **** 
 510:C:/Workspaces/DAVE-4.3/WS_2016_09_02/Flightcontroller_PWM_CopterRocks_Working/Libraries/CMSIS/Include\cmsis_gcc.h **** /**
 511:C:/Workspaces/DAVE-4.3/WS_2016_09_02/Flightcontroller_PWM_CopterRocks_Working/Libraries/CMSIS/Include\cmsis_gcc.h ****   \brief   Breakpoint
 512:C:/Workspaces/DAVE-4.3/WS_2016_09_02/Flightcontroller_PWM_CopterRocks_Working/Libraries/CMSIS/Include\cmsis_gcc.h ****   \details Causes the processor to enter Debug state.
 513:C:/Workspaces/DAVE-4.3/WS_2016_09_02/Flightcontroller_PWM_CopterRocks_Working/Libraries/CMSIS/Include\cmsis_gcc.h ****            Debug tools can use this to investigate system state when the instruction at a particula
 514:C:/Workspaces/DAVE-4.3/WS_2016_09_02/Flightcontroller_PWM_CopterRocks_Working/Libraries/CMSIS/Include\cmsis_gcc.h ****   \param [in]    value  is ignored by the processor.
 515:C:/Workspaces/DAVE-4.3/WS_2016_09_02/Flightcontroller_PWM_CopterRocks_Working/Libraries/CMSIS/Include\cmsis_gcc.h ****                  If required, a debugger can use it to store additional information about the break
 516:C:/Workspaces/DAVE-4.3/WS_2016_09_02/Flightcontroller_PWM_CopterRocks_Working/Libraries/CMSIS/Include\cmsis_gcc.h ****  */
 517:C:/Workspaces/DAVE-4.3/WS_2016_09_02/Flightcontroller_PWM_CopterRocks_Working/Libraries/CMSIS/Include\cmsis_gcc.h **** #define __BKPT(value)                       __ASM volatile ("bkpt "#value)
 518:C:/Workspaces/DAVE-4.3/WS_2016_09_02/Flightcontroller_PWM_CopterRocks_Working/Libraries/CMSIS/Include\cmsis_gcc.h **** 
 519:C:/Workspaces/DAVE-4.3/WS_2016_09_02/Flightcontroller_PWM_CopterRocks_Working/Libraries/CMSIS/Include\cmsis_gcc.h **** 
 520:C:/Workspaces/DAVE-4.3/WS_2016_09_02/Flightcontroller_PWM_CopterRocks_Working/Libraries/CMSIS/Include\cmsis_gcc.h **** /**
 521:C:/Workspaces/DAVE-4.3/WS_2016_09_02/Flightcontroller_PWM_CopterRocks_Working/Libraries/CMSIS/Include\cmsis_gcc.h ****   \brief   Reverse bit order of value
 522:C:/Workspaces/DAVE-4.3/WS_2016_09_02/Flightcontroller_PWM_CopterRocks_Working/Libraries/CMSIS/Include\cmsis_gcc.h ****   \details Reverses the bit order of the given value.
 523:C:/Workspaces/DAVE-4.3/WS_2016_09_02/Flightcontroller_PWM_CopterRocks_Working/Libraries/CMSIS/Include\cmsis_gcc.h ****   \param [in]    value  Value to reverse
 524:C:/Workspaces/DAVE-4.3/WS_2016_09_02/Flightcontroller_PWM_CopterRocks_Working/Libraries/CMSIS/Include\cmsis_gcc.h ****   \return               Reversed value
 525:C:/Workspaces/DAVE-4.3/WS_2016_09_02/Flightcontroller_PWM_CopterRocks_Working/Libraries/CMSIS/Include\cmsis_gcc.h ****  */
 526:C:/Workspaces/DAVE-4.3/WS_2016_09_02/Flightcontroller_PWM_CopterRocks_Working/Libraries/CMSIS/Include\cmsis_gcc.h **** __attribute__((always_inline)) __STATIC_INLINE uint32_t __RBIT(uint32_t value)
 527:C:/Workspaces/DAVE-4.3/WS_2016_09_02/Flightcontroller_PWM_CopterRocks_Working/Libraries/CMSIS/Include\cmsis_gcc.h **** {
 528:C:/Workspaces/DAVE-4.3/WS_2016_09_02/Flightcontroller_PWM_CopterRocks_Working/Libraries/CMSIS/Include\cmsis_gcc.h ****   uint32_t result;
 529:C:/Workspaces/DAVE-4.3/WS_2016_09_02/Flightcontroller_PWM_CopterRocks_Working/Libraries/CMSIS/Include\cmsis_gcc.h **** 
 530:C:/Workspaces/DAVE-4.3/WS_2016_09_02/Flightcontroller_PWM_CopterRocks_Working/Libraries/CMSIS/Include\cmsis_gcc.h **** #if       (__CORTEX_M >= 0x03U) || (__CORTEX_SC >= 300U)
 531:C:/Workspaces/DAVE-4.3/WS_2016_09_02/Flightcontroller_PWM_CopterRocks_Working/Libraries/CMSIS/Include\cmsis_gcc.h ****    __ASM volatile ("rbit %0, %1" : "=r" (result) : "r" (value) );
 532:C:/Workspaces/DAVE-4.3/WS_2016_09_02/Flightcontroller_PWM_CopterRocks_Working/Libraries/CMSIS/Include\cmsis_gcc.h **** #else
 533:C:/Workspaces/DAVE-4.3/WS_2016_09_02/Flightcontroller_PWM_CopterRocks_Working/Libraries/CMSIS/Include\cmsis_gcc.h ****   int32_t s = 4 /*sizeof(v)*/ * 8 - 1; /* extra shift needed at end */
 534:C:/Workspaces/DAVE-4.3/WS_2016_09_02/Flightcontroller_PWM_CopterRocks_Working/Libraries/CMSIS/Include\cmsis_gcc.h **** 
 535:C:/Workspaces/DAVE-4.3/WS_2016_09_02/Flightcontroller_PWM_CopterRocks_Working/Libraries/CMSIS/Include\cmsis_gcc.h ****   result = value;                      /* r will be reversed bits of v; first get LSB of v */
 536:C:/Workspaces/DAVE-4.3/WS_2016_09_02/Flightcontroller_PWM_CopterRocks_Working/Libraries/CMSIS/Include\cmsis_gcc.h ****   for (value >>= 1U; value; value >>= 1U)
 537:C:/Workspaces/DAVE-4.3/WS_2016_09_02/Flightcontroller_PWM_CopterRocks_Working/Libraries/CMSIS/Include\cmsis_gcc.h ****   {
 538:C:/Workspaces/DAVE-4.3/WS_2016_09_02/Flightcontroller_PWM_CopterRocks_Working/Libraries/CMSIS/Include\cmsis_gcc.h ****     result <<= 1U;
 539:C:/Workspaces/DAVE-4.3/WS_2016_09_02/Flightcontroller_PWM_CopterRocks_Working/Libraries/CMSIS/Include\cmsis_gcc.h ****     result |= value & 1U;
 540:C:/Workspaces/DAVE-4.3/WS_2016_09_02/Flightcontroller_PWM_CopterRocks_Working/Libraries/CMSIS/Include\cmsis_gcc.h ****     s--;
 541:C:/Workspaces/DAVE-4.3/WS_2016_09_02/Flightcontroller_PWM_CopterRocks_Working/Libraries/CMSIS/Include\cmsis_gcc.h ****   }
 542:C:/Workspaces/DAVE-4.3/WS_2016_09_02/Flightcontroller_PWM_CopterRocks_Working/Libraries/CMSIS/Include\cmsis_gcc.h ****   result <<= s;                        /* shift when v's highest bits are zero */
 543:C:/Workspaces/DAVE-4.3/WS_2016_09_02/Flightcontroller_PWM_CopterRocks_Working/Libraries/CMSIS/Include\cmsis_gcc.h **** #endif
 544:C:/Workspaces/DAVE-4.3/WS_2016_09_02/Flightcontroller_PWM_CopterRocks_Working/Libraries/CMSIS/Include\cmsis_gcc.h ****   return(result);
 545:C:/Workspaces/DAVE-4.3/WS_2016_09_02/Flightcontroller_PWM_CopterRocks_Working/Libraries/CMSIS/Include\cmsis_gcc.h **** }
 546:C:/Workspaces/DAVE-4.3/WS_2016_09_02/Flightcontroller_PWM_CopterRocks_Working/Libraries/CMSIS/Include\cmsis_gcc.h **** 
 547:C:/Workspaces/DAVE-4.3/WS_2016_09_02/Flightcontroller_PWM_CopterRocks_Working/Libraries/CMSIS/Include\cmsis_gcc.h **** 
 548:C:/Workspaces/DAVE-4.3/WS_2016_09_02/Flightcontroller_PWM_CopterRocks_Working/Libraries/CMSIS/Include\cmsis_gcc.h **** /**
 549:C:/Workspaces/DAVE-4.3/WS_2016_09_02/Flightcontroller_PWM_CopterRocks_Working/Libraries/CMSIS/Include\cmsis_gcc.h ****   \brief   Count leading zeros
 550:C:/Workspaces/DAVE-4.3/WS_2016_09_02/Flightcontroller_PWM_CopterRocks_Working/Libraries/CMSIS/Include\cmsis_gcc.h ****   \details Counts the number of leading zeros of a data value.
 551:C:/Workspaces/DAVE-4.3/WS_2016_09_02/Flightcontroller_PWM_CopterRocks_Working/Libraries/CMSIS/Include\cmsis_gcc.h ****   \param [in]  value  Value to count the leading zeros
 552:C:/Workspaces/DAVE-4.3/WS_2016_09_02/Flightcontroller_PWM_CopterRocks_Working/Libraries/CMSIS/Include\cmsis_gcc.h ****   \return             number of leading zeros in value
 553:C:/Workspaces/DAVE-4.3/WS_2016_09_02/Flightcontroller_PWM_CopterRocks_Working/Libraries/CMSIS/Include\cmsis_gcc.h ****  */
 554:C:/Workspaces/DAVE-4.3/WS_2016_09_02/Flightcontroller_PWM_CopterRocks_Working/Libraries/CMSIS/Include\cmsis_gcc.h **** #define __CLZ             __builtin_clz
 555:C:/Workspaces/DAVE-4.3/WS_2016_09_02/Flightcontroller_PWM_CopterRocks_Working/Libraries/CMSIS/Include\cmsis_gcc.h **** 
 556:C:/Workspaces/DAVE-4.3/WS_2016_09_02/Flightcontroller_PWM_CopterRocks_Working/Libraries/CMSIS/Include\cmsis_gcc.h **** 
 557:C:/Workspaces/DAVE-4.3/WS_2016_09_02/Flightcontroller_PWM_CopterRocks_Working/Libraries/CMSIS/Include\cmsis_gcc.h **** #if       (__CORTEX_M >= 0x03U) || (__CORTEX_SC >= 300U)
 558:C:/Workspaces/DAVE-4.3/WS_2016_09_02/Flightcontroller_PWM_CopterRocks_Working/Libraries/CMSIS/Include\cmsis_gcc.h **** 
 559:C:/Workspaces/DAVE-4.3/WS_2016_09_02/Flightcontroller_PWM_CopterRocks_Working/Libraries/CMSIS/Include\cmsis_gcc.h **** /**
 560:C:/Workspaces/DAVE-4.3/WS_2016_09_02/Flightcontroller_PWM_CopterRocks_Working/Libraries/CMSIS/Include\cmsis_gcc.h ****   \brief   LDR Exclusive (8 bit)
 561:C:/Workspaces/DAVE-4.3/WS_2016_09_02/Flightcontroller_PWM_CopterRocks_Working/Libraries/CMSIS/Include\cmsis_gcc.h ****   \details Executes a exclusive LDR instruction for 8 bit value.
 562:C:/Workspaces/DAVE-4.3/WS_2016_09_02/Flightcontroller_PWM_CopterRocks_Working/Libraries/CMSIS/Include\cmsis_gcc.h ****   \param [in]    ptr  Pointer to data
 563:C:/Workspaces/DAVE-4.3/WS_2016_09_02/Flightcontroller_PWM_CopterRocks_Working/Libraries/CMSIS/Include\cmsis_gcc.h ****   \return             value of type uint8_t at (*ptr)
 564:C:/Workspaces/DAVE-4.3/WS_2016_09_02/Flightcontroller_PWM_CopterRocks_Working/Libraries/CMSIS/Include\cmsis_gcc.h ****  */
 565:C:/Workspaces/DAVE-4.3/WS_2016_09_02/Flightcontroller_PWM_CopterRocks_Working/Libraries/CMSIS/Include\cmsis_gcc.h **** __attribute__((always_inline)) __STATIC_INLINE uint8_t __LDREXB(volatile uint8_t *addr)
 566:C:/Workspaces/DAVE-4.3/WS_2016_09_02/Flightcontroller_PWM_CopterRocks_Working/Libraries/CMSIS/Include\cmsis_gcc.h **** {
 567:C:/Workspaces/DAVE-4.3/WS_2016_09_02/Flightcontroller_PWM_CopterRocks_Working/Libraries/CMSIS/Include\cmsis_gcc.h ****     uint32_t result;
 568:C:/Workspaces/DAVE-4.3/WS_2016_09_02/Flightcontroller_PWM_CopterRocks_Working/Libraries/CMSIS/Include\cmsis_gcc.h **** 
 569:C:/Workspaces/DAVE-4.3/WS_2016_09_02/Flightcontroller_PWM_CopterRocks_Working/Libraries/CMSIS/Include\cmsis_gcc.h **** #if (__GNUC__ > 4) || (__GNUC__ == 4 && __GNUC_MINOR__ >= 8)
 570:C:/Workspaces/DAVE-4.3/WS_2016_09_02/Flightcontroller_PWM_CopterRocks_Working/Libraries/CMSIS/Include\cmsis_gcc.h ****    __ASM volatile ("ldrexb %0, %1" : "=r" (result) : "Q" (*addr) );
 571:C:/Workspaces/DAVE-4.3/WS_2016_09_02/Flightcontroller_PWM_CopterRocks_Working/Libraries/CMSIS/Include\cmsis_gcc.h **** #else
 572:C:/Workspaces/DAVE-4.3/WS_2016_09_02/Flightcontroller_PWM_CopterRocks_Working/Libraries/CMSIS/Include\cmsis_gcc.h ****     /* Prior to GCC 4.8, "Q" will be expanded to [rx, #0] which is not
 573:C:/Workspaces/DAVE-4.3/WS_2016_09_02/Flightcontroller_PWM_CopterRocks_Working/Libraries/CMSIS/Include\cmsis_gcc.h ****        accepted by assembler. So has to use following less efficient pattern.
 574:C:/Workspaces/DAVE-4.3/WS_2016_09_02/Flightcontroller_PWM_CopterRocks_Working/Libraries/CMSIS/Include\cmsis_gcc.h ****     */
 575:C:/Workspaces/DAVE-4.3/WS_2016_09_02/Flightcontroller_PWM_CopterRocks_Working/Libraries/CMSIS/Include\cmsis_gcc.h ****    __ASM volatile ("ldrexb %0, [%1]" : "=r" (result) : "r" (addr) : "memory" );
 576:C:/Workspaces/DAVE-4.3/WS_2016_09_02/Flightcontroller_PWM_CopterRocks_Working/Libraries/CMSIS/Include\cmsis_gcc.h **** #endif
 577:C:/Workspaces/DAVE-4.3/WS_2016_09_02/Flightcontroller_PWM_CopterRocks_Working/Libraries/CMSIS/Include\cmsis_gcc.h ****    return ((uint8_t) result);    /* Add explicit type cast here */
 578:C:/Workspaces/DAVE-4.3/WS_2016_09_02/Flightcontroller_PWM_CopterRocks_Working/Libraries/CMSIS/Include\cmsis_gcc.h **** }
 579:C:/Workspaces/DAVE-4.3/WS_2016_09_02/Flightcontroller_PWM_CopterRocks_Working/Libraries/CMSIS/Include\cmsis_gcc.h **** 
 580:C:/Workspaces/DAVE-4.3/WS_2016_09_02/Flightcontroller_PWM_CopterRocks_Working/Libraries/CMSIS/Include\cmsis_gcc.h **** 
 581:C:/Workspaces/DAVE-4.3/WS_2016_09_02/Flightcontroller_PWM_CopterRocks_Working/Libraries/CMSIS/Include\cmsis_gcc.h **** /**
 582:C:/Workspaces/DAVE-4.3/WS_2016_09_02/Flightcontroller_PWM_CopterRocks_Working/Libraries/CMSIS/Include\cmsis_gcc.h ****   \brief   LDR Exclusive (16 bit)
 583:C:/Workspaces/DAVE-4.3/WS_2016_09_02/Flightcontroller_PWM_CopterRocks_Working/Libraries/CMSIS/Include\cmsis_gcc.h ****   \details Executes a exclusive LDR instruction for 16 bit values.
 584:C:/Workspaces/DAVE-4.3/WS_2016_09_02/Flightcontroller_PWM_CopterRocks_Working/Libraries/CMSIS/Include\cmsis_gcc.h ****   \param [in]    ptr  Pointer to data
 585:C:/Workspaces/DAVE-4.3/WS_2016_09_02/Flightcontroller_PWM_CopterRocks_Working/Libraries/CMSIS/Include\cmsis_gcc.h ****   \return        value of type uint16_t at (*ptr)
 586:C:/Workspaces/DAVE-4.3/WS_2016_09_02/Flightcontroller_PWM_CopterRocks_Working/Libraries/CMSIS/Include\cmsis_gcc.h ****  */
 587:C:/Workspaces/DAVE-4.3/WS_2016_09_02/Flightcontroller_PWM_CopterRocks_Working/Libraries/CMSIS/Include\cmsis_gcc.h **** __attribute__((always_inline)) __STATIC_INLINE uint16_t __LDREXH(volatile uint16_t *addr)
 588:C:/Workspaces/DAVE-4.3/WS_2016_09_02/Flightcontroller_PWM_CopterRocks_Working/Libraries/CMSIS/Include\cmsis_gcc.h **** {
 589:C:/Workspaces/DAVE-4.3/WS_2016_09_02/Flightcontroller_PWM_CopterRocks_Working/Libraries/CMSIS/Include\cmsis_gcc.h ****     uint32_t result;
 590:C:/Workspaces/DAVE-4.3/WS_2016_09_02/Flightcontroller_PWM_CopterRocks_Working/Libraries/CMSIS/Include\cmsis_gcc.h **** 
 591:C:/Workspaces/DAVE-4.3/WS_2016_09_02/Flightcontroller_PWM_CopterRocks_Working/Libraries/CMSIS/Include\cmsis_gcc.h **** #if (__GNUC__ > 4) || (__GNUC__ == 4 && __GNUC_MINOR__ >= 8)
 592:C:/Workspaces/DAVE-4.3/WS_2016_09_02/Flightcontroller_PWM_CopterRocks_Working/Libraries/CMSIS/Include\cmsis_gcc.h ****    __ASM volatile ("ldrexh %0, %1" : "=r" (result) : "Q" (*addr) );
 593:C:/Workspaces/DAVE-4.3/WS_2016_09_02/Flightcontroller_PWM_CopterRocks_Working/Libraries/CMSIS/Include\cmsis_gcc.h **** #else
 594:C:/Workspaces/DAVE-4.3/WS_2016_09_02/Flightcontroller_PWM_CopterRocks_Working/Libraries/CMSIS/Include\cmsis_gcc.h ****     /* Prior to GCC 4.8, "Q" will be expanded to [rx, #0] which is not
 595:C:/Workspaces/DAVE-4.3/WS_2016_09_02/Flightcontroller_PWM_CopterRocks_Working/Libraries/CMSIS/Include\cmsis_gcc.h ****        accepted by assembler. So has to use following less efficient pattern.
 596:C:/Workspaces/DAVE-4.3/WS_2016_09_02/Flightcontroller_PWM_CopterRocks_Working/Libraries/CMSIS/Include\cmsis_gcc.h ****     */
 597:C:/Workspaces/DAVE-4.3/WS_2016_09_02/Flightcontroller_PWM_CopterRocks_Working/Libraries/CMSIS/Include\cmsis_gcc.h ****    __ASM volatile ("ldrexh %0, [%1]" : "=r" (result) : "r" (addr) : "memory" );
 598:C:/Workspaces/DAVE-4.3/WS_2016_09_02/Flightcontroller_PWM_CopterRocks_Working/Libraries/CMSIS/Include\cmsis_gcc.h **** #endif
 599:C:/Workspaces/DAVE-4.3/WS_2016_09_02/Flightcontroller_PWM_CopterRocks_Working/Libraries/CMSIS/Include\cmsis_gcc.h ****    return ((uint16_t) result);    /* Add explicit type cast here */
 600:C:/Workspaces/DAVE-4.3/WS_2016_09_02/Flightcontroller_PWM_CopterRocks_Working/Libraries/CMSIS/Include\cmsis_gcc.h **** }
 601:C:/Workspaces/DAVE-4.3/WS_2016_09_02/Flightcontroller_PWM_CopterRocks_Working/Libraries/CMSIS/Include\cmsis_gcc.h **** 
 602:C:/Workspaces/DAVE-4.3/WS_2016_09_02/Flightcontroller_PWM_CopterRocks_Working/Libraries/CMSIS/Include\cmsis_gcc.h **** 
 603:C:/Workspaces/DAVE-4.3/WS_2016_09_02/Flightcontroller_PWM_CopterRocks_Working/Libraries/CMSIS/Include\cmsis_gcc.h **** /**
 604:C:/Workspaces/DAVE-4.3/WS_2016_09_02/Flightcontroller_PWM_CopterRocks_Working/Libraries/CMSIS/Include\cmsis_gcc.h ****   \brief   LDR Exclusive (32 bit)
 605:C:/Workspaces/DAVE-4.3/WS_2016_09_02/Flightcontroller_PWM_CopterRocks_Working/Libraries/CMSIS/Include\cmsis_gcc.h ****   \details Executes a exclusive LDR instruction for 32 bit values.
 606:C:/Workspaces/DAVE-4.3/WS_2016_09_02/Flightcontroller_PWM_CopterRocks_Working/Libraries/CMSIS/Include\cmsis_gcc.h ****   \param [in]    ptr  Pointer to data
 607:C:/Workspaces/DAVE-4.3/WS_2016_09_02/Flightcontroller_PWM_CopterRocks_Working/Libraries/CMSIS/Include\cmsis_gcc.h ****   \return        value of type uint32_t at (*ptr)
 608:C:/Workspaces/DAVE-4.3/WS_2016_09_02/Flightcontroller_PWM_CopterRocks_Working/Libraries/CMSIS/Include\cmsis_gcc.h ****  */
 609:C:/Workspaces/DAVE-4.3/WS_2016_09_02/Flightcontroller_PWM_CopterRocks_Working/Libraries/CMSIS/Include\cmsis_gcc.h **** __attribute__((always_inline)) __STATIC_INLINE uint32_t __LDREXW(volatile uint32_t *addr)
 610:C:/Workspaces/DAVE-4.3/WS_2016_09_02/Flightcontroller_PWM_CopterRocks_Working/Libraries/CMSIS/Include\cmsis_gcc.h **** {
 611:C:/Workspaces/DAVE-4.3/WS_2016_09_02/Flightcontroller_PWM_CopterRocks_Working/Libraries/CMSIS/Include\cmsis_gcc.h ****     uint32_t result;
 612:C:/Workspaces/DAVE-4.3/WS_2016_09_02/Flightcontroller_PWM_CopterRocks_Working/Libraries/CMSIS/Include\cmsis_gcc.h **** 
 613:C:/Workspaces/DAVE-4.3/WS_2016_09_02/Flightcontroller_PWM_CopterRocks_Working/Libraries/CMSIS/Include\cmsis_gcc.h ****    __ASM volatile ("ldrex %0, %1" : "=r" (result) : "Q" (*addr) );
 614:C:/Workspaces/DAVE-4.3/WS_2016_09_02/Flightcontroller_PWM_CopterRocks_Working/Libraries/CMSIS/Include\cmsis_gcc.h ****    return(result);
 615:C:/Workspaces/DAVE-4.3/WS_2016_09_02/Flightcontroller_PWM_CopterRocks_Working/Libraries/CMSIS/Include\cmsis_gcc.h **** }
 616:C:/Workspaces/DAVE-4.3/WS_2016_09_02/Flightcontroller_PWM_CopterRocks_Working/Libraries/CMSIS/Include\cmsis_gcc.h **** 
 617:C:/Workspaces/DAVE-4.3/WS_2016_09_02/Flightcontroller_PWM_CopterRocks_Working/Libraries/CMSIS/Include\cmsis_gcc.h **** 
 618:C:/Workspaces/DAVE-4.3/WS_2016_09_02/Flightcontroller_PWM_CopterRocks_Working/Libraries/CMSIS/Include\cmsis_gcc.h **** /**
 619:C:/Workspaces/DAVE-4.3/WS_2016_09_02/Flightcontroller_PWM_CopterRocks_Working/Libraries/CMSIS/Include\cmsis_gcc.h ****   \brief   STR Exclusive (8 bit)
 620:C:/Workspaces/DAVE-4.3/WS_2016_09_02/Flightcontroller_PWM_CopterRocks_Working/Libraries/CMSIS/Include\cmsis_gcc.h ****   \details Executes a exclusive STR instruction for 8 bit values.
 621:C:/Workspaces/DAVE-4.3/WS_2016_09_02/Flightcontroller_PWM_CopterRocks_Working/Libraries/CMSIS/Include\cmsis_gcc.h ****   \param [in]  value  Value to store
 622:C:/Workspaces/DAVE-4.3/WS_2016_09_02/Flightcontroller_PWM_CopterRocks_Working/Libraries/CMSIS/Include\cmsis_gcc.h ****   \param [in]    ptr  Pointer to location
 623:C:/Workspaces/DAVE-4.3/WS_2016_09_02/Flightcontroller_PWM_CopterRocks_Working/Libraries/CMSIS/Include\cmsis_gcc.h ****   \return          0  Function succeeded
 624:C:/Workspaces/DAVE-4.3/WS_2016_09_02/Flightcontroller_PWM_CopterRocks_Working/Libraries/CMSIS/Include\cmsis_gcc.h ****   \return          1  Function failed
 625:C:/Workspaces/DAVE-4.3/WS_2016_09_02/Flightcontroller_PWM_CopterRocks_Working/Libraries/CMSIS/Include\cmsis_gcc.h ****  */
 626:C:/Workspaces/DAVE-4.3/WS_2016_09_02/Flightcontroller_PWM_CopterRocks_Working/Libraries/CMSIS/Include\cmsis_gcc.h **** __attribute__((always_inline)) __STATIC_INLINE uint32_t __STREXB(uint8_t value, volatile uint8_t *a
 627:C:/Workspaces/DAVE-4.3/WS_2016_09_02/Flightcontroller_PWM_CopterRocks_Working/Libraries/CMSIS/Include\cmsis_gcc.h **** {
 628:C:/Workspaces/DAVE-4.3/WS_2016_09_02/Flightcontroller_PWM_CopterRocks_Working/Libraries/CMSIS/Include\cmsis_gcc.h ****    uint32_t result;
 629:C:/Workspaces/DAVE-4.3/WS_2016_09_02/Flightcontroller_PWM_CopterRocks_Working/Libraries/CMSIS/Include\cmsis_gcc.h **** 
 630:C:/Workspaces/DAVE-4.3/WS_2016_09_02/Flightcontroller_PWM_CopterRocks_Working/Libraries/CMSIS/Include\cmsis_gcc.h ****    __ASM volatile ("strexb %0, %2, %1" : "=&r" (result), "=Q" (*addr) : "r" ((uint32_t)value) );
 631:C:/Workspaces/DAVE-4.3/WS_2016_09_02/Flightcontroller_PWM_CopterRocks_Working/Libraries/CMSIS/Include\cmsis_gcc.h ****    return(result);
 632:C:/Workspaces/DAVE-4.3/WS_2016_09_02/Flightcontroller_PWM_CopterRocks_Working/Libraries/CMSIS/Include\cmsis_gcc.h **** }
 633:C:/Workspaces/DAVE-4.3/WS_2016_09_02/Flightcontroller_PWM_CopterRocks_Working/Libraries/CMSIS/Include\cmsis_gcc.h **** 
 634:C:/Workspaces/DAVE-4.3/WS_2016_09_02/Flightcontroller_PWM_CopterRocks_Working/Libraries/CMSIS/Include\cmsis_gcc.h **** 
 635:C:/Workspaces/DAVE-4.3/WS_2016_09_02/Flightcontroller_PWM_CopterRocks_Working/Libraries/CMSIS/Include\cmsis_gcc.h **** /**
 636:C:/Workspaces/DAVE-4.3/WS_2016_09_02/Flightcontroller_PWM_CopterRocks_Working/Libraries/CMSIS/Include\cmsis_gcc.h ****   \brief   STR Exclusive (16 bit)
 637:C:/Workspaces/DAVE-4.3/WS_2016_09_02/Flightcontroller_PWM_CopterRocks_Working/Libraries/CMSIS/Include\cmsis_gcc.h ****   \details Executes a exclusive STR instruction for 16 bit values.
 638:C:/Workspaces/DAVE-4.3/WS_2016_09_02/Flightcontroller_PWM_CopterRocks_Working/Libraries/CMSIS/Include\cmsis_gcc.h ****   \param [in]  value  Value to store
 639:C:/Workspaces/DAVE-4.3/WS_2016_09_02/Flightcontroller_PWM_CopterRocks_Working/Libraries/CMSIS/Include\cmsis_gcc.h ****   \param [in]    ptr  Pointer to location
 640:C:/Workspaces/DAVE-4.3/WS_2016_09_02/Flightcontroller_PWM_CopterRocks_Working/Libraries/CMSIS/Include\cmsis_gcc.h ****   \return          0  Function succeeded
 641:C:/Workspaces/DAVE-4.3/WS_2016_09_02/Flightcontroller_PWM_CopterRocks_Working/Libraries/CMSIS/Include\cmsis_gcc.h ****   \return          1  Function failed
 642:C:/Workspaces/DAVE-4.3/WS_2016_09_02/Flightcontroller_PWM_CopterRocks_Working/Libraries/CMSIS/Include\cmsis_gcc.h ****  */
 643:C:/Workspaces/DAVE-4.3/WS_2016_09_02/Flightcontroller_PWM_CopterRocks_Working/Libraries/CMSIS/Include\cmsis_gcc.h **** __attribute__((always_inline)) __STATIC_INLINE uint32_t __STREXH(uint16_t value, volatile uint16_t 
 644:C:/Workspaces/DAVE-4.3/WS_2016_09_02/Flightcontroller_PWM_CopterRocks_Working/Libraries/CMSIS/Include\cmsis_gcc.h **** {
 645:C:/Workspaces/DAVE-4.3/WS_2016_09_02/Flightcontroller_PWM_CopterRocks_Working/Libraries/CMSIS/Include\cmsis_gcc.h ****    uint32_t result;
 646:C:/Workspaces/DAVE-4.3/WS_2016_09_02/Flightcontroller_PWM_CopterRocks_Working/Libraries/CMSIS/Include\cmsis_gcc.h **** 
 647:C:/Workspaces/DAVE-4.3/WS_2016_09_02/Flightcontroller_PWM_CopterRocks_Working/Libraries/CMSIS/Include\cmsis_gcc.h ****    __ASM volatile ("strexh %0, %2, %1" : "=&r" (result), "=Q" (*addr) : "r" ((uint32_t)value) );
 648:C:/Workspaces/DAVE-4.3/WS_2016_09_02/Flightcontroller_PWM_CopterRocks_Working/Libraries/CMSIS/Include\cmsis_gcc.h ****    return(result);
 649:C:/Workspaces/DAVE-4.3/WS_2016_09_02/Flightcontroller_PWM_CopterRocks_Working/Libraries/CMSIS/Include\cmsis_gcc.h **** }
 650:C:/Workspaces/DAVE-4.3/WS_2016_09_02/Flightcontroller_PWM_CopterRocks_Working/Libraries/CMSIS/Include\cmsis_gcc.h **** 
 651:C:/Workspaces/DAVE-4.3/WS_2016_09_02/Flightcontroller_PWM_CopterRocks_Working/Libraries/CMSIS/Include\cmsis_gcc.h **** 
 652:C:/Workspaces/DAVE-4.3/WS_2016_09_02/Flightcontroller_PWM_CopterRocks_Working/Libraries/CMSIS/Include\cmsis_gcc.h **** /**
 653:C:/Workspaces/DAVE-4.3/WS_2016_09_02/Flightcontroller_PWM_CopterRocks_Working/Libraries/CMSIS/Include\cmsis_gcc.h ****   \brief   STR Exclusive (32 bit)
 654:C:/Workspaces/DAVE-4.3/WS_2016_09_02/Flightcontroller_PWM_CopterRocks_Working/Libraries/CMSIS/Include\cmsis_gcc.h ****   \details Executes a exclusive STR instruction for 32 bit values.
 655:C:/Workspaces/DAVE-4.3/WS_2016_09_02/Flightcontroller_PWM_CopterRocks_Working/Libraries/CMSIS/Include\cmsis_gcc.h ****   \param [in]  value  Value to store
 656:C:/Workspaces/DAVE-4.3/WS_2016_09_02/Flightcontroller_PWM_CopterRocks_Working/Libraries/CMSIS/Include\cmsis_gcc.h ****   \param [in]    ptr  Pointer to location
 657:C:/Workspaces/DAVE-4.3/WS_2016_09_02/Flightcontroller_PWM_CopterRocks_Working/Libraries/CMSIS/Include\cmsis_gcc.h ****   \return          0  Function succeeded
 658:C:/Workspaces/DAVE-4.3/WS_2016_09_02/Flightcontroller_PWM_CopterRocks_Working/Libraries/CMSIS/Include\cmsis_gcc.h ****   \return          1  Function failed
 659:C:/Workspaces/DAVE-4.3/WS_2016_09_02/Flightcontroller_PWM_CopterRocks_Working/Libraries/CMSIS/Include\cmsis_gcc.h ****  */
 660:C:/Workspaces/DAVE-4.3/WS_2016_09_02/Flightcontroller_PWM_CopterRocks_Working/Libraries/CMSIS/Include\cmsis_gcc.h **** __attribute__((always_inline)) __STATIC_INLINE uint32_t __STREXW(uint32_t value, volatile uint32_t 
 661:C:/Workspaces/DAVE-4.3/WS_2016_09_02/Flightcontroller_PWM_CopterRocks_Working/Libraries/CMSIS/Include\cmsis_gcc.h **** {
 662:C:/Workspaces/DAVE-4.3/WS_2016_09_02/Flightcontroller_PWM_CopterRocks_Working/Libraries/CMSIS/Include\cmsis_gcc.h ****    uint32_t result;
 663:C:/Workspaces/DAVE-4.3/WS_2016_09_02/Flightcontroller_PWM_CopterRocks_Working/Libraries/CMSIS/Include\cmsis_gcc.h **** 
 664:C:/Workspaces/DAVE-4.3/WS_2016_09_02/Flightcontroller_PWM_CopterRocks_Working/Libraries/CMSIS/Include\cmsis_gcc.h ****    __ASM volatile ("strex %0, %2, %1" : "=&r" (result), "=Q" (*addr) : "r" (value) );
 665:C:/Workspaces/DAVE-4.3/WS_2016_09_02/Flightcontroller_PWM_CopterRocks_Working/Libraries/CMSIS/Include\cmsis_gcc.h ****    return(result);
 666:C:/Workspaces/DAVE-4.3/WS_2016_09_02/Flightcontroller_PWM_CopterRocks_Working/Libraries/CMSIS/Include\cmsis_gcc.h **** }
 667:C:/Workspaces/DAVE-4.3/WS_2016_09_02/Flightcontroller_PWM_CopterRocks_Working/Libraries/CMSIS/Include\cmsis_gcc.h **** 
 668:C:/Workspaces/DAVE-4.3/WS_2016_09_02/Flightcontroller_PWM_CopterRocks_Working/Libraries/CMSIS/Include\cmsis_gcc.h **** 
 669:C:/Workspaces/DAVE-4.3/WS_2016_09_02/Flightcontroller_PWM_CopterRocks_Working/Libraries/CMSIS/Include\cmsis_gcc.h **** /**
 670:C:/Workspaces/DAVE-4.3/WS_2016_09_02/Flightcontroller_PWM_CopterRocks_Working/Libraries/CMSIS/Include\cmsis_gcc.h ****   \brief   Remove the exclusive lock
 671:C:/Workspaces/DAVE-4.3/WS_2016_09_02/Flightcontroller_PWM_CopterRocks_Working/Libraries/CMSIS/Include\cmsis_gcc.h ****   \details Removes the exclusive lock which is created by LDREX.
 672:C:/Workspaces/DAVE-4.3/WS_2016_09_02/Flightcontroller_PWM_CopterRocks_Working/Libraries/CMSIS/Include\cmsis_gcc.h ****  */
 673:C:/Workspaces/DAVE-4.3/WS_2016_09_02/Flightcontroller_PWM_CopterRocks_Working/Libraries/CMSIS/Include\cmsis_gcc.h **** __attribute__((always_inline)) __STATIC_INLINE void __CLREX(void)
 674:C:/Workspaces/DAVE-4.3/WS_2016_09_02/Flightcontroller_PWM_CopterRocks_Working/Libraries/CMSIS/Include\cmsis_gcc.h **** {
 675:C:/Workspaces/DAVE-4.3/WS_2016_09_02/Flightcontroller_PWM_CopterRocks_Working/Libraries/CMSIS/Include\cmsis_gcc.h ****   __ASM volatile ("clrex" ::: "memory");
 676:C:/Workspaces/DAVE-4.3/WS_2016_09_02/Flightcontroller_PWM_CopterRocks_Working/Libraries/CMSIS/Include\cmsis_gcc.h **** }
 677:C:/Workspaces/DAVE-4.3/WS_2016_09_02/Flightcontroller_PWM_CopterRocks_Working/Libraries/CMSIS/Include\cmsis_gcc.h **** 
 678:C:/Workspaces/DAVE-4.3/WS_2016_09_02/Flightcontroller_PWM_CopterRocks_Working/Libraries/CMSIS/Include\cmsis_gcc.h **** 
 679:C:/Workspaces/DAVE-4.3/WS_2016_09_02/Flightcontroller_PWM_CopterRocks_Working/Libraries/CMSIS/Include\cmsis_gcc.h **** /**
 680:C:/Workspaces/DAVE-4.3/WS_2016_09_02/Flightcontroller_PWM_CopterRocks_Working/Libraries/CMSIS/Include\cmsis_gcc.h ****   \brief   Signed Saturate
 681:C:/Workspaces/DAVE-4.3/WS_2016_09_02/Flightcontroller_PWM_CopterRocks_Working/Libraries/CMSIS/Include\cmsis_gcc.h ****   \details Saturates a signed value.
 682:C:/Workspaces/DAVE-4.3/WS_2016_09_02/Flightcontroller_PWM_CopterRocks_Working/Libraries/CMSIS/Include\cmsis_gcc.h ****   \param [in]  value  Value to be saturated
 683:C:/Workspaces/DAVE-4.3/WS_2016_09_02/Flightcontroller_PWM_CopterRocks_Working/Libraries/CMSIS/Include\cmsis_gcc.h ****   \param [in]    sat  Bit position to saturate to (1..32)
 684:C:/Workspaces/DAVE-4.3/WS_2016_09_02/Flightcontroller_PWM_CopterRocks_Working/Libraries/CMSIS/Include\cmsis_gcc.h ****   \return             Saturated value
 685:C:/Workspaces/DAVE-4.3/WS_2016_09_02/Flightcontroller_PWM_CopterRocks_Working/Libraries/CMSIS/Include\cmsis_gcc.h ****  */
 686:C:/Workspaces/DAVE-4.3/WS_2016_09_02/Flightcontroller_PWM_CopterRocks_Working/Libraries/CMSIS/Include\cmsis_gcc.h **** #define __SSAT(ARG1,ARG2) \
 687:C:/Workspaces/DAVE-4.3/WS_2016_09_02/Flightcontroller_PWM_CopterRocks_Working/Libraries/CMSIS/Include\cmsis_gcc.h **** ({                          \
 688:C:/Workspaces/DAVE-4.3/WS_2016_09_02/Flightcontroller_PWM_CopterRocks_Working/Libraries/CMSIS/Include\cmsis_gcc.h ****   uint32_t __RES, __ARG1 = (ARG1); \
 689:C:/Workspaces/DAVE-4.3/WS_2016_09_02/Flightcontroller_PWM_CopterRocks_Working/Libraries/CMSIS/Include\cmsis_gcc.h ****   __ASM ("ssat %0, %1, %2" : "=r" (__RES) :  "I" (ARG2), "r" (__ARG1) ); \
 690:C:/Workspaces/DAVE-4.3/WS_2016_09_02/Flightcontroller_PWM_CopterRocks_Working/Libraries/CMSIS/Include\cmsis_gcc.h ****   __RES; \
 691:C:/Workspaces/DAVE-4.3/WS_2016_09_02/Flightcontroller_PWM_CopterRocks_Working/Libraries/CMSIS/Include\cmsis_gcc.h ****  })
 692:C:/Workspaces/DAVE-4.3/WS_2016_09_02/Flightcontroller_PWM_CopterRocks_Working/Libraries/CMSIS/Include\cmsis_gcc.h **** 
 693:C:/Workspaces/DAVE-4.3/WS_2016_09_02/Flightcontroller_PWM_CopterRocks_Working/Libraries/CMSIS/Include\cmsis_gcc.h **** 
 694:C:/Workspaces/DAVE-4.3/WS_2016_09_02/Flightcontroller_PWM_CopterRocks_Working/Libraries/CMSIS/Include\cmsis_gcc.h **** /**
 695:C:/Workspaces/DAVE-4.3/WS_2016_09_02/Flightcontroller_PWM_CopterRocks_Working/Libraries/CMSIS/Include\cmsis_gcc.h ****   \brief   Unsigned Saturate
 696:C:/Workspaces/DAVE-4.3/WS_2016_09_02/Flightcontroller_PWM_CopterRocks_Working/Libraries/CMSIS/Include\cmsis_gcc.h ****   \details Saturates an unsigned value.
 697:C:/Workspaces/DAVE-4.3/WS_2016_09_02/Flightcontroller_PWM_CopterRocks_Working/Libraries/CMSIS/Include\cmsis_gcc.h ****   \param [in]  value  Value to be saturated
 698:C:/Workspaces/DAVE-4.3/WS_2016_09_02/Flightcontroller_PWM_CopterRocks_Working/Libraries/CMSIS/Include\cmsis_gcc.h ****   \param [in]    sat  Bit position to saturate to (0..31)
 699:C:/Workspaces/DAVE-4.3/WS_2016_09_02/Flightcontroller_PWM_CopterRocks_Working/Libraries/CMSIS/Include\cmsis_gcc.h ****   \return             Saturated value
 700:C:/Workspaces/DAVE-4.3/WS_2016_09_02/Flightcontroller_PWM_CopterRocks_Working/Libraries/CMSIS/Include\cmsis_gcc.h ****  */
 701:C:/Workspaces/DAVE-4.3/WS_2016_09_02/Flightcontroller_PWM_CopterRocks_Working/Libraries/CMSIS/Include\cmsis_gcc.h **** #define __USAT(ARG1,ARG2) \
 702:C:/Workspaces/DAVE-4.3/WS_2016_09_02/Flightcontroller_PWM_CopterRocks_Working/Libraries/CMSIS/Include\cmsis_gcc.h **** ({                          \
 703:C:/Workspaces/DAVE-4.3/WS_2016_09_02/Flightcontroller_PWM_CopterRocks_Working/Libraries/CMSIS/Include\cmsis_gcc.h ****   uint32_t __RES, __ARG1 = (ARG1); \
 704:C:/Workspaces/DAVE-4.3/WS_2016_09_02/Flightcontroller_PWM_CopterRocks_Working/Libraries/CMSIS/Include\cmsis_gcc.h ****   __ASM ("usat %0, %1, %2" : "=r" (__RES) :  "I" (ARG2), "r" (__ARG1) ); \
 705:C:/Workspaces/DAVE-4.3/WS_2016_09_02/Flightcontroller_PWM_CopterRocks_Working/Libraries/CMSIS/Include\cmsis_gcc.h ****   __RES; \
 706:C:/Workspaces/DAVE-4.3/WS_2016_09_02/Flightcontroller_PWM_CopterRocks_Working/Libraries/CMSIS/Include\cmsis_gcc.h ****  })
 707:C:/Workspaces/DAVE-4.3/WS_2016_09_02/Flightcontroller_PWM_CopterRocks_Working/Libraries/CMSIS/Include\cmsis_gcc.h **** 
 708:C:/Workspaces/DAVE-4.3/WS_2016_09_02/Flightcontroller_PWM_CopterRocks_Working/Libraries/CMSIS/Include\cmsis_gcc.h **** 
 709:C:/Workspaces/DAVE-4.3/WS_2016_09_02/Flightcontroller_PWM_CopterRocks_Working/Libraries/CMSIS/Include\cmsis_gcc.h **** /**
 710:C:/Workspaces/DAVE-4.3/WS_2016_09_02/Flightcontroller_PWM_CopterRocks_Working/Libraries/CMSIS/Include\cmsis_gcc.h ****   \brief   Rotate Right with Extend (32 bit)
 711:C:/Workspaces/DAVE-4.3/WS_2016_09_02/Flightcontroller_PWM_CopterRocks_Working/Libraries/CMSIS/Include\cmsis_gcc.h ****   \details Moves each bit of a bitstring right by one bit.
 712:C:/Workspaces/DAVE-4.3/WS_2016_09_02/Flightcontroller_PWM_CopterRocks_Working/Libraries/CMSIS/Include\cmsis_gcc.h ****            The carry input is shifted in at the left end of the bitstring.
 713:C:/Workspaces/DAVE-4.3/WS_2016_09_02/Flightcontroller_PWM_CopterRocks_Working/Libraries/CMSIS/Include\cmsis_gcc.h ****   \param [in]    value  Value to rotate
 714:C:/Workspaces/DAVE-4.3/WS_2016_09_02/Flightcontroller_PWM_CopterRocks_Working/Libraries/CMSIS/Include\cmsis_gcc.h ****   \return               Rotated value
 715:C:/Workspaces/DAVE-4.3/WS_2016_09_02/Flightcontroller_PWM_CopterRocks_Working/Libraries/CMSIS/Include\cmsis_gcc.h ****  */
 716:C:/Workspaces/DAVE-4.3/WS_2016_09_02/Flightcontroller_PWM_CopterRocks_Working/Libraries/CMSIS/Include\cmsis_gcc.h **** __attribute__((always_inline)) __STATIC_INLINE uint32_t __RRX(uint32_t value)
 717:C:/Workspaces/DAVE-4.3/WS_2016_09_02/Flightcontroller_PWM_CopterRocks_Working/Libraries/CMSIS/Include\cmsis_gcc.h **** {
 718:C:/Workspaces/DAVE-4.3/WS_2016_09_02/Flightcontroller_PWM_CopterRocks_Working/Libraries/CMSIS/Include\cmsis_gcc.h ****   uint32_t result;
 719:C:/Workspaces/DAVE-4.3/WS_2016_09_02/Flightcontroller_PWM_CopterRocks_Working/Libraries/CMSIS/Include\cmsis_gcc.h **** 
 720:C:/Workspaces/DAVE-4.3/WS_2016_09_02/Flightcontroller_PWM_CopterRocks_Working/Libraries/CMSIS/Include\cmsis_gcc.h ****   __ASM volatile ("rrx %0, %1" : __CMSIS_GCC_OUT_REG (result) : __CMSIS_GCC_USE_REG (value) );
 721:C:/Workspaces/DAVE-4.3/WS_2016_09_02/Flightcontroller_PWM_CopterRocks_Working/Libraries/CMSIS/Include\cmsis_gcc.h ****   return(result);
 722:C:/Workspaces/DAVE-4.3/WS_2016_09_02/Flightcontroller_PWM_CopterRocks_Working/Libraries/CMSIS/Include\cmsis_gcc.h **** }
 723:C:/Workspaces/DAVE-4.3/WS_2016_09_02/Flightcontroller_PWM_CopterRocks_Working/Libraries/CMSIS/Include\cmsis_gcc.h **** 
 724:C:/Workspaces/DAVE-4.3/WS_2016_09_02/Flightcontroller_PWM_CopterRocks_Working/Libraries/CMSIS/Include\cmsis_gcc.h **** 
 725:C:/Workspaces/DAVE-4.3/WS_2016_09_02/Flightcontroller_PWM_CopterRocks_Working/Libraries/CMSIS/Include\cmsis_gcc.h **** /**
 726:C:/Workspaces/DAVE-4.3/WS_2016_09_02/Flightcontroller_PWM_CopterRocks_Working/Libraries/CMSIS/Include\cmsis_gcc.h ****   \brief   LDRT Unprivileged (8 bit)
 727:C:/Workspaces/DAVE-4.3/WS_2016_09_02/Flightcontroller_PWM_CopterRocks_Working/Libraries/CMSIS/Include\cmsis_gcc.h ****   \details Executes a Unprivileged LDRT instruction for 8 bit value.
 728:C:/Workspaces/DAVE-4.3/WS_2016_09_02/Flightcontroller_PWM_CopterRocks_Working/Libraries/CMSIS/Include\cmsis_gcc.h ****   \param [in]    ptr  Pointer to data
 729:C:/Workspaces/DAVE-4.3/WS_2016_09_02/Flightcontroller_PWM_CopterRocks_Working/Libraries/CMSIS/Include\cmsis_gcc.h ****   \return             value of type uint8_t at (*ptr)
 730:C:/Workspaces/DAVE-4.3/WS_2016_09_02/Flightcontroller_PWM_CopterRocks_Working/Libraries/CMSIS/Include\cmsis_gcc.h ****  */
 731:C:/Workspaces/DAVE-4.3/WS_2016_09_02/Flightcontroller_PWM_CopterRocks_Working/Libraries/CMSIS/Include\cmsis_gcc.h **** __attribute__((always_inline)) __STATIC_INLINE uint8_t __LDRBT(volatile uint8_t *addr)
 732:C:/Workspaces/DAVE-4.3/WS_2016_09_02/Flightcontroller_PWM_CopterRocks_Working/Libraries/CMSIS/Include\cmsis_gcc.h **** {
 733:C:/Workspaces/DAVE-4.3/WS_2016_09_02/Flightcontroller_PWM_CopterRocks_Working/Libraries/CMSIS/Include\cmsis_gcc.h ****     uint32_t result;
 734:C:/Workspaces/DAVE-4.3/WS_2016_09_02/Flightcontroller_PWM_CopterRocks_Working/Libraries/CMSIS/Include\cmsis_gcc.h **** 
 735:C:/Workspaces/DAVE-4.3/WS_2016_09_02/Flightcontroller_PWM_CopterRocks_Working/Libraries/CMSIS/Include\cmsis_gcc.h **** #if (__GNUC__ > 4) || (__GNUC__ == 4 && __GNUC_MINOR__ >= 8)
 736:C:/Workspaces/DAVE-4.3/WS_2016_09_02/Flightcontroller_PWM_CopterRocks_Working/Libraries/CMSIS/Include\cmsis_gcc.h ****    __ASM volatile ("ldrbt %0, %1" : "=r" (result) : "Q" (*addr) );
 737:C:/Workspaces/DAVE-4.3/WS_2016_09_02/Flightcontroller_PWM_CopterRocks_Working/Libraries/CMSIS/Include\cmsis_gcc.h **** #else
 738:C:/Workspaces/DAVE-4.3/WS_2016_09_02/Flightcontroller_PWM_CopterRocks_Working/Libraries/CMSIS/Include\cmsis_gcc.h ****     /* Prior to GCC 4.8, "Q" will be expanded to [rx, #0] which is not
 739:C:/Workspaces/DAVE-4.3/WS_2016_09_02/Flightcontroller_PWM_CopterRocks_Working/Libraries/CMSIS/Include\cmsis_gcc.h ****        accepted by assembler. So has to use following less efficient pattern.
 740:C:/Workspaces/DAVE-4.3/WS_2016_09_02/Flightcontroller_PWM_CopterRocks_Working/Libraries/CMSIS/Include\cmsis_gcc.h ****     */
 741:C:/Workspaces/DAVE-4.3/WS_2016_09_02/Flightcontroller_PWM_CopterRocks_Working/Libraries/CMSIS/Include\cmsis_gcc.h ****    __ASM volatile ("ldrbt %0, [%1]" : "=r" (result) : "r" (addr) : "memory" );
 742:C:/Workspaces/DAVE-4.3/WS_2016_09_02/Flightcontroller_PWM_CopterRocks_Working/Libraries/CMSIS/Include\cmsis_gcc.h **** #endif
 743:C:/Workspaces/DAVE-4.3/WS_2016_09_02/Flightcontroller_PWM_CopterRocks_Working/Libraries/CMSIS/Include\cmsis_gcc.h ****    return ((uint8_t) result);    /* Add explicit type cast here */
 744:C:/Workspaces/DAVE-4.3/WS_2016_09_02/Flightcontroller_PWM_CopterRocks_Working/Libraries/CMSIS/Include\cmsis_gcc.h **** }
 745:C:/Workspaces/DAVE-4.3/WS_2016_09_02/Flightcontroller_PWM_CopterRocks_Working/Libraries/CMSIS/Include\cmsis_gcc.h **** 
 746:C:/Workspaces/DAVE-4.3/WS_2016_09_02/Flightcontroller_PWM_CopterRocks_Working/Libraries/CMSIS/Include\cmsis_gcc.h **** 
 747:C:/Workspaces/DAVE-4.3/WS_2016_09_02/Flightcontroller_PWM_CopterRocks_Working/Libraries/CMSIS/Include\cmsis_gcc.h **** /**
 748:C:/Workspaces/DAVE-4.3/WS_2016_09_02/Flightcontroller_PWM_CopterRocks_Working/Libraries/CMSIS/Include\cmsis_gcc.h ****   \brief   LDRT Unprivileged (16 bit)
 749:C:/Workspaces/DAVE-4.3/WS_2016_09_02/Flightcontroller_PWM_CopterRocks_Working/Libraries/CMSIS/Include\cmsis_gcc.h ****   \details Executes a Unprivileged LDRT instruction for 16 bit values.
 750:C:/Workspaces/DAVE-4.3/WS_2016_09_02/Flightcontroller_PWM_CopterRocks_Working/Libraries/CMSIS/Include\cmsis_gcc.h ****   \param [in]    ptr  Pointer to data
 751:C:/Workspaces/DAVE-4.3/WS_2016_09_02/Flightcontroller_PWM_CopterRocks_Working/Libraries/CMSIS/Include\cmsis_gcc.h ****   \return        value of type uint16_t at (*ptr)
 752:C:/Workspaces/DAVE-4.3/WS_2016_09_02/Flightcontroller_PWM_CopterRocks_Working/Libraries/CMSIS/Include\cmsis_gcc.h ****  */
 753:C:/Workspaces/DAVE-4.3/WS_2016_09_02/Flightcontroller_PWM_CopterRocks_Working/Libraries/CMSIS/Include\cmsis_gcc.h **** __attribute__((always_inline)) __STATIC_INLINE uint16_t __LDRHT(volatile uint16_t *addr)
 754:C:/Workspaces/DAVE-4.3/WS_2016_09_02/Flightcontroller_PWM_CopterRocks_Working/Libraries/CMSIS/Include\cmsis_gcc.h **** {
 755:C:/Workspaces/DAVE-4.3/WS_2016_09_02/Flightcontroller_PWM_CopterRocks_Working/Libraries/CMSIS/Include\cmsis_gcc.h ****     uint32_t result;
 756:C:/Workspaces/DAVE-4.3/WS_2016_09_02/Flightcontroller_PWM_CopterRocks_Working/Libraries/CMSIS/Include\cmsis_gcc.h **** 
 757:C:/Workspaces/DAVE-4.3/WS_2016_09_02/Flightcontroller_PWM_CopterRocks_Working/Libraries/CMSIS/Include\cmsis_gcc.h **** #if (__GNUC__ > 4) || (__GNUC__ == 4 && __GNUC_MINOR__ >= 8)
 758:C:/Workspaces/DAVE-4.3/WS_2016_09_02/Flightcontroller_PWM_CopterRocks_Working/Libraries/CMSIS/Include\cmsis_gcc.h ****    __ASM volatile ("ldrht %0, %1" : "=r" (result) : "Q" (*addr) );
 759:C:/Workspaces/DAVE-4.3/WS_2016_09_02/Flightcontroller_PWM_CopterRocks_Working/Libraries/CMSIS/Include\cmsis_gcc.h **** #else
 760:C:/Workspaces/DAVE-4.3/WS_2016_09_02/Flightcontroller_PWM_CopterRocks_Working/Libraries/CMSIS/Include\cmsis_gcc.h ****     /* Prior to GCC 4.8, "Q" will be expanded to [rx, #0] which is not
 761:C:/Workspaces/DAVE-4.3/WS_2016_09_02/Flightcontroller_PWM_CopterRocks_Working/Libraries/CMSIS/Include\cmsis_gcc.h ****        accepted by assembler. So has to use following less efficient pattern.
 762:C:/Workspaces/DAVE-4.3/WS_2016_09_02/Flightcontroller_PWM_CopterRocks_Working/Libraries/CMSIS/Include\cmsis_gcc.h ****     */
 763:C:/Workspaces/DAVE-4.3/WS_2016_09_02/Flightcontroller_PWM_CopterRocks_Working/Libraries/CMSIS/Include\cmsis_gcc.h ****    __ASM volatile ("ldrht %0, [%1]" : "=r" (result) : "r" (addr) : "memory" );
 764:C:/Workspaces/DAVE-4.3/WS_2016_09_02/Flightcontroller_PWM_CopterRocks_Working/Libraries/CMSIS/Include\cmsis_gcc.h **** #endif
 765:C:/Workspaces/DAVE-4.3/WS_2016_09_02/Flightcontroller_PWM_CopterRocks_Working/Libraries/CMSIS/Include\cmsis_gcc.h ****    return ((uint16_t) result);    /* Add explicit type cast here */
 766:C:/Workspaces/DAVE-4.3/WS_2016_09_02/Flightcontroller_PWM_CopterRocks_Working/Libraries/CMSIS/Include\cmsis_gcc.h **** }
 767:C:/Workspaces/DAVE-4.3/WS_2016_09_02/Flightcontroller_PWM_CopterRocks_Working/Libraries/CMSIS/Include\cmsis_gcc.h **** 
 768:C:/Workspaces/DAVE-4.3/WS_2016_09_02/Flightcontroller_PWM_CopterRocks_Working/Libraries/CMSIS/Include\cmsis_gcc.h **** 
 769:C:/Workspaces/DAVE-4.3/WS_2016_09_02/Flightcontroller_PWM_CopterRocks_Working/Libraries/CMSIS/Include\cmsis_gcc.h **** /**
 770:C:/Workspaces/DAVE-4.3/WS_2016_09_02/Flightcontroller_PWM_CopterRocks_Working/Libraries/CMSIS/Include\cmsis_gcc.h ****   \brief   LDRT Unprivileged (32 bit)
 771:C:/Workspaces/DAVE-4.3/WS_2016_09_02/Flightcontroller_PWM_CopterRocks_Working/Libraries/CMSIS/Include\cmsis_gcc.h ****   \details Executes a Unprivileged LDRT instruction for 32 bit values.
 772:C:/Workspaces/DAVE-4.3/WS_2016_09_02/Flightcontroller_PWM_CopterRocks_Working/Libraries/CMSIS/Include\cmsis_gcc.h ****   \param [in]    ptr  Pointer to data
 773:C:/Workspaces/DAVE-4.3/WS_2016_09_02/Flightcontroller_PWM_CopterRocks_Working/Libraries/CMSIS/Include\cmsis_gcc.h ****   \return        value of type uint32_t at (*ptr)
 774:C:/Workspaces/DAVE-4.3/WS_2016_09_02/Flightcontroller_PWM_CopterRocks_Working/Libraries/CMSIS/Include\cmsis_gcc.h ****  */
 775:C:/Workspaces/DAVE-4.3/WS_2016_09_02/Flightcontroller_PWM_CopterRocks_Working/Libraries/CMSIS/Include\cmsis_gcc.h **** __attribute__((always_inline)) __STATIC_INLINE uint32_t __LDRT(volatile uint32_t *addr)
 776:C:/Workspaces/DAVE-4.3/WS_2016_09_02/Flightcontroller_PWM_CopterRocks_Working/Libraries/CMSIS/Include\cmsis_gcc.h **** {
 777:C:/Workspaces/DAVE-4.3/WS_2016_09_02/Flightcontroller_PWM_CopterRocks_Working/Libraries/CMSIS/Include\cmsis_gcc.h ****     uint32_t result;
 778:C:/Workspaces/DAVE-4.3/WS_2016_09_02/Flightcontroller_PWM_CopterRocks_Working/Libraries/CMSIS/Include\cmsis_gcc.h **** 
 779:C:/Workspaces/DAVE-4.3/WS_2016_09_02/Flightcontroller_PWM_CopterRocks_Working/Libraries/CMSIS/Include\cmsis_gcc.h ****    __ASM volatile ("ldrt %0, %1" : "=r" (result) : "Q" (*addr) );
 780:C:/Workspaces/DAVE-4.3/WS_2016_09_02/Flightcontroller_PWM_CopterRocks_Working/Libraries/CMSIS/Include\cmsis_gcc.h ****    return(result);
 781:C:/Workspaces/DAVE-4.3/WS_2016_09_02/Flightcontroller_PWM_CopterRocks_Working/Libraries/CMSIS/Include\cmsis_gcc.h **** }
 782:C:/Workspaces/DAVE-4.3/WS_2016_09_02/Flightcontroller_PWM_CopterRocks_Working/Libraries/CMSIS/Include\cmsis_gcc.h **** 
 783:C:/Workspaces/DAVE-4.3/WS_2016_09_02/Flightcontroller_PWM_CopterRocks_Working/Libraries/CMSIS/Include\cmsis_gcc.h **** 
 784:C:/Workspaces/DAVE-4.3/WS_2016_09_02/Flightcontroller_PWM_CopterRocks_Working/Libraries/CMSIS/Include\cmsis_gcc.h **** /**
 785:C:/Workspaces/DAVE-4.3/WS_2016_09_02/Flightcontroller_PWM_CopterRocks_Working/Libraries/CMSIS/Include\cmsis_gcc.h ****   \brief   STRT Unprivileged (8 bit)
 786:C:/Workspaces/DAVE-4.3/WS_2016_09_02/Flightcontroller_PWM_CopterRocks_Working/Libraries/CMSIS/Include\cmsis_gcc.h ****   \details Executes a Unprivileged STRT instruction for 8 bit values.
 787:C:/Workspaces/DAVE-4.3/WS_2016_09_02/Flightcontroller_PWM_CopterRocks_Working/Libraries/CMSIS/Include\cmsis_gcc.h ****   \param [in]  value  Value to store
 788:C:/Workspaces/DAVE-4.3/WS_2016_09_02/Flightcontroller_PWM_CopterRocks_Working/Libraries/CMSIS/Include\cmsis_gcc.h ****   \param [in]    ptr  Pointer to location
 789:C:/Workspaces/DAVE-4.3/WS_2016_09_02/Flightcontroller_PWM_CopterRocks_Working/Libraries/CMSIS/Include\cmsis_gcc.h ****  */
 790:C:/Workspaces/DAVE-4.3/WS_2016_09_02/Flightcontroller_PWM_CopterRocks_Working/Libraries/CMSIS/Include\cmsis_gcc.h **** __attribute__((always_inline)) __STATIC_INLINE void __STRBT(uint8_t value, volatile uint8_t *addr)
 791:C:/Workspaces/DAVE-4.3/WS_2016_09_02/Flightcontroller_PWM_CopterRocks_Working/Libraries/CMSIS/Include\cmsis_gcc.h **** {
 792:C:/Workspaces/DAVE-4.3/WS_2016_09_02/Flightcontroller_PWM_CopterRocks_Working/Libraries/CMSIS/Include\cmsis_gcc.h ****    __ASM volatile ("strbt %1, %0" : "=Q" (*addr) : "r" ((uint32_t)value) );
 793:C:/Workspaces/DAVE-4.3/WS_2016_09_02/Flightcontroller_PWM_CopterRocks_Working/Libraries/CMSIS/Include\cmsis_gcc.h **** }
 794:C:/Workspaces/DAVE-4.3/WS_2016_09_02/Flightcontroller_PWM_CopterRocks_Working/Libraries/CMSIS/Include\cmsis_gcc.h **** 
 795:C:/Workspaces/DAVE-4.3/WS_2016_09_02/Flightcontroller_PWM_CopterRocks_Working/Libraries/CMSIS/Include\cmsis_gcc.h **** 
 796:C:/Workspaces/DAVE-4.3/WS_2016_09_02/Flightcontroller_PWM_CopterRocks_Working/Libraries/CMSIS/Include\cmsis_gcc.h **** /**
 797:C:/Workspaces/DAVE-4.3/WS_2016_09_02/Flightcontroller_PWM_CopterRocks_Working/Libraries/CMSIS/Include\cmsis_gcc.h ****   \brief   STRT Unprivileged (16 bit)
 798:C:/Workspaces/DAVE-4.3/WS_2016_09_02/Flightcontroller_PWM_CopterRocks_Working/Libraries/CMSIS/Include\cmsis_gcc.h ****   \details Executes a Unprivileged STRT instruction for 16 bit values.
 799:C:/Workspaces/DAVE-4.3/WS_2016_09_02/Flightcontroller_PWM_CopterRocks_Working/Libraries/CMSIS/Include\cmsis_gcc.h ****   \param [in]  value  Value to store
 800:C:/Workspaces/DAVE-4.3/WS_2016_09_02/Flightcontroller_PWM_CopterRocks_Working/Libraries/CMSIS/Include\cmsis_gcc.h ****   \param [in]    ptr  Pointer to location
 801:C:/Workspaces/DAVE-4.3/WS_2016_09_02/Flightcontroller_PWM_CopterRocks_Working/Libraries/CMSIS/Include\cmsis_gcc.h ****  */
 802:C:/Workspaces/DAVE-4.3/WS_2016_09_02/Flightcontroller_PWM_CopterRocks_Working/Libraries/CMSIS/Include\cmsis_gcc.h **** __attribute__((always_inline)) __STATIC_INLINE void __STRHT(uint16_t value, volatile uint16_t *addr
 803:C:/Workspaces/DAVE-4.3/WS_2016_09_02/Flightcontroller_PWM_CopterRocks_Working/Libraries/CMSIS/Include\cmsis_gcc.h **** {
 804:C:/Workspaces/DAVE-4.3/WS_2016_09_02/Flightcontroller_PWM_CopterRocks_Working/Libraries/CMSIS/Include\cmsis_gcc.h ****    __ASM volatile ("strht %1, %0" : "=Q" (*addr) : "r" ((uint32_t)value) );
 805:C:/Workspaces/DAVE-4.3/WS_2016_09_02/Flightcontroller_PWM_CopterRocks_Working/Libraries/CMSIS/Include\cmsis_gcc.h **** }
 806:C:/Workspaces/DAVE-4.3/WS_2016_09_02/Flightcontroller_PWM_CopterRocks_Working/Libraries/CMSIS/Include\cmsis_gcc.h **** 
 807:C:/Workspaces/DAVE-4.3/WS_2016_09_02/Flightcontroller_PWM_CopterRocks_Working/Libraries/CMSIS/Include\cmsis_gcc.h **** 
 808:C:/Workspaces/DAVE-4.3/WS_2016_09_02/Flightcontroller_PWM_CopterRocks_Working/Libraries/CMSIS/Include\cmsis_gcc.h **** /**
 809:C:/Workspaces/DAVE-4.3/WS_2016_09_02/Flightcontroller_PWM_CopterRocks_Working/Libraries/CMSIS/Include\cmsis_gcc.h ****   \brief   STRT Unprivileged (32 bit)
 810:C:/Workspaces/DAVE-4.3/WS_2016_09_02/Flightcontroller_PWM_CopterRocks_Working/Libraries/CMSIS/Include\cmsis_gcc.h ****   \details Executes a Unprivileged STRT instruction for 32 bit values.
 811:C:/Workspaces/DAVE-4.3/WS_2016_09_02/Flightcontroller_PWM_CopterRocks_Working/Libraries/CMSIS/Include\cmsis_gcc.h ****   \param [in]  value  Value to store
 812:C:/Workspaces/DAVE-4.3/WS_2016_09_02/Flightcontroller_PWM_CopterRocks_Working/Libraries/CMSIS/Include\cmsis_gcc.h ****   \param [in]    ptr  Pointer to location
 813:C:/Workspaces/DAVE-4.3/WS_2016_09_02/Flightcontroller_PWM_CopterRocks_Working/Libraries/CMSIS/Include\cmsis_gcc.h ****  */
 814:C:/Workspaces/DAVE-4.3/WS_2016_09_02/Flightcontroller_PWM_CopterRocks_Working/Libraries/CMSIS/Include\cmsis_gcc.h **** __attribute__((always_inline)) __STATIC_INLINE void __STRT(uint32_t value, volatile uint32_t *addr)
 815:C:/Workspaces/DAVE-4.3/WS_2016_09_02/Flightcontroller_PWM_CopterRocks_Working/Libraries/CMSIS/Include\cmsis_gcc.h **** {
 816:C:/Workspaces/DAVE-4.3/WS_2016_09_02/Flightcontroller_PWM_CopterRocks_Working/Libraries/CMSIS/Include\cmsis_gcc.h ****    __ASM volatile ("strt %1, %0" : "=Q" (*addr) : "r" (value) );
 817:C:/Workspaces/DAVE-4.3/WS_2016_09_02/Flightcontroller_PWM_CopterRocks_Working/Libraries/CMSIS/Include\cmsis_gcc.h **** }
 818:C:/Workspaces/DAVE-4.3/WS_2016_09_02/Flightcontroller_PWM_CopterRocks_Working/Libraries/CMSIS/Include\cmsis_gcc.h **** 
 819:C:/Workspaces/DAVE-4.3/WS_2016_09_02/Flightcontroller_PWM_CopterRocks_Working/Libraries/CMSIS/Include\cmsis_gcc.h **** #endif /* (__CORTEX_M >= 0x03U) || (__CORTEX_SC >= 300U) */
 820:C:/Workspaces/DAVE-4.3/WS_2016_09_02/Flightcontroller_PWM_CopterRocks_Working/Libraries/CMSIS/Include\cmsis_gcc.h **** 
 821:C:/Workspaces/DAVE-4.3/WS_2016_09_02/Flightcontroller_PWM_CopterRocks_Working/Libraries/CMSIS/Include\cmsis_gcc.h **** /*@}*/ /* end of group CMSIS_Core_InstructionInterface */
 822:C:/Workspaces/DAVE-4.3/WS_2016_09_02/Flightcontroller_PWM_CopterRocks_Working/Libraries/CMSIS/Include\cmsis_gcc.h **** 
 823:C:/Workspaces/DAVE-4.3/WS_2016_09_02/Flightcontroller_PWM_CopterRocks_Working/Libraries/CMSIS/Include\cmsis_gcc.h **** 
 824:C:/Workspaces/DAVE-4.3/WS_2016_09_02/Flightcontroller_PWM_CopterRocks_Working/Libraries/CMSIS/Include\cmsis_gcc.h **** /* ###################  Compiler specific Intrinsics  ########################### */
 825:C:/Workspaces/DAVE-4.3/WS_2016_09_02/Flightcontroller_PWM_CopterRocks_Working/Libraries/CMSIS/Include\cmsis_gcc.h **** /** \defgroup CMSIS_SIMD_intrinsics CMSIS SIMD Intrinsics
 826:C:/Workspaces/DAVE-4.3/WS_2016_09_02/Flightcontroller_PWM_CopterRocks_Working/Libraries/CMSIS/Include\cmsis_gcc.h ****   Access to dedicated SIMD instructions
 827:C:/Workspaces/DAVE-4.3/WS_2016_09_02/Flightcontroller_PWM_CopterRocks_Working/Libraries/CMSIS/Include\cmsis_gcc.h ****   @{
 828:C:/Workspaces/DAVE-4.3/WS_2016_09_02/Flightcontroller_PWM_CopterRocks_Working/Libraries/CMSIS/Include\cmsis_gcc.h **** */
 829:C:/Workspaces/DAVE-4.3/WS_2016_09_02/Flightcontroller_PWM_CopterRocks_Working/Libraries/CMSIS/Include\cmsis_gcc.h **** 
 830:C:/Workspaces/DAVE-4.3/WS_2016_09_02/Flightcontroller_PWM_CopterRocks_Working/Libraries/CMSIS/Include\cmsis_gcc.h **** #if (__CORTEX_M >= 0x04U)  /* only for Cortex-M4 and above */
 831:C:/Workspaces/DAVE-4.3/WS_2016_09_02/Flightcontroller_PWM_CopterRocks_Working/Libraries/CMSIS/Include\cmsis_gcc.h **** 
 832:C:/Workspaces/DAVE-4.3/WS_2016_09_02/Flightcontroller_PWM_CopterRocks_Working/Libraries/CMSIS/Include\cmsis_gcc.h **** __attribute__( ( always_inline ) ) __STATIC_INLINE uint32_t __SADD8(uint32_t op1, uint32_t op2)
 833:C:/Workspaces/DAVE-4.3/WS_2016_09_02/Flightcontroller_PWM_CopterRocks_Working/Libraries/CMSIS/Include\cmsis_gcc.h **** {
 834:C:/Workspaces/DAVE-4.3/WS_2016_09_02/Flightcontroller_PWM_CopterRocks_Working/Libraries/CMSIS/Include\cmsis_gcc.h ****   uint32_t result;
 835:C:/Workspaces/DAVE-4.3/WS_2016_09_02/Flightcontroller_PWM_CopterRocks_Working/Libraries/CMSIS/Include\cmsis_gcc.h **** 
 836:C:/Workspaces/DAVE-4.3/WS_2016_09_02/Flightcontroller_PWM_CopterRocks_Working/Libraries/CMSIS/Include\cmsis_gcc.h ****   __ASM volatile ("sadd8 %0, %1, %2" : "=r" (result) : "r" (op1), "r" (op2) );
 837:C:/Workspaces/DAVE-4.3/WS_2016_09_02/Flightcontroller_PWM_CopterRocks_Working/Libraries/CMSIS/Include\cmsis_gcc.h ****   return(result);
 838:C:/Workspaces/DAVE-4.3/WS_2016_09_02/Flightcontroller_PWM_CopterRocks_Working/Libraries/CMSIS/Include\cmsis_gcc.h **** }
 839:C:/Workspaces/DAVE-4.3/WS_2016_09_02/Flightcontroller_PWM_CopterRocks_Working/Libraries/CMSIS/Include\cmsis_gcc.h **** 
 840:C:/Workspaces/DAVE-4.3/WS_2016_09_02/Flightcontroller_PWM_CopterRocks_Working/Libraries/CMSIS/Include\cmsis_gcc.h **** __attribute__( ( always_inline ) ) __STATIC_INLINE uint32_t __QADD8(uint32_t op1, uint32_t op2)
 841:C:/Workspaces/DAVE-4.3/WS_2016_09_02/Flightcontroller_PWM_CopterRocks_Working/Libraries/CMSIS/Include\cmsis_gcc.h **** {
 842:C:/Workspaces/DAVE-4.3/WS_2016_09_02/Flightcontroller_PWM_CopterRocks_Working/Libraries/CMSIS/Include\cmsis_gcc.h ****   uint32_t result;
 843:C:/Workspaces/DAVE-4.3/WS_2016_09_02/Flightcontroller_PWM_CopterRocks_Working/Libraries/CMSIS/Include\cmsis_gcc.h **** 
 844:C:/Workspaces/DAVE-4.3/WS_2016_09_02/Flightcontroller_PWM_CopterRocks_Working/Libraries/CMSIS/Include\cmsis_gcc.h ****   __ASM volatile ("qadd8 %0, %1, %2" : "=r" (result) : "r" (op1), "r" (op2) );
 845:C:/Workspaces/DAVE-4.3/WS_2016_09_02/Flightcontroller_PWM_CopterRocks_Working/Libraries/CMSIS/Include\cmsis_gcc.h ****   return(result);
 846:C:/Workspaces/DAVE-4.3/WS_2016_09_02/Flightcontroller_PWM_CopterRocks_Working/Libraries/CMSIS/Include\cmsis_gcc.h **** }
 847:C:/Workspaces/DAVE-4.3/WS_2016_09_02/Flightcontroller_PWM_CopterRocks_Working/Libraries/CMSIS/Include\cmsis_gcc.h **** 
 848:C:/Workspaces/DAVE-4.3/WS_2016_09_02/Flightcontroller_PWM_CopterRocks_Working/Libraries/CMSIS/Include\cmsis_gcc.h **** __attribute__( ( always_inline ) ) __STATIC_INLINE uint32_t __SHADD8(uint32_t op1, uint32_t op2)
 849:C:/Workspaces/DAVE-4.3/WS_2016_09_02/Flightcontroller_PWM_CopterRocks_Working/Libraries/CMSIS/Include\cmsis_gcc.h **** {
 850:C:/Workspaces/DAVE-4.3/WS_2016_09_02/Flightcontroller_PWM_CopterRocks_Working/Libraries/CMSIS/Include\cmsis_gcc.h ****   uint32_t result;
 851:C:/Workspaces/DAVE-4.3/WS_2016_09_02/Flightcontroller_PWM_CopterRocks_Working/Libraries/CMSIS/Include\cmsis_gcc.h **** 
 852:C:/Workspaces/DAVE-4.3/WS_2016_09_02/Flightcontroller_PWM_CopterRocks_Working/Libraries/CMSIS/Include\cmsis_gcc.h ****   __ASM volatile ("shadd8 %0, %1, %2" : "=r" (result) : "r" (op1), "r" (op2) );
 853:C:/Workspaces/DAVE-4.3/WS_2016_09_02/Flightcontroller_PWM_CopterRocks_Working/Libraries/CMSIS/Include\cmsis_gcc.h ****   return(result);
 854:C:/Workspaces/DAVE-4.3/WS_2016_09_02/Flightcontroller_PWM_CopterRocks_Working/Libraries/CMSIS/Include\cmsis_gcc.h **** }
 855:C:/Workspaces/DAVE-4.3/WS_2016_09_02/Flightcontroller_PWM_CopterRocks_Working/Libraries/CMSIS/Include\cmsis_gcc.h **** 
 856:C:/Workspaces/DAVE-4.3/WS_2016_09_02/Flightcontroller_PWM_CopterRocks_Working/Libraries/CMSIS/Include\cmsis_gcc.h **** __attribute__( ( always_inline ) ) __STATIC_INLINE uint32_t __UADD8(uint32_t op1, uint32_t op2)
 857:C:/Workspaces/DAVE-4.3/WS_2016_09_02/Flightcontroller_PWM_CopterRocks_Working/Libraries/CMSIS/Include\cmsis_gcc.h **** {
 858:C:/Workspaces/DAVE-4.3/WS_2016_09_02/Flightcontroller_PWM_CopterRocks_Working/Libraries/CMSIS/Include\cmsis_gcc.h ****   uint32_t result;
 859:C:/Workspaces/DAVE-4.3/WS_2016_09_02/Flightcontroller_PWM_CopterRocks_Working/Libraries/CMSIS/Include\cmsis_gcc.h **** 
 860:C:/Workspaces/DAVE-4.3/WS_2016_09_02/Flightcontroller_PWM_CopterRocks_Working/Libraries/CMSIS/Include\cmsis_gcc.h ****   __ASM volatile ("uadd8 %0, %1, %2" : "=r" (result) : "r" (op1), "r" (op2) );
 861:C:/Workspaces/DAVE-4.3/WS_2016_09_02/Flightcontroller_PWM_CopterRocks_Working/Libraries/CMSIS/Include\cmsis_gcc.h ****   return(result);
 862:C:/Workspaces/DAVE-4.3/WS_2016_09_02/Flightcontroller_PWM_CopterRocks_Working/Libraries/CMSIS/Include\cmsis_gcc.h **** }
 863:C:/Workspaces/DAVE-4.3/WS_2016_09_02/Flightcontroller_PWM_CopterRocks_Working/Libraries/CMSIS/Include\cmsis_gcc.h **** 
 864:C:/Workspaces/DAVE-4.3/WS_2016_09_02/Flightcontroller_PWM_CopterRocks_Working/Libraries/CMSIS/Include\cmsis_gcc.h **** __attribute__( ( always_inline ) ) __STATIC_INLINE uint32_t __UQADD8(uint32_t op1, uint32_t op2)
 865:C:/Workspaces/DAVE-4.3/WS_2016_09_02/Flightcontroller_PWM_CopterRocks_Working/Libraries/CMSIS/Include\cmsis_gcc.h **** {
 866:C:/Workspaces/DAVE-4.3/WS_2016_09_02/Flightcontroller_PWM_CopterRocks_Working/Libraries/CMSIS/Include\cmsis_gcc.h ****   uint32_t result;
 867:C:/Workspaces/DAVE-4.3/WS_2016_09_02/Flightcontroller_PWM_CopterRocks_Working/Libraries/CMSIS/Include\cmsis_gcc.h **** 
 868:C:/Workspaces/DAVE-4.3/WS_2016_09_02/Flightcontroller_PWM_CopterRocks_Working/Libraries/CMSIS/Include\cmsis_gcc.h ****   __ASM volatile ("uqadd8 %0, %1, %2" : "=r" (result) : "r" (op1), "r" (op2) );
 869:C:/Workspaces/DAVE-4.3/WS_2016_09_02/Flightcontroller_PWM_CopterRocks_Working/Libraries/CMSIS/Include\cmsis_gcc.h ****   return(result);
 870:C:/Workspaces/DAVE-4.3/WS_2016_09_02/Flightcontroller_PWM_CopterRocks_Working/Libraries/CMSIS/Include\cmsis_gcc.h **** }
 871:C:/Workspaces/DAVE-4.3/WS_2016_09_02/Flightcontroller_PWM_CopterRocks_Working/Libraries/CMSIS/Include\cmsis_gcc.h **** 
 872:C:/Workspaces/DAVE-4.3/WS_2016_09_02/Flightcontroller_PWM_CopterRocks_Working/Libraries/CMSIS/Include\cmsis_gcc.h **** __attribute__( ( always_inline ) ) __STATIC_INLINE uint32_t __UHADD8(uint32_t op1, uint32_t op2)
 873:C:/Workspaces/DAVE-4.3/WS_2016_09_02/Flightcontroller_PWM_CopterRocks_Working/Libraries/CMSIS/Include\cmsis_gcc.h **** {
 874:C:/Workspaces/DAVE-4.3/WS_2016_09_02/Flightcontroller_PWM_CopterRocks_Working/Libraries/CMSIS/Include\cmsis_gcc.h ****   uint32_t result;
 875:C:/Workspaces/DAVE-4.3/WS_2016_09_02/Flightcontroller_PWM_CopterRocks_Working/Libraries/CMSIS/Include\cmsis_gcc.h **** 
 876:C:/Workspaces/DAVE-4.3/WS_2016_09_02/Flightcontroller_PWM_CopterRocks_Working/Libraries/CMSIS/Include\cmsis_gcc.h ****   __ASM volatile ("uhadd8 %0, %1, %2" : "=r" (result) : "r" (op1), "r" (op2) );
 877:C:/Workspaces/DAVE-4.3/WS_2016_09_02/Flightcontroller_PWM_CopterRocks_Working/Libraries/CMSIS/Include\cmsis_gcc.h ****   return(result);
 878:C:/Workspaces/DAVE-4.3/WS_2016_09_02/Flightcontroller_PWM_CopterRocks_Working/Libraries/CMSIS/Include\cmsis_gcc.h **** }
 879:C:/Workspaces/DAVE-4.3/WS_2016_09_02/Flightcontroller_PWM_CopterRocks_Working/Libraries/CMSIS/Include\cmsis_gcc.h **** 
 880:C:/Workspaces/DAVE-4.3/WS_2016_09_02/Flightcontroller_PWM_CopterRocks_Working/Libraries/CMSIS/Include\cmsis_gcc.h **** 
 881:C:/Workspaces/DAVE-4.3/WS_2016_09_02/Flightcontroller_PWM_CopterRocks_Working/Libraries/CMSIS/Include\cmsis_gcc.h **** __attribute__( ( always_inline ) ) __STATIC_INLINE uint32_t __SSUB8(uint32_t op1, uint32_t op2)
 882:C:/Workspaces/DAVE-4.3/WS_2016_09_02/Flightcontroller_PWM_CopterRocks_Working/Libraries/CMSIS/Include\cmsis_gcc.h **** {
 883:C:/Workspaces/DAVE-4.3/WS_2016_09_02/Flightcontroller_PWM_CopterRocks_Working/Libraries/CMSIS/Include\cmsis_gcc.h ****   uint32_t result;
 884:C:/Workspaces/DAVE-4.3/WS_2016_09_02/Flightcontroller_PWM_CopterRocks_Working/Libraries/CMSIS/Include\cmsis_gcc.h **** 
 885:C:/Workspaces/DAVE-4.3/WS_2016_09_02/Flightcontroller_PWM_CopterRocks_Working/Libraries/CMSIS/Include\cmsis_gcc.h ****   __ASM volatile ("ssub8 %0, %1, %2" : "=r" (result) : "r" (op1), "r" (op2) );
 886:C:/Workspaces/DAVE-4.3/WS_2016_09_02/Flightcontroller_PWM_CopterRocks_Working/Libraries/CMSIS/Include\cmsis_gcc.h ****   return(result);
 887:C:/Workspaces/DAVE-4.3/WS_2016_09_02/Flightcontroller_PWM_CopterRocks_Working/Libraries/CMSIS/Include\cmsis_gcc.h **** }
 888:C:/Workspaces/DAVE-4.3/WS_2016_09_02/Flightcontroller_PWM_CopterRocks_Working/Libraries/CMSIS/Include\cmsis_gcc.h **** 
 889:C:/Workspaces/DAVE-4.3/WS_2016_09_02/Flightcontroller_PWM_CopterRocks_Working/Libraries/CMSIS/Include\cmsis_gcc.h **** __attribute__( ( always_inline ) ) __STATIC_INLINE uint32_t __QSUB8(uint32_t op1, uint32_t op2)
 890:C:/Workspaces/DAVE-4.3/WS_2016_09_02/Flightcontroller_PWM_CopterRocks_Working/Libraries/CMSIS/Include\cmsis_gcc.h **** {
 891:C:/Workspaces/DAVE-4.3/WS_2016_09_02/Flightcontroller_PWM_CopterRocks_Working/Libraries/CMSIS/Include\cmsis_gcc.h ****   uint32_t result;
 892:C:/Workspaces/DAVE-4.3/WS_2016_09_02/Flightcontroller_PWM_CopterRocks_Working/Libraries/CMSIS/Include\cmsis_gcc.h **** 
 893:C:/Workspaces/DAVE-4.3/WS_2016_09_02/Flightcontroller_PWM_CopterRocks_Working/Libraries/CMSIS/Include\cmsis_gcc.h ****   __ASM volatile ("qsub8 %0, %1, %2" : "=r" (result) : "r" (op1), "r" (op2) );
 894:C:/Workspaces/DAVE-4.3/WS_2016_09_02/Flightcontroller_PWM_CopterRocks_Working/Libraries/CMSIS/Include\cmsis_gcc.h ****   return(result);
 895:C:/Workspaces/DAVE-4.3/WS_2016_09_02/Flightcontroller_PWM_CopterRocks_Working/Libraries/CMSIS/Include\cmsis_gcc.h **** }
 896:C:/Workspaces/DAVE-4.3/WS_2016_09_02/Flightcontroller_PWM_CopterRocks_Working/Libraries/CMSIS/Include\cmsis_gcc.h **** 
 897:C:/Workspaces/DAVE-4.3/WS_2016_09_02/Flightcontroller_PWM_CopterRocks_Working/Libraries/CMSIS/Include\cmsis_gcc.h **** __attribute__( ( always_inline ) ) __STATIC_INLINE uint32_t __SHSUB8(uint32_t op1, uint32_t op2)
 898:C:/Workspaces/DAVE-4.3/WS_2016_09_02/Flightcontroller_PWM_CopterRocks_Working/Libraries/CMSIS/Include\cmsis_gcc.h **** {
 899:C:/Workspaces/DAVE-4.3/WS_2016_09_02/Flightcontroller_PWM_CopterRocks_Working/Libraries/CMSIS/Include\cmsis_gcc.h ****   uint32_t result;
 900:C:/Workspaces/DAVE-4.3/WS_2016_09_02/Flightcontroller_PWM_CopterRocks_Working/Libraries/CMSIS/Include\cmsis_gcc.h **** 
 901:C:/Workspaces/DAVE-4.3/WS_2016_09_02/Flightcontroller_PWM_CopterRocks_Working/Libraries/CMSIS/Include\cmsis_gcc.h ****   __ASM volatile ("shsub8 %0, %1, %2" : "=r" (result) : "r" (op1), "r" (op2) );
 902:C:/Workspaces/DAVE-4.3/WS_2016_09_02/Flightcontroller_PWM_CopterRocks_Working/Libraries/CMSIS/Include\cmsis_gcc.h ****   return(result);
 903:C:/Workspaces/DAVE-4.3/WS_2016_09_02/Flightcontroller_PWM_CopterRocks_Working/Libraries/CMSIS/Include\cmsis_gcc.h **** }
 904:C:/Workspaces/DAVE-4.3/WS_2016_09_02/Flightcontroller_PWM_CopterRocks_Working/Libraries/CMSIS/Include\cmsis_gcc.h **** 
 905:C:/Workspaces/DAVE-4.3/WS_2016_09_02/Flightcontroller_PWM_CopterRocks_Working/Libraries/CMSIS/Include\cmsis_gcc.h **** __attribute__( ( always_inline ) ) __STATIC_INLINE uint32_t __USUB8(uint32_t op1, uint32_t op2)
 906:C:/Workspaces/DAVE-4.3/WS_2016_09_02/Flightcontroller_PWM_CopterRocks_Working/Libraries/CMSIS/Include\cmsis_gcc.h **** {
 907:C:/Workspaces/DAVE-4.3/WS_2016_09_02/Flightcontroller_PWM_CopterRocks_Working/Libraries/CMSIS/Include\cmsis_gcc.h ****   uint32_t result;
 908:C:/Workspaces/DAVE-4.3/WS_2016_09_02/Flightcontroller_PWM_CopterRocks_Working/Libraries/CMSIS/Include\cmsis_gcc.h **** 
 909:C:/Workspaces/DAVE-4.3/WS_2016_09_02/Flightcontroller_PWM_CopterRocks_Working/Libraries/CMSIS/Include\cmsis_gcc.h ****   __ASM volatile ("usub8 %0, %1, %2" : "=r" (result) : "r" (op1), "r" (op2) );
 910:C:/Workspaces/DAVE-4.3/WS_2016_09_02/Flightcontroller_PWM_CopterRocks_Working/Libraries/CMSIS/Include\cmsis_gcc.h ****   return(result);
 911:C:/Workspaces/DAVE-4.3/WS_2016_09_02/Flightcontroller_PWM_CopterRocks_Working/Libraries/CMSIS/Include\cmsis_gcc.h **** }
 912:C:/Workspaces/DAVE-4.3/WS_2016_09_02/Flightcontroller_PWM_CopterRocks_Working/Libraries/CMSIS/Include\cmsis_gcc.h **** 
 913:C:/Workspaces/DAVE-4.3/WS_2016_09_02/Flightcontroller_PWM_CopterRocks_Working/Libraries/CMSIS/Include\cmsis_gcc.h **** __attribute__( ( always_inline ) ) __STATIC_INLINE uint32_t __UQSUB8(uint32_t op1, uint32_t op2)
 914:C:/Workspaces/DAVE-4.3/WS_2016_09_02/Flightcontroller_PWM_CopterRocks_Working/Libraries/CMSIS/Include\cmsis_gcc.h **** {
 915:C:/Workspaces/DAVE-4.3/WS_2016_09_02/Flightcontroller_PWM_CopterRocks_Working/Libraries/CMSIS/Include\cmsis_gcc.h ****   uint32_t result;
 916:C:/Workspaces/DAVE-4.3/WS_2016_09_02/Flightcontroller_PWM_CopterRocks_Working/Libraries/CMSIS/Include\cmsis_gcc.h **** 
 917:C:/Workspaces/DAVE-4.3/WS_2016_09_02/Flightcontroller_PWM_CopterRocks_Working/Libraries/CMSIS/Include\cmsis_gcc.h ****   __ASM volatile ("uqsub8 %0, %1, %2" : "=r" (result) : "r" (op1), "r" (op2) );
 918:C:/Workspaces/DAVE-4.3/WS_2016_09_02/Flightcontroller_PWM_CopterRocks_Working/Libraries/CMSIS/Include\cmsis_gcc.h ****   return(result);
 919:C:/Workspaces/DAVE-4.3/WS_2016_09_02/Flightcontroller_PWM_CopterRocks_Working/Libraries/CMSIS/Include\cmsis_gcc.h **** }
 920:C:/Workspaces/DAVE-4.3/WS_2016_09_02/Flightcontroller_PWM_CopterRocks_Working/Libraries/CMSIS/Include\cmsis_gcc.h **** 
 921:C:/Workspaces/DAVE-4.3/WS_2016_09_02/Flightcontroller_PWM_CopterRocks_Working/Libraries/CMSIS/Include\cmsis_gcc.h **** __attribute__( ( always_inline ) ) __STATIC_INLINE uint32_t __UHSUB8(uint32_t op1, uint32_t op2)
 922:C:/Workspaces/DAVE-4.3/WS_2016_09_02/Flightcontroller_PWM_CopterRocks_Working/Libraries/CMSIS/Include\cmsis_gcc.h **** {
 923:C:/Workspaces/DAVE-4.3/WS_2016_09_02/Flightcontroller_PWM_CopterRocks_Working/Libraries/CMSIS/Include\cmsis_gcc.h ****   uint32_t result;
 924:C:/Workspaces/DAVE-4.3/WS_2016_09_02/Flightcontroller_PWM_CopterRocks_Working/Libraries/CMSIS/Include\cmsis_gcc.h **** 
 925:C:/Workspaces/DAVE-4.3/WS_2016_09_02/Flightcontroller_PWM_CopterRocks_Working/Libraries/CMSIS/Include\cmsis_gcc.h ****   __ASM volatile ("uhsub8 %0, %1, %2" : "=r" (result) : "r" (op1), "r" (op2) );
 926:C:/Workspaces/DAVE-4.3/WS_2016_09_02/Flightcontroller_PWM_CopterRocks_Working/Libraries/CMSIS/Include\cmsis_gcc.h ****   return(result);
 927:C:/Workspaces/DAVE-4.3/WS_2016_09_02/Flightcontroller_PWM_CopterRocks_Working/Libraries/CMSIS/Include\cmsis_gcc.h **** }
 928:C:/Workspaces/DAVE-4.3/WS_2016_09_02/Flightcontroller_PWM_CopterRocks_Working/Libraries/CMSIS/Include\cmsis_gcc.h **** 
 929:C:/Workspaces/DAVE-4.3/WS_2016_09_02/Flightcontroller_PWM_CopterRocks_Working/Libraries/CMSIS/Include\cmsis_gcc.h **** 
 930:C:/Workspaces/DAVE-4.3/WS_2016_09_02/Flightcontroller_PWM_CopterRocks_Working/Libraries/CMSIS/Include\cmsis_gcc.h **** __attribute__( ( always_inline ) ) __STATIC_INLINE uint32_t __SADD16(uint32_t op1, uint32_t op2)
 931:C:/Workspaces/DAVE-4.3/WS_2016_09_02/Flightcontroller_PWM_CopterRocks_Working/Libraries/CMSIS/Include\cmsis_gcc.h **** {
 932:C:/Workspaces/DAVE-4.3/WS_2016_09_02/Flightcontroller_PWM_CopterRocks_Working/Libraries/CMSIS/Include\cmsis_gcc.h ****   uint32_t result;
 933:C:/Workspaces/DAVE-4.3/WS_2016_09_02/Flightcontroller_PWM_CopterRocks_Working/Libraries/CMSIS/Include\cmsis_gcc.h **** 
 934:C:/Workspaces/DAVE-4.3/WS_2016_09_02/Flightcontroller_PWM_CopterRocks_Working/Libraries/CMSIS/Include\cmsis_gcc.h ****   __ASM volatile ("sadd16 %0, %1, %2" : "=r" (result) : "r" (op1), "r" (op2) );
 935:C:/Workspaces/DAVE-4.3/WS_2016_09_02/Flightcontroller_PWM_CopterRocks_Working/Libraries/CMSIS/Include\cmsis_gcc.h ****   return(result);
 936:C:/Workspaces/DAVE-4.3/WS_2016_09_02/Flightcontroller_PWM_CopterRocks_Working/Libraries/CMSIS/Include\cmsis_gcc.h **** }
 937:C:/Workspaces/DAVE-4.3/WS_2016_09_02/Flightcontroller_PWM_CopterRocks_Working/Libraries/CMSIS/Include\cmsis_gcc.h **** 
 938:C:/Workspaces/DAVE-4.3/WS_2016_09_02/Flightcontroller_PWM_CopterRocks_Working/Libraries/CMSIS/Include\cmsis_gcc.h **** __attribute__( ( always_inline ) ) __STATIC_INLINE uint32_t __QADD16(uint32_t op1, uint32_t op2)
 939:C:/Workspaces/DAVE-4.3/WS_2016_09_02/Flightcontroller_PWM_CopterRocks_Working/Libraries/CMSIS/Include\cmsis_gcc.h **** {
 940:C:/Workspaces/DAVE-4.3/WS_2016_09_02/Flightcontroller_PWM_CopterRocks_Working/Libraries/CMSIS/Include\cmsis_gcc.h ****   uint32_t result;
 941:C:/Workspaces/DAVE-4.3/WS_2016_09_02/Flightcontroller_PWM_CopterRocks_Working/Libraries/CMSIS/Include\cmsis_gcc.h **** 
 942:C:/Workspaces/DAVE-4.3/WS_2016_09_02/Flightcontroller_PWM_CopterRocks_Working/Libraries/CMSIS/Include\cmsis_gcc.h ****   __ASM volatile ("qadd16 %0, %1, %2" : "=r" (result) : "r" (op1), "r" (op2) );
 943:C:/Workspaces/DAVE-4.3/WS_2016_09_02/Flightcontroller_PWM_CopterRocks_Working/Libraries/CMSIS/Include\cmsis_gcc.h ****   return(result);
 944:C:/Workspaces/DAVE-4.3/WS_2016_09_02/Flightcontroller_PWM_CopterRocks_Working/Libraries/CMSIS/Include\cmsis_gcc.h **** }
 945:C:/Workspaces/DAVE-4.3/WS_2016_09_02/Flightcontroller_PWM_CopterRocks_Working/Libraries/CMSIS/Include\cmsis_gcc.h **** 
 946:C:/Workspaces/DAVE-4.3/WS_2016_09_02/Flightcontroller_PWM_CopterRocks_Working/Libraries/CMSIS/Include\cmsis_gcc.h **** __attribute__( ( always_inline ) ) __STATIC_INLINE uint32_t __SHADD16(uint32_t op1, uint32_t op2)
 947:C:/Workspaces/DAVE-4.3/WS_2016_09_02/Flightcontroller_PWM_CopterRocks_Working/Libraries/CMSIS/Include\cmsis_gcc.h **** {
 948:C:/Workspaces/DAVE-4.3/WS_2016_09_02/Flightcontroller_PWM_CopterRocks_Working/Libraries/CMSIS/Include\cmsis_gcc.h ****   uint32_t result;
 949:C:/Workspaces/DAVE-4.3/WS_2016_09_02/Flightcontroller_PWM_CopterRocks_Working/Libraries/CMSIS/Include\cmsis_gcc.h **** 
 950:C:/Workspaces/DAVE-4.3/WS_2016_09_02/Flightcontroller_PWM_CopterRocks_Working/Libraries/CMSIS/Include\cmsis_gcc.h ****   __ASM volatile ("shadd16 %0, %1, %2" : "=r" (result) : "r" (op1), "r" (op2) );
 951:C:/Workspaces/DAVE-4.3/WS_2016_09_02/Flightcontroller_PWM_CopterRocks_Working/Libraries/CMSIS/Include\cmsis_gcc.h ****   return(result);
 952:C:/Workspaces/DAVE-4.3/WS_2016_09_02/Flightcontroller_PWM_CopterRocks_Working/Libraries/CMSIS/Include\cmsis_gcc.h **** }
 953:C:/Workspaces/DAVE-4.3/WS_2016_09_02/Flightcontroller_PWM_CopterRocks_Working/Libraries/CMSIS/Include\cmsis_gcc.h **** 
 954:C:/Workspaces/DAVE-4.3/WS_2016_09_02/Flightcontroller_PWM_CopterRocks_Working/Libraries/CMSIS/Include\cmsis_gcc.h **** __attribute__( ( always_inline ) ) __STATIC_INLINE uint32_t __UADD16(uint32_t op1, uint32_t op2)
 955:C:/Workspaces/DAVE-4.3/WS_2016_09_02/Flightcontroller_PWM_CopterRocks_Working/Libraries/CMSIS/Include\cmsis_gcc.h **** {
 956:C:/Workspaces/DAVE-4.3/WS_2016_09_02/Flightcontroller_PWM_CopterRocks_Working/Libraries/CMSIS/Include\cmsis_gcc.h ****   uint32_t result;
 957:C:/Workspaces/DAVE-4.3/WS_2016_09_02/Flightcontroller_PWM_CopterRocks_Working/Libraries/CMSIS/Include\cmsis_gcc.h **** 
 958:C:/Workspaces/DAVE-4.3/WS_2016_09_02/Flightcontroller_PWM_CopterRocks_Working/Libraries/CMSIS/Include\cmsis_gcc.h ****   __ASM volatile ("uadd16 %0, %1, %2" : "=r" (result) : "r" (op1), "r" (op2) );
 959:C:/Workspaces/DAVE-4.3/WS_2016_09_02/Flightcontroller_PWM_CopterRocks_Working/Libraries/CMSIS/Include\cmsis_gcc.h ****   return(result);
 960:C:/Workspaces/DAVE-4.3/WS_2016_09_02/Flightcontroller_PWM_CopterRocks_Working/Libraries/CMSIS/Include\cmsis_gcc.h **** }
 961:C:/Workspaces/DAVE-4.3/WS_2016_09_02/Flightcontroller_PWM_CopterRocks_Working/Libraries/CMSIS/Include\cmsis_gcc.h **** 
 962:C:/Workspaces/DAVE-4.3/WS_2016_09_02/Flightcontroller_PWM_CopterRocks_Working/Libraries/CMSIS/Include\cmsis_gcc.h **** __attribute__( ( always_inline ) ) __STATIC_INLINE uint32_t __UQADD16(uint32_t op1, uint32_t op2)
 963:C:/Workspaces/DAVE-4.3/WS_2016_09_02/Flightcontroller_PWM_CopterRocks_Working/Libraries/CMSIS/Include\cmsis_gcc.h **** {
 964:C:/Workspaces/DAVE-4.3/WS_2016_09_02/Flightcontroller_PWM_CopterRocks_Working/Libraries/CMSIS/Include\cmsis_gcc.h ****   uint32_t result;
 965:C:/Workspaces/DAVE-4.3/WS_2016_09_02/Flightcontroller_PWM_CopterRocks_Working/Libraries/CMSIS/Include\cmsis_gcc.h **** 
 966:C:/Workspaces/DAVE-4.3/WS_2016_09_02/Flightcontroller_PWM_CopterRocks_Working/Libraries/CMSIS/Include\cmsis_gcc.h ****   __ASM volatile ("uqadd16 %0, %1, %2" : "=r" (result) : "r" (op1), "r" (op2) );
 967:C:/Workspaces/DAVE-4.3/WS_2016_09_02/Flightcontroller_PWM_CopterRocks_Working/Libraries/CMSIS/Include\cmsis_gcc.h ****   return(result);
 968:C:/Workspaces/DAVE-4.3/WS_2016_09_02/Flightcontroller_PWM_CopterRocks_Working/Libraries/CMSIS/Include\cmsis_gcc.h **** }
 969:C:/Workspaces/DAVE-4.3/WS_2016_09_02/Flightcontroller_PWM_CopterRocks_Working/Libraries/CMSIS/Include\cmsis_gcc.h **** 
 970:C:/Workspaces/DAVE-4.3/WS_2016_09_02/Flightcontroller_PWM_CopterRocks_Working/Libraries/CMSIS/Include\cmsis_gcc.h **** __attribute__( ( always_inline ) ) __STATIC_INLINE uint32_t __UHADD16(uint32_t op1, uint32_t op2)
 971:C:/Workspaces/DAVE-4.3/WS_2016_09_02/Flightcontroller_PWM_CopterRocks_Working/Libraries/CMSIS/Include\cmsis_gcc.h **** {
 972:C:/Workspaces/DAVE-4.3/WS_2016_09_02/Flightcontroller_PWM_CopterRocks_Working/Libraries/CMSIS/Include\cmsis_gcc.h ****   uint32_t result;
 973:C:/Workspaces/DAVE-4.3/WS_2016_09_02/Flightcontroller_PWM_CopterRocks_Working/Libraries/CMSIS/Include\cmsis_gcc.h **** 
 974:C:/Workspaces/DAVE-4.3/WS_2016_09_02/Flightcontroller_PWM_CopterRocks_Working/Libraries/CMSIS/Include\cmsis_gcc.h ****   __ASM volatile ("uhadd16 %0, %1, %2" : "=r" (result) : "r" (op1), "r" (op2) );
 975:C:/Workspaces/DAVE-4.3/WS_2016_09_02/Flightcontroller_PWM_CopterRocks_Working/Libraries/CMSIS/Include\cmsis_gcc.h ****   return(result);
 976:C:/Workspaces/DAVE-4.3/WS_2016_09_02/Flightcontroller_PWM_CopterRocks_Working/Libraries/CMSIS/Include\cmsis_gcc.h **** }
 977:C:/Workspaces/DAVE-4.3/WS_2016_09_02/Flightcontroller_PWM_CopterRocks_Working/Libraries/CMSIS/Include\cmsis_gcc.h **** 
 978:C:/Workspaces/DAVE-4.3/WS_2016_09_02/Flightcontroller_PWM_CopterRocks_Working/Libraries/CMSIS/Include\cmsis_gcc.h **** __attribute__( ( always_inline ) ) __STATIC_INLINE uint32_t __SSUB16(uint32_t op1, uint32_t op2)
 979:C:/Workspaces/DAVE-4.3/WS_2016_09_02/Flightcontroller_PWM_CopterRocks_Working/Libraries/CMSIS/Include\cmsis_gcc.h **** {
 980:C:/Workspaces/DAVE-4.3/WS_2016_09_02/Flightcontroller_PWM_CopterRocks_Working/Libraries/CMSIS/Include\cmsis_gcc.h ****   uint32_t result;
 981:C:/Workspaces/DAVE-4.3/WS_2016_09_02/Flightcontroller_PWM_CopterRocks_Working/Libraries/CMSIS/Include\cmsis_gcc.h **** 
 982:C:/Workspaces/DAVE-4.3/WS_2016_09_02/Flightcontroller_PWM_CopterRocks_Working/Libraries/CMSIS/Include\cmsis_gcc.h ****   __ASM volatile ("ssub16 %0, %1, %2" : "=r" (result) : "r" (op1), "r" (op2) );
 983:C:/Workspaces/DAVE-4.3/WS_2016_09_02/Flightcontroller_PWM_CopterRocks_Working/Libraries/CMSIS/Include\cmsis_gcc.h ****   return(result);
 984:C:/Workspaces/DAVE-4.3/WS_2016_09_02/Flightcontroller_PWM_CopterRocks_Working/Libraries/CMSIS/Include\cmsis_gcc.h **** }
 985:C:/Workspaces/DAVE-4.3/WS_2016_09_02/Flightcontroller_PWM_CopterRocks_Working/Libraries/CMSIS/Include\cmsis_gcc.h **** 
 986:C:/Workspaces/DAVE-4.3/WS_2016_09_02/Flightcontroller_PWM_CopterRocks_Working/Libraries/CMSIS/Include\cmsis_gcc.h **** __attribute__( ( always_inline ) ) __STATIC_INLINE uint32_t __QSUB16(uint32_t op1, uint32_t op2)
 987:C:/Workspaces/DAVE-4.3/WS_2016_09_02/Flightcontroller_PWM_CopterRocks_Working/Libraries/CMSIS/Include\cmsis_gcc.h **** {
 988:C:/Workspaces/DAVE-4.3/WS_2016_09_02/Flightcontroller_PWM_CopterRocks_Working/Libraries/CMSIS/Include\cmsis_gcc.h ****   uint32_t result;
 989:C:/Workspaces/DAVE-4.3/WS_2016_09_02/Flightcontroller_PWM_CopterRocks_Working/Libraries/CMSIS/Include\cmsis_gcc.h **** 
 990:C:/Workspaces/DAVE-4.3/WS_2016_09_02/Flightcontroller_PWM_CopterRocks_Working/Libraries/CMSIS/Include\cmsis_gcc.h ****   __ASM volatile ("qsub16 %0, %1, %2" : "=r" (result) : "r" (op1), "r" (op2) );
 991:C:/Workspaces/DAVE-4.3/WS_2016_09_02/Flightcontroller_PWM_CopterRocks_Working/Libraries/CMSIS/Include\cmsis_gcc.h ****   return(result);
 992:C:/Workspaces/DAVE-4.3/WS_2016_09_02/Flightcontroller_PWM_CopterRocks_Working/Libraries/CMSIS/Include\cmsis_gcc.h **** }
 993:C:/Workspaces/DAVE-4.3/WS_2016_09_02/Flightcontroller_PWM_CopterRocks_Working/Libraries/CMSIS/Include\cmsis_gcc.h **** 
 994:C:/Workspaces/DAVE-4.3/WS_2016_09_02/Flightcontroller_PWM_CopterRocks_Working/Libraries/CMSIS/Include\cmsis_gcc.h **** __attribute__( ( always_inline ) ) __STATIC_INLINE uint32_t __SHSUB16(uint32_t op1, uint32_t op2)
 995:C:/Workspaces/DAVE-4.3/WS_2016_09_02/Flightcontroller_PWM_CopterRocks_Working/Libraries/CMSIS/Include\cmsis_gcc.h **** {
 996:C:/Workspaces/DAVE-4.3/WS_2016_09_02/Flightcontroller_PWM_CopterRocks_Working/Libraries/CMSIS/Include\cmsis_gcc.h ****   uint32_t result;
 997:C:/Workspaces/DAVE-4.3/WS_2016_09_02/Flightcontroller_PWM_CopterRocks_Working/Libraries/CMSIS/Include\cmsis_gcc.h **** 
 998:C:/Workspaces/DAVE-4.3/WS_2016_09_02/Flightcontroller_PWM_CopterRocks_Working/Libraries/CMSIS/Include\cmsis_gcc.h ****   __ASM volatile ("shsub16 %0, %1, %2" : "=r" (result) : "r" (op1), "r" (op2) );
 999:C:/Workspaces/DAVE-4.3/WS_2016_09_02/Flightcontroller_PWM_CopterRocks_Working/Libraries/CMSIS/Include\cmsis_gcc.h ****   return(result);
1000:C:/Workspaces/DAVE-4.3/WS_2016_09_02/Flightcontroller_PWM_CopterRocks_Working/Libraries/CMSIS/Include\cmsis_gcc.h **** }
1001:C:/Workspaces/DAVE-4.3/WS_2016_09_02/Flightcontroller_PWM_CopterRocks_Working/Libraries/CMSIS/Include\cmsis_gcc.h **** 
1002:C:/Workspaces/DAVE-4.3/WS_2016_09_02/Flightcontroller_PWM_CopterRocks_Working/Libraries/CMSIS/Include\cmsis_gcc.h **** __attribute__( ( always_inline ) ) __STATIC_INLINE uint32_t __USUB16(uint32_t op1, uint32_t op2)
1003:C:/Workspaces/DAVE-4.3/WS_2016_09_02/Flightcontroller_PWM_CopterRocks_Working/Libraries/CMSIS/Include\cmsis_gcc.h **** {
1004:C:/Workspaces/DAVE-4.3/WS_2016_09_02/Flightcontroller_PWM_CopterRocks_Working/Libraries/CMSIS/Include\cmsis_gcc.h ****   uint32_t result;
1005:C:/Workspaces/DAVE-4.3/WS_2016_09_02/Flightcontroller_PWM_CopterRocks_Working/Libraries/CMSIS/Include\cmsis_gcc.h **** 
1006:C:/Workspaces/DAVE-4.3/WS_2016_09_02/Flightcontroller_PWM_CopterRocks_Working/Libraries/CMSIS/Include\cmsis_gcc.h ****   __ASM volatile ("usub16 %0, %1, %2" : "=r" (result) : "r" (op1), "r" (op2) );
1007:C:/Workspaces/DAVE-4.3/WS_2016_09_02/Flightcontroller_PWM_CopterRocks_Working/Libraries/CMSIS/Include\cmsis_gcc.h ****   return(result);
1008:C:/Workspaces/DAVE-4.3/WS_2016_09_02/Flightcontroller_PWM_CopterRocks_Working/Libraries/CMSIS/Include\cmsis_gcc.h **** }
1009:C:/Workspaces/DAVE-4.3/WS_2016_09_02/Flightcontroller_PWM_CopterRocks_Working/Libraries/CMSIS/Include\cmsis_gcc.h **** 
1010:C:/Workspaces/DAVE-4.3/WS_2016_09_02/Flightcontroller_PWM_CopterRocks_Working/Libraries/CMSIS/Include\cmsis_gcc.h **** __attribute__( ( always_inline ) ) __STATIC_INLINE uint32_t __UQSUB16(uint32_t op1, uint32_t op2)
1011:C:/Workspaces/DAVE-4.3/WS_2016_09_02/Flightcontroller_PWM_CopterRocks_Working/Libraries/CMSIS/Include\cmsis_gcc.h **** {
1012:C:/Workspaces/DAVE-4.3/WS_2016_09_02/Flightcontroller_PWM_CopterRocks_Working/Libraries/CMSIS/Include\cmsis_gcc.h ****   uint32_t result;
1013:C:/Workspaces/DAVE-4.3/WS_2016_09_02/Flightcontroller_PWM_CopterRocks_Working/Libraries/CMSIS/Include\cmsis_gcc.h **** 
1014:C:/Workspaces/DAVE-4.3/WS_2016_09_02/Flightcontroller_PWM_CopterRocks_Working/Libraries/CMSIS/Include\cmsis_gcc.h ****   __ASM volatile ("uqsub16 %0, %1, %2" : "=r" (result) : "r" (op1), "r" (op2) );
1015:C:/Workspaces/DAVE-4.3/WS_2016_09_02/Flightcontroller_PWM_CopterRocks_Working/Libraries/CMSIS/Include\cmsis_gcc.h ****   return(result);
1016:C:/Workspaces/DAVE-4.3/WS_2016_09_02/Flightcontroller_PWM_CopterRocks_Working/Libraries/CMSIS/Include\cmsis_gcc.h **** }
1017:C:/Workspaces/DAVE-4.3/WS_2016_09_02/Flightcontroller_PWM_CopterRocks_Working/Libraries/CMSIS/Include\cmsis_gcc.h **** 
1018:C:/Workspaces/DAVE-4.3/WS_2016_09_02/Flightcontroller_PWM_CopterRocks_Working/Libraries/CMSIS/Include\cmsis_gcc.h **** __attribute__( ( always_inline ) ) __STATIC_INLINE uint32_t __UHSUB16(uint32_t op1, uint32_t op2)
1019:C:/Workspaces/DAVE-4.3/WS_2016_09_02/Flightcontroller_PWM_CopterRocks_Working/Libraries/CMSIS/Include\cmsis_gcc.h **** {
1020:C:/Workspaces/DAVE-4.3/WS_2016_09_02/Flightcontroller_PWM_CopterRocks_Working/Libraries/CMSIS/Include\cmsis_gcc.h ****   uint32_t result;
1021:C:/Workspaces/DAVE-4.3/WS_2016_09_02/Flightcontroller_PWM_CopterRocks_Working/Libraries/CMSIS/Include\cmsis_gcc.h **** 
1022:C:/Workspaces/DAVE-4.3/WS_2016_09_02/Flightcontroller_PWM_CopterRocks_Working/Libraries/CMSIS/Include\cmsis_gcc.h ****   __ASM volatile ("uhsub16 %0, %1, %2" : "=r" (result) : "r" (op1), "r" (op2) );
1023:C:/Workspaces/DAVE-4.3/WS_2016_09_02/Flightcontroller_PWM_CopterRocks_Working/Libraries/CMSIS/Include\cmsis_gcc.h ****   return(result);
1024:C:/Workspaces/DAVE-4.3/WS_2016_09_02/Flightcontroller_PWM_CopterRocks_Working/Libraries/CMSIS/Include\cmsis_gcc.h **** }
1025:C:/Workspaces/DAVE-4.3/WS_2016_09_02/Flightcontroller_PWM_CopterRocks_Working/Libraries/CMSIS/Include\cmsis_gcc.h **** 
1026:C:/Workspaces/DAVE-4.3/WS_2016_09_02/Flightcontroller_PWM_CopterRocks_Working/Libraries/CMSIS/Include\cmsis_gcc.h **** __attribute__( ( always_inline ) ) __STATIC_INLINE uint32_t __SASX(uint32_t op1, uint32_t op2)
1027:C:/Workspaces/DAVE-4.3/WS_2016_09_02/Flightcontroller_PWM_CopterRocks_Working/Libraries/CMSIS/Include\cmsis_gcc.h **** {
1028:C:/Workspaces/DAVE-4.3/WS_2016_09_02/Flightcontroller_PWM_CopterRocks_Working/Libraries/CMSIS/Include\cmsis_gcc.h ****   uint32_t result;
1029:C:/Workspaces/DAVE-4.3/WS_2016_09_02/Flightcontroller_PWM_CopterRocks_Working/Libraries/CMSIS/Include\cmsis_gcc.h **** 
1030:C:/Workspaces/DAVE-4.3/WS_2016_09_02/Flightcontroller_PWM_CopterRocks_Working/Libraries/CMSIS/Include\cmsis_gcc.h ****   __ASM volatile ("sasx %0, %1, %2" : "=r" (result) : "r" (op1), "r" (op2) );
1031:C:/Workspaces/DAVE-4.3/WS_2016_09_02/Flightcontroller_PWM_CopterRocks_Working/Libraries/CMSIS/Include\cmsis_gcc.h ****   return(result);
1032:C:/Workspaces/DAVE-4.3/WS_2016_09_02/Flightcontroller_PWM_CopterRocks_Working/Libraries/CMSIS/Include\cmsis_gcc.h **** }
1033:C:/Workspaces/DAVE-4.3/WS_2016_09_02/Flightcontroller_PWM_CopterRocks_Working/Libraries/CMSIS/Include\cmsis_gcc.h **** 
1034:C:/Workspaces/DAVE-4.3/WS_2016_09_02/Flightcontroller_PWM_CopterRocks_Working/Libraries/CMSIS/Include\cmsis_gcc.h **** __attribute__( ( always_inline ) ) __STATIC_INLINE uint32_t __QASX(uint32_t op1, uint32_t op2)
1035:C:/Workspaces/DAVE-4.3/WS_2016_09_02/Flightcontroller_PWM_CopterRocks_Working/Libraries/CMSIS/Include\cmsis_gcc.h **** {
1036:C:/Workspaces/DAVE-4.3/WS_2016_09_02/Flightcontroller_PWM_CopterRocks_Working/Libraries/CMSIS/Include\cmsis_gcc.h ****   uint32_t result;
1037:C:/Workspaces/DAVE-4.3/WS_2016_09_02/Flightcontroller_PWM_CopterRocks_Working/Libraries/CMSIS/Include\cmsis_gcc.h **** 
1038:C:/Workspaces/DAVE-4.3/WS_2016_09_02/Flightcontroller_PWM_CopterRocks_Working/Libraries/CMSIS/Include\cmsis_gcc.h ****   __ASM volatile ("qasx %0, %1, %2" : "=r" (result) : "r" (op1), "r" (op2) );
1039:C:/Workspaces/DAVE-4.3/WS_2016_09_02/Flightcontroller_PWM_CopterRocks_Working/Libraries/CMSIS/Include\cmsis_gcc.h ****   return(result);
1040:C:/Workspaces/DAVE-4.3/WS_2016_09_02/Flightcontroller_PWM_CopterRocks_Working/Libraries/CMSIS/Include\cmsis_gcc.h **** }
1041:C:/Workspaces/DAVE-4.3/WS_2016_09_02/Flightcontroller_PWM_CopterRocks_Working/Libraries/CMSIS/Include\cmsis_gcc.h **** 
1042:C:/Workspaces/DAVE-4.3/WS_2016_09_02/Flightcontroller_PWM_CopterRocks_Working/Libraries/CMSIS/Include\cmsis_gcc.h **** __attribute__( ( always_inline ) ) __STATIC_INLINE uint32_t __SHASX(uint32_t op1, uint32_t op2)
1043:C:/Workspaces/DAVE-4.3/WS_2016_09_02/Flightcontroller_PWM_CopterRocks_Working/Libraries/CMSIS/Include\cmsis_gcc.h **** {
1044:C:/Workspaces/DAVE-4.3/WS_2016_09_02/Flightcontroller_PWM_CopterRocks_Working/Libraries/CMSIS/Include\cmsis_gcc.h ****   uint32_t result;
1045:C:/Workspaces/DAVE-4.3/WS_2016_09_02/Flightcontroller_PWM_CopterRocks_Working/Libraries/CMSIS/Include\cmsis_gcc.h **** 
1046:C:/Workspaces/DAVE-4.3/WS_2016_09_02/Flightcontroller_PWM_CopterRocks_Working/Libraries/CMSIS/Include\cmsis_gcc.h ****   __ASM volatile ("shasx %0, %1, %2" : "=r" (result) : "r" (op1), "r" (op2) );
1047:C:/Workspaces/DAVE-4.3/WS_2016_09_02/Flightcontroller_PWM_CopterRocks_Working/Libraries/CMSIS/Include\cmsis_gcc.h ****   return(result);
1048:C:/Workspaces/DAVE-4.3/WS_2016_09_02/Flightcontroller_PWM_CopterRocks_Working/Libraries/CMSIS/Include\cmsis_gcc.h **** }
1049:C:/Workspaces/DAVE-4.3/WS_2016_09_02/Flightcontroller_PWM_CopterRocks_Working/Libraries/CMSIS/Include\cmsis_gcc.h **** 
1050:C:/Workspaces/DAVE-4.3/WS_2016_09_02/Flightcontroller_PWM_CopterRocks_Working/Libraries/CMSIS/Include\cmsis_gcc.h **** __attribute__( ( always_inline ) ) __STATIC_INLINE uint32_t __UASX(uint32_t op1, uint32_t op2)
1051:C:/Workspaces/DAVE-4.3/WS_2016_09_02/Flightcontroller_PWM_CopterRocks_Working/Libraries/CMSIS/Include\cmsis_gcc.h **** {
1052:C:/Workspaces/DAVE-4.3/WS_2016_09_02/Flightcontroller_PWM_CopterRocks_Working/Libraries/CMSIS/Include\cmsis_gcc.h ****   uint32_t result;
1053:C:/Workspaces/DAVE-4.3/WS_2016_09_02/Flightcontroller_PWM_CopterRocks_Working/Libraries/CMSIS/Include\cmsis_gcc.h **** 
1054:C:/Workspaces/DAVE-4.3/WS_2016_09_02/Flightcontroller_PWM_CopterRocks_Working/Libraries/CMSIS/Include\cmsis_gcc.h ****   __ASM volatile ("uasx %0, %1, %2" : "=r" (result) : "r" (op1), "r" (op2) );
1055:C:/Workspaces/DAVE-4.3/WS_2016_09_02/Flightcontroller_PWM_CopterRocks_Working/Libraries/CMSIS/Include\cmsis_gcc.h ****   return(result);
1056:C:/Workspaces/DAVE-4.3/WS_2016_09_02/Flightcontroller_PWM_CopterRocks_Working/Libraries/CMSIS/Include\cmsis_gcc.h **** }
1057:C:/Workspaces/DAVE-4.3/WS_2016_09_02/Flightcontroller_PWM_CopterRocks_Working/Libraries/CMSIS/Include\cmsis_gcc.h **** 
1058:C:/Workspaces/DAVE-4.3/WS_2016_09_02/Flightcontroller_PWM_CopterRocks_Working/Libraries/CMSIS/Include\cmsis_gcc.h **** __attribute__( ( always_inline ) ) __STATIC_INLINE uint32_t __UQASX(uint32_t op1, uint32_t op2)
1059:C:/Workspaces/DAVE-4.3/WS_2016_09_02/Flightcontroller_PWM_CopterRocks_Working/Libraries/CMSIS/Include\cmsis_gcc.h **** {
1060:C:/Workspaces/DAVE-4.3/WS_2016_09_02/Flightcontroller_PWM_CopterRocks_Working/Libraries/CMSIS/Include\cmsis_gcc.h ****   uint32_t result;
1061:C:/Workspaces/DAVE-4.3/WS_2016_09_02/Flightcontroller_PWM_CopterRocks_Working/Libraries/CMSIS/Include\cmsis_gcc.h **** 
1062:C:/Workspaces/DAVE-4.3/WS_2016_09_02/Flightcontroller_PWM_CopterRocks_Working/Libraries/CMSIS/Include\cmsis_gcc.h ****   __ASM volatile ("uqasx %0, %1, %2" : "=r" (result) : "r" (op1), "r" (op2) );
1063:C:/Workspaces/DAVE-4.3/WS_2016_09_02/Flightcontroller_PWM_CopterRocks_Working/Libraries/CMSIS/Include\cmsis_gcc.h ****   return(result);
1064:C:/Workspaces/DAVE-4.3/WS_2016_09_02/Flightcontroller_PWM_CopterRocks_Working/Libraries/CMSIS/Include\cmsis_gcc.h **** }
1065:C:/Workspaces/DAVE-4.3/WS_2016_09_02/Flightcontroller_PWM_CopterRocks_Working/Libraries/CMSIS/Include\cmsis_gcc.h **** 
1066:C:/Workspaces/DAVE-4.3/WS_2016_09_02/Flightcontroller_PWM_CopterRocks_Working/Libraries/CMSIS/Include\cmsis_gcc.h **** __attribute__( ( always_inline ) ) __STATIC_INLINE uint32_t __UHASX(uint32_t op1, uint32_t op2)
1067:C:/Workspaces/DAVE-4.3/WS_2016_09_02/Flightcontroller_PWM_CopterRocks_Working/Libraries/CMSIS/Include\cmsis_gcc.h **** {
1068:C:/Workspaces/DAVE-4.3/WS_2016_09_02/Flightcontroller_PWM_CopterRocks_Working/Libraries/CMSIS/Include\cmsis_gcc.h ****   uint32_t result;
1069:C:/Workspaces/DAVE-4.3/WS_2016_09_02/Flightcontroller_PWM_CopterRocks_Working/Libraries/CMSIS/Include\cmsis_gcc.h **** 
1070:C:/Workspaces/DAVE-4.3/WS_2016_09_02/Flightcontroller_PWM_CopterRocks_Working/Libraries/CMSIS/Include\cmsis_gcc.h ****   __ASM volatile ("uhasx %0, %1, %2" : "=r" (result) : "r" (op1), "r" (op2) );
1071:C:/Workspaces/DAVE-4.3/WS_2016_09_02/Flightcontroller_PWM_CopterRocks_Working/Libraries/CMSIS/Include\cmsis_gcc.h ****   return(result);
1072:C:/Workspaces/DAVE-4.3/WS_2016_09_02/Flightcontroller_PWM_CopterRocks_Working/Libraries/CMSIS/Include\cmsis_gcc.h **** }
1073:C:/Workspaces/DAVE-4.3/WS_2016_09_02/Flightcontroller_PWM_CopterRocks_Working/Libraries/CMSIS/Include\cmsis_gcc.h **** 
1074:C:/Workspaces/DAVE-4.3/WS_2016_09_02/Flightcontroller_PWM_CopterRocks_Working/Libraries/CMSIS/Include\cmsis_gcc.h **** __attribute__( ( always_inline ) ) __STATIC_INLINE uint32_t __SSAX(uint32_t op1, uint32_t op2)
1075:C:/Workspaces/DAVE-4.3/WS_2016_09_02/Flightcontroller_PWM_CopterRocks_Working/Libraries/CMSIS/Include\cmsis_gcc.h **** {
1076:C:/Workspaces/DAVE-4.3/WS_2016_09_02/Flightcontroller_PWM_CopterRocks_Working/Libraries/CMSIS/Include\cmsis_gcc.h ****   uint32_t result;
1077:C:/Workspaces/DAVE-4.3/WS_2016_09_02/Flightcontroller_PWM_CopterRocks_Working/Libraries/CMSIS/Include\cmsis_gcc.h **** 
1078:C:/Workspaces/DAVE-4.3/WS_2016_09_02/Flightcontroller_PWM_CopterRocks_Working/Libraries/CMSIS/Include\cmsis_gcc.h ****   __ASM volatile ("ssax %0, %1, %2" : "=r" (result) : "r" (op1), "r" (op2) );
1079:C:/Workspaces/DAVE-4.3/WS_2016_09_02/Flightcontroller_PWM_CopterRocks_Working/Libraries/CMSIS/Include\cmsis_gcc.h ****   return(result);
1080:C:/Workspaces/DAVE-4.3/WS_2016_09_02/Flightcontroller_PWM_CopterRocks_Working/Libraries/CMSIS/Include\cmsis_gcc.h **** }
1081:C:/Workspaces/DAVE-4.3/WS_2016_09_02/Flightcontroller_PWM_CopterRocks_Working/Libraries/CMSIS/Include\cmsis_gcc.h **** 
1082:C:/Workspaces/DAVE-4.3/WS_2016_09_02/Flightcontroller_PWM_CopterRocks_Working/Libraries/CMSIS/Include\cmsis_gcc.h **** __attribute__( ( always_inline ) ) __STATIC_INLINE uint32_t __QSAX(uint32_t op1, uint32_t op2)
1083:C:/Workspaces/DAVE-4.3/WS_2016_09_02/Flightcontroller_PWM_CopterRocks_Working/Libraries/CMSIS/Include\cmsis_gcc.h **** {
1084:C:/Workspaces/DAVE-4.3/WS_2016_09_02/Flightcontroller_PWM_CopterRocks_Working/Libraries/CMSIS/Include\cmsis_gcc.h ****   uint32_t result;
1085:C:/Workspaces/DAVE-4.3/WS_2016_09_02/Flightcontroller_PWM_CopterRocks_Working/Libraries/CMSIS/Include\cmsis_gcc.h **** 
1086:C:/Workspaces/DAVE-4.3/WS_2016_09_02/Flightcontroller_PWM_CopterRocks_Working/Libraries/CMSIS/Include\cmsis_gcc.h ****   __ASM volatile ("qsax %0, %1, %2" : "=r" (result) : "r" (op1), "r" (op2) );
1087:C:/Workspaces/DAVE-4.3/WS_2016_09_02/Flightcontroller_PWM_CopterRocks_Working/Libraries/CMSIS/Include\cmsis_gcc.h ****   return(result);
1088:C:/Workspaces/DAVE-4.3/WS_2016_09_02/Flightcontroller_PWM_CopterRocks_Working/Libraries/CMSIS/Include\cmsis_gcc.h **** }
1089:C:/Workspaces/DAVE-4.3/WS_2016_09_02/Flightcontroller_PWM_CopterRocks_Working/Libraries/CMSIS/Include\cmsis_gcc.h **** 
1090:C:/Workspaces/DAVE-4.3/WS_2016_09_02/Flightcontroller_PWM_CopterRocks_Working/Libraries/CMSIS/Include\cmsis_gcc.h **** __attribute__( ( always_inline ) ) __STATIC_INLINE uint32_t __SHSAX(uint32_t op1, uint32_t op2)
1091:C:/Workspaces/DAVE-4.3/WS_2016_09_02/Flightcontroller_PWM_CopterRocks_Working/Libraries/CMSIS/Include\cmsis_gcc.h **** {
1092:C:/Workspaces/DAVE-4.3/WS_2016_09_02/Flightcontroller_PWM_CopterRocks_Working/Libraries/CMSIS/Include\cmsis_gcc.h ****   uint32_t result;
1093:C:/Workspaces/DAVE-4.3/WS_2016_09_02/Flightcontroller_PWM_CopterRocks_Working/Libraries/CMSIS/Include\cmsis_gcc.h **** 
1094:C:/Workspaces/DAVE-4.3/WS_2016_09_02/Flightcontroller_PWM_CopterRocks_Working/Libraries/CMSIS/Include\cmsis_gcc.h ****   __ASM volatile ("shsax %0, %1, %2" : "=r" (result) : "r" (op1), "r" (op2) );
1095:C:/Workspaces/DAVE-4.3/WS_2016_09_02/Flightcontroller_PWM_CopterRocks_Working/Libraries/CMSIS/Include\cmsis_gcc.h ****   return(result);
1096:C:/Workspaces/DAVE-4.3/WS_2016_09_02/Flightcontroller_PWM_CopterRocks_Working/Libraries/CMSIS/Include\cmsis_gcc.h **** }
1097:C:/Workspaces/DAVE-4.3/WS_2016_09_02/Flightcontroller_PWM_CopterRocks_Working/Libraries/CMSIS/Include\cmsis_gcc.h **** 
1098:C:/Workspaces/DAVE-4.3/WS_2016_09_02/Flightcontroller_PWM_CopterRocks_Working/Libraries/CMSIS/Include\cmsis_gcc.h **** __attribute__( ( always_inline ) ) __STATIC_INLINE uint32_t __USAX(uint32_t op1, uint32_t op2)
1099:C:/Workspaces/DAVE-4.3/WS_2016_09_02/Flightcontroller_PWM_CopterRocks_Working/Libraries/CMSIS/Include\cmsis_gcc.h **** {
1100:C:/Workspaces/DAVE-4.3/WS_2016_09_02/Flightcontroller_PWM_CopterRocks_Working/Libraries/CMSIS/Include\cmsis_gcc.h ****   uint32_t result;
1101:C:/Workspaces/DAVE-4.3/WS_2016_09_02/Flightcontroller_PWM_CopterRocks_Working/Libraries/CMSIS/Include\cmsis_gcc.h **** 
1102:C:/Workspaces/DAVE-4.3/WS_2016_09_02/Flightcontroller_PWM_CopterRocks_Working/Libraries/CMSIS/Include\cmsis_gcc.h ****   __ASM volatile ("usax %0, %1, %2" : "=r" (result) : "r" (op1), "r" (op2) );
1103:C:/Workspaces/DAVE-4.3/WS_2016_09_02/Flightcontroller_PWM_CopterRocks_Working/Libraries/CMSIS/Include\cmsis_gcc.h ****   return(result);
1104:C:/Workspaces/DAVE-4.3/WS_2016_09_02/Flightcontroller_PWM_CopterRocks_Working/Libraries/CMSIS/Include\cmsis_gcc.h **** }
1105:C:/Workspaces/DAVE-4.3/WS_2016_09_02/Flightcontroller_PWM_CopterRocks_Working/Libraries/CMSIS/Include\cmsis_gcc.h **** 
1106:C:/Workspaces/DAVE-4.3/WS_2016_09_02/Flightcontroller_PWM_CopterRocks_Working/Libraries/CMSIS/Include\cmsis_gcc.h **** __attribute__( ( always_inline ) ) __STATIC_INLINE uint32_t __UQSAX(uint32_t op1, uint32_t op2)
1107:C:/Workspaces/DAVE-4.3/WS_2016_09_02/Flightcontroller_PWM_CopterRocks_Working/Libraries/CMSIS/Include\cmsis_gcc.h **** {
1108:C:/Workspaces/DAVE-4.3/WS_2016_09_02/Flightcontroller_PWM_CopterRocks_Working/Libraries/CMSIS/Include\cmsis_gcc.h ****   uint32_t result;
1109:C:/Workspaces/DAVE-4.3/WS_2016_09_02/Flightcontroller_PWM_CopterRocks_Working/Libraries/CMSIS/Include\cmsis_gcc.h **** 
1110:C:/Workspaces/DAVE-4.3/WS_2016_09_02/Flightcontroller_PWM_CopterRocks_Working/Libraries/CMSIS/Include\cmsis_gcc.h ****   __ASM volatile ("uqsax %0, %1, %2" : "=r" (result) : "r" (op1), "r" (op2) );
1111:C:/Workspaces/DAVE-4.3/WS_2016_09_02/Flightcontroller_PWM_CopterRocks_Working/Libraries/CMSIS/Include\cmsis_gcc.h ****   return(result);
1112:C:/Workspaces/DAVE-4.3/WS_2016_09_02/Flightcontroller_PWM_CopterRocks_Working/Libraries/CMSIS/Include\cmsis_gcc.h **** }
1113:C:/Workspaces/DAVE-4.3/WS_2016_09_02/Flightcontroller_PWM_CopterRocks_Working/Libraries/CMSIS/Include\cmsis_gcc.h **** 
1114:C:/Workspaces/DAVE-4.3/WS_2016_09_02/Flightcontroller_PWM_CopterRocks_Working/Libraries/CMSIS/Include\cmsis_gcc.h **** __attribute__( ( always_inline ) ) __STATIC_INLINE uint32_t __UHSAX(uint32_t op1, uint32_t op2)
1115:C:/Workspaces/DAVE-4.3/WS_2016_09_02/Flightcontroller_PWM_CopterRocks_Working/Libraries/CMSIS/Include\cmsis_gcc.h **** {
1116:C:/Workspaces/DAVE-4.3/WS_2016_09_02/Flightcontroller_PWM_CopterRocks_Working/Libraries/CMSIS/Include\cmsis_gcc.h ****   uint32_t result;
1117:C:/Workspaces/DAVE-4.3/WS_2016_09_02/Flightcontroller_PWM_CopterRocks_Working/Libraries/CMSIS/Include\cmsis_gcc.h **** 
1118:C:/Workspaces/DAVE-4.3/WS_2016_09_02/Flightcontroller_PWM_CopterRocks_Working/Libraries/CMSIS/Include\cmsis_gcc.h ****   __ASM volatile ("uhsax %0, %1, %2" : "=r" (result) : "r" (op1), "r" (op2) );
1119:C:/Workspaces/DAVE-4.3/WS_2016_09_02/Flightcontroller_PWM_CopterRocks_Working/Libraries/CMSIS/Include\cmsis_gcc.h ****   return(result);
1120:C:/Workspaces/DAVE-4.3/WS_2016_09_02/Flightcontroller_PWM_CopterRocks_Working/Libraries/CMSIS/Include\cmsis_gcc.h **** }
1121:C:/Workspaces/DAVE-4.3/WS_2016_09_02/Flightcontroller_PWM_CopterRocks_Working/Libraries/CMSIS/Include\cmsis_gcc.h **** 
1122:C:/Workspaces/DAVE-4.3/WS_2016_09_02/Flightcontroller_PWM_CopterRocks_Working/Libraries/CMSIS/Include\cmsis_gcc.h **** __attribute__( ( always_inline ) ) __STATIC_INLINE uint32_t __USAD8(uint32_t op1, uint32_t op2)
1123:C:/Workspaces/DAVE-4.3/WS_2016_09_02/Flightcontroller_PWM_CopterRocks_Working/Libraries/CMSIS/Include\cmsis_gcc.h **** {
1124:C:/Workspaces/DAVE-4.3/WS_2016_09_02/Flightcontroller_PWM_CopterRocks_Working/Libraries/CMSIS/Include\cmsis_gcc.h ****   uint32_t result;
1125:C:/Workspaces/DAVE-4.3/WS_2016_09_02/Flightcontroller_PWM_CopterRocks_Working/Libraries/CMSIS/Include\cmsis_gcc.h **** 
1126:C:/Workspaces/DAVE-4.3/WS_2016_09_02/Flightcontroller_PWM_CopterRocks_Working/Libraries/CMSIS/Include\cmsis_gcc.h ****   __ASM volatile ("usad8 %0, %1, %2" : "=r" (result) : "r" (op1), "r" (op2) );
1127:C:/Workspaces/DAVE-4.3/WS_2016_09_02/Flightcontroller_PWM_CopterRocks_Working/Libraries/CMSIS/Include\cmsis_gcc.h ****   return(result);
1128:C:/Workspaces/DAVE-4.3/WS_2016_09_02/Flightcontroller_PWM_CopterRocks_Working/Libraries/CMSIS/Include\cmsis_gcc.h **** }
1129:C:/Workspaces/DAVE-4.3/WS_2016_09_02/Flightcontroller_PWM_CopterRocks_Working/Libraries/CMSIS/Include\cmsis_gcc.h **** 
1130:C:/Workspaces/DAVE-4.3/WS_2016_09_02/Flightcontroller_PWM_CopterRocks_Working/Libraries/CMSIS/Include\cmsis_gcc.h **** __attribute__( ( always_inline ) ) __STATIC_INLINE uint32_t __USADA8(uint32_t op1, uint32_t op2, ui
1131:C:/Workspaces/DAVE-4.3/WS_2016_09_02/Flightcontroller_PWM_CopterRocks_Working/Libraries/CMSIS/Include\cmsis_gcc.h **** {
1132:C:/Workspaces/DAVE-4.3/WS_2016_09_02/Flightcontroller_PWM_CopterRocks_Working/Libraries/CMSIS/Include\cmsis_gcc.h ****   uint32_t result;
1133:C:/Workspaces/DAVE-4.3/WS_2016_09_02/Flightcontroller_PWM_CopterRocks_Working/Libraries/CMSIS/Include\cmsis_gcc.h **** 
1134:C:/Workspaces/DAVE-4.3/WS_2016_09_02/Flightcontroller_PWM_CopterRocks_Working/Libraries/CMSIS/Include\cmsis_gcc.h ****   __ASM volatile ("usada8 %0, %1, %2, %3" : "=r" (result) : "r" (op1), "r" (op2), "r" (op3) );
1135:C:/Workspaces/DAVE-4.3/WS_2016_09_02/Flightcontroller_PWM_CopterRocks_Working/Libraries/CMSIS/Include\cmsis_gcc.h ****   return(result);
1136:C:/Workspaces/DAVE-4.3/WS_2016_09_02/Flightcontroller_PWM_CopterRocks_Working/Libraries/CMSIS/Include\cmsis_gcc.h **** }
1137:C:/Workspaces/DAVE-4.3/WS_2016_09_02/Flightcontroller_PWM_CopterRocks_Working/Libraries/CMSIS/Include\cmsis_gcc.h **** 
1138:C:/Workspaces/DAVE-4.3/WS_2016_09_02/Flightcontroller_PWM_CopterRocks_Working/Libraries/CMSIS/Include\cmsis_gcc.h **** #define __SSAT16(ARG1,ARG2) \
1139:C:/Workspaces/DAVE-4.3/WS_2016_09_02/Flightcontroller_PWM_CopterRocks_Working/Libraries/CMSIS/Include\cmsis_gcc.h **** ({                          \
1140:C:/Workspaces/DAVE-4.3/WS_2016_09_02/Flightcontroller_PWM_CopterRocks_Working/Libraries/CMSIS/Include\cmsis_gcc.h ****   int32_t __RES, __ARG1 = (ARG1); \
1141:C:/Workspaces/DAVE-4.3/WS_2016_09_02/Flightcontroller_PWM_CopterRocks_Working/Libraries/CMSIS/Include\cmsis_gcc.h ****   __ASM ("ssat16 %0, %1, %2" : "=r" (__RES) :  "I" (ARG2), "r" (__ARG1) ); \
1142:C:/Workspaces/DAVE-4.3/WS_2016_09_02/Flightcontroller_PWM_CopterRocks_Working/Libraries/CMSIS/Include\cmsis_gcc.h ****   __RES; \
1143:C:/Workspaces/DAVE-4.3/WS_2016_09_02/Flightcontroller_PWM_CopterRocks_Working/Libraries/CMSIS/Include\cmsis_gcc.h ****  })
1144:C:/Workspaces/DAVE-4.3/WS_2016_09_02/Flightcontroller_PWM_CopterRocks_Working/Libraries/CMSIS/Include\cmsis_gcc.h **** 
1145:C:/Workspaces/DAVE-4.3/WS_2016_09_02/Flightcontroller_PWM_CopterRocks_Working/Libraries/CMSIS/Include\cmsis_gcc.h **** #define __USAT16(ARG1,ARG2) \
1146:C:/Workspaces/DAVE-4.3/WS_2016_09_02/Flightcontroller_PWM_CopterRocks_Working/Libraries/CMSIS/Include\cmsis_gcc.h **** ({                          \
1147:C:/Workspaces/DAVE-4.3/WS_2016_09_02/Flightcontroller_PWM_CopterRocks_Working/Libraries/CMSIS/Include\cmsis_gcc.h ****   uint32_t __RES, __ARG1 = (ARG1); \
1148:C:/Workspaces/DAVE-4.3/WS_2016_09_02/Flightcontroller_PWM_CopterRocks_Working/Libraries/CMSIS/Include\cmsis_gcc.h ****   __ASM ("usat16 %0, %1, %2" : "=r" (__RES) :  "I" (ARG2), "r" (__ARG1) ); \
1149:C:/Workspaces/DAVE-4.3/WS_2016_09_02/Flightcontroller_PWM_CopterRocks_Working/Libraries/CMSIS/Include\cmsis_gcc.h ****   __RES; \
1150:C:/Workspaces/DAVE-4.3/WS_2016_09_02/Flightcontroller_PWM_CopterRocks_Working/Libraries/CMSIS/Include\cmsis_gcc.h ****  })
1151:C:/Workspaces/DAVE-4.3/WS_2016_09_02/Flightcontroller_PWM_CopterRocks_Working/Libraries/CMSIS/Include\cmsis_gcc.h **** 
1152:C:/Workspaces/DAVE-4.3/WS_2016_09_02/Flightcontroller_PWM_CopterRocks_Working/Libraries/CMSIS/Include\cmsis_gcc.h **** __attribute__( ( always_inline ) ) __STATIC_INLINE uint32_t __UXTB16(uint32_t op1)
1153:C:/Workspaces/DAVE-4.3/WS_2016_09_02/Flightcontroller_PWM_CopterRocks_Working/Libraries/CMSIS/Include\cmsis_gcc.h **** {
1154:C:/Workspaces/DAVE-4.3/WS_2016_09_02/Flightcontroller_PWM_CopterRocks_Working/Libraries/CMSIS/Include\cmsis_gcc.h ****   uint32_t result;
1155:C:/Workspaces/DAVE-4.3/WS_2016_09_02/Flightcontroller_PWM_CopterRocks_Working/Libraries/CMSIS/Include\cmsis_gcc.h **** 
1156:C:/Workspaces/DAVE-4.3/WS_2016_09_02/Flightcontroller_PWM_CopterRocks_Working/Libraries/CMSIS/Include\cmsis_gcc.h ****   __ASM volatile ("uxtb16 %0, %1" : "=r" (result) : "r" (op1));
1157:C:/Workspaces/DAVE-4.3/WS_2016_09_02/Flightcontroller_PWM_CopterRocks_Working/Libraries/CMSIS/Include\cmsis_gcc.h ****   return(result);
1158:C:/Workspaces/DAVE-4.3/WS_2016_09_02/Flightcontroller_PWM_CopterRocks_Working/Libraries/CMSIS/Include\cmsis_gcc.h **** }
1159:C:/Workspaces/DAVE-4.3/WS_2016_09_02/Flightcontroller_PWM_CopterRocks_Working/Libraries/CMSIS/Include\cmsis_gcc.h **** 
1160:C:/Workspaces/DAVE-4.3/WS_2016_09_02/Flightcontroller_PWM_CopterRocks_Working/Libraries/CMSIS/Include\cmsis_gcc.h **** __attribute__( ( always_inline ) ) __STATIC_INLINE uint32_t __UXTAB16(uint32_t op1, uint32_t op2)
1161:C:/Workspaces/DAVE-4.3/WS_2016_09_02/Flightcontroller_PWM_CopterRocks_Working/Libraries/CMSIS/Include\cmsis_gcc.h **** {
1162:C:/Workspaces/DAVE-4.3/WS_2016_09_02/Flightcontroller_PWM_CopterRocks_Working/Libraries/CMSIS/Include\cmsis_gcc.h ****   uint32_t result;
1163:C:/Workspaces/DAVE-4.3/WS_2016_09_02/Flightcontroller_PWM_CopterRocks_Working/Libraries/CMSIS/Include\cmsis_gcc.h **** 
1164:C:/Workspaces/DAVE-4.3/WS_2016_09_02/Flightcontroller_PWM_CopterRocks_Working/Libraries/CMSIS/Include\cmsis_gcc.h ****   __ASM volatile ("uxtab16 %0, %1, %2" : "=r" (result) : "r" (op1), "r" (op2) );
1165:C:/Workspaces/DAVE-4.3/WS_2016_09_02/Flightcontroller_PWM_CopterRocks_Working/Libraries/CMSIS/Include\cmsis_gcc.h ****   return(result);
1166:C:/Workspaces/DAVE-4.3/WS_2016_09_02/Flightcontroller_PWM_CopterRocks_Working/Libraries/CMSIS/Include\cmsis_gcc.h **** }
1167:C:/Workspaces/DAVE-4.3/WS_2016_09_02/Flightcontroller_PWM_CopterRocks_Working/Libraries/CMSIS/Include\cmsis_gcc.h **** 
1168:C:/Workspaces/DAVE-4.3/WS_2016_09_02/Flightcontroller_PWM_CopterRocks_Working/Libraries/CMSIS/Include\cmsis_gcc.h **** __attribute__( ( always_inline ) ) __STATIC_INLINE uint32_t __SXTB16(uint32_t op1)
1169:C:/Workspaces/DAVE-4.3/WS_2016_09_02/Flightcontroller_PWM_CopterRocks_Working/Libraries/CMSIS/Include\cmsis_gcc.h **** {
1170:C:/Workspaces/DAVE-4.3/WS_2016_09_02/Flightcontroller_PWM_CopterRocks_Working/Libraries/CMSIS/Include\cmsis_gcc.h ****   uint32_t result;
1171:C:/Workspaces/DAVE-4.3/WS_2016_09_02/Flightcontroller_PWM_CopterRocks_Working/Libraries/CMSIS/Include\cmsis_gcc.h **** 
1172:C:/Workspaces/DAVE-4.3/WS_2016_09_02/Flightcontroller_PWM_CopterRocks_Working/Libraries/CMSIS/Include\cmsis_gcc.h ****   __ASM volatile ("sxtb16 %0, %1" : "=r" (result) : "r" (op1));
1173:C:/Workspaces/DAVE-4.3/WS_2016_09_02/Flightcontroller_PWM_CopterRocks_Working/Libraries/CMSIS/Include\cmsis_gcc.h ****   return(result);
1174:C:/Workspaces/DAVE-4.3/WS_2016_09_02/Flightcontroller_PWM_CopterRocks_Working/Libraries/CMSIS/Include\cmsis_gcc.h **** }
1175:C:/Workspaces/DAVE-4.3/WS_2016_09_02/Flightcontroller_PWM_CopterRocks_Working/Libraries/CMSIS/Include\cmsis_gcc.h **** 
1176:C:/Workspaces/DAVE-4.3/WS_2016_09_02/Flightcontroller_PWM_CopterRocks_Working/Libraries/CMSIS/Include\cmsis_gcc.h **** __attribute__( ( always_inline ) ) __STATIC_INLINE uint32_t __SXTAB16(uint32_t op1, uint32_t op2)
1177:C:/Workspaces/DAVE-4.3/WS_2016_09_02/Flightcontroller_PWM_CopterRocks_Working/Libraries/CMSIS/Include\cmsis_gcc.h **** {
1178:C:/Workspaces/DAVE-4.3/WS_2016_09_02/Flightcontroller_PWM_CopterRocks_Working/Libraries/CMSIS/Include\cmsis_gcc.h ****   uint32_t result;
1179:C:/Workspaces/DAVE-4.3/WS_2016_09_02/Flightcontroller_PWM_CopterRocks_Working/Libraries/CMSIS/Include\cmsis_gcc.h **** 
1180:C:/Workspaces/DAVE-4.3/WS_2016_09_02/Flightcontroller_PWM_CopterRocks_Working/Libraries/CMSIS/Include\cmsis_gcc.h ****   __ASM volatile ("sxtab16 %0, %1, %2" : "=r" (result) : "r" (op1), "r" (op2) );
1181:C:/Workspaces/DAVE-4.3/WS_2016_09_02/Flightcontroller_PWM_CopterRocks_Working/Libraries/CMSIS/Include\cmsis_gcc.h ****   return(result);
1182:C:/Workspaces/DAVE-4.3/WS_2016_09_02/Flightcontroller_PWM_CopterRocks_Working/Libraries/CMSIS/Include\cmsis_gcc.h **** }
1183:C:/Workspaces/DAVE-4.3/WS_2016_09_02/Flightcontroller_PWM_CopterRocks_Working/Libraries/CMSIS/Include\cmsis_gcc.h **** 
1184:C:/Workspaces/DAVE-4.3/WS_2016_09_02/Flightcontroller_PWM_CopterRocks_Working/Libraries/CMSIS/Include\cmsis_gcc.h **** __attribute__( ( always_inline ) ) __STATIC_INLINE uint32_t __SMUAD  (uint32_t op1, uint32_t op2)
1185:C:/Workspaces/DAVE-4.3/WS_2016_09_02/Flightcontroller_PWM_CopterRocks_Working/Libraries/CMSIS/Include\cmsis_gcc.h **** {
1186:C:/Workspaces/DAVE-4.3/WS_2016_09_02/Flightcontroller_PWM_CopterRocks_Working/Libraries/CMSIS/Include\cmsis_gcc.h ****   uint32_t result;
1187:C:/Workspaces/DAVE-4.3/WS_2016_09_02/Flightcontroller_PWM_CopterRocks_Working/Libraries/CMSIS/Include\cmsis_gcc.h **** 
1188:C:/Workspaces/DAVE-4.3/WS_2016_09_02/Flightcontroller_PWM_CopterRocks_Working/Libraries/CMSIS/Include\cmsis_gcc.h ****   __ASM volatile ("smuad %0, %1, %2" : "=r" (result) : "r" (op1), "r" (op2) );
1189:C:/Workspaces/DAVE-4.3/WS_2016_09_02/Flightcontroller_PWM_CopterRocks_Working/Libraries/CMSIS/Include\cmsis_gcc.h ****   return(result);
1190:C:/Workspaces/DAVE-4.3/WS_2016_09_02/Flightcontroller_PWM_CopterRocks_Working/Libraries/CMSIS/Include\cmsis_gcc.h **** }
1191:C:/Workspaces/DAVE-4.3/WS_2016_09_02/Flightcontroller_PWM_CopterRocks_Working/Libraries/CMSIS/Include\cmsis_gcc.h **** 
1192:C:/Workspaces/DAVE-4.3/WS_2016_09_02/Flightcontroller_PWM_CopterRocks_Working/Libraries/CMSIS/Include\cmsis_gcc.h **** __attribute__( ( always_inline ) ) __STATIC_INLINE uint32_t __SMUADX (uint32_t op1, uint32_t op2)
1193:C:/Workspaces/DAVE-4.3/WS_2016_09_02/Flightcontroller_PWM_CopterRocks_Working/Libraries/CMSIS/Include\cmsis_gcc.h **** {
1194:C:/Workspaces/DAVE-4.3/WS_2016_09_02/Flightcontroller_PWM_CopterRocks_Working/Libraries/CMSIS/Include\cmsis_gcc.h ****   uint32_t result;
1195:C:/Workspaces/DAVE-4.3/WS_2016_09_02/Flightcontroller_PWM_CopterRocks_Working/Libraries/CMSIS/Include\cmsis_gcc.h **** 
1196:C:/Workspaces/DAVE-4.3/WS_2016_09_02/Flightcontroller_PWM_CopterRocks_Working/Libraries/CMSIS/Include\cmsis_gcc.h ****   __ASM volatile ("smuadx %0, %1, %2" : "=r" (result) : "r" (op1), "r" (op2) );
1197:C:/Workspaces/DAVE-4.3/WS_2016_09_02/Flightcontroller_PWM_CopterRocks_Working/Libraries/CMSIS/Include\cmsis_gcc.h ****   return(result);
1198:C:/Workspaces/DAVE-4.3/WS_2016_09_02/Flightcontroller_PWM_CopterRocks_Working/Libraries/CMSIS/Include\cmsis_gcc.h **** }
1199:C:/Workspaces/DAVE-4.3/WS_2016_09_02/Flightcontroller_PWM_CopterRocks_Working/Libraries/CMSIS/Include\cmsis_gcc.h **** 
1200:C:/Workspaces/DAVE-4.3/WS_2016_09_02/Flightcontroller_PWM_CopterRocks_Working/Libraries/CMSIS/Include\cmsis_gcc.h **** __attribute__( ( always_inline ) ) __STATIC_INLINE uint32_t __SMLAD (uint32_t op1, uint32_t op2, ui
1201:C:/Workspaces/DAVE-4.3/WS_2016_09_02/Flightcontroller_PWM_CopterRocks_Working/Libraries/CMSIS/Include\cmsis_gcc.h **** {
1202:C:/Workspaces/DAVE-4.3/WS_2016_09_02/Flightcontroller_PWM_CopterRocks_Working/Libraries/CMSIS/Include\cmsis_gcc.h ****   uint32_t result;
1203:C:/Workspaces/DAVE-4.3/WS_2016_09_02/Flightcontroller_PWM_CopterRocks_Working/Libraries/CMSIS/Include\cmsis_gcc.h **** 
1204:C:/Workspaces/DAVE-4.3/WS_2016_09_02/Flightcontroller_PWM_CopterRocks_Working/Libraries/CMSIS/Include\cmsis_gcc.h ****   __ASM volatile ("smlad %0, %1, %2, %3" : "=r" (result) : "r" (op1), "r" (op2), "r" (op3) );
 184              	 .loc 2 1204 0
 185 0144 D7F8EC30 	 ldr r3,[r7,#236]
 186 0148 D7F8E820 	 ldr r2,[r7,#232]
 187 014c D7F8E410 	 ldr r1,[r7,#228]
 188              	
 189 0150 23FB0213 	 smlad r3,r3,r2,r1
 190              	
 191              	 .thumb
 192 0154 C7F8E030 	 str r3,[r7,#224]
1205:C:/Workspaces/DAVE-4.3/WS_2016_09_02/Flightcontroller_PWM_CopterRocks_Working/Libraries/CMSIS/Include\cmsis_gcc.h ****   return(result);
 193              	 .loc 2 1205 0
 194 0158 D7F8E030 	 ldr r3,[r7,#224]
 195              	.LBE39:
 196              	.LBE38:
 197              	 .loc 1 191 0
 198 015c C7F87031 	 str r3,[r7,#368]
 192:../Dave/Generated/CMSIS_DSP/FilteringFunctions/arm_conv_q7.c **** 
 193:../Dave/Generated/CMSIS_DSP/FilteringFunctions/arm_conv_q7.c ****       /* x[2] , x[3] */
 194:../Dave/Generated/CMSIS_DSP/FilteringFunctions/arm_conv_q7.c ****       in1 = (q15_t) * px++;
 199              	 .loc 1 194 0
 200 0160 D7F88031 	 ldr r3,[r7,#384]
 201 0164 5A1C     	 adds r2,r3,#1
 202 0166 C7F88021 	 str r2,[r7,#384]
 203 016a 1B78     	 ldrb r3,[r3]
 204 016c 5BB2     	 sxtb r3,r3
 205 016e A7F84231 	 strh r3,[r7,#322]
 195:../Dave/Generated/CMSIS_DSP/FilteringFunctions/arm_conv_q7.c ****       in2 = (q15_t) * px++;
 206              	 .loc 1 195 0
 207 0172 D7F88031 	 ldr r3,[r7,#384]
 208 0176 5A1C     	 adds r2,r3,#1
 209 0178 C7F88021 	 str r2,[r7,#384]
 210 017c 1B78     	 ldrb r3,[r3]
 211 017e 5BB2     	 sxtb r3,r3
 212 0180 A7F84031 	 strh r3,[r7,#320]
 196:../Dave/Generated/CMSIS_DSP/FilteringFunctions/arm_conv_q7.c ****       input1 = ((q31_t) in1 & 0x0000FFFF) | ((q31_t) in2 << 16u);
 213              	 .loc 1 196 0
 214 0184 B7F94231 	 ldrsh r3,[r7,#322]
 215 0188 9AB2     	 uxth r2,r3
 216 018a B7F94031 	 ldrsh r3,[r7,#320]
 217 018e 1B04     	 lsls r3,r3,#16
 218 0190 1343     	 orrs r3,r3,r2
 219 0192 C7F83C31 	 str r3,[r7,#316]
 197:../Dave/Generated/CMSIS_DSP/FilteringFunctions/arm_conv_q7.c **** 
 198:../Dave/Generated/CMSIS_DSP/FilteringFunctions/arm_conv_q7.c ****       /* y[srcBLen - 3] , y[srcBLen - 4] */
 199:../Dave/Generated/CMSIS_DSP/FilteringFunctions/arm_conv_q7.c ****       in1 = (q15_t) * py--;
 220              	 .loc 1 199 0
 221 0196 D7F87C31 	 ldr r3,[r7,#380]
 222 019a 5A1E     	 subs r2,r3,#1
 223 019c C7F87C21 	 str r2,[r7,#380]
 224 01a0 1B78     	 ldrb r3,[r3]
 225 01a2 5BB2     	 sxtb r3,r3
 226 01a4 A7F84231 	 strh r3,[r7,#322]
 200:../Dave/Generated/CMSIS_DSP/FilteringFunctions/arm_conv_q7.c ****       in2 = (q15_t) * py--;
 227              	 .loc 1 200 0
 228 01a8 D7F87C31 	 ldr r3,[r7,#380]
 229 01ac 5A1E     	 subs r2,r3,#1
 230 01ae C7F87C21 	 str r2,[r7,#380]
 231 01b2 1B78     	 ldrb r3,[r3]
 232 01b4 5BB2     	 sxtb r3,r3
 233 01b6 A7F84031 	 strh r3,[r7,#320]
 201:../Dave/Generated/CMSIS_DSP/FilteringFunctions/arm_conv_q7.c ****       input2 = ((q31_t) in1 & 0x0000FFFF) | ((q31_t) in2 << 16u);
 234              	 .loc 1 201 0
 235 01ba B7F94231 	 ldrsh r3,[r7,#322]
 236 01be 9AB2     	 uxth r2,r3
 237 01c0 B7F94031 	 ldrsh r3,[r7,#320]
 238 01c4 1B04     	 lsls r3,r3,#16
 239 01c6 1343     	 orrs r3,r3,r2
 240 01c8 C7F83831 	 str r3,[r7,#312]
 202:../Dave/Generated/CMSIS_DSP/FilteringFunctions/arm_conv_q7.c **** 
 203:../Dave/Generated/CMSIS_DSP/FilteringFunctions/arm_conv_q7.c ****       /* x[2] * y[srcBLen - 3] */
 204:../Dave/Generated/CMSIS_DSP/FilteringFunctions/arm_conv_q7.c ****       /* x[3] * y[srcBLen - 4] */
 205:../Dave/Generated/CMSIS_DSP/FilteringFunctions/arm_conv_q7.c ****       sum = __SMLAD(input1, input2, sum);
 241              	 .loc 1 205 0
 242 01cc D7F83C11 	 ldr r1,[r7,#316]
 243 01d0 D7F83821 	 ldr r2,[r7,#312]
 244 01d4 D7F87031 	 ldr r3,[r7,#368]
 245 01d8 C7F8DC10 	 str r1,[r7,#220]
 246 01dc C7F8D820 	 str r2,[r7,#216]
 247 01e0 C7F8D430 	 str r3,[r7,#212]
 248              	.LBB40:
 249              	.LBB41:
1204:C:/Workspaces/DAVE-4.3/WS_2016_09_02/Flightcontroller_PWM_CopterRocks_Working/Libraries/CMSIS/Include\cmsis_gcc.h ****   return(result);
 250              	 .loc 2 1204 0
 251 01e4 D7F8DC30 	 ldr r3,[r7,#220]
 252 01e8 D7F8D820 	 ldr r2,[r7,#216]
 253 01ec D7F8D410 	 ldr r1,[r7,#212]
 254              	
 255 01f0 23FB0213 	 smlad r3,r3,r2,r1
 256              	
 257              	 .thumb
 258 01f4 C7F8D030 	 str r3,[r7,#208]
 259              	 .loc 2 1205 0
 260 01f8 D7F8D030 	 ldr r3,[r7,#208]
 261              	.LBE41:
 262              	.LBE40:
 263              	 .loc 1 205 0
 264 01fc C7F87031 	 str r3,[r7,#368]
 206:../Dave/Generated/CMSIS_DSP/FilteringFunctions/arm_conv_q7.c **** 
 207:../Dave/Generated/CMSIS_DSP/FilteringFunctions/arm_conv_q7.c ****       /* Decrement the loop counter */
 208:../Dave/Generated/CMSIS_DSP/FilteringFunctions/arm_conv_q7.c ****       k--;
 265              	 .loc 1 208 0
 266 0200 D7F85C31 	 ldr r3,[r7,#348]
 267 0204 013B     	 subs r3,r3,#1
 268 0206 C7F85C31 	 str r3,[r7,#348]
 269              	.L5:
 177:../Dave/Generated/CMSIS_DSP/FilteringFunctions/arm_conv_q7.c ****     {
 270              	 .loc 1 177 0
 271 020a D7F85C31 	 ldr r3,[r7,#348]
 272 020e 002B     	 cmp r3,#0
 273 0210 7FF456AF 	 bne .L8
 209:../Dave/Generated/CMSIS_DSP/FilteringFunctions/arm_conv_q7.c ****     }
 210:../Dave/Generated/CMSIS_DSP/FilteringFunctions/arm_conv_q7.c **** 
 211:../Dave/Generated/CMSIS_DSP/FilteringFunctions/arm_conv_q7.c ****     /* If the count is not a multiple of 4, compute any remaining MACs here.   
 212:../Dave/Generated/CMSIS_DSP/FilteringFunctions/arm_conv_q7.c ****      ** No loop unrolling is used. */
 213:../Dave/Generated/CMSIS_DSP/FilteringFunctions/arm_conv_q7.c ****     k = count % 0x4u;
 274              	 .loc 1 213 0
 275 0214 D7F85831 	 ldr r3,[r7,#344]
 276 0218 03F00303 	 and r3,r3,#3
 277 021c C7F85C31 	 str r3,[r7,#348]
 214:../Dave/Generated/CMSIS_DSP/FilteringFunctions/arm_conv_q7.c **** 
 215:../Dave/Generated/CMSIS_DSP/FilteringFunctions/arm_conv_q7.c ****     while(k > 0u)
 278              	 .loc 1 215 0
 279 0220 19E0     	 b .L9
 280              	.L10:
 216:../Dave/Generated/CMSIS_DSP/FilteringFunctions/arm_conv_q7.c ****     {
 217:../Dave/Generated/CMSIS_DSP/FilteringFunctions/arm_conv_q7.c ****       /* Perform the multiply-accumulates */
 218:../Dave/Generated/CMSIS_DSP/FilteringFunctions/arm_conv_q7.c ****       sum += ((q15_t) * px++ * *py--);
 281              	 .loc 1 218 0
 282 0222 D7F88031 	 ldr r3,[r7,#384]
 283 0226 5A1C     	 adds r2,r3,#1
 284 0228 C7F88021 	 str r2,[r7,#384]
 285 022c 1B78     	 ldrb r3,[r3]
 286 022e 5AB2     	 sxtb r2,r3
 287 0230 D7F87C31 	 ldr r3,[r7,#380]
 288 0234 591E     	 subs r1,r3,#1
 289 0236 C7F87C11 	 str r1,[r7,#380]
 290 023a 1B78     	 ldrb r3,[r3]
 291 023c 5BB2     	 sxtb r3,r3
 292 023e 03FB02F3 	 mul r3,r3,r2
 293 0242 D7F87021 	 ldr r2,[r7,#368]
 294 0246 1344     	 add r3,r3,r2
 295 0248 C7F87031 	 str r3,[r7,#368]
 219:../Dave/Generated/CMSIS_DSP/FilteringFunctions/arm_conv_q7.c **** 
 220:../Dave/Generated/CMSIS_DSP/FilteringFunctions/arm_conv_q7.c ****       /* Decrement the loop counter */
 221:../Dave/Generated/CMSIS_DSP/FilteringFunctions/arm_conv_q7.c ****       k--;
 296              	 .loc 1 221 0
 297 024c D7F85C31 	 ldr r3,[r7,#348]
 298 0250 013B     	 subs r3,r3,#1
 299 0252 C7F85C31 	 str r3,[r7,#348]
 300              	.L9:
 215:../Dave/Generated/CMSIS_DSP/FilteringFunctions/arm_conv_q7.c ****     {
 301              	 .loc 1 215 0
 302 0256 D7F85C31 	 ldr r3,[r7,#348]
 303 025a 002B     	 cmp r3,#0
 304 025c E1D1     	 bne .L10
 222:../Dave/Generated/CMSIS_DSP/FilteringFunctions/arm_conv_q7.c ****     }
 223:../Dave/Generated/CMSIS_DSP/FilteringFunctions/arm_conv_q7.c **** 
 224:../Dave/Generated/CMSIS_DSP/FilteringFunctions/arm_conv_q7.c ****     /* Store the result in the accumulator in the destination buffer. */
 225:../Dave/Generated/CMSIS_DSP/FilteringFunctions/arm_conv_q7.c ****     *pOut++ = (q7_t) (__SSAT(sum >> 7u, 8));
 305              	 .loc 1 225 0
 306 025e D7F88431 	 ldr r3,[r7,#388]
 307 0262 5A1C     	 adds r2,r3,#1
 308 0264 C7F88421 	 str r2,[r7,#388]
 309              	.LBB42:
 310 0268 D7F87021 	 ldr r2,[r7,#368]
 311 026c D211     	 asrs r2,r2,#7
 312 026e C7F83421 	 str r2,[r7,#308]
 313 0272 D7F83421 	 ldr r2,[r7,#308]
 314              	
 315 0276 02F30702 	 ssat r2,#8,r2
 316              	
 317              	 .thumb
 318 027a C7F83021 	 str r2,[r7,#304]
 319 027e D7F83021 	 ldr r2,[r7,#304]
 320              	.LBE42:
 321 0282 D2B2     	 uxtb r2,r2
 322 0284 1A70     	 strb r2,[r3]
 226:../Dave/Generated/CMSIS_DSP/FilteringFunctions/arm_conv_q7.c **** 
 227:../Dave/Generated/CMSIS_DSP/FilteringFunctions/arm_conv_q7.c ****     /* Update the inputA and inputB pointers for next MAC calculation */
 228:../Dave/Generated/CMSIS_DSP/FilteringFunctions/arm_conv_q7.c ****     py = pIn2 + count;
 323              	 .loc 1 228 0
 324 0286 D7F88821 	 ldr r2,[r7,#392]
 325 028a D7F85831 	 ldr r3,[r7,#344]
 326 028e 1344     	 add r3,r3,r2
 327 0290 C7F87C31 	 str r3,[r7,#380]
 229:../Dave/Generated/CMSIS_DSP/FilteringFunctions/arm_conv_q7.c ****     px = pIn1;
 328              	 .loc 1 229 0
 329 0294 D7F88C31 	 ldr r3,[r7,#396]
 330 0298 C7F88031 	 str r3,[r7,#384]
 230:../Dave/Generated/CMSIS_DSP/FilteringFunctions/arm_conv_q7.c **** 
 231:../Dave/Generated/CMSIS_DSP/FilteringFunctions/arm_conv_q7.c ****     /* Increment the MAC count */
 232:../Dave/Generated/CMSIS_DSP/FilteringFunctions/arm_conv_q7.c ****     count++;
 331              	 .loc 1 232 0
 332 029c D7F85831 	 ldr r3,[r7,#344]
 333 02a0 0133     	 adds r3,r3,#1
 334 02a2 C7F85831 	 str r3,[r7,#344]
 233:../Dave/Generated/CMSIS_DSP/FilteringFunctions/arm_conv_q7.c **** 
 234:../Dave/Generated/CMSIS_DSP/FilteringFunctions/arm_conv_q7.c ****     /* Decrement the loop counter */
 235:../Dave/Generated/CMSIS_DSP/FilteringFunctions/arm_conv_q7.c ****     blockSize1--;
 335              	 .loc 1 235 0
 336 02a6 D7F85031 	 ldr r3,[r7,#336]
 337 02aa 013B     	 subs r3,r3,#1
 338 02ac C7F85031 	 str r3,[r7,#336]
 339              	.L4:
 167:../Dave/Generated/CMSIS_DSP/FilteringFunctions/arm_conv_q7.c ****   {
 340              	 .loc 1 167 0
 341 02b0 D7F85031 	 ldr r3,[r7,#336]
 342 02b4 002B     	 cmp r3,#0
 343 02b6 7FF4FAAE 	 bne .L11
 236:../Dave/Generated/CMSIS_DSP/FilteringFunctions/arm_conv_q7.c ****   }
 237:../Dave/Generated/CMSIS_DSP/FilteringFunctions/arm_conv_q7.c **** 
 238:../Dave/Generated/CMSIS_DSP/FilteringFunctions/arm_conv_q7.c ****   /* --------------------------   
 239:../Dave/Generated/CMSIS_DSP/FilteringFunctions/arm_conv_q7.c ****    * Initializations of stage2   
 240:../Dave/Generated/CMSIS_DSP/FilteringFunctions/arm_conv_q7.c ****    * ------------------------*/
 241:../Dave/Generated/CMSIS_DSP/FilteringFunctions/arm_conv_q7.c **** 
 242:../Dave/Generated/CMSIS_DSP/FilteringFunctions/arm_conv_q7.c ****   /* sum = x[0] * y[srcBLen-1] + x[1] * y[srcBLen-2] +...+ x[srcBLen-1] * y[0]   
 243:../Dave/Generated/CMSIS_DSP/FilteringFunctions/arm_conv_q7.c ****    * sum = x[1] * y[srcBLen-1] + x[2] * y[srcBLen-2] +...+ x[srcBLen] * y[0]   
 244:../Dave/Generated/CMSIS_DSP/FilteringFunctions/arm_conv_q7.c ****    * ....   
 245:../Dave/Generated/CMSIS_DSP/FilteringFunctions/arm_conv_q7.c ****    * sum = x[srcALen-srcBLen-2] * y[srcBLen-1] + x[srcALen] * y[srcBLen-2] +...+ x[srcALen-1] * y[0
 246:../Dave/Generated/CMSIS_DSP/FilteringFunctions/arm_conv_q7.c ****    */
 247:../Dave/Generated/CMSIS_DSP/FilteringFunctions/arm_conv_q7.c **** 
 248:../Dave/Generated/CMSIS_DSP/FilteringFunctions/arm_conv_q7.c ****   /* Working pointer of inputA */
 249:../Dave/Generated/CMSIS_DSP/FilteringFunctions/arm_conv_q7.c ****   px = pIn1;
 344              	 .loc 1 249 0
 345 02ba D7F88C31 	 ldr r3,[r7,#396]
 346 02be C7F88031 	 str r3,[r7,#384]
 250:../Dave/Generated/CMSIS_DSP/FilteringFunctions/arm_conv_q7.c **** 
 251:../Dave/Generated/CMSIS_DSP/FilteringFunctions/arm_conv_q7.c ****   /* Working pointer of inputB */
 252:../Dave/Generated/CMSIS_DSP/FilteringFunctions/arm_conv_q7.c ****   pSrc2 = pIn2 + (srcBLen - 1u);
 347              	 .loc 1 252 0
 348 02c2 3B46     	 mov r3,r7
 349 02c4 1B68     	 ldr r3,[r3]
 350 02c6 013B     	 subs r3,r3,#1
 351 02c8 D7F88821 	 ldr r2,[r7,#392]
 352 02cc 1344     	 add r3,r3,r2
 353 02ce C7F82C31 	 str r3,[r7,#300]
 253:../Dave/Generated/CMSIS_DSP/FilteringFunctions/arm_conv_q7.c ****   py = pSrc2;
 354              	 .loc 1 253 0
 355 02d2 D7F82C31 	 ldr r3,[r7,#300]
 356 02d6 C7F87C31 	 str r3,[r7,#380]
 254:../Dave/Generated/CMSIS_DSP/FilteringFunctions/arm_conv_q7.c **** 
 255:../Dave/Generated/CMSIS_DSP/FilteringFunctions/arm_conv_q7.c ****   /* count is index by which the pointer pIn1 to be incremented */
 256:../Dave/Generated/CMSIS_DSP/FilteringFunctions/arm_conv_q7.c ****   count = 0u;
 357              	 .loc 1 256 0
 358 02da 0023     	 movs r3,#0
 359 02dc C7F85831 	 str r3,[r7,#344]
 257:../Dave/Generated/CMSIS_DSP/FilteringFunctions/arm_conv_q7.c **** 
 258:../Dave/Generated/CMSIS_DSP/FilteringFunctions/arm_conv_q7.c ****   /* -------------------   
 259:../Dave/Generated/CMSIS_DSP/FilteringFunctions/arm_conv_q7.c ****    * Stage2 process   
 260:../Dave/Generated/CMSIS_DSP/FilteringFunctions/arm_conv_q7.c ****    * ------------------*/
 261:../Dave/Generated/CMSIS_DSP/FilteringFunctions/arm_conv_q7.c **** 
 262:../Dave/Generated/CMSIS_DSP/FilteringFunctions/arm_conv_q7.c ****   /* Stage2 depends on srcBLen as in this stage srcBLen number of MACS are performed.   
 263:../Dave/Generated/CMSIS_DSP/FilteringFunctions/arm_conv_q7.c ****    * So, to loop unroll over blockSize2,   
 264:../Dave/Generated/CMSIS_DSP/FilteringFunctions/arm_conv_q7.c ****    * srcBLen should be greater than or equal to 4 */
 265:../Dave/Generated/CMSIS_DSP/FilteringFunctions/arm_conv_q7.c ****   if(srcBLen >= 4u)
 360              	 .loc 1 265 0
 361 02e0 3B46     	 mov r3,r7
 362 02e2 1B68     	 ldr r3,[r3]
 363 02e4 032B     	 cmp r3,#3
 364 02e6 40F2F583 	 bls .L12
 266:../Dave/Generated/CMSIS_DSP/FilteringFunctions/arm_conv_q7.c ****   {
 267:../Dave/Generated/CMSIS_DSP/FilteringFunctions/arm_conv_q7.c ****     /* Loop unroll over blockSize2, by 4 */
 268:../Dave/Generated/CMSIS_DSP/FilteringFunctions/arm_conv_q7.c ****     blkCnt = blockSize2 >> 2u;
 365              	 .loc 1 268 0
 366 02ea D7F84431 	 ldr r3,[r7,#324]
 367 02ee 9B08     	 lsrs r3,r3,#2
 368 02f0 C7F85431 	 str r3,[r7,#340]
 269:../Dave/Generated/CMSIS_DSP/FilteringFunctions/arm_conv_q7.c **** 
 270:../Dave/Generated/CMSIS_DSP/FilteringFunctions/arm_conv_q7.c ****     while(blkCnt > 0u)
 369              	 .loc 1 270 0
 370 02f4 CBE2     	 b .L13
 371              	.L25:
 271:../Dave/Generated/CMSIS_DSP/FilteringFunctions/arm_conv_q7.c ****     {
 272:../Dave/Generated/CMSIS_DSP/FilteringFunctions/arm_conv_q7.c ****       /* Set all accumulators to zero */
 273:../Dave/Generated/CMSIS_DSP/FilteringFunctions/arm_conv_q7.c ****       acc0 = 0;
 372              	 .loc 1 273 0
 373 02f6 0023     	 movs r3,#0
 374 02f8 C7F86C31 	 str r3,[r7,#364]
 274:../Dave/Generated/CMSIS_DSP/FilteringFunctions/arm_conv_q7.c ****       acc1 = 0;
 375              	 .loc 1 274 0
 376 02fc 0023     	 movs r3,#0
 377 02fe C7F86831 	 str r3,[r7,#360]
 275:../Dave/Generated/CMSIS_DSP/FilteringFunctions/arm_conv_q7.c ****       acc2 = 0;
 378              	 .loc 1 275 0
 379 0302 0023     	 movs r3,#0
 380 0304 C7F86431 	 str r3,[r7,#356]
 276:../Dave/Generated/CMSIS_DSP/FilteringFunctions/arm_conv_q7.c ****       acc3 = 0;
 381              	 .loc 1 276 0
 382 0308 0023     	 movs r3,#0
 383 030a C7F86031 	 str r3,[r7,#352]
 277:../Dave/Generated/CMSIS_DSP/FilteringFunctions/arm_conv_q7.c **** 
 278:../Dave/Generated/CMSIS_DSP/FilteringFunctions/arm_conv_q7.c ****       /* read x[0], x[1], x[2] samples */
 279:../Dave/Generated/CMSIS_DSP/FilteringFunctions/arm_conv_q7.c ****       x0 = *(px++);
 384              	 .loc 1 279 0
 385 030e D7F88031 	 ldr r3,[r7,#384]
 386 0312 5A1C     	 adds r2,r3,#1
 387 0314 C7F88021 	 str r2,[r7,#384]
 388 0318 1B78     	 ldrb r3,[r3]
 389 031a 87F87731 	 strb r3,[r7,#375]
 280:../Dave/Generated/CMSIS_DSP/FilteringFunctions/arm_conv_q7.c ****       x1 = *(px++);
 390              	 .loc 1 280 0
 391 031e D7F88031 	 ldr r3,[r7,#384]
 392 0322 5A1C     	 adds r2,r3,#1
 393 0324 C7F88021 	 str r2,[r7,#384]
 394 0328 1B78     	 ldrb r3,[r3]
 395 032a 87F87631 	 strb r3,[r7,#374]
 281:../Dave/Generated/CMSIS_DSP/FilteringFunctions/arm_conv_q7.c ****       x2 = *(px++);
 396              	 .loc 1 281 0
 397 032e D7F88031 	 ldr r3,[r7,#384]
 398 0332 5A1C     	 adds r2,r3,#1
 399 0334 C7F88021 	 str r2,[r7,#384]
 400 0338 1B78     	 ldrb r3,[r3]
 401 033a 87F87531 	 strb r3,[r7,#373]
 282:../Dave/Generated/CMSIS_DSP/FilteringFunctions/arm_conv_q7.c **** 
 283:../Dave/Generated/CMSIS_DSP/FilteringFunctions/arm_conv_q7.c ****       /* Apply loop unrolling and compute 4 MACs simultaneously. */
 284:../Dave/Generated/CMSIS_DSP/FilteringFunctions/arm_conv_q7.c ****       k = srcBLen >> 2u;
 402              	 .loc 1 284 0
 403 033e 3B46     	 mov r3,r7
 404 0340 1B68     	 ldr r3,[r3]
 405 0342 9B08     	 lsrs r3,r3,#2
 406 0344 C7F85C31 	 str r3,[r7,#348]
 407              	.L22:
 285:../Dave/Generated/CMSIS_DSP/FilteringFunctions/arm_conv_q7.c **** 
 286:../Dave/Generated/CMSIS_DSP/FilteringFunctions/arm_conv_q7.c ****       /* First part of the processing with loop unrolling.  Compute 4 MACs at a time.   
 287:../Dave/Generated/CMSIS_DSP/FilteringFunctions/arm_conv_q7.c ****        ** a second loop below computes MACs for the remaining 1 to 3 samples. */
 288:../Dave/Generated/CMSIS_DSP/FilteringFunctions/arm_conv_q7.c ****       do
 289:../Dave/Generated/CMSIS_DSP/FilteringFunctions/arm_conv_q7.c ****       {
 290:../Dave/Generated/CMSIS_DSP/FilteringFunctions/arm_conv_q7.c ****         /* Read y[srcBLen - 1] sample */
 291:../Dave/Generated/CMSIS_DSP/FilteringFunctions/arm_conv_q7.c ****         c0 = *(py--);
 408              	 .loc 1 291 0 discriminator 1
 409 0348 D7F87C31 	 ldr r3,[r7,#380]
 410 034c 5A1E     	 subs r2,r3,#1
 411 034e C7F87C21 	 str r2,[r7,#380]
 412 0352 1B78     	 ldrb r3,[r3]
 413 0354 87F82B31 	 strb r3,[r7,#299]
 292:../Dave/Generated/CMSIS_DSP/FilteringFunctions/arm_conv_q7.c ****         /* Read y[srcBLen - 2] sample */
 293:../Dave/Generated/CMSIS_DSP/FilteringFunctions/arm_conv_q7.c ****         c1 = *(py--);
 414              	 .loc 1 293 0 discriminator 1
 415 0358 D7F87C31 	 ldr r3,[r7,#380]
 416 035c 5A1E     	 subs r2,r3,#1
 417 035e C7F87C21 	 str r2,[r7,#380]
 418 0362 1B78     	 ldrb r3,[r3]
 419 0364 87F82A31 	 strb r3,[r7,#298]
 294:../Dave/Generated/CMSIS_DSP/FilteringFunctions/arm_conv_q7.c **** 
 295:../Dave/Generated/CMSIS_DSP/FilteringFunctions/arm_conv_q7.c ****         /* Read x[3] sample */
 296:../Dave/Generated/CMSIS_DSP/FilteringFunctions/arm_conv_q7.c ****         x3 = *(px++);
 420              	 .loc 1 296 0 discriminator 1
 421 0368 D7F88031 	 ldr r3,[r7,#384]
 422 036c 5A1C     	 adds r2,r3,#1
 423 036e C7F88021 	 str r2,[r7,#384]
 424 0372 1B78     	 ldrb r3,[r3]
 425 0374 87F82931 	 strb r3,[r7,#297]
 297:../Dave/Generated/CMSIS_DSP/FilteringFunctions/arm_conv_q7.c **** 
 298:../Dave/Generated/CMSIS_DSP/FilteringFunctions/arm_conv_q7.c ****         /* x[0] and x[1] are packed */
 299:../Dave/Generated/CMSIS_DSP/FilteringFunctions/arm_conv_q7.c ****         in1 = (q15_t) x0;
 426              	 .loc 1 299 0 discriminator 1
 427 0378 97F97731 	 ldrsb r3,[r7,#375]
 428 037c A7F84231 	 strh r3,[r7,#322]
 300:../Dave/Generated/CMSIS_DSP/FilteringFunctions/arm_conv_q7.c ****         in2 = (q15_t) x1;
 429              	 .loc 1 300 0 discriminator 1
 430 0380 97F97631 	 ldrsb r3,[r7,#374]
 431 0384 A7F84031 	 strh r3,[r7,#320]
 301:../Dave/Generated/CMSIS_DSP/FilteringFunctions/arm_conv_q7.c **** 
 302:../Dave/Generated/CMSIS_DSP/FilteringFunctions/arm_conv_q7.c ****         input1 = ((q31_t) in1 & 0x0000FFFF) | ((q31_t) in2 << 16u);
 432              	 .loc 1 302 0 discriminator 1
 433 0388 B7F94231 	 ldrsh r3,[r7,#322]
 434 038c 9AB2     	 uxth r2,r3
 435 038e B7F94031 	 ldrsh r3,[r7,#320]
 436 0392 1B04     	 lsls r3,r3,#16
 437 0394 1343     	 orrs r3,r3,r2
 438 0396 C7F83C31 	 str r3,[r7,#316]
 303:../Dave/Generated/CMSIS_DSP/FilteringFunctions/arm_conv_q7.c **** 
 304:../Dave/Generated/CMSIS_DSP/FilteringFunctions/arm_conv_q7.c ****         /* y[srcBLen - 1]   and y[srcBLen - 2] are packed */
 305:../Dave/Generated/CMSIS_DSP/FilteringFunctions/arm_conv_q7.c ****         in1 = (q15_t) c0;
 439              	 .loc 1 305 0 discriminator 1
 440 039a 97F92B31 	 ldrsb r3,[r7,#299]
 441 039e A7F84231 	 strh r3,[r7,#322]
 306:../Dave/Generated/CMSIS_DSP/FilteringFunctions/arm_conv_q7.c ****         in2 = (q15_t) c1;
 442              	 .loc 1 306 0 discriminator 1
 443 03a2 97F92A31 	 ldrsb r3,[r7,#298]
 444 03a6 A7F84031 	 strh r3,[r7,#320]
 307:../Dave/Generated/CMSIS_DSP/FilteringFunctions/arm_conv_q7.c **** 
 308:../Dave/Generated/CMSIS_DSP/FilteringFunctions/arm_conv_q7.c ****         input2 = ((q31_t) in1 & 0x0000FFFF) | ((q31_t) in2 << 16u);
 445              	 .loc 1 308 0 discriminator 1
 446 03aa B7F94231 	 ldrsh r3,[r7,#322]
 447 03ae 9AB2     	 uxth r2,r3
 448 03b0 B7F94031 	 ldrsh r3,[r7,#320]
 449 03b4 1B04     	 lsls r3,r3,#16
 450 03b6 1343     	 orrs r3,r3,r2
 451 03b8 C7F83831 	 str r3,[r7,#312]
 309:../Dave/Generated/CMSIS_DSP/FilteringFunctions/arm_conv_q7.c **** 
 310:../Dave/Generated/CMSIS_DSP/FilteringFunctions/arm_conv_q7.c ****         /* acc0 += x[0] * y[srcBLen - 1] + x[1] * y[srcBLen - 2]  */
 311:../Dave/Generated/CMSIS_DSP/FilteringFunctions/arm_conv_q7.c ****         acc0 = __SMLAD(input1, input2, acc0);
 452              	 .loc 1 311 0 discriminator 1
 453 03bc D7F83C11 	 ldr r1,[r7,#316]
 454 03c0 D7F83821 	 ldr r2,[r7,#312]
 455 03c4 D7F86C31 	 ldr r3,[r7,#364]
 456 03c8 C7F8CC10 	 str r1,[r7,#204]
 457 03cc C7F8C820 	 str r2,[r7,#200]
 458 03d0 C7F8C430 	 str r3,[r7,#196]
 459              	.LBB43:
 460              	.LBB44:
1204:C:/Workspaces/DAVE-4.3/WS_2016_09_02/Flightcontroller_PWM_CopterRocks_Working/Libraries/CMSIS/Include\cmsis_gcc.h ****   return(result);
 461              	 .loc 2 1204 0 discriminator 1
 462 03d4 D7F8CC30 	 ldr r3,[r7,#204]
 463 03d8 D7F8C820 	 ldr r2,[r7,#200]
 464 03dc D7F8C410 	 ldr r1,[r7,#196]
 465              	
 466 03e0 23FB0213 	 smlad r3,r3,r2,r1
 467              	
 468              	 .thumb
 469 03e4 C7F8C030 	 str r3,[r7,#192]
 470              	 .loc 2 1205 0 discriminator 1
 471 03e8 D7F8C030 	 ldr r3,[r7,#192]
 472              	.LBE44:
 473              	.LBE43:
 474              	 .loc 1 311 0 discriminator 1
 475 03ec C7F86C31 	 str r3,[r7,#364]
 312:../Dave/Generated/CMSIS_DSP/FilteringFunctions/arm_conv_q7.c **** 
 313:../Dave/Generated/CMSIS_DSP/FilteringFunctions/arm_conv_q7.c ****         /* x[1] and x[2] are packed */
 314:../Dave/Generated/CMSIS_DSP/FilteringFunctions/arm_conv_q7.c ****         in1 = (q15_t) x1;
 476              	 .loc 1 314 0 discriminator 1
 477 03f0 97F97631 	 ldrsb r3,[r7,#374]
 478 03f4 A7F84231 	 strh r3,[r7,#322]
 315:../Dave/Generated/CMSIS_DSP/FilteringFunctions/arm_conv_q7.c ****         in2 = (q15_t) x2;
 479              	 .loc 1 315 0 discriminator 1
 480 03f8 97F97531 	 ldrsb r3,[r7,#373]
 481 03fc A7F84031 	 strh r3,[r7,#320]
 316:../Dave/Generated/CMSIS_DSP/FilteringFunctions/arm_conv_q7.c **** 
 317:../Dave/Generated/CMSIS_DSP/FilteringFunctions/arm_conv_q7.c ****         input1 = ((q31_t) in1 & 0x0000FFFF) | ((q31_t) in2 << 16u);
 482              	 .loc 1 317 0 discriminator 1
 483 0400 B7F94231 	 ldrsh r3,[r7,#322]
 484 0404 9AB2     	 uxth r2,r3
 485 0406 B7F94031 	 ldrsh r3,[r7,#320]
 486 040a 1B04     	 lsls r3,r3,#16
 487 040c 1343     	 orrs r3,r3,r2
 488 040e C7F83C31 	 str r3,[r7,#316]
 318:../Dave/Generated/CMSIS_DSP/FilteringFunctions/arm_conv_q7.c **** 
 319:../Dave/Generated/CMSIS_DSP/FilteringFunctions/arm_conv_q7.c ****         /* acc1 += x[1] * y[srcBLen - 1] + x[2] * y[srcBLen - 2]  */
 320:../Dave/Generated/CMSIS_DSP/FilteringFunctions/arm_conv_q7.c ****         acc1 = __SMLAD(input1, input2, acc1);
 489              	 .loc 1 320 0 discriminator 1
 490 0412 D7F83C11 	 ldr r1,[r7,#316]
 491 0416 D7F83821 	 ldr r2,[r7,#312]
 492 041a D7F86831 	 ldr r3,[r7,#360]
 493 041e C7F8BC10 	 str r1,[r7,#188]
 494 0422 C7F8B820 	 str r2,[r7,#184]
 495 0426 C7F8B430 	 str r3,[r7,#180]
 496              	.LBB45:
 497              	.LBB46:
1204:C:/Workspaces/DAVE-4.3/WS_2016_09_02/Flightcontroller_PWM_CopterRocks_Working/Libraries/CMSIS/Include\cmsis_gcc.h ****   return(result);
 498              	 .loc 2 1204 0 discriminator 1
 499 042a D7F8BC30 	 ldr r3,[r7,#188]
 500 042e D7F8B820 	 ldr r2,[r7,#184]
 501 0432 D7F8B410 	 ldr r1,[r7,#180]
 502              	
 503 0436 23FB0213 	 smlad r3,r3,r2,r1
 504              	
 505              	 .thumb
 506 043a C7F8B030 	 str r3,[r7,#176]
 507              	 .loc 2 1205 0 discriminator 1
 508 043e D7F8B030 	 ldr r3,[r7,#176]
 509              	.LBE46:
 510              	.LBE45:
 511              	 .loc 1 320 0 discriminator 1
 512 0442 C7F86831 	 str r3,[r7,#360]
 321:../Dave/Generated/CMSIS_DSP/FilteringFunctions/arm_conv_q7.c **** 
 322:../Dave/Generated/CMSIS_DSP/FilteringFunctions/arm_conv_q7.c ****         /* x[2] and x[3] are packed */
 323:../Dave/Generated/CMSIS_DSP/FilteringFunctions/arm_conv_q7.c ****         in1 = (q15_t) x2;
 513              	 .loc 1 323 0 discriminator 1
 514 0446 97F97531 	 ldrsb r3,[r7,#373]
 515 044a A7F84231 	 strh r3,[r7,#322]
 324:../Dave/Generated/CMSIS_DSP/FilteringFunctions/arm_conv_q7.c ****         in2 = (q15_t) x3;
 516              	 .loc 1 324 0 discriminator 1
 517 044e 97F92931 	 ldrsb r3,[r7,#297]
 518 0452 A7F84031 	 strh r3,[r7,#320]
 325:../Dave/Generated/CMSIS_DSP/FilteringFunctions/arm_conv_q7.c **** 
 326:../Dave/Generated/CMSIS_DSP/FilteringFunctions/arm_conv_q7.c ****         input1 = ((q31_t) in1 & 0x0000FFFF) | ((q31_t) in2 << 16u);
 519              	 .loc 1 326 0 discriminator 1
 520 0456 B7F94231 	 ldrsh r3,[r7,#322]
 521 045a 9AB2     	 uxth r2,r3
 522 045c B7F94031 	 ldrsh r3,[r7,#320]
 523 0460 1B04     	 lsls r3,r3,#16
 524 0462 1343     	 orrs r3,r3,r2
 525 0464 C7F83C31 	 str r3,[r7,#316]
 327:../Dave/Generated/CMSIS_DSP/FilteringFunctions/arm_conv_q7.c **** 
 328:../Dave/Generated/CMSIS_DSP/FilteringFunctions/arm_conv_q7.c ****         /* acc2 += x[2] * y[srcBLen - 1] + x[3] * y[srcBLen - 2]  */
 329:../Dave/Generated/CMSIS_DSP/FilteringFunctions/arm_conv_q7.c ****         acc2 = __SMLAD(input1, input2, acc2);
 526              	 .loc 1 329 0 discriminator 1
 527 0468 D7F83C11 	 ldr r1,[r7,#316]
 528 046c D7F83821 	 ldr r2,[r7,#312]
 529 0470 D7F86431 	 ldr r3,[r7,#356]
 530 0474 C7F8AC10 	 str r1,[r7,#172]
 531 0478 C7F8A820 	 str r2,[r7,#168]
 532 047c C7F8A430 	 str r3,[r7,#164]
 533              	.LBB47:
 534              	.LBB48:
1204:C:/Workspaces/DAVE-4.3/WS_2016_09_02/Flightcontroller_PWM_CopterRocks_Working/Libraries/CMSIS/Include\cmsis_gcc.h ****   return(result);
 535              	 .loc 2 1204 0 discriminator 1
 536 0480 D7F8AC30 	 ldr r3,[r7,#172]
 537 0484 D7F8A820 	 ldr r2,[r7,#168]
 538 0488 D7F8A410 	 ldr r1,[r7,#164]
 539              	
 540 048c 23FB0213 	 smlad r3,r3,r2,r1
 541              	
 542              	 .thumb
 543 0490 C7F8A030 	 str r3,[r7,#160]
 544              	 .loc 2 1205 0 discriminator 1
 545 0494 D7F8A030 	 ldr r3,[r7,#160]
 546              	.LBE48:
 547              	.LBE47:
 548              	 .loc 1 329 0 discriminator 1
 549 0498 C7F86431 	 str r3,[r7,#356]
 330:../Dave/Generated/CMSIS_DSP/FilteringFunctions/arm_conv_q7.c **** 
 331:../Dave/Generated/CMSIS_DSP/FilteringFunctions/arm_conv_q7.c ****         /* Read x[4] sample */
 332:../Dave/Generated/CMSIS_DSP/FilteringFunctions/arm_conv_q7.c ****         x0 = *(px++);
 550              	 .loc 1 332 0 discriminator 1
 551 049c D7F88031 	 ldr r3,[r7,#384]
 552 04a0 5A1C     	 adds r2,r3,#1
 553 04a2 C7F88021 	 str r2,[r7,#384]
 554 04a6 1B78     	 ldrb r3,[r3]
 555 04a8 87F87731 	 strb r3,[r7,#375]
 333:../Dave/Generated/CMSIS_DSP/FilteringFunctions/arm_conv_q7.c **** 
 334:../Dave/Generated/CMSIS_DSP/FilteringFunctions/arm_conv_q7.c ****         /* x[3] and x[4] are packed */
 335:../Dave/Generated/CMSIS_DSP/FilteringFunctions/arm_conv_q7.c ****         in1 = (q15_t) x3;
 556              	 .loc 1 335 0 discriminator 1
 557 04ac 97F92931 	 ldrsb r3,[r7,#297]
 558 04b0 A7F84231 	 strh r3,[r7,#322]
 336:../Dave/Generated/CMSIS_DSP/FilteringFunctions/arm_conv_q7.c ****         in2 = (q15_t) x0;
 559              	 .loc 1 336 0 discriminator 1
 560 04b4 97F97731 	 ldrsb r3,[r7,#375]
 561 04b8 A7F84031 	 strh r3,[r7,#320]
 337:../Dave/Generated/CMSIS_DSP/FilteringFunctions/arm_conv_q7.c **** 
 338:../Dave/Generated/CMSIS_DSP/FilteringFunctions/arm_conv_q7.c ****         input1 = ((q31_t) in1 & 0x0000FFFF) | ((q31_t) in2 << 16u);
 562              	 .loc 1 338 0 discriminator 1
 563 04bc B7F94231 	 ldrsh r3,[r7,#322]
 564 04c0 9AB2     	 uxth r2,r3
 565 04c2 B7F94031 	 ldrsh r3,[r7,#320]
 566 04c6 1B04     	 lsls r3,r3,#16
 567 04c8 1343     	 orrs r3,r3,r2
 568 04ca C7F83C31 	 str r3,[r7,#316]
 339:../Dave/Generated/CMSIS_DSP/FilteringFunctions/arm_conv_q7.c **** 
 340:../Dave/Generated/CMSIS_DSP/FilteringFunctions/arm_conv_q7.c ****         /* acc3 += x[3] * y[srcBLen - 1] + x[4] * y[srcBLen - 2]  */
 341:../Dave/Generated/CMSIS_DSP/FilteringFunctions/arm_conv_q7.c ****         acc3 = __SMLAD(input1, input2, acc3);
 569              	 .loc 1 341 0 discriminator 1
 570 04ce D7F83C11 	 ldr r1,[r7,#316]
 571 04d2 D7F83821 	 ldr r2,[r7,#312]
 572 04d6 D7F86031 	 ldr r3,[r7,#352]
 573 04da C7F89C10 	 str r1,[r7,#156]
 574 04de C7F89820 	 str r2,[r7,#152]
 575 04e2 C7F89430 	 str r3,[r7,#148]
 576              	.LBB49:
 577              	.LBB50:
1204:C:/Workspaces/DAVE-4.3/WS_2016_09_02/Flightcontroller_PWM_CopterRocks_Working/Libraries/CMSIS/Include\cmsis_gcc.h ****   return(result);
 578              	 .loc 2 1204 0 discriminator 1
 579 04e6 D7F89C30 	 ldr r3,[r7,#156]
 580 04ea D7F89820 	 ldr r2,[r7,#152]
 581 04ee D7F89410 	 ldr r1,[r7,#148]
 582              	
 583 04f2 23FB0212 	 smlad r2,r3,r2,r1
 584              	
 585              	 .thumb
 586 04f6 07F19003 	 add r3,r7,#144
 587 04fa 1A60     	 str r2,[r3]
 588              	 .loc 2 1205 0 discriminator 1
 589 04fc 07F19003 	 add r3,r7,#144
 590 0500 1B68     	 ldr r3,[r3]
 591              	.LBE50:
 592              	.LBE49:
 593              	 .loc 1 341 0 discriminator 1
 594 0502 C7F86031 	 str r3,[r7,#352]
 342:../Dave/Generated/CMSIS_DSP/FilteringFunctions/arm_conv_q7.c **** 
 343:../Dave/Generated/CMSIS_DSP/FilteringFunctions/arm_conv_q7.c ****         /* Read y[srcBLen - 3] sample */
 344:../Dave/Generated/CMSIS_DSP/FilteringFunctions/arm_conv_q7.c ****         c0 = *(py--);
 595              	 .loc 1 344 0 discriminator 1
 596 0506 D7F87C31 	 ldr r3,[r7,#380]
 597 050a 5A1E     	 subs r2,r3,#1
 598 050c C7F87C21 	 str r2,[r7,#380]
 599 0510 1B78     	 ldrb r3,[r3]
 600 0512 87F82B31 	 strb r3,[r7,#299]
 345:../Dave/Generated/CMSIS_DSP/FilteringFunctions/arm_conv_q7.c ****         /* Read y[srcBLen - 4] sample */
 346:../Dave/Generated/CMSIS_DSP/FilteringFunctions/arm_conv_q7.c ****         c1 = *(py--);
 601              	 .loc 1 346 0 discriminator 1
 602 0516 D7F87C31 	 ldr r3,[r7,#380]
 603 051a 5A1E     	 subs r2,r3,#1
 604 051c C7F87C21 	 str r2,[r7,#380]
 605 0520 1B78     	 ldrb r3,[r3]
 606 0522 87F82A31 	 strb r3,[r7,#298]
 347:../Dave/Generated/CMSIS_DSP/FilteringFunctions/arm_conv_q7.c **** 
 348:../Dave/Generated/CMSIS_DSP/FilteringFunctions/arm_conv_q7.c ****         /* Read x[5] sample */
 349:../Dave/Generated/CMSIS_DSP/FilteringFunctions/arm_conv_q7.c ****         x1 = *(px++);
 607              	 .loc 1 349 0 discriminator 1
 608 0526 D7F88031 	 ldr r3,[r7,#384]
 609 052a 5A1C     	 adds r2,r3,#1
 610 052c C7F88021 	 str r2,[r7,#384]
 611 0530 1B78     	 ldrb r3,[r3]
 612 0532 87F87631 	 strb r3,[r7,#374]
 350:../Dave/Generated/CMSIS_DSP/FilteringFunctions/arm_conv_q7.c **** 
 351:../Dave/Generated/CMSIS_DSP/FilteringFunctions/arm_conv_q7.c ****         /* x[2] and x[3] are packed */
 352:../Dave/Generated/CMSIS_DSP/FilteringFunctions/arm_conv_q7.c ****         in1 = (q15_t) x2;
 613              	 .loc 1 352 0 discriminator 1
 614 0536 97F97531 	 ldrsb r3,[r7,#373]
 615 053a A7F84231 	 strh r3,[r7,#322]
 353:../Dave/Generated/CMSIS_DSP/FilteringFunctions/arm_conv_q7.c ****         in2 = (q15_t) x3;
 616              	 .loc 1 353 0 discriminator 1
 617 053e 97F92931 	 ldrsb r3,[r7,#297]
 618 0542 A7F84031 	 strh r3,[r7,#320]
 354:../Dave/Generated/CMSIS_DSP/FilteringFunctions/arm_conv_q7.c **** 
 355:../Dave/Generated/CMSIS_DSP/FilteringFunctions/arm_conv_q7.c ****         input1 = ((q31_t) in1 & 0x0000FFFF) | ((q31_t) in2 << 16u);
 619              	 .loc 1 355 0 discriminator 1
 620 0546 B7F94231 	 ldrsh r3,[r7,#322]
 621 054a 9AB2     	 uxth r2,r3
 622 054c B7F94031 	 ldrsh r3,[r7,#320]
 623 0550 1B04     	 lsls r3,r3,#16
 624 0552 1343     	 orrs r3,r3,r2
 625 0554 C7F83C31 	 str r3,[r7,#316]
 356:../Dave/Generated/CMSIS_DSP/FilteringFunctions/arm_conv_q7.c **** 
 357:../Dave/Generated/CMSIS_DSP/FilteringFunctions/arm_conv_q7.c ****         /* y[srcBLen - 3] and y[srcBLen - 4] are packed */
 358:../Dave/Generated/CMSIS_DSP/FilteringFunctions/arm_conv_q7.c ****         in1 = (q15_t) c0;
 626              	 .loc 1 358 0 discriminator 1
 627 0558 97F92B31 	 ldrsb r3,[r7,#299]
 628 055c A7F84231 	 strh r3,[r7,#322]
 359:../Dave/Generated/CMSIS_DSP/FilteringFunctions/arm_conv_q7.c ****         in2 = (q15_t) c1;
 629              	 .loc 1 359 0 discriminator 1
 630 0560 97F92A31 	 ldrsb r3,[r7,#298]
 631 0564 A7F84031 	 strh r3,[r7,#320]
 360:../Dave/Generated/CMSIS_DSP/FilteringFunctions/arm_conv_q7.c **** 
 361:../Dave/Generated/CMSIS_DSP/FilteringFunctions/arm_conv_q7.c ****         input2 = ((q31_t) in1 & 0x0000FFFF) | ((q31_t) in2 << 16u);
 632              	 .loc 1 361 0 discriminator 1
 633 0568 B7F94231 	 ldrsh r3,[r7,#322]
 634 056c 9AB2     	 uxth r2,r3
 635 056e B7F94031 	 ldrsh r3,[r7,#320]
 636 0572 1B04     	 lsls r3,r3,#16
 637 0574 1343     	 orrs r3,r3,r2
 638 0576 C7F83831 	 str r3,[r7,#312]
 362:../Dave/Generated/CMSIS_DSP/FilteringFunctions/arm_conv_q7.c **** 
 363:../Dave/Generated/CMSIS_DSP/FilteringFunctions/arm_conv_q7.c ****         /* acc0 += x[2] * y[srcBLen - 3] + x[3] * y[srcBLen - 4]  */
 364:../Dave/Generated/CMSIS_DSP/FilteringFunctions/arm_conv_q7.c ****         acc0 = __SMLAD(input1, input2, acc0);
 639              	 .loc 1 364 0 discriminator 1
 640 057a D7F83C01 	 ldr r0,[r7,#316]
 641 057e D7F83811 	 ldr r1,[r7,#312]
 642 0582 D7F86C21 	 ldr r2,[r7,#364]
 643 0586 07F18C03 	 add r3,r7,#140
 644 058a 1860     	 str r0,[r3]
 645 058c 07F18803 	 add r3,r7,#136
 646 0590 1960     	 str r1,[r3]
 647 0592 07F18403 	 add r3,r7,#132
 648 0596 1A60     	 str r2,[r3]
 649              	.LBB51:
 650              	.LBB52:
1204:C:/Workspaces/DAVE-4.3/WS_2016_09_02/Flightcontroller_PWM_CopterRocks_Working/Libraries/CMSIS/Include\cmsis_gcc.h ****   return(result);
 651              	 .loc 2 1204 0 discriminator 1
 652 0598 07F18C03 	 add r3,r7,#140
 653 059c 1B68     	 ldr r3,[r3]
 654 059e 07F18802 	 add r2,r7,#136
 655 05a2 1268     	 ldr r2,[r2]
 656 05a4 07F18401 	 add r1,r7,#132
 657 05a8 0968     	 ldr r1,[r1]
 658              	
 659 05aa 23FB0212 	 smlad r2,r3,r2,r1
 660              	
 661              	 .thumb
 662 05ae 07F18003 	 add r3,r7,#128
 663 05b2 1A60     	 str r2,[r3]
 664              	 .loc 2 1205 0 discriminator 1
 665 05b4 07F18003 	 add r3,r7,#128
 666 05b8 1B68     	 ldr r3,[r3]
 667              	.LBE52:
 668              	.LBE51:
 669              	 .loc 1 364 0 discriminator 1
 670 05ba C7F86C31 	 str r3,[r7,#364]
 365:../Dave/Generated/CMSIS_DSP/FilteringFunctions/arm_conv_q7.c **** 
 366:../Dave/Generated/CMSIS_DSP/FilteringFunctions/arm_conv_q7.c ****         /* x[3] and x[4] are packed */
 367:../Dave/Generated/CMSIS_DSP/FilteringFunctions/arm_conv_q7.c ****         in1 = (q15_t) x3;
 671              	 .loc 1 367 0 discriminator 1
 672 05be 97F92931 	 ldrsb r3,[r7,#297]
 673 05c2 A7F84231 	 strh r3,[r7,#322]
 368:../Dave/Generated/CMSIS_DSP/FilteringFunctions/arm_conv_q7.c ****         in2 = (q15_t) x0;
 674              	 .loc 1 368 0 discriminator 1
 675 05c6 97F97731 	 ldrsb r3,[r7,#375]
 676 05ca A7F84031 	 strh r3,[r7,#320]
 369:../Dave/Generated/CMSIS_DSP/FilteringFunctions/arm_conv_q7.c **** 
 370:../Dave/Generated/CMSIS_DSP/FilteringFunctions/arm_conv_q7.c ****         input1 = ((q31_t) in1 & 0x0000FFFF) | ((q31_t) in2 << 16u);
 677              	 .loc 1 370 0 discriminator 1
 678 05ce B7F94231 	 ldrsh r3,[r7,#322]
 679 05d2 9AB2     	 uxth r2,r3
 680 05d4 B7F94031 	 ldrsh r3,[r7,#320]
 681 05d8 1B04     	 lsls r3,r3,#16
 682 05da 1343     	 orrs r3,r3,r2
 683 05dc C7F83C31 	 str r3,[r7,#316]
 371:../Dave/Generated/CMSIS_DSP/FilteringFunctions/arm_conv_q7.c **** 
 372:../Dave/Generated/CMSIS_DSP/FilteringFunctions/arm_conv_q7.c ****         /* acc1 += x[3] * y[srcBLen - 3] + x[4] * y[srcBLen - 4]  */
 373:../Dave/Generated/CMSIS_DSP/FilteringFunctions/arm_conv_q7.c ****         acc1 = __SMLAD(input1, input2, acc1);
 684              	 .loc 1 373 0 discriminator 1
 685 05e0 D7F83C01 	 ldr r0,[r7,#316]
 686 05e4 D7F83811 	 ldr r1,[r7,#312]
 687 05e8 D7F86821 	 ldr r2,[r7,#360]
 688 05ec 07F17C03 	 add r3,r7,#124
 689 05f0 1860     	 str r0,[r3]
 690 05f2 07F17803 	 add r3,r7,#120
 691 05f6 1960     	 str r1,[r3]
 692 05f8 07F17403 	 add r3,r7,#116
 693 05fc 1A60     	 str r2,[r3]
 694              	.LBB53:
 695              	.LBB54:
1204:C:/Workspaces/DAVE-4.3/WS_2016_09_02/Flightcontroller_PWM_CopterRocks_Working/Libraries/CMSIS/Include\cmsis_gcc.h ****   return(result);
 696              	 .loc 2 1204 0 discriminator 1
 697 05fe 07F17C03 	 add r3,r7,#124
 698 0602 1B68     	 ldr r3,[r3]
 699 0604 07F17802 	 add r2,r7,#120
 700 0608 1268     	 ldr r2,[r2]
 701 060a 07F17401 	 add r1,r7,#116
 702 060e 0968     	 ldr r1,[r1]
 703              	
 704 0610 23FB0212 	 smlad r2,r3,r2,r1
 705              	
 706              	 .thumb
 707 0614 07F17003 	 add r3,r7,#112
 708 0618 1A60     	 str r2,[r3]
 709              	 .loc 2 1205 0 discriminator 1
 710 061a 07F17003 	 add r3,r7,#112
 711 061e 1B68     	 ldr r3,[r3]
 712              	.LBE54:
 713              	.LBE53:
 714              	 .loc 1 373 0 discriminator 1
 715 0620 C7F86831 	 str r3,[r7,#360]
 374:../Dave/Generated/CMSIS_DSP/FilteringFunctions/arm_conv_q7.c **** 
 375:../Dave/Generated/CMSIS_DSP/FilteringFunctions/arm_conv_q7.c ****         /* x[4] and x[5] are packed */
