   1              	 .syntax unified
   2              	 .cpu cortex-m4
   3              	 .eabi_attribute 27,3
   4              	 .fpu fpv4-sp-d16
   5              	 .eabi_attribute 20,1
   6              	 .eabi_attribute 21,1
   7              	 .eabi_attribute 23,3
   8              	 .eabi_attribute 24,1
   9              	 .eabi_attribute 25,1
  10              	 .eabi_attribute 26,1
  11              	 .eabi_attribute 30,6
  12              	 .eabi_attribute 34,1
  13              	 .eabi_attribute 18,4
  14              	 .thumb
  15              	 .file "arm_correlate_q15.c"
  16              	 .text
  17              	.Ltext0:
  18              	 .cfi_sections .debug_frame
  19              	 .section .text.arm_correlate_q15,"ax",%progbits
  20              	 .align 2
  21              	 .global arm_correlate_q15
  22              	 .thumb
  23              	 .thumb_func
  25              	arm_correlate_q15:
  26              	.LFB139:
  27              	 .file 1 "../Dave/Generated/CMSIS_DSP/FilteringFunctions/arm_correlate_q15.c"
   1:../Dave/Generated/CMSIS_DSP/FilteringFunctions/arm_correlate_q15.c **** /* ----------------------------------------------------------------------   
   2:../Dave/Generated/CMSIS_DSP/FilteringFunctions/arm_correlate_q15.c **** * Copyright (C) 2010-2014 ARM Limited. All rights reserved.   
   3:../Dave/Generated/CMSIS_DSP/FilteringFunctions/arm_correlate_q15.c **** *   
   4:../Dave/Generated/CMSIS_DSP/FilteringFunctions/arm_correlate_q15.c **** * $Date:        12. March 2014
   5:../Dave/Generated/CMSIS_DSP/FilteringFunctions/arm_correlate_q15.c **** * $Revision: 	V1.4.4
   6:../Dave/Generated/CMSIS_DSP/FilteringFunctions/arm_correlate_q15.c **** *   
   7:../Dave/Generated/CMSIS_DSP/FilteringFunctions/arm_correlate_q15.c **** * Project: 	    CMSIS DSP Library   
   8:../Dave/Generated/CMSIS_DSP/FilteringFunctions/arm_correlate_q15.c **** * Title:		arm_correlate_q15.c   
   9:../Dave/Generated/CMSIS_DSP/FilteringFunctions/arm_correlate_q15.c **** *   
  10:../Dave/Generated/CMSIS_DSP/FilteringFunctions/arm_correlate_q15.c **** * Description:	Correlation of Q15 sequences. 
  11:../Dave/Generated/CMSIS_DSP/FilteringFunctions/arm_correlate_q15.c **** *   
  12:../Dave/Generated/CMSIS_DSP/FilteringFunctions/arm_correlate_q15.c **** * Target Processor: Cortex-M4/Cortex-M3/Cortex-M0
  13:../Dave/Generated/CMSIS_DSP/FilteringFunctions/arm_correlate_q15.c **** *  
  14:../Dave/Generated/CMSIS_DSP/FilteringFunctions/arm_correlate_q15.c **** * Redistribution and use in source and binary forms, with or without 
  15:../Dave/Generated/CMSIS_DSP/FilteringFunctions/arm_correlate_q15.c **** * modification, are permitted provided that the following conditions
  16:../Dave/Generated/CMSIS_DSP/FilteringFunctions/arm_correlate_q15.c **** * are met:
  17:../Dave/Generated/CMSIS_DSP/FilteringFunctions/arm_correlate_q15.c **** *   - Redistributions of source code must retain the above copyright
  18:../Dave/Generated/CMSIS_DSP/FilteringFunctions/arm_correlate_q15.c **** *     notice, this list of conditions and the following disclaimer.
  19:../Dave/Generated/CMSIS_DSP/FilteringFunctions/arm_correlate_q15.c **** *   - Redistributions in binary form must reproduce the above copyright
  20:../Dave/Generated/CMSIS_DSP/FilteringFunctions/arm_correlate_q15.c **** *     notice, this list of conditions and the following disclaimer in
  21:../Dave/Generated/CMSIS_DSP/FilteringFunctions/arm_correlate_q15.c **** *     the documentation and/or other materials provided with the 
  22:../Dave/Generated/CMSIS_DSP/FilteringFunctions/arm_correlate_q15.c **** *     distribution.
  23:../Dave/Generated/CMSIS_DSP/FilteringFunctions/arm_correlate_q15.c **** *   - Neither the name of ARM LIMITED nor the names of its contributors
  24:../Dave/Generated/CMSIS_DSP/FilteringFunctions/arm_correlate_q15.c **** *     may be used to endorse or promote products derived from this
  25:../Dave/Generated/CMSIS_DSP/FilteringFunctions/arm_correlate_q15.c **** *     software without specific prior written permission.
  26:../Dave/Generated/CMSIS_DSP/FilteringFunctions/arm_correlate_q15.c **** *
  27:../Dave/Generated/CMSIS_DSP/FilteringFunctions/arm_correlate_q15.c **** * THIS SOFTWARE IS PROVIDED BY THE COPYRIGHT HOLDERS AND CONTRIBUTORS
  28:../Dave/Generated/CMSIS_DSP/FilteringFunctions/arm_correlate_q15.c **** * "AS IS" AND ANY EXPRESS OR IMPLIED WARRANTIES, INCLUDING, BUT NOT
  29:../Dave/Generated/CMSIS_DSP/FilteringFunctions/arm_correlate_q15.c **** * LIMITED TO, THE IMPLIED WARRANTIES OF MERCHANTABILITY AND FITNESS
  30:../Dave/Generated/CMSIS_DSP/FilteringFunctions/arm_correlate_q15.c **** * FOR A PARTICULAR PURPOSE ARE DISCLAIMED. IN NO EVENT SHALL THE 
  31:../Dave/Generated/CMSIS_DSP/FilteringFunctions/arm_correlate_q15.c **** * COPYRIGHT OWNER OR CONTRIBUTORS BE LIABLE FOR ANY DIRECT, INDIRECT,
  32:../Dave/Generated/CMSIS_DSP/FilteringFunctions/arm_correlate_q15.c **** * INCIDENTAL, SPECIAL, EXEMPLARY, OR CONSEQUENTIAL DAMAGES (INCLUDING,
  33:../Dave/Generated/CMSIS_DSP/FilteringFunctions/arm_correlate_q15.c **** * BUT NOT LIMITED TO, PROCUREMENT OF SUBSTITUTE GOODS OR SERVICES;
  34:../Dave/Generated/CMSIS_DSP/FilteringFunctions/arm_correlate_q15.c **** * LOSS OF USE, DATA, OR PROFITS; OR BUSINESS INTERRUPTION) HOWEVER
  35:../Dave/Generated/CMSIS_DSP/FilteringFunctions/arm_correlate_q15.c **** * CAUSED AND ON ANY THEORY OF LIABILITY, WHETHER IN CONTRACT, STRICT
  36:../Dave/Generated/CMSIS_DSP/FilteringFunctions/arm_correlate_q15.c **** * LIABILITY, OR TORT (INCLUDING NEGLIGENCE OR OTHERWISE) ARISING IN
  37:../Dave/Generated/CMSIS_DSP/FilteringFunctions/arm_correlate_q15.c **** * ANY WAY OUT OF THE USE OF THIS SOFTWARE, EVEN IF ADVISED OF THE
  38:../Dave/Generated/CMSIS_DSP/FilteringFunctions/arm_correlate_q15.c **** * POSSIBILITY OF SUCH DAMAGE.  
  39:../Dave/Generated/CMSIS_DSP/FilteringFunctions/arm_correlate_q15.c **** * -------------------------------------------------------------------- */
  40:../Dave/Generated/CMSIS_DSP/FilteringFunctions/arm_correlate_q15.c **** 
  41:../Dave/Generated/CMSIS_DSP/FilteringFunctions/arm_correlate_q15.c **** #include "CMSIS_DSP/cmsis_dsp.h"
  42:../Dave/Generated/CMSIS_DSP/FilteringFunctions/arm_correlate_q15.c **** 
  43:../Dave/Generated/CMSIS_DSP/FilteringFunctions/arm_correlate_q15.c **** /**   
  44:../Dave/Generated/CMSIS_DSP/FilteringFunctions/arm_correlate_q15.c ****  * @ingroup groupFilters   
  45:../Dave/Generated/CMSIS_DSP/FilteringFunctions/arm_correlate_q15.c ****  */
  46:../Dave/Generated/CMSIS_DSP/FilteringFunctions/arm_correlate_q15.c **** 
  47:../Dave/Generated/CMSIS_DSP/FilteringFunctions/arm_correlate_q15.c **** /**   
  48:../Dave/Generated/CMSIS_DSP/FilteringFunctions/arm_correlate_q15.c ****  * @addtogroup Corr   
  49:../Dave/Generated/CMSIS_DSP/FilteringFunctions/arm_correlate_q15.c ****  * @{   
  50:../Dave/Generated/CMSIS_DSP/FilteringFunctions/arm_correlate_q15.c ****  */
  51:../Dave/Generated/CMSIS_DSP/FilteringFunctions/arm_correlate_q15.c **** 
  52:../Dave/Generated/CMSIS_DSP/FilteringFunctions/arm_correlate_q15.c **** /**   
  53:../Dave/Generated/CMSIS_DSP/FilteringFunctions/arm_correlate_q15.c ****  * @brief Correlation of Q15 sequences. 
  54:../Dave/Generated/CMSIS_DSP/FilteringFunctions/arm_correlate_q15.c ****  * @param[in] *pSrcA points to the first input sequence.   
  55:../Dave/Generated/CMSIS_DSP/FilteringFunctions/arm_correlate_q15.c ****  * @param[in] srcALen length of the first input sequence.   
  56:../Dave/Generated/CMSIS_DSP/FilteringFunctions/arm_correlate_q15.c ****  * @param[in] *pSrcB points to the second input sequence.   
  57:../Dave/Generated/CMSIS_DSP/FilteringFunctions/arm_correlate_q15.c ****  * @param[in] srcBLen length of the second input sequence.   
  58:../Dave/Generated/CMSIS_DSP/FilteringFunctions/arm_correlate_q15.c ****  * @param[out] *pDst points to the location where the output result is written.  Length 2 * max(src
  59:../Dave/Generated/CMSIS_DSP/FilteringFunctions/arm_correlate_q15.c ****  * @return none.   
  60:../Dave/Generated/CMSIS_DSP/FilteringFunctions/arm_correlate_q15.c ****  *   
  61:../Dave/Generated/CMSIS_DSP/FilteringFunctions/arm_correlate_q15.c ****  * @details   
  62:../Dave/Generated/CMSIS_DSP/FilteringFunctions/arm_correlate_q15.c ****  * <b>Scaling and Overflow Behavior:</b>   
  63:../Dave/Generated/CMSIS_DSP/FilteringFunctions/arm_correlate_q15.c ****  *   
  64:../Dave/Generated/CMSIS_DSP/FilteringFunctions/arm_correlate_q15.c ****  * \par   
  65:../Dave/Generated/CMSIS_DSP/FilteringFunctions/arm_correlate_q15.c ****  * The function is implemented using a 64-bit internal accumulator.   
  66:../Dave/Generated/CMSIS_DSP/FilteringFunctions/arm_correlate_q15.c ****  * Both inputs are in 1.15 format and multiplications yield a 2.30 result.   
  67:../Dave/Generated/CMSIS_DSP/FilteringFunctions/arm_correlate_q15.c ****  * The 2.30 intermediate results are accumulated in a 64-bit accumulator in 34.30 format.   
  68:../Dave/Generated/CMSIS_DSP/FilteringFunctions/arm_correlate_q15.c ****  * This approach provides 33 guard bits and there is no risk of overflow.   
  69:../Dave/Generated/CMSIS_DSP/FilteringFunctions/arm_correlate_q15.c ****  * The 34.30 result is then truncated to 34.15 format by discarding the low 15 bits and then satura
  70:../Dave/Generated/CMSIS_DSP/FilteringFunctions/arm_correlate_q15.c ****  *   
  71:../Dave/Generated/CMSIS_DSP/FilteringFunctions/arm_correlate_q15.c ****  * \par   
  72:../Dave/Generated/CMSIS_DSP/FilteringFunctions/arm_correlate_q15.c ****  * Refer to <code>arm_correlate_fast_q15()</code> for a faster but less precise version of this fun
  73:../Dave/Generated/CMSIS_DSP/FilteringFunctions/arm_correlate_q15.c ****  *
  74:../Dave/Generated/CMSIS_DSP/FilteringFunctions/arm_correlate_q15.c ****  * \par    
  75:../Dave/Generated/CMSIS_DSP/FilteringFunctions/arm_correlate_q15.c ****  * Refer the function <code>arm_correlate_opt_q15()</code> for a faster implementation of this func
  76:../Dave/Generated/CMSIS_DSP/FilteringFunctions/arm_correlate_q15.c ****  * 
  77:../Dave/Generated/CMSIS_DSP/FilteringFunctions/arm_correlate_q15.c ****  */
  78:../Dave/Generated/CMSIS_DSP/FilteringFunctions/arm_correlate_q15.c **** 
  79:../Dave/Generated/CMSIS_DSP/FilteringFunctions/arm_correlate_q15.c **** void arm_correlate_q15(
  80:../Dave/Generated/CMSIS_DSP/FilteringFunctions/arm_correlate_q15.c ****   q15_t * pSrcA,
  81:../Dave/Generated/CMSIS_DSP/FilteringFunctions/arm_correlate_q15.c ****   uint32_t srcALen,
  82:../Dave/Generated/CMSIS_DSP/FilteringFunctions/arm_correlate_q15.c ****   q15_t * pSrcB,
  83:../Dave/Generated/CMSIS_DSP/FilteringFunctions/arm_correlate_q15.c ****   uint32_t srcBLen,
  84:../Dave/Generated/CMSIS_DSP/FilteringFunctions/arm_correlate_q15.c ****   q15_t * pDst)
  85:../Dave/Generated/CMSIS_DSP/FilteringFunctions/arm_correlate_q15.c **** {
  28              	 .loc 1 85 0
  29              	 .cfi_startproc
  30              	 
  31              	 
  32              	 
  33 0000 2DE9B00F 	 push {r4,r5,r7,r8,r9,r10,fp}
  34              	.LCFI0:
  35              	 .cfi_def_cfa_offset 28
  36              	 .cfi_offset 4,-28
  37              	 .cfi_offset 5,-24
  38              	 .cfi_offset 7,-20
  39              	 .cfi_offset 8,-16
  40              	 .cfi_offset 9,-12
  41              	 .cfi_offset 10,-8
  42              	 .cfi_offset 11,-4
  43 0004 ADF5757D 	 sub sp,sp,#980
  44              	.LCFI1:
  45              	 .cfi_def_cfa_offset 1008
  46 0008 00AF     	 add r7,sp,#0
  47              	.LCFI2:
  48              	 .cfi_def_cfa_register 7
  49 000a 07F13C04 	 add r4,r7,#60
  50 000e 2060     	 str r0,[r4]
  51 0010 07F13800 	 add r0,r7,#56
  52 0014 0160     	 str r1,[r0]
  53 0016 07F13401 	 add r1,r7,#52
  54 001a 0A60     	 str r2,[r1]
  55 001c 07F13002 	 add r2,r7,#48
  56 0020 1360     	 str r3,[r2]
  86:../Dave/Generated/CMSIS_DSP/FilteringFunctions/arm_correlate_q15.c **** 
  87:../Dave/Generated/CMSIS_DSP/FilteringFunctions/arm_correlate_q15.c **** #if (defined(ARM_MATH_CM4) || defined(ARM_MATH_CM3)) && !defined(UNALIGNED_SUPPORT_DISABLE)
  88:../Dave/Generated/CMSIS_DSP/FilteringFunctions/arm_correlate_q15.c **** 
  89:../Dave/Generated/CMSIS_DSP/FilteringFunctions/arm_correlate_q15.c ****   /* Run the below code for Cortex-M4 and Cortex-M3 */
  90:../Dave/Generated/CMSIS_DSP/FilteringFunctions/arm_correlate_q15.c **** 
  91:../Dave/Generated/CMSIS_DSP/FilteringFunctions/arm_correlate_q15.c ****   q15_t *pIn1;                                   /* inputA pointer               */
  92:../Dave/Generated/CMSIS_DSP/FilteringFunctions/arm_correlate_q15.c ****   q15_t *pIn2;                                   /* inputB pointer               */
  93:../Dave/Generated/CMSIS_DSP/FilteringFunctions/arm_correlate_q15.c ****   q15_t *pOut = pDst;                            /* output pointer               */
  57              	 .loc 1 93 0
  58 0022 D7F8F033 	 ldr r3,[r7,#1008]
  59 0026 C7F8C433 	 str r3,[r7,#964]
  94:../Dave/Generated/CMSIS_DSP/FilteringFunctions/arm_correlate_q15.c ****   q63_t sum, acc0, acc1, acc2, acc3;             /* Accumulators                  */
  95:../Dave/Generated/CMSIS_DSP/FilteringFunctions/arm_correlate_q15.c ****   q15_t *px;                                     /* Intermediate inputA pointer  */
  96:../Dave/Generated/CMSIS_DSP/FilteringFunctions/arm_correlate_q15.c ****   q15_t *py;                                     /* Intermediate inputB pointer  */
  97:../Dave/Generated/CMSIS_DSP/FilteringFunctions/arm_correlate_q15.c ****   q15_t *pSrc1;                                  /* Intermediate pointers        */
  98:../Dave/Generated/CMSIS_DSP/FilteringFunctions/arm_correlate_q15.c ****   q31_t x0, x1, x2, x3, c0;                      /* temporary variables for holding input and coeff
  99:../Dave/Generated/CMSIS_DSP/FilteringFunctions/arm_correlate_q15.c ****   uint32_t j, k = 0u, count, blkCnt, outBlockSize, blockSize1, blockSize2, blockSize3;  /* loop cou
  60              	 .loc 1 99 0
  61 002a 0023     	 movs r3,#0
  62 002c C7F88833 	 str r3,[r7,#904]
 100:../Dave/Generated/CMSIS_DSP/FilteringFunctions/arm_correlate_q15.c ****   int32_t inc = 1;                               /* Destination address modifier */
  63              	 .loc 1 100 0
  64 0030 0123     	 movs r3,#1
  65 0032 C7F87433 	 str r3,[r7,#884]
 101:../Dave/Generated/CMSIS_DSP/FilteringFunctions/arm_correlate_q15.c **** 
 102:../Dave/Generated/CMSIS_DSP/FilteringFunctions/arm_correlate_q15.c **** 
 103:../Dave/Generated/CMSIS_DSP/FilteringFunctions/arm_correlate_q15.c ****   /* The algorithm implementation is based on the lengths of the inputs. */
 104:../Dave/Generated/CMSIS_DSP/FilteringFunctions/arm_correlate_q15.c ****   /* srcB is always made to slide across srcA. */
 105:../Dave/Generated/CMSIS_DSP/FilteringFunctions/arm_correlate_q15.c ****   /* So srcBLen is always considered as shorter or equal to srcALen */
 106:../Dave/Generated/CMSIS_DSP/FilteringFunctions/arm_correlate_q15.c ****   /* But CORR(x, y) is reverse of CORR(y, x) */
 107:../Dave/Generated/CMSIS_DSP/FilteringFunctions/arm_correlate_q15.c ****   /* So, when srcBLen > srcALen, output pointer is made to point to the end of the output buffer */
 108:../Dave/Generated/CMSIS_DSP/FilteringFunctions/arm_correlate_q15.c ****   /* and the destination pointer modifier, inc is set to -1 */
 109:../Dave/Generated/CMSIS_DSP/FilteringFunctions/arm_correlate_q15.c ****   /* If srcALen > srcBLen, zero pad has to be done to srcB to make the two inputs of same length */
 110:../Dave/Generated/CMSIS_DSP/FilteringFunctions/arm_correlate_q15.c ****   /* But to improve the performance,   
 111:../Dave/Generated/CMSIS_DSP/FilteringFunctions/arm_correlate_q15.c ****    * we include zeroes in the output instead of zero padding either of the the inputs*/
 112:../Dave/Generated/CMSIS_DSP/FilteringFunctions/arm_correlate_q15.c ****   /* If srcALen > srcBLen,   
 113:../Dave/Generated/CMSIS_DSP/FilteringFunctions/arm_correlate_q15.c ****    * (srcALen - srcBLen) zeroes has to included in the starting of the output buffer */
 114:../Dave/Generated/CMSIS_DSP/FilteringFunctions/arm_correlate_q15.c ****   /* If srcALen < srcBLen,   
 115:../Dave/Generated/CMSIS_DSP/FilteringFunctions/arm_correlate_q15.c ****    * (srcALen - srcBLen) zeroes has to included in the ending of the output buffer */
 116:../Dave/Generated/CMSIS_DSP/FilteringFunctions/arm_correlate_q15.c ****   if(srcALen >= srcBLen)
  66              	 .loc 1 116 0
  67 0036 07F13802 	 add r2,r7,#56
  68 003a 07F13003 	 add r3,r7,#48
  69 003e 1268     	 ldr r2,[r2]
  70 0040 1B68     	 ldr r3,[r3]
  71 0042 9A42     	 cmp r2,r3
  72 0044 26D3     	 bcc .L2
 117:../Dave/Generated/CMSIS_DSP/FilteringFunctions/arm_correlate_q15.c ****   {
 118:../Dave/Generated/CMSIS_DSP/FilteringFunctions/arm_correlate_q15.c ****     /* Initialization of inputA pointer */
 119:../Dave/Generated/CMSIS_DSP/FilteringFunctions/arm_correlate_q15.c ****     pIn1 = (pSrcA);
  73              	 .loc 1 119 0
  74 0046 07F13C03 	 add r3,r7,#60
  75 004a 1B68     	 ldr r3,[r3]
  76 004c C7F8CC33 	 str r3,[r7,#972]
 120:../Dave/Generated/CMSIS_DSP/FilteringFunctions/arm_correlate_q15.c **** 
 121:../Dave/Generated/CMSIS_DSP/FilteringFunctions/arm_correlate_q15.c ****     /* Initialization of inputB pointer */
 122:../Dave/Generated/CMSIS_DSP/FilteringFunctions/arm_correlate_q15.c ****     pIn2 = (pSrcB);
  77              	 .loc 1 122 0
  78 0050 07F13403 	 add r3,r7,#52
  79 0054 1B68     	 ldr r3,[r3]
  80 0056 C7F8C833 	 str r3,[r7,#968]
 123:../Dave/Generated/CMSIS_DSP/FilteringFunctions/arm_correlate_q15.c **** 
 124:../Dave/Generated/CMSIS_DSP/FilteringFunctions/arm_correlate_q15.c ****     /* Number of output samples is calculated */
 125:../Dave/Generated/CMSIS_DSP/FilteringFunctions/arm_correlate_q15.c ****     outBlockSize = (2u * srcALen) - 1u;
  81              	 .loc 1 125 0
  82 005a 07F13803 	 add r3,r7,#56
  83 005e 1B68     	 ldr r3,[r3]
  84 0060 5B00     	 lsls r3,r3,#1
  85 0062 013B     	 subs r3,r3,#1
  86 0064 C7F87033 	 str r3,[r7,#880]
 126:../Dave/Generated/CMSIS_DSP/FilteringFunctions/arm_correlate_q15.c **** 
 127:../Dave/Generated/CMSIS_DSP/FilteringFunctions/arm_correlate_q15.c ****     /* When srcALen > srcBLen, zero padding is done to srcB   
 128:../Dave/Generated/CMSIS_DSP/FilteringFunctions/arm_correlate_q15.c ****      * to make their lengths equal.   
 129:../Dave/Generated/CMSIS_DSP/FilteringFunctions/arm_correlate_q15.c ****      * Instead, (outBlockSize - (srcALen + srcBLen - 1))   
 130:../Dave/Generated/CMSIS_DSP/FilteringFunctions/arm_correlate_q15.c ****      * number of output samples are made zero */
 131:../Dave/Generated/CMSIS_DSP/FilteringFunctions/arm_correlate_q15.c ****     j = outBlockSize - (srcALen + (srcBLen - 1u));
  87              	 .loc 1 131 0
  88 0068 07F13002 	 add r2,r7,#48
  89 006c 07F13803 	 add r3,r7,#56
  90 0070 1268     	 ldr r2,[r2]
  91 0072 1B68     	 ldr r3,[r3]
  92 0074 1A44     	 add r2,r2,r3
  93 0076 D7F87033 	 ldr r3,[r7,#880]
  94 007a 9B1A     	 subs r3,r3,r2
  95 007c 0133     	 adds r3,r3,#1
  96 007e C7F86C33 	 str r3,[r7,#876]
 132:../Dave/Generated/CMSIS_DSP/FilteringFunctions/arm_correlate_q15.c **** 
 133:../Dave/Generated/CMSIS_DSP/FilteringFunctions/arm_correlate_q15.c ****     /* Updating the pointer position to non zero value */
 134:../Dave/Generated/CMSIS_DSP/FilteringFunctions/arm_correlate_q15.c ****     pOut += j;
  97              	 .loc 1 134 0
  98 0082 D7F86C33 	 ldr r3,[r7,#876]
  99 0086 5A00     	 lsls r2,r3,#1
 100 0088 D7F8C433 	 ldr r3,[r7,#964]
 101 008c 1344     	 add r3,r3,r2
 102 008e C7F8C433 	 str r3,[r7,#964]
 103 0092 2DE0     	 b .L3
 104              	.L2:
 135:../Dave/Generated/CMSIS_DSP/FilteringFunctions/arm_correlate_q15.c **** 
 136:../Dave/Generated/CMSIS_DSP/FilteringFunctions/arm_correlate_q15.c ****   }
 137:../Dave/Generated/CMSIS_DSP/FilteringFunctions/arm_correlate_q15.c ****   else
 138:../Dave/Generated/CMSIS_DSP/FilteringFunctions/arm_correlate_q15.c ****   {
 139:../Dave/Generated/CMSIS_DSP/FilteringFunctions/arm_correlate_q15.c ****     /* Initialization of inputA pointer */
 140:../Dave/Generated/CMSIS_DSP/FilteringFunctions/arm_correlate_q15.c ****     pIn1 = (pSrcB);
 105              	 .loc 1 140 0
 106 0094 07F13403 	 add r3,r7,#52
 107 0098 1B68     	 ldr r3,[r3]
 108 009a C7F8CC33 	 str r3,[r7,#972]
 141:../Dave/Generated/CMSIS_DSP/FilteringFunctions/arm_correlate_q15.c **** 
 142:../Dave/Generated/CMSIS_DSP/FilteringFunctions/arm_correlate_q15.c ****     /* Initialization of inputB pointer */
 143:../Dave/Generated/CMSIS_DSP/FilteringFunctions/arm_correlate_q15.c ****     pIn2 = (pSrcA);
 109              	 .loc 1 143 0
 110 009e 07F13C03 	 add r3,r7,#60
 111 00a2 1B68     	 ldr r3,[r3]
 112 00a4 C7F8C833 	 str r3,[r7,#968]
 144:../Dave/Generated/CMSIS_DSP/FilteringFunctions/arm_correlate_q15.c **** 
 145:../Dave/Generated/CMSIS_DSP/FilteringFunctions/arm_correlate_q15.c ****     /* srcBLen is always considered as shorter or equal to srcALen */
 146:../Dave/Generated/CMSIS_DSP/FilteringFunctions/arm_correlate_q15.c ****     j = srcBLen;
 113              	 .loc 1 146 0
 114 00a8 07F13003 	 add r3,r7,#48
 115 00ac 1B68     	 ldr r3,[r3]
 116 00ae C7F86C33 	 str r3,[r7,#876]
 147:../Dave/Generated/CMSIS_DSP/FilteringFunctions/arm_correlate_q15.c ****     srcBLen = srcALen;
 117              	 .loc 1 147 0
 118 00b2 07F13002 	 add r2,r7,#48
 119 00b6 07F13803 	 add r3,r7,#56
 120 00ba 1B68     	 ldr r3,[r3]
 121 00bc 1360     	 str r3,[r2]
 148:../Dave/Generated/CMSIS_DSP/FilteringFunctions/arm_correlate_q15.c ****     srcALen = j;
 122              	 .loc 1 148 0
 123 00be 07F13802 	 add r2,r7,#56
 124 00c2 D7F86C33 	 ldr r3,[r7,#876]
 125 00c6 1360     	 str r3,[r2]
 149:../Dave/Generated/CMSIS_DSP/FilteringFunctions/arm_correlate_q15.c **** 
 150:../Dave/Generated/CMSIS_DSP/FilteringFunctions/arm_correlate_q15.c ****     /* CORR(x, y) = Reverse order(CORR(y, x)) */
 151:../Dave/Generated/CMSIS_DSP/FilteringFunctions/arm_correlate_q15.c ****     /* Hence set the destination pointer to point to the last output sample */
 152:../Dave/Generated/CMSIS_DSP/FilteringFunctions/arm_correlate_q15.c ****     pOut = pDst + ((srcALen + srcBLen) - 2u);
 126              	 .loc 1 152 0
 127 00c8 07F13802 	 add r2,r7,#56
 128 00cc 07F13003 	 add r3,r7,#48
 129 00d0 1268     	 ldr r2,[r2]
 130 00d2 1B68     	 ldr r3,[r3]
 131 00d4 1344     	 add r3,r3,r2
 132 00d6 03F10043 	 add r3,r3,#-2147483648
 133 00da 023B     	 subs r3,r3,#2
 134 00dc 5A00     	 lsls r2,r3,#1
 135 00de D7F8F033 	 ldr r3,[r7,#1008]
 136 00e2 1344     	 add r3,r3,r2
 137 00e4 C7F8C433 	 str r3,[r7,#964]
 153:../Dave/Generated/CMSIS_DSP/FilteringFunctions/arm_correlate_q15.c **** 
 154:../Dave/Generated/CMSIS_DSP/FilteringFunctions/arm_correlate_q15.c ****     /* Destination address modifier is set to -1 */
 155:../Dave/Generated/CMSIS_DSP/FilteringFunctions/arm_correlate_q15.c ****     inc = -1;
 138              	 .loc 1 155 0
 139 00e8 4FF0FF33 	 mov r3,#-1
 140 00ec C7F87433 	 str r3,[r7,#884]
 141              	.L3:
 156:../Dave/Generated/CMSIS_DSP/FilteringFunctions/arm_correlate_q15.c **** 
 157:../Dave/Generated/CMSIS_DSP/FilteringFunctions/arm_correlate_q15.c ****   }
 158:../Dave/Generated/CMSIS_DSP/FilteringFunctions/arm_correlate_q15.c **** 
 159:../Dave/Generated/CMSIS_DSP/FilteringFunctions/arm_correlate_q15.c ****   /* The function is internally   
 160:../Dave/Generated/CMSIS_DSP/FilteringFunctions/arm_correlate_q15.c ****    * divided into three parts according to the number of multiplications that has to be   
 161:../Dave/Generated/CMSIS_DSP/FilteringFunctions/arm_correlate_q15.c ****    * taken place between inputA samples and inputB samples. In the first part of the   
 162:../Dave/Generated/CMSIS_DSP/FilteringFunctions/arm_correlate_q15.c ****    * algorithm, the multiplications increase by one for every iteration.   
 163:../Dave/Generated/CMSIS_DSP/FilteringFunctions/arm_correlate_q15.c ****    * In the second part of the algorithm, srcBLen number of multiplications are done.   
 164:../Dave/Generated/CMSIS_DSP/FilteringFunctions/arm_correlate_q15.c ****    * In the third part of the algorithm, the multiplications decrease by one   
 165:../Dave/Generated/CMSIS_DSP/FilteringFunctions/arm_correlate_q15.c ****    * for every iteration.*/
 166:../Dave/Generated/CMSIS_DSP/FilteringFunctions/arm_correlate_q15.c ****   /* The algorithm is implemented in three stages.   
 167:../Dave/Generated/CMSIS_DSP/FilteringFunctions/arm_correlate_q15.c ****    * The loop counters of each stage is initiated here. */
 168:../Dave/Generated/CMSIS_DSP/FilteringFunctions/arm_correlate_q15.c ****   blockSize1 = srcBLen - 1u;
 142              	 .loc 1 168 0
 143 00f0 07F13003 	 add r3,r7,#48
 144 00f4 1B68     	 ldr r3,[r3]
 145 00f6 013B     	 subs r3,r3,#1
 146 00f8 C7F87C33 	 str r3,[r7,#892]
 169:../Dave/Generated/CMSIS_DSP/FilteringFunctions/arm_correlate_q15.c ****   blockSize2 = srcALen - (srcBLen - 1u);
 147              	 .loc 1 169 0
 148 00fc 07F13802 	 add r2,r7,#56
 149 0100 07F13003 	 add r3,r7,#48
 150 0104 1268     	 ldr r2,[r2]
 151 0106 1B68     	 ldr r3,[r3]
 152 0108 D31A     	 subs r3,r2,r3
 153 010a 0133     	 adds r3,r3,#1
 154 010c C7F86833 	 str r3,[r7,#872]
 170:../Dave/Generated/CMSIS_DSP/FilteringFunctions/arm_correlate_q15.c ****   blockSize3 = blockSize1;
 155              	 .loc 1 170 0
 156 0110 D7F87C33 	 ldr r3,[r7,#892]
 157 0114 C7F87833 	 str r3,[r7,#888]
 171:../Dave/Generated/CMSIS_DSP/FilteringFunctions/arm_correlate_q15.c **** 
 172:../Dave/Generated/CMSIS_DSP/FilteringFunctions/arm_correlate_q15.c ****   /* --------------------------   
 173:../Dave/Generated/CMSIS_DSP/FilteringFunctions/arm_correlate_q15.c ****    * Initializations of stage1   
 174:../Dave/Generated/CMSIS_DSP/FilteringFunctions/arm_correlate_q15.c ****    * -------------------------*/
 175:../Dave/Generated/CMSIS_DSP/FilteringFunctions/arm_correlate_q15.c **** 
 176:../Dave/Generated/CMSIS_DSP/FilteringFunctions/arm_correlate_q15.c ****   /* sum = x[0] * y[srcBlen - 1]   
 177:../Dave/Generated/CMSIS_DSP/FilteringFunctions/arm_correlate_q15.c ****    * sum = x[0] * y[srcBlen - 2] + x[1] * y[srcBlen - 1]   
 178:../Dave/Generated/CMSIS_DSP/FilteringFunctions/arm_correlate_q15.c ****    * ....   
 179:../Dave/Generated/CMSIS_DSP/FilteringFunctions/arm_correlate_q15.c ****    * sum = x[0] * y[0] + x[1] * y[1] +...+ x[srcBLen - 1] * y[srcBLen - 1]   
 180:../Dave/Generated/CMSIS_DSP/FilteringFunctions/arm_correlate_q15.c ****    */
 181:../Dave/Generated/CMSIS_DSP/FilteringFunctions/arm_correlate_q15.c **** 
 182:../Dave/Generated/CMSIS_DSP/FilteringFunctions/arm_correlate_q15.c ****   /* In this stage the MAC operations are increased by 1 for every iteration.   
 183:../Dave/Generated/CMSIS_DSP/FilteringFunctions/arm_correlate_q15.c ****      The count variable holds the number of MAC operations performed */
 184:../Dave/Generated/CMSIS_DSP/FilteringFunctions/arm_correlate_q15.c ****   count = 1u;
 158              	 .loc 1 184 0
 159 0118 0123     	 movs r3,#1
 160 011a C7F88433 	 str r3,[r7,#900]
 185:../Dave/Generated/CMSIS_DSP/FilteringFunctions/arm_correlate_q15.c **** 
 186:../Dave/Generated/CMSIS_DSP/FilteringFunctions/arm_correlate_q15.c ****   /* Working pointer of inputA */
 187:../Dave/Generated/CMSIS_DSP/FilteringFunctions/arm_correlate_q15.c ****   px = pIn1;
 161              	 .loc 1 187 0
 162 011e 07F59A72 	 add r2,r7,#308
 163 0122 D7F8CC33 	 ldr r3,[r7,#972]
 164 0126 1360     	 str r3,[r2]
 188:../Dave/Generated/CMSIS_DSP/FilteringFunctions/arm_correlate_q15.c **** 
 189:../Dave/Generated/CMSIS_DSP/FilteringFunctions/arm_correlate_q15.c ****   /* Working pointer of inputB */
 190:../Dave/Generated/CMSIS_DSP/FilteringFunctions/arm_correlate_q15.c ****   pSrc1 = pIn2 + (srcBLen - 1u);
 165              	 .loc 1 190 0
 166 0128 07F13003 	 add r3,r7,#48
 167 012c 1B68     	 ldr r3,[r3]
 168 012e 03F10043 	 add r3,r3,#-2147483648
 169 0132 013B     	 subs r3,r3,#1
 170 0134 5A00     	 lsls r2,r3,#1
 171 0136 D7F8C833 	 ldr r3,[r7,#968]
 172 013a 1344     	 add r3,r3,r2
 173 013c C7F89433 	 str r3,[r7,#916]
 191:../Dave/Generated/CMSIS_DSP/FilteringFunctions/arm_correlate_q15.c ****   py = pSrc1;
 174              	 .loc 1 191 0
 175 0140 07F59872 	 add r2,r7,#304
 176 0144 D7F89433 	 ldr r3,[r7,#916]
 177 0148 1360     	 str r3,[r2]
 192:../Dave/Generated/CMSIS_DSP/FilteringFunctions/arm_correlate_q15.c **** 
 193:../Dave/Generated/CMSIS_DSP/FilteringFunctions/arm_correlate_q15.c ****   /* ------------------------   
 194:../Dave/Generated/CMSIS_DSP/FilteringFunctions/arm_correlate_q15.c ****    * Stage1 process   
 195:../Dave/Generated/CMSIS_DSP/FilteringFunctions/arm_correlate_q15.c ****    * ----------------------*/
 196:../Dave/Generated/CMSIS_DSP/FilteringFunctions/arm_correlate_q15.c **** 
 197:../Dave/Generated/CMSIS_DSP/FilteringFunctions/arm_correlate_q15.c ****   /* The first loop starts here */
 198:../Dave/Generated/CMSIS_DSP/FilteringFunctions/arm_correlate_q15.c ****   while(blockSize1 > 0u)
 178              	 .loc 1 198 0
 179 014a 19E1     	 b .L4
 180              	.L12:
 199:../Dave/Generated/CMSIS_DSP/FilteringFunctions/arm_correlate_q15.c ****   {
 200:../Dave/Generated/CMSIS_DSP/FilteringFunctions/arm_correlate_q15.c ****     /* Accumulator is made zero for every iteration */
 201:../Dave/Generated/CMSIS_DSP/FilteringFunctions/arm_correlate_q15.c ****     sum = 0;
 181              	 .loc 1 201 0
 182 014c 4FF00002 	 mov r2,#0
 183 0150 4FF00003 	 mov r3,#0
 184 0154 07F56E71 	 add r1,r7,#952
 185 0158 C1E90023 	 strd r2,[r1]
 202:../Dave/Generated/CMSIS_DSP/FilteringFunctions/arm_correlate_q15.c **** 
 203:../Dave/Generated/CMSIS_DSP/FilteringFunctions/arm_correlate_q15.c ****     /* Apply loop unrolling and compute 4 MACs simultaneously. */
 204:../Dave/Generated/CMSIS_DSP/FilteringFunctions/arm_correlate_q15.c ****     k = count >> 2;
 186              	 .loc 1 204 0
 187 015c D7F88433 	 ldr r3,[r7,#900]
 188 0160 9B08     	 lsrs r3,r3,#2
 189 0162 C7F88833 	 str r3,[r7,#904]
 205:../Dave/Generated/CMSIS_DSP/FilteringFunctions/arm_correlate_q15.c **** 
 206:../Dave/Generated/CMSIS_DSP/FilteringFunctions/arm_correlate_q15.c ****     /* First part of the processing with loop unrolling.  Compute 4 MACs at a time.   
 207:../Dave/Generated/CMSIS_DSP/FilteringFunctions/arm_correlate_q15.c ****      ** a second loop below computes MACs for the remaining 1 to 3 samples. */
 208:../Dave/Generated/CMSIS_DSP/FilteringFunctions/arm_correlate_q15.c ****     while(k > 0u)
 190              	 .loc 1 208 0
 191 0166 7CE0     	 b .L5
 192              	.L8:
 209:../Dave/Generated/CMSIS_DSP/FilteringFunctions/arm_correlate_q15.c ****     {
 210:../Dave/Generated/CMSIS_DSP/FilteringFunctions/arm_correlate_q15.c ****       /* x[0] * y[srcBLen - 4] , x[1] * y[srcBLen - 3] */
 211:../Dave/Generated/CMSIS_DSP/FilteringFunctions/arm_correlate_q15.c ****       sum = __SMLALD(*__SIMD32(px)++, *__SIMD32(py)++, sum);
 193              	 .loc 1 211 0
 194 0168 07F59A71 	 add r1,r7,#308
 195 016c 0A68     	 ldr r2,[r1]
 196 016e 131D     	 adds r3,r2,#4
 197 0170 0B60     	 str r3,[r1]
 198 0172 1368     	 ldr r3,[r2]
 199 0174 1846     	 mov r0,r3
 200 0176 07F59871 	 add r1,r7,#304
 201 017a 0A68     	 ldr r2,[r1]
 202 017c 131D     	 adds r3,r2,#4
 203 017e 0B60     	 str r3,[r1]
 204 0180 1368     	 ldr r3,[r2]
 205 0182 1946     	 mov r1,r3
 206 0184 07F56E73 	 add r3,r7,#952
 207 0188 D3E90023 	 ldrd r2,[r3]
 208 018c C7F81803 	 str r0,[r7,#792]
 209 0190 C7F81413 	 str r1,[r7,#788]
 210 0194 07F54271 	 add r1,r7,#776
 211 0198 C1E90023 	 strd r2,[r1]
 212              	.LBB70:
 213              	.LBB71:
 214              	 .file 2 "C:/Workspaces/DAVE-4.3/WS_2016_09_02/Flightcontroller_PWM_CopterRocks_Working/Libraries/CMSIS/Include/cmsis_gcc.h"
   1:C:/Workspaces/DAVE-4.3/WS_2016_09_02/Flightcontroller_PWM_CopterRocks_Working/Libraries/CMSIS/Include\cmsis_gcc.h **** /**************************************************************************//**
   2:C:/Workspaces/DAVE-4.3/WS_2016_09_02/Flightcontroller_PWM_CopterRocks_Working/Libraries/CMSIS/Include\cmsis_gcc.h ****  * @file     cmsis_gcc.h
   3:C:/Workspaces/DAVE-4.3/WS_2016_09_02/Flightcontroller_PWM_CopterRocks_Working/Libraries/CMSIS/Include\cmsis_gcc.h ****  * @brief    CMSIS Cortex-M Core Function/Instruction Header File
   4:C:/Workspaces/DAVE-4.3/WS_2016_09_02/Flightcontroller_PWM_CopterRocks_Working/Libraries/CMSIS/Include\cmsis_gcc.h ****  * @version  V4.30
   5:C:/Workspaces/DAVE-4.3/WS_2016_09_02/Flightcontroller_PWM_CopterRocks_Working/Libraries/CMSIS/Include\cmsis_gcc.h ****  * @date     20. October 2015
   6:C:/Workspaces/DAVE-4.3/WS_2016_09_02/Flightcontroller_PWM_CopterRocks_Working/Libraries/CMSIS/Include\cmsis_gcc.h ****  ******************************************************************************/
   7:C:/Workspaces/DAVE-4.3/WS_2016_09_02/Flightcontroller_PWM_CopterRocks_Working/Libraries/CMSIS/Include\cmsis_gcc.h **** /* Copyright (c) 2009 - 2015 ARM LIMITED
   8:C:/Workspaces/DAVE-4.3/WS_2016_09_02/Flightcontroller_PWM_CopterRocks_Working/Libraries/CMSIS/Include\cmsis_gcc.h **** 
   9:C:/Workspaces/DAVE-4.3/WS_2016_09_02/Flightcontroller_PWM_CopterRocks_Working/Libraries/CMSIS/Include\cmsis_gcc.h ****    All rights reserved.
  10:C:/Workspaces/DAVE-4.3/WS_2016_09_02/Flightcontroller_PWM_CopterRocks_Working/Libraries/CMSIS/Include\cmsis_gcc.h ****    Redistribution and use in source and binary forms, with or without
  11:C:/Workspaces/DAVE-4.3/WS_2016_09_02/Flightcontroller_PWM_CopterRocks_Working/Libraries/CMSIS/Include\cmsis_gcc.h ****    modification, are permitted provided that the following conditions are met:
  12:C:/Workspaces/DAVE-4.3/WS_2016_09_02/Flightcontroller_PWM_CopterRocks_Working/Libraries/CMSIS/Include\cmsis_gcc.h ****    - Redistributions of source code must retain the above copyright
  13:C:/Workspaces/DAVE-4.3/WS_2016_09_02/Flightcontroller_PWM_CopterRocks_Working/Libraries/CMSIS/Include\cmsis_gcc.h ****      notice, this list of conditions and the following disclaimer.
  14:C:/Workspaces/DAVE-4.3/WS_2016_09_02/Flightcontroller_PWM_CopterRocks_Working/Libraries/CMSIS/Include\cmsis_gcc.h ****    - Redistributions in binary form must reproduce the above copyright
  15:C:/Workspaces/DAVE-4.3/WS_2016_09_02/Flightcontroller_PWM_CopterRocks_Working/Libraries/CMSIS/Include\cmsis_gcc.h ****      notice, this list of conditions and the following disclaimer in the
  16:C:/Workspaces/DAVE-4.3/WS_2016_09_02/Flightcontroller_PWM_CopterRocks_Working/Libraries/CMSIS/Include\cmsis_gcc.h ****      documentation and/or other materials provided with the distribution.
  17:C:/Workspaces/DAVE-4.3/WS_2016_09_02/Flightcontroller_PWM_CopterRocks_Working/Libraries/CMSIS/Include\cmsis_gcc.h ****    - Neither the name of ARM nor the names of its contributors may be used
  18:C:/Workspaces/DAVE-4.3/WS_2016_09_02/Flightcontroller_PWM_CopterRocks_Working/Libraries/CMSIS/Include\cmsis_gcc.h ****      to endorse or promote products derived from this software without
  19:C:/Workspaces/DAVE-4.3/WS_2016_09_02/Flightcontroller_PWM_CopterRocks_Working/Libraries/CMSIS/Include\cmsis_gcc.h ****      specific prior written permission.
  20:C:/Workspaces/DAVE-4.3/WS_2016_09_02/Flightcontroller_PWM_CopterRocks_Working/Libraries/CMSIS/Include\cmsis_gcc.h ****    *
  21:C:/Workspaces/DAVE-4.3/WS_2016_09_02/Flightcontroller_PWM_CopterRocks_Working/Libraries/CMSIS/Include\cmsis_gcc.h ****    THIS SOFTWARE IS PROVIDED BY THE COPYRIGHT HOLDERS AND CONTRIBUTORS "AS IS"
  22:C:/Workspaces/DAVE-4.3/WS_2016_09_02/Flightcontroller_PWM_CopterRocks_Working/Libraries/CMSIS/Include\cmsis_gcc.h ****    AND ANY EXPRESS OR IMPLIED WARRANTIES, INCLUDING, BUT NOT LIMITED TO, THE
  23:C:/Workspaces/DAVE-4.3/WS_2016_09_02/Flightcontroller_PWM_CopterRocks_Working/Libraries/CMSIS/Include\cmsis_gcc.h ****    IMPLIED WARRANTIES OF MERCHANTABILITY AND FITNESS FOR A PARTICULAR PURPOSE
  24:C:/Workspaces/DAVE-4.3/WS_2016_09_02/Flightcontroller_PWM_CopterRocks_Working/Libraries/CMSIS/Include\cmsis_gcc.h ****    ARE DISCLAIMED. IN NO EVENT SHALL COPYRIGHT HOLDERS AND CONTRIBUTORS BE
  25:C:/Workspaces/DAVE-4.3/WS_2016_09_02/Flightcontroller_PWM_CopterRocks_Working/Libraries/CMSIS/Include\cmsis_gcc.h ****    LIABLE FOR ANY DIRECT, INDIRECT, INCIDENTAL, SPECIAL, EXEMPLARY, OR
  26:C:/Workspaces/DAVE-4.3/WS_2016_09_02/Flightcontroller_PWM_CopterRocks_Working/Libraries/CMSIS/Include\cmsis_gcc.h ****    CONSEQUENTIAL DAMAGES (INCLUDING, BUT NOT LIMITED TO, PROCUREMENT OF
  27:C:/Workspaces/DAVE-4.3/WS_2016_09_02/Flightcontroller_PWM_CopterRocks_Working/Libraries/CMSIS/Include\cmsis_gcc.h ****    SUBSTITUTE GOODS OR SERVICES; LOSS OF USE, DATA, OR PROFITS; OR BUSINESS
  28:C:/Workspaces/DAVE-4.3/WS_2016_09_02/Flightcontroller_PWM_CopterRocks_Working/Libraries/CMSIS/Include\cmsis_gcc.h ****    INTERRUPTION) HOWEVER CAUSED AND ON ANY THEORY OF LIABILITY, WHETHER IN
  29:C:/Workspaces/DAVE-4.3/WS_2016_09_02/Flightcontroller_PWM_CopterRocks_Working/Libraries/CMSIS/Include\cmsis_gcc.h ****    CONTRACT, STRICT LIABILITY, OR TORT (INCLUDING NEGLIGENCE OR OTHERWISE)
  30:C:/Workspaces/DAVE-4.3/WS_2016_09_02/Flightcontroller_PWM_CopterRocks_Working/Libraries/CMSIS/Include\cmsis_gcc.h ****    ARISING IN ANY WAY OUT OF THE USE OF THIS SOFTWARE, EVEN IF ADVISED OF THE
  31:C:/Workspaces/DAVE-4.3/WS_2016_09_02/Flightcontroller_PWM_CopterRocks_Working/Libraries/CMSIS/Include\cmsis_gcc.h ****    POSSIBILITY OF SUCH DAMAGE.
  32:C:/Workspaces/DAVE-4.3/WS_2016_09_02/Flightcontroller_PWM_CopterRocks_Working/Libraries/CMSIS/Include\cmsis_gcc.h ****    ---------------------------------------------------------------------------*/
  33:C:/Workspaces/DAVE-4.3/WS_2016_09_02/Flightcontroller_PWM_CopterRocks_Working/Libraries/CMSIS/Include\cmsis_gcc.h **** 
  34:C:/Workspaces/DAVE-4.3/WS_2016_09_02/Flightcontroller_PWM_CopterRocks_Working/Libraries/CMSIS/Include\cmsis_gcc.h **** 
  35:C:/Workspaces/DAVE-4.3/WS_2016_09_02/Flightcontroller_PWM_CopterRocks_Working/Libraries/CMSIS/Include\cmsis_gcc.h **** #ifndef __CMSIS_GCC_H
  36:C:/Workspaces/DAVE-4.3/WS_2016_09_02/Flightcontroller_PWM_CopterRocks_Working/Libraries/CMSIS/Include\cmsis_gcc.h **** #define __CMSIS_GCC_H
  37:C:/Workspaces/DAVE-4.3/WS_2016_09_02/Flightcontroller_PWM_CopterRocks_Working/Libraries/CMSIS/Include\cmsis_gcc.h **** 
  38:C:/Workspaces/DAVE-4.3/WS_2016_09_02/Flightcontroller_PWM_CopterRocks_Working/Libraries/CMSIS/Include\cmsis_gcc.h **** /* ignore some GCC warnings */
  39:C:/Workspaces/DAVE-4.3/WS_2016_09_02/Flightcontroller_PWM_CopterRocks_Working/Libraries/CMSIS/Include\cmsis_gcc.h **** #if defined ( __GNUC__ )
  40:C:/Workspaces/DAVE-4.3/WS_2016_09_02/Flightcontroller_PWM_CopterRocks_Working/Libraries/CMSIS/Include\cmsis_gcc.h **** #pragma GCC diagnostic push
  41:C:/Workspaces/DAVE-4.3/WS_2016_09_02/Flightcontroller_PWM_CopterRocks_Working/Libraries/CMSIS/Include\cmsis_gcc.h **** #pragma GCC diagnostic ignored "-Wsign-conversion"
  42:C:/Workspaces/DAVE-4.3/WS_2016_09_02/Flightcontroller_PWM_CopterRocks_Working/Libraries/CMSIS/Include\cmsis_gcc.h **** #pragma GCC diagnostic ignored "-Wconversion"
  43:C:/Workspaces/DAVE-4.3/WS_2016_09_02/Flightcontroller_PWM_CopterRocks_Working/Libraries/CMSIS/Include\cmsis_gcc.h **** #pragma GCC diagnostic ignored "-Wunused-parameter"
  44:C:/Workspaces/DAVE-4.3/WS_2016_09_02/Flightcontroller_PWM_CopterRocks_Working/Libraries/CMSIS/Include\cmsis_gcc.h **** #endif
  45:C:/Workspaces/DAVE-4.3/WS_2016_09_02/Flightcontroller_PWM_CopterRocks_Working/Libraries/CMSIS/Include\cmsis_gcc.h **** 
  46:C:/Workspaces/DAVE-4.3/WS_2016_09_02/Flightcontroller_PWM_CopterRocks_Working/Libraries/CMSIS/Include\cmsis_gcc.h **** 
  47:C:/Workspaces/DAVE-4.3/WS_2016_09_02/Flightcontroller_PWM_CopterRocks_Working/Libraries/CMSIS/Include\cmsis_gcc.h **** /* ###########################  Core Function Access  ########################### */
  48:C:/Workspaces/DAVE-4.3/WS_2016_09_02/Flightcontroller_PWM_CopterRocks_Working/Libraries/CMSIS/Include\cmsis_gcc.h **** /** \ingroup  CMSIS_Core_FunctionInterface
  49:C:/Workspaces/DAVE-4.3/WS_2016_09_02/Flightcontroller_PWM_CopterRocks_Working/Libraries/CMSIS/Include\cmsis_gcc.h ****     \defgroup CMSIS_Core_RegAccFunctions CMSIS Core Register Access Functions
  50:C:/Workspaces/DAVE-4.3/WS_2016_09_02/Flightcontroller_PWM_CopterRocks_Working/Libraries/CMSIS/Include\cmsis_gcc.h ****   @{
  51:C:/Workspaces/DAVE-4.3/WS_2016_09_02/Flightcontroller_PWM_CopterRocks_Working/Libraries/CMSIS/Include\cmsis_gcc.h ****  */
  52:C:/Workspaces/DAVE-4.3/WS_2016_09_02/Flightcontroller_PWM_CopterRocks_Working/Libraries/CMSIS/Include\cmsis_gcc.h **** 
  53:C:/Workspaces/DAVE-4.3/WS_2016_09_02/Flightcontroller_PWM_CopterRocks_Working/Libraries/CMSIS/Include\cmsis_gcc.h **** /**
  54:C:/Workspaces/DAVE-4.3/WS_2016_09_02/Flightcontroller_PWM_CopterRocks_Working/Libraries/CMSIS/Include\cmsis_gcc.h ****   \brief   Enable IRQ Interrupts
  55:C:/Workspaces/DAVE-4.3/WS_2016_09_02/Flightcontroller_PWM_CopterRocks_Working/Libraries/CMSIS/Include\cmsis_gcc.h ****   \details Enables IRQ interrupts by clearing the I-bit in the CPSR.
  56:C:/Workspaces/DAVE-4.3/WS_2016_09_02/Flightcontroller_PWM_CopterRocks_Working/Libraries/CMSIS/Include\cmsis_gcc.h ****            Can only be executed in Privileged modes.
  57:C:/Workspaces/DAVE-4.3/WS_2016_09_02/Flightcontroller_PWM_CopterRocks_Working/Libraries/CMSIS/Include\cmsis_gcc.h ****  */
  58:C:/Workspaces/DAVE-4.3/WS_2016_09_02/Flightcontroller_PWM_CopterRocks_Working/Libraries/CMSIS/Include\cmsis_gcc.h **** __attribute__( ( always_inline ) ) __STATIC_INLINE void __enable_irq(void)
  59:C:/Workspaces/DAVE-4.3/WS_2016_09_02/Flightcontroller_PWM_CopterRocks_Working/Libraries/CMSIS/Include\cmsis_gcc.h **** {
  60:C:/Workspaces/DAVE-4.3/WS_2016_09_02/Flightcontroller_PWM_CopterRocks_Working/Libraries/CMSIS/Include\cmsis_gcc.h ****   __ASM volatile ("cpsie i" : : : "memory");
  61:C:/Workspaces/DAVE-4.3/WS_2016_09_02/Flightcontroller_PWM_CopterRocks_Working/Libraries/CMSIS/Include\cmsis_gcc.h **** }
  62:C:/Workspaces/DAVE-4.3/WS_2016_09_02/Flightcontroller_PWM_CopterRocks_Working/Libraries/CMSIS/Include\cmsis_gcc.h **** 
  63:C:/Workspaces/DAVE-4.3/WS_2016_09_02/Flightcontroller_PWM_CopterRocks_Working/Libraries/CMSIS/Include\cmsis_gcc.h **** 
  64:C:/Workspaces/DAVE-4.3/WS_2016_09_02/Flightcontroller_PWM_CopterRocks_Working/Libraries/CMSIS/Include\cmsis_gcc.h **** /**
  65:C:/Workspaces/DAVE-4.3/WS_2016_09_02/Flightcontroller_PWM_CopterRocks_Working/Libraries/CMSIS/Include\cmsis_gcc.h ****   \brief   Disable IRQ Interrupts
  66:C:/Workspaces/DAVE-4.3/WS_2016_09_02/Flightcontroller_PWM_CopterRocks_Working/Libraries/CMSIS/Include\cmsis_gcc.h ****   \details Disables IRQ interrupts by setting the I-bit in the CPSR.
  67:C:/Workspaces/DAVE-4.3/WS_2016_09_02/Flightcontroller_PWM_CopterRocks_Working/Libraries/CMSIS/Include\cmsis_gcc.h ****   Can only be executed in Privileged modes.
  68:C:/Workspaces/DAVE-4.3/WS_2016_09_02/Flightcontroller_PWM_CopterRocks_Working/Libraries/CMSIS/Include\cmsis_gcc.h ****  */
  69:C:/Workspaces/DAVE-4.3/WS_2016_09_02/Flightcontroller_PWM_CopterRocks_Working/Libraries/CMSIS/Include\cmsis_gcc.h **** __attribute__( ( always_inline ) ) __STATIC_INLINE void __disable_irq(void)
  70:C:/Workspaces/DAVE-4.3/WS_2016_09_02/Flightcontroller_PWM_CopterRocks_Working/Libraries/CMSIS/Include\cmsis_gcc.h **** {
  71:C:/Workspaces/DAVE-4.3/WS_2016_09_02/Flightcontroller_PWM_CopterRocks_Working/Libraries/CMSIS/Include\cmsis_gcc.h ****   __ASM volatile ("cpsid i" : : : "memory");
  72:C:/Workspaces/DAVE-4.3/WS_2016_09_02/Flightcontroller_PWM_CopterRocks_Working/Libraries/CMSIS/Include\cmsis_gcc.h **** }
  73:C:/Workspaces/DAVE-4.3/WS_2016_09_02/Flightcontroller_PWM_CopterRocks_Working/Libraries/CMSIS/Include\cmsis_gcc.h **** 
  74:C:/Workspaces/DAVE-4.3/WS_2016_09_02/Flightcontroller_PWM_CopterRocks_Working/Libraries/CMSIS/Include\cmsis_gcc.h **** 
  75:C:/Workspaces/DAVE-4.3/WS_2016_09_02/Flightcontroller_PWM_CopterRocks_Working/Libraries/CMSIS/Include\cmsis_gcc.h **** /**
  76:C:/Workspaces/DAVE-4.3/WS_2016_09_02/Flightcontroller_PWM_CopterRocks_Working/Libraries/CMSIS/Include\cmsis_gcc.h ****   \brief   Get Control Register
  77:C:/Workspaces/DAVE-4.3/WS_2016_09_02/Flightcontroller_PWM_CopterRocks_Working/Libraries/CMSIS/Include\cmsis_gcc.h ****   \details Returns the content of the Control Register.
  78:C:/Workspaces/DAVE-4.3/WS_2016_09_02/Flightcontroller_PWM_CopterRocks_Working/Libraries/CMSIS/Include\cmsis_gcc.h ****   \return               Control Register value
  79:C:/Workspaces/DAVE-4.3/WS_2016_09_02/Flightcontroller_PWM_CopterRocks_Working/Libraries/CMSIS/Include\cmsis_gcc.h ****  */
  80:C:/Workspaces/DAVE-4.3/WS_2016_09_02/Flightcontroller_PWM_CopterRocks_Working/Libraries/CMSIS/Include\cmsis_gcc.h **** __attribute__( ( always_inline ) ) __STATIC_INLINE uint32_t __get_CONTROL(void)
  81:C:/Workspaces/DAVE-4.3/WS_2016_09_02/Flightcontroller_PWM_CopterRocks_Working/Libraries/CMSIS/Include\cmsis_gcc.h **** {
  82:C:/Workspaces/DAVE-4.3/WS_2016_09_02/Flightcontroller_PWM_CopterRocks_Working/Libraries/CMSIS/Include\cmsis_gcc.h ****   uint32_t result;
  83:C:/Workspaces/DAVE-4.3/WS_2016_09_02/Flightcontroller_PWM_CopterRocks_Working/Libraries/CMSIS/Include\cmsis_gcc.h **** 
  84:C:/Workspaces/DAVE-4.3/WS_2016_09_02/Flightcontroller_PWM_CopterRocks_Working/Libraries/CMSIS/Include\cmsis_gcc.h ****   __ASM volatile ("MRS %0, control" : "=r" (result) );
  85:C:/Workspaces/DAVE-4.3/WS_2016_09_02/Flightcontroller_PWM_CopterRocks_Working/Libraries/CMSIS/Include\cmsis_gcc.h ****   return(result);
  86:C:/Workspaces/DAVE-4.3/WS_2016_09_02/Flightcontroller_PWM_CopterRocks_Working/Libraries/CMSIS/Include\cmsis_gcc.h **** }
  87:C:/Workspaces/DAVE-4.3/WS_2016_09_02/Flightcontroller_PWM_CopterRocks_Working/Libraries/CMSIS/Include\cmsis_gcc.h **** 
  88:C:/Workspaces/DAVE-4.3/WS_2016_09_02/Flightcontroller_PWM_CopterRocks_Working/Libraries/CMSIS/Include\cmsis_gcc.h **** 
  89:C:/Workspaces/DAVE-4.3/WS_2016_09_02/Flightcontroller_PWM_CopterRocks_Working/Libraries/CMSIS/Include\cmsis_gcc.h **** /**
  90:C:/Workspaces/DAVE-4.3/WS_2016_09_02/Flightcontroller_PWM_CopterRocks_Working/Libraries/CMSIS/Include\cmsis_gcc.h ****   \brief   Set Control Register
  91:C:/Workspaces/DAVE-4.3/WS_2016_09_02/Flightcontroller_PWM_CopterRocks_Working/Libraries/CMSIS/Include\cmsis_gcc.h ****   \details Writes the given value to the Control Register.
  92:C:/Workspaces/DAVE-4.3/WS_2016_09_02/Flightcontroller_PWM_CopterRocks_Working/Libraries/CMSIS/Include\cmsis_gcc.h ****   \param [in]    control  Control Register value to set
  93:C:/Workspaces/DAVE-4.3/WS_2016_09_02/Flightcontroller_PWM_CopterRocks_Working/Libraries/CMSIS/Include\cmsis_gcc.h ****  */
  94:C:/Workspaces/DAVE-4.3/WS_2016_09_02/Flightcontroller_PWM_CopterRocks_Working/Libraries/CMSIS/Include\cmsis_gcc.h **** __attribute__( ( always_inline ) ) __STATIC_INLINE void __set_CONTROL(uint32_t control)
  95:C:/Workspaces/DAVE-4.3/WS_2016_09_02/Flightcontroller_PWM_CopterRocks_Working/Libraries/CMSIS/Include\cmsis_gcc.h **** {
  96:C:/Workspaces/DAVE-4.3/WS_2016_09_02/Flightcontroller_PWM_CopterRocks_Working/Libraries/CMSIS/Include\cmsis_gcc.h ****   __ASM volatile ("MSR control, %0" : : "r" (control) : "memory");
  97:C:/Workspaces/DAVE-4.3/WS_2016_09_02/Flightcontroller_PWM_CopterRocks_Working/Libraries/CMSIS/Include\cmsis_gcc.h **** }
  98:C:/Workspaces/DAVE-4.3/WS_2016_09_02/Flightcontroller_PWM_CopterRocks_Working/Libraries/CMSIS/Include\cmsis_gcc.h **** 
  99:C:/Workspaces/DAVE-4.3/WS_2016_09_02/Flightcontroller_PWM_CopterRocks_Working/Libraries/CMSIS/Include\cmsis_gcc.h **** 
 100:C:/Workspaces/DAVE-4.3/WS_2016_09_02/Flightcontroller_PWM_CopterRocks_Working/Libraries/CMSIS/Include\cmsis_gcc.h **** /**
 101:C:/Workspaces/DAVE-4.3/WS_2016_09_02/Flightcontroller_PWM_CopterRocks_Working/Libraries/CMSIS/Include\cmsis_gcc.h ****   \brief   Get IPSR Register
 102:C:/Workspaces/DAVE-4.3/WS_2016_09_02/Flightcontroller_PWM_CopterRocks_Working/Libraries/CMSIS/Include\cmsis_gcc.h ****   \details Returns the content of the IPSR Register.
 103:C:/Workspaces/DAVE-4.3/WS_2016_09_02/Flightcontroller_PWM_CopterRocks_Working/Libraries/CMSIS/Include\cmsis_gcc.h ****   \return               IPSR Register value
 104:C:/Workspaces/DAVE-4.3/WS_2016_09_02/Flightcontroller_PWM_CopterRocks_Working/Libraries/CMSIS/Include\cmsis_gcc.h ****  */
 105:C:/Workspaces/DAVE-4.3/WS_2016_09_02/Flightcontroller_PWM_CopterRocks_Working/Libraries/CMSIS/Include\cmsis_gcc.h **** __attribute__( ( always_inline ) ) __STATIC_INLINE uint32_t __get_IPSR(void)
 106:C:/Workspaces/DAVE-4.3/WS_2016_09_02/Flightcontroller_PWM_CopterRocks_Working/Libraries/CMSIS/Include\cmsis_gcc.h **** {
 107:C:/Workspaces/DAVE-4.3/WS_2016_09_02/Flightcontroller_PWM_CopterRocks_Working/Libraries/CMSIS/Include\cmsis_gcc.h ****   uint32_t result;
 108:C:/Workspaces/DAVE-4.3/WS_2016_09_02/Flightcontroller_PWM_CopterRocks_Working/Libraries/CMSIS/Include\cmsis_gcc.h **** 
 109:C:/Workspaces/DAVE-4.3/WS_2016_09_02/Flightcontroller_PWM_CopterRocks_Working/Libraries/CMSIS/Include\cmsis_gcc.h ****   __ASM volatile ("MRS %0, ipsr" : "=r" (result) );
 110:C:/Workspaces/DAVE-4.3/WS_2016_09_02/Flightcontroller_PWM_CopterRocks_Working/Libraries/CMSIS/Include\cmsis_gcc.h ****   return(result);
 111:C:/Workspaces/DAVE-4.3/WS_2016_09_02/Flightcontroller_PWM_CopterRocks_Working/Libraries/CMSIS/Include\cmsis_gcc.h **** }
 112:C:/Workspaces/DAVE-4.3/WS_2016_09_02/Flightcontroller_PWM_CopterRocks_Working/Libraries/CMSIS/Include\cmsis_gcc.h **** 
 113:C:/Workspaces/DAVE-4.3/WS_2016_09_02/Flightcontroller_PWM_CopterRocks_Working/Libraries/CMSIS/Include\cmsis_gcc.h **** 
 114:C:/Workspaces/DAVE-4.3/WS_2016_09_02/Flightcontroller_PWM_CopterRocks_Working/Libraries/CMSIS/Include\cmsis_gcc.h **** /**
 115:C:/Workspaces/DAVE-4.3/WS_2016_09_02/Flightcontroller_PWM_CopterRocks_Working/Libraries/CMSIS/Include\cmsis_gcc.h ****   \brief   Get APSR Register
 116:C:/Workspaces/DAVE-4.3/WS_2016_09_02/Flightcontroller_PWM_CopterRocks_Working/Libraries/CMSIS/Include\cmsis_gcc.h ****   \details Returns the content of the APSR Register.
 117:C:/Workspaces/DAVE-4.3/WS_2016_09_02/Flightcontroller_PWM_CopterRocks_Working/Libraries/CMSIS/Include\cmsis_gcc.h ****   \return               APSR Register value
 118:C:/Workspaces/DAVE-4.3/WS_2016_09_02/Flightcontroller_PWM_CopterRocks_Working/Libraries/CMSIS/Include\cmsis_gcc.h ****  */
 119:C:/Workspaces/DAVE-4.3/WS_2016_09_02/Flightcontroller_PWM_CopterRocks_Working/Libraries/CMSIS/Include\cmsis_gcc.h **** __attribute__( ( always_inline ) ) __STATIC_INLINE uint32_t __get_APSR(void)
 120:C:/Workspaces/DAVE-4.3/WS_2016_09_02/Flightcontroller_PWM_CopterRocks_Working/Libraries/CMSIS/Include\cmsis_gcc.h **** {
 121:C:/Workspaces/DAVE-4.3/WS_2016_09_02/Flightcontroller_PWM_CopterRocks_Working/Libraries/CMSIS/Include\cmsis_gcc.h ****   uint32_t result;
 122:C:/Workspaces/DAVE-4.3/WS_2016_09_02/Flightcontroller_PWM_CopterRocks_Working/Libraries/CMSIS/Include\cmsis_gcc.h **** 
 123:C:/Workspaces/DAVE-4.3/WS_2016_09_02/Flightcontroller_PWM_CopterRocks_Working/Libraries/CMSIS/Include\cmsis_gcc.h ****   __ASM volatile ("MRS %0, apsr" : "=r" (result) );
 124:C:/Workspaces/DAVE-4.3/WS_2016_09_02/Flightcontroller_PWM_CopterRocks_Working/Libraries/CMSIS/Include\cmsis_gcc.h ****   return(result);
 125:C:/Workspaces/DAVE-4.3/WS_2016_09_02/Flightcontroller_PWM_CopterRocks_Working/Libraries/CMSIS/Include\cmsis_gcc.h **** }
 126:C:/Workspaces/DAVE-4.3/WS_2016_09_02/Flightcontroller_PWM_CopterRocks_Working/Libraries/CMSIS/Include\cmsis_gcc.h **** 
 127:C:/Workspaces/DAVE-4.3/WS_2016_09_02/Flightcontroller_PWM_CopterRocks_Working/Libraries/CMSIS/Include\cmsis_gcc.h **** 
 128:C:/Workspaces/DAVE-4.3/WS_2016_09_02/Flightcontroller_PWM_CopterRocks_Working/Libraries/CMSIS/Include\cmsis_gcc.h **** /**
 129:C:/Workspaces/DAVE-4.3/WS_2016_09_02/Flightcontroller_PWM_CopterRocks_Working/Libraries/CMSIS/Include\cmsis_gcc.h ****   \brief   Get xPSR Register
 130:C:/Workspaces/DAVE-4.3/WS_2016_09_02/Flightcontroller_PWM_CopterRocks_Working/Libraries/CMSIS/Include\cmsis_gcc.h ****   \details Returns the content of the xPSR Register.
 131:C:/Workspaces/DAVE-4.3/WS_2016_09_02/Flightcontroller_PWM_CopterRocks_Working/Libraries/CMSIS/Include\cmsis_gcc.h **** 
 132:C:/Workspaces/DAVE-4.3/WS_2016_09_02/Flightcontroller_PWM_CopterRocks_Working/Libraries/CMSIS/Include\cmsis_gcc.h ****     \return               xPSR Register value
 133:C:/Workspaces/DAVE-4.3/WS_2016_09_02/Flightcontroller_PWM_CopterRocks_Working/Libraries/CMSIS/Include\cmsis_gcc.h ****  */
 134:C:/Workspaces/DAVE-4.3/WS_2016_09_02/Flightcontroller_PWM_CopterRocks_Working/Libraries/CMSIS/Include\cmsis_gcc.h **** __attribute__( ( always_inline ) ) __STATIC_INLINE uint32_t __get_xPSR(void)
 135:C:/Workspaces/DAVE-4.3/WS_2016_09_02/Flightcontroller_PWM_CopterRocks_Working/Libraries/CMSIS/Include\cmsis_gcc.h **** {
 136:C:/Workspaces/DAVE-4.3/WS_2016_09_02/Flightcontroller_PWM_CopterRocks_Working/Libraries/CMSIS/Include\cmsis_gcc.h ****   uint32_t result;
 137:C:/Workspaces/DAVE-4.3/WS_2016_09_02/Flightcontroller_PWM_CopterRocks_Working/Libraries/CMSIS/Include\cmsis_gcc.h **** 
 138:C:/Workspaces/DAVE-4.3/WS_2016_09_02/Flightcontroller_PWM_CopterRocks_Working/Libraries/CMSIS/Include\cmsis_gcc.h ****   __ASM volatile ("MRS %0, xpsr" : "=r" (result) );
 139:C:/Workspaces/DAVE-4.3/WS_2016_09_02/Flightcontroller_PWM_CopterRocks_Working/Libraries/CMSIS/Include\cmsis_gcc.h ****   return(result);
 140:C:/Workspaces/DAVE-4.3/WS_2016_09_02/Flightcontroller_PWM_CopterRocks_Working/Libraries/CMSIS/Include\cmsis_gcc.h **** }
 141:C:/Workspaces/DAVE-4.3/WS_2016_09_02/Flightcontroller_PWM_CopterRocks_Working/Libraries/CMSIS/Include\cmsis_gcc.h **** 
 142:C:/Workspaces/DAVE-4.3/WS_2016_09_02/Flightcontroller_PWM_CopterRocks_Working/Libraries/CMSIS/Include\cmsis_gcc.h **** 
 143:C:/Workspaces/DAVE-4.3/WS_2016_09_02/Flightcontroller_PWM_CopterRocks_Working/Libraries/CMSIS/Include\cmsis_gcc.h **** /**
 144:C:/Workspaces/DAVE-4.3/WS_2016_09_02/Flightcontroller_PWM_CopterRocks_Working/Libraries/CMSIS/Include\cmsis_gcc.h ****   \brief   Get Process Stack Pointer
 145:C:/Workspaces/DAVE-4.3/WS_2016_09_02/Flightcontroller_PWM_CopterRocks_Working/Libraries/CMSIS/Include\cmsis_gcc.h ****   \details Returns the current value of the Process Stack Pointer (PSP).
 146:C:/Workspaces/DAVE-4.3/WS_2016_09_02/Flightcontroller_PWM_CopterRocks_Working/Libraries/CMSIS/Include\cmsis_gcc.h ****   \return               PSP Register value
 147:C:/Workspaces/DAVE-4.3/WS_2016_09_02/Flightcontroller_PWM_CopterRocks_Working/Libraries/CMSIS/Include\cmsis_gcc.h ****  */
 148:C:/Workspaces/DAVE-4.3/WS_2016_09_02/Flightcontroller_PWM_CopterRocks_Working/Libraries/CMSIS/Include\cmsis_gcc.h **** __attribute__( ( always_inline ) ) __STATIC_INLINE uint32_t __get_PSP(void)
 149:C:/Workspaces/DAVE-4.3/WS_2016_09_02/Flightcontroller_PWM_CopterRocks_Working/Libraries/CMSIS/Include\cmsis_gcc.h **** {
 150:C:/Workspaces/DAVE-4.3/WS_2016_09_02/Flightcontroller_PWM_CopterRocks_Working/Libraries/CMSIS/Include\cmsis_gcc.h ****   register uint32_t result;
 151:C:/Workspaces/DAVE-4.3/WS_2016_09_02/Flightcontroller_PWM_CopterRocks_Working/Libraries/CMSIS/Include\cmsis_gcc.h **** 
 152:C:/Workspaces/DAVE-4.3/WS_2016_09_02/Flightcontroller_PWM_CopterRocks_Working/Libraries/CMSIS/Include\cmsis_gcc.h ****   __ASM volatile ("MRS %0, psp\n"  : "=r" (result) );
 153:C:/Workspaces/DAVE-4.3/WS_2016_09_02/Flightcontroller_PWM_CopterRocks_Working/Libraries/CMSIS/Include\cmsis_gcc.h ****   return(result);
 154:C:/Workspaces/DAVE-4.3/WS_2016_09_02/Flightcontroller_PWM_CopterRocks_Working/Libraries/CMSIS/Include\cmsis_gcc.h **** }
 155:C:/Workspaces/DAVE-4.3/WS_2016_09_02/Flightcontroller_PWM_CopterRocks_Working/Libraries/CMSIS/Include\cmsis_gcc.h **** 
 156:C:/Workspaces/DAVE-4.3/WS_2016_09_02/Flightcontroller_PWM_CopterRocks_Working/Libraries/CMSIS/Include\cmsis_gcc.h **** 
 157:C:/Workspaces/DAVE-4.3/WS_2016_09_02/Flightcontroller_PWM_CopterRocks_Working/Libraries/CMSIS/Include\cmsis_gcc.h **** /**
 158:C:/Workspaces/DAVE-4.3/WS_2016_09_02/Flightcontroller_PWM_CopterRocks_Working/Libraries/CMSIS/Include\cmsis_gcc.h ****   \brief   Set Process Stack Pointer
 159:C:/Workspaces/DAVE-4.3/WS_2016_09_02/Flightcontroller_PWM_CopterRocks_Working/Libraries/CMSIS/Include\cmsis_gcc.h ****   \details Assigns the given value to the Process Stack Pointer (PSP).
 160:C:/Workspaces/DAVE-4.3/WS_2016_09_02/Flightcontroller_PWM_CopterRocks_Working/Libraries/CMSIS/Include\cmsis_gcc.h ****   \param [in]    topOfProcStack  Process Stack Pointer value to set
 161:C:/Workspaces/DAVE-4.3/WS_2016_09_02/Flightcontroller_PWM_CopterRocks_Working/Libraries/CMSIS/Include\cmsis_gcc.h ****  */
 162:C:/Workspaces/DAVE-4.3/WS_2016_09_02/Flightcontroller_PWM_CopterRocks_Working/Libraries/CMSIS/Include\cmsis_gcc.h **** __attribute__( ( always_inline ) ) __STATIC_INLINE void __set_PSP(uint32_t topOfProcStack)
 163:C:/Workspaces/DAVE-4.3/WS_2016_09_02/Flightcontroller_PWM_CopterRocks_Working/Libraries/CMSIS/Include\cmsis_gcc.h **** {
 164:C:/Workspaces/DAVE-4.3/WS_2016_09_02/Flightcontroller_PWM_CopterRocks_Working/Libraries/CMSIS/Include\cmsis_gcc.h ****   __ASM volatile ("MSR psp, %0\n" : : "r" (topOfProcStack) : "sp");
 165:C:/Workspaces/DAVE-4.3/WS_2016_09_02/Flightcontroller_PWM_CopterRocks_Working/Libraries/CMSIS/Include\cmsis_gcc.h **** }
 166:C:/Workspaces/DAVE-4.3/WS_2016_09_02/Flightcontroller_PWM_CopterRocks_Working/Libraries/CMSIS/Include\cmsis_gcc.h **** 
 167:C:/Workspaces/DAVE-4.3/WS_2016_09_02/Flightcontroller_PWM_CopterRocks_Working/Libraries/CMSIS/Include\cmsis_gcc.h **** 
 168:C:/Workspaces/DAVE-4.3/WS_2016_09_02/Flightcontroller_PWM_CopterRocks_Working/Libraries/CMSIS/Include\cmsis_gcc.h **** /**
 169:C:/Workspaces/DAVE-4.3/WS_2016_09_02/Flightcontroller_PWM_CopterRocks_Working/Libraries/CMSIS/Include\cmsis_gcc.h ****   \brief   Get Main Stack Pointer
 170:C:/Workspaces/DAVE-4.3/WS_2016_09_02/Flightcontroller_PWM_CopterRocks_Working/Libraries/CMSIS/Include\cmsis_gcc.h ****   \details Returns the current value of the Main Stack Pointer (MSP).
 171:C:/Workspaces/DAVE-4.3/WS_2016_09_02/Flightcontroller_PWM_CopterRocks_Working/Libraries/CMSIS/Include\cmsis_gcc.h ****   \return               MSP Register value
 172:C:/Workspaces/DAVE-4.3/WS_2016_09_02/Flightcontroller_PWM_CopterRocks_Working/Libraries/CMSIS/Include\cmsis_gcc.h ****  */
 173:C:/Workspaces/DAVE-4.3/WS_2016_09_02/Flightcontroller_PWM_CopterRocks_Working/Libraries/CMSIS/Include\cmsis_gcc.h **** __attribute__( ( always_inline ) ) __STATIC_INLINE uint32_t __get_MSP(void)
 174:C:/Workspaces/DAVE-4.3/WS_2016_09_02/Flightcontroller_PWM_CopterRocks_Working/Libraries/CMSIS/Include\cmsis_gcc.h **** {
 175:C:/Workspaces/DAVE-4.3/WS_2016_09_02/Flightcontroller_PWM_CopterRocks_Working/Libraries/CMSIS/Include\cmsis_gcc.h ****   register uint32_t result;
 176:C:/Workspaces/DAVE-4.3/WS_2016_09_02/Flightcontroller_PWM_CopterRocks_Working/Libraries/CMSIS/Include\cmsis_gcc.h **** 
 177:C:/Workspaces/DAVE-4.3/WS_2016_09_02/Flightcontroller_PWM_CopterRocks_Working/Libraries/CMSIS/Include\cmsis_gcc.h ****   __ASM volatile ("MRS %0, msp\n" : "=r" (result) );
 178:C:/Workspaces/DAVE-4.3/WS_2016_09_02/Flightcontroller_PWM_CopterRocks_Working/Libraries/CMSIS/Include\cmsis_gcc.h ****   return(result);
 179:C:/Workspaces/DAVE-4.3/WS_2016_09_02/Flightcontroller_PWM_CopterRocks_Working/Libraries/CMSIS/Include\cmsis_gcc.h **** }
 180:C:/Workspaces/DAVE-4.3/WS_2016_09_02/Flightcontroller_PWM_CopterRocks_Working/Libraries/CMSIS/Include\cmsis_gcc.h **** 
 181:C:/Workspaces/DAVE-4.3/WS_2016_09_02/Flightcontroller_PWM_CopterRocks_Working/Libraries/CMSIS/Include\cmsis_gcc.h **** 
 182:C:/Workspaces/DAVE-4.3/WS_2016_09_02/Flightcontroller_PWM_CopterRocks_Working/Libraries/CMSIS/Include\cmsis_gcc.h **** /**
 183:C:/Workspaces/DAVE-4.3/WS_2016_09_02/Flightcontroller_PWM_CopterRocks_Working/Libraries/CMSIS/Include\cmsis_gcc.h ****   \brief   Set Main Stack Pointer
 184:C:/Workspaces/DAVE-4.3/WS_2016_09_02/Flightcontroller_PWM_CopterRocks_Working/Libraries/CMSIS/Include\cmsis_gcc.h ****   \details Assigns the given value to the Main Stack Pointer (MSP).
 185:C:/Workspaces/DAVE-4.3/WS_2016_09_02/Flightcontroller_PWM_CopterRocks_Working/Libraries/CMSIS/Include\cmsis_gcc.h **** 
 186:C:/Workspaces/DAVE-4.3/WS_2016_09_02/Flightcontroller_PWM_CopterRocks_Working/Libraries/CMSIS/Include\cmsis_gcc.h ****     \param [in]    topOfMainStack  Main Stack Pointer value to set
 187:C:/Workspaces/DAVE-4.3/WS_2016_09_02/Flightcontroller_PWM_CopterRocks_Working/Libraries/CMSIS/Include\cmsis_gcc.h ****  */
 188:C:/Workspaces/DAVE-4.3/WS_2016_09_02/Flightcontroller_PWM_CopterRocks_Working/Libraries/CMSIS/Include\cmsis_gcc.h **** __attribute__( ( always_inline ) ) __STATIC_INLINE void __set_MSP(uint32_t topOfMainStack)
 189:C:/Workspaces/DAVE-4.3/WS_2016_09_02/Flightcontroller_PWM_CopterRocks_Working/Libraries/CMSIS/Include\cmsis_gcc.h **** {
 190:C:/Workspaces/DAVE-4.3/WS_2016_09_02/Flightcontroller_PWM_CopterRocks_Working/Libraries/CMSIS/Include\cmsis_gcc.h ****   __ASM volatile ("MSR msp, %0\n" : : "r" (topOfMainStack) : "sp");
 191:C:/Workspaces/DAVE-4.3/WS_2016_09_02/Flightcontroller_PWM_CopterRocks_Working/Libraries/CMSIS/Include\cmsis_gcc.h **** }
 192:C:/Workspaces/DAVE-4.3/WS_2016_09_02/Flightcontroller_PWM_CopterRocks_Working/Libraries/CMSIS/Include\cmsis_gcc.h **** 
 193:C:/Workspaces/DAVE-4.3/WS_2016_09_02/Flightcontroller_PWM_CopterRocks_Working/Libraries/CMSIS/Include\cmsis_gcc.h **** 
 194:C:/Workspaces/DAVE-4.3/WS_2016_09_02/Flightcontroller_PWM_CopterRocks_Working/Libraries/CMSIS/Include\cmsis_gcc.h **** /**
 195:C:/Workspaces/DAVE-4.3/WS_2016_09_02/Flightcontroller_PWM_CopterRocks_Working/Libraries/CMSIS/Include\cmsis_gcc.h ****   \brief   Get Priority Mask
 196:C:/Workspaces/DAVE-4.3/WS_2016_09_02/Flightcontroller_PWM_CopterRocks_Working/Libraries/CMSIS/Include\cmsis_gcc.h ****   \details Returns the current state of the priority mask bit from the Priority Mask Register.
 197:C:/Workspaces/DAVE-4.3/WS_2016_09_02/Flightcontroller_PWM_CopterRocks_Working/Libraries/CMSIS/Include\cmsis_gcc.h ****   \return               Priority Mask value
 198:C:/Workspaces/DAVE-4.3/WS_2016_09_02/Flightcontroller_PWM_CopterRocks_Working/Libraries/CMSIS/Include\cmsis_gcc.h ****  */
 199:C:/Workspaces/DAVE-4.3/WS_2016_09_02/Flightcontroller_PWM_CopterRocks_Working/Libraries/CMSIS/Include\cmsis_gcc.h **** __attribute__( ( always_inline ) ) __STATIC_INLINE uint32_t __get_PRIMASK(void)
 200:C:/Workspaces/DAVE-4.3/WS_2016_09_02/Flightcontroller_PWM_CopterRocks_Working/Libraries/CMSIS/Include\cmsis_gcc.h **** {
 201:C:/Workspaces/DAVE-4.3/WS_2016_09_02/Flightcontroller_PWM_CopterRocks_Working/Libraries/CMSIS/Include\cmsis_gcc.h ****   uint32_t result;
 202:C:/Workspaces/DAVE-4.3/WS_2016_09_02/Flightcontroller_PWM_CopterRocks_Working/Libraries/CMSIS/Include\cmsis_gcc.h **** 
 203:C:/Workspaces/DAVE-4.3/WS_2016_09_02/Flightcontroller_PWM_CopterRocks_Working/Libraries/CMSIS/Include\cmsis_gcc.h ****   __ASM volatile ("MRS %0, primask" : "=r" (result) );
 204:C:/Workspaces/DAVE-4.3/WS_2016_09_02/Flightcontroller_PWM_CopterRocks_Working/Libraries/CMSIS/Include\cmsis_gcc.h ****   return(result);
 205:C:/Workspaces/DAVE-4.3/WS_2016_09_02/Flightcontroller_PWM_CopterRocks_Working/Libraries/CMSIS/Include\cmsis_gcc.h **** }
 206:C:/Workspaces/DAVE-4.3/WS_2016_09_02/Flightcontroller_PWM_CopterRocks_Working/Libraries/CMSIS/Include\cmsis_gcc.h **** 
 207:C:/Workspaces/DAVE-4.3/WS_2016_09_02/Flightcontroller_PWM_CopterRocks_Working/Libraries/CMSIS/Include\cmsis_gcc.h **** 
 208:C:/Workspaces/DAVE-4.3/WS_2016_09_02/Flightcontroller_PWM_CopterRocks_Working/Libraries/CMSIS/Include\cmsis_gcc.h **** /**
 209:C:/Workspaces/DAVE-4.3/WS_2016_09_02/Flightcontroller_PWM_CopterRocks_Working/Libraries/CMSIS/Include\cmsis_gcc.h ****   \brief   Set Priority Mask
 210:C:/Workspaces/DAVE-4.3/WS_2016_09_02/Flightcontroller_PWM_CopterRocks_Working/Libraries/CMSIS/Include\cmsis_gcc.h ****   \details Assigns the given value to the Priority Mask Register.
 211:C:/Workspaces/DAVE-4.3/WS_2016_09_02/Flightcontroller_PWM_CopterRocks_Working/Libraries/CMSIS/Include\cmsis_gcc.h ****   \param [in]    priMask  Priority Mask
 212:C:/Workspaces/DAVE-4.3/WS_2016_09_02/Flightcontroller_PWM_CopterRocks_Working/Libraries/CMSIS/Include\cmsis_gcc.h ****  */
 213:C:/Workspaces/DAVE-4.3/WS_2016_09_02/Flightcontroller_PWM_CopterRocks_Working/Libraries/CMSIS/Include\cmsis_gcc.h **** __attribute__( ( always_inline ) ) __STATIC_INLINE void __set_PRIMASK(uint32_t priMask)
 214:C:/Workspaces/DAVE-4.3/WS_2016_09_02/Flightcontroller_PWM_CopterRocks_Working/Libraries/CMSIS/Include\cmsis_gcc.h **** {
 215:C:/Workspaces/DAVE-4.3/WS_2016_09_02/Flightcontroller_PWM_CopterRocks_Working/Libraries/CMSIS/Include\cmsis_gcc.h ****   __ASM volatile ("MSR primask, %0" : : "r" (priMask) : "memory");
 216:C:/Workspaces/DAVE-4.3/WS_2016_09_02/Flightcontroller_PWM_CopterRocks_Working/Libraries/CMSIS/Include\cmsis_gcc.h **** }
 217:C:/Workspaces/DAVE-4.3/WS_2016_09_02/Flightcontroller_PWM_CopterRocks_Working/Libraries/CMSIS/Include\cmsis_gcc.h **** 
 218:C:/Workspaces/DAVE-4.3/WS_2016_09_02/Flightcontroller_PWM_CopterRocks_Working/Libraries/CMSIS/Include\cmsis_gcc.h **** 
 219:C:/Workspaces/DAVE-4.3/WS_2016_09_02/Flightcontroller_PWM_CopterRocks_Working/Libraries/CMSIS/Include\cmsis_gcc.h **** #if       (__CORTEX_M >= 0x03U)
 220:C:/Workspaces/DAVE-4.3/WS_2016_09_02/Flightcontroller_PWM_CopterRocks_Working/Libraries/CMSIS/Include\cmsis_gcc.h **** 
 221:C:/Workspaces/DAVE-4.3/WS_2016_09_02/Flightcontroller_PWM_CopterRocks_Working/Libraries/CMSIS/Include\cmsis_gcc.h **** /**
 222:C:/Workspaces/DAVE-4.3/WS_2016_09_02/Flightcontroller_PWM_CopterRocks_Working/Libraries/CMSIS/Include\cmsis_gcc.h ****   \brief   Enable FIQ
 223:C:/Workspaces/DAVE-4.3/WS_2016_09_02/Flightcontroller_PWM_CopterRocks_Working/Libraries/CMSIS/Include\cmsis_gcc.h ****   \details Enables FIQ interrupts by clearing the F-bit in the CPSR.
 224:C:/Workspaces/DAVE-4.3/WS_2016_09_02/Flightcontroller_PWM_CopterRocks_Working/Libraries/CMSIS/Include\cmsis_gcc.h ****            Can only be executed in Privileged modes.
 225:C:/Workspaces/DAVE-4.3/WS_2016_09_02/Flightcontroller_PWM_CopterRocks_Working/Libraries/CMSIS/Include\cmsis_gcc.h ****  */
 226:C:/Workspaces/DAVE-4.3/WS_2016_09_02/Flightcontroller_PWM_CopterRocks_Working/Libraries/CMSIS/Include\cmsis_gcc.h **** __attribute__( ( always_inline ) ) __STATIC_INLINE void __enable_fault_irq(void)
 227:C:/Workspaces/DAVE-4.3/WS_2016_09_02/Flightcontroller_PWM_CopterRocks_Working/Libraries/CMSIS/Include\cmsis_gcc.h **** {
 228:C:/Workspaces/DAVE-4.3/WS_2016_09_02/Flightcontroller_PWM_CopterRocks_Working/Libraries/CMSIS/Include\cmsis_gcc.h ****   __ASM volatile ("cpsie f" : : : "memory");
 229:C:/Workspaces/DAVE-4.3/WS_2016_09_02/Flightcontroller_PWM_CopterRocks_Working/Libraries/CMSIS/Include\cmsis_gcc.h **** }
 230:C:/Workspaces/DAVE-4.3/WS_2016_09_02/Flightcontroller_PWM_CopterRocks_Working/Libraries/CMSIS/Include\cmsis_gcc.h **** 
 231:C:/Workspaces/DAVE-4.3/WS_2016_09_02/Flightcontroller_PWM_CopterRocks_Working/Libraries/CMSIS/Include\cmsis_gcc.h **** 
 232:C:/Workspaces/DAVE-4.3/WS_2016_09_02/Flightcontroller_PWM_CopterRocks_Working/Libraries/CMSIS/Include\cmsis_gcc.h **** /**
 233:C:/Workspaces/DAVE-4.3/WS_2016_09_02/Flightcontroller_PWM_CopterRocks_Working/Libraries/CMSIS/Include\cmsis_gcc.h ****   \brief   Disable FIQ
 234:C:/Workspaces/DAVE-4.3/WS_2016_09_02/Flightcontroller_PWM_CopterRocks_Working/Libraries/CMSIS/Include\cmsis_gcc.h ****   \details Disables FIQ interrupts by setting the F-bit in the CPSR.
 235:C:/Workspaces/DAVE-4.3/WS_2016_09_02/Flightcontroller_PWM_CopterRocks_Working/Libraries/CMSIS/Include\cmsis_gcc.h ****            Can only be executed in Privileged modes.
 236:C:/Workspaces/DAVE-4.3/WS_2016_09_02/Flightcontroller_PWM_CopterRocks_Working/Libraries/CMSIS/Include\cmsis_gcc.h ****  */
 237:C:/Workspaces/DAVE-4.3/WS_2016_09_02/Flightcontroller_PWM_CopterRocks_Working/Libraries/CMSIS/Include\cmsis_gcc.h **** __attribute__( ( always_inline ) ) __STATIC_INLINE void __disable_fault_irq(void)
 238:C:/Workspaces/DAVE-4.3/WS_2016_09_02/Flightcontroller_PWM_CopterRocks_Working/Libraries/CMSIS/Include\cmsis_gcc.h **** {
 239:C:/Workspaces/DAVE-4.3/WS_2016_09_02/Flightcontroller_PWM_CopterRocks_Working/Libraries/CMSIS/Include\cmsis_gcc.h ****   __ASM volatile ("cpsid f" : : : "memory");
 240:C:/Workspaces/DAVE-4.3/WS_2016_09_02/Flightcontroller_PWM_CopterRocks_Working/Libraries/CMSIS/Include\cmsis_gcc.h **** }
 241:C:/Workspaces/DAVE-4.3/WS_2016_09_02/Flightcontroller_PWM_CopterRocks_Working/Libraries/CMSIS/Include\cmsis_gcc.h **** 
 242:C:/Workspaces/DAVE-4.3/WS_2016_09_02/Flightcontroller_PWM_CopterRocks_Working/Libraries/CMSIS/Include\cmsis_gcc.h **** 
 243:C:/Workspaces/DAVE-4.3/WS_2016_09_02/Flightcontroller_PWM_CopterRocks_Working/Libraries/CMSIS/Include\cmsis_gcc.h **** /**
 244:C:/Workspaces/DAVE-4.3/WS_2016_09_02/Flightcontroller_PWM_CopterRocks_Working/Libraries/CMSIS/Include\cmsis_gcc.h ****   \brief   Get Base Priority
 245:C:/Workspaces/DAVE-4.3/WS_2016_09_02/Flightcontroller_PWM_CopterRocks_Working/Libraries/CMSIS/Include\cmsis_gcc.h ****   \details Returns the current value of the Base Priority register.
 246:C:/Workspaces/DAVE-4.3/WS_2016_09_02/Flightcontroller_PWM_CopterRocks_Working/Libraries/CMSIS/Include\cmsis_gcc.h ****   \return               Base Priority register value
 247:C:/Workspaces/DAVE-4.3/WS_2016_09_02/Flightcontroller_PWM_CopterRocks_Working/Libraries/CMSIS/Include\cmsis_gcc.h ****  */
 248:C:/Workspaces/DAVE-4.3/WS_2016_09_02/Flightcontroller_PWM_CopterRocks_Working/Libraries/CMSIS/Include\cmsis_gcc.h **** __attribute__( ( always_inline ) ) __STATIC_INLINE uint32_t __get_BASEPRI(void)
 249:C:/Workspaces/DAVE-4.3/WS_2016_09_02/Flightcontroller_PWM_CopterRocks_Working/Libraries/CMSIS/Include\cmsis_gcc.h **** {
 250:C:/Workspaces/DAVE-4.3/WS_2016_09_02/Flightcontroller_PWM_CopterRocks_Working/Libraries/CMSIS/Include\cmsis_gcc.h ****   uint32_t result;
 251:C:/Workspaces/DAVE-4.3/WS_2016_09_02/Flightcontroller_PWM_CopterRocks_Working/Libraries/CMSIS/Include\cmsis_gcc.h **** 
 252:C:/Workspaces/DAVE-4.3/WS_2016_09_02/Flightcontroller_PWM_CopterRocks_Working/Libraries/CMSIS/Include\cmsis_gcc.h ****   __ASM volatile ("MRS %0, basepri" : "=r" (result) );
 253:C:/Workspaces/DAVE-4.3/WS_2016_09_02/Flightcontroller_PWM_CopterRocks_Working/Libraries/CMSIS/Include\cmsis_gcc.h ****   return(result);
 254:C:/Workspaces/DAVE-4.3/WS_2016_09_02/Flightcontroller_PWM_CopterRocks_Working/Libraries/CMSIS/Include\cmsis_gcc.h **** }
 255:C:/Workspaces/DAVE-4.3/WS_2016_09_02/Flightcontroller_PWM_CopterRocks_Working/Libraries/CMSIS/Include\cmsis_gcc.h **** 
 256:C:/Workspaces/DAVE-4.3/WS_2016_09_02/Flightcontroller_PWM_CopterRocks_Working/Libraries/CMSIS/Include\cmsis_gcc.h **** 
 257:C:/Workspaces/DAVE-4.3/WS_2016_09_02/Flightcontroller_PWM_CopterRocks_Working/Libraries/CMSIS/Include\cmsis_gcc.h **** /**
 258:C:/Workspaces/DAVE-4.3/WS_2016_09_02/Flightcontroller_PWM_CopterRocks_Working/Libraries/CMSIS/Include\cmsis_gcc.h ****   \brief   Set Base Priority
 259:C:/Workspaces/DAVE-4.3/WS_2016_09_02/Flightcontroller_PWM_CopterRocks_Working/Libraries/CMSIS/Include\cmsis_gcc.h ****   \details Assigns the given value to the Base Priority register.
 260:C:/Workspaces/DAVE-4.3/WS_2016_09_02/Flightcontroller_PWM_CopterRocks_Working/Libraries/CMSIS/Include\cmsis_gcc.h ****   \param [in]    basePri  Base Priority value to set
 261:C:/Workspaces/DAVE-4.3/WS_2016_09_02/Flightcontroller_PWM_CopterRocks_Working/Libraries/CMSIS/Include\cmsis_gcc.h ****  */
 262:C:/Workspaces/DAVE-4.3/WS_2016_09_02/Flightcontroller_PWM_CopterRocks_Working/Libraries/CMSIS/Include\cmsis_gcc.h **** __attribute__( ( always_inline ) ) __STATIC_INLINE void __set_BASEPRI(uint32_t value)
 263:C:/Workspaces/DAVE-4.3/WS_2016_09_02/Flightcontroller_PWM_CopterRocks_Working/Libraries/CMSIS/Include\cmsis_gcc.h **** {
 264:C:/Workspaces/DAVE-4.3/WS_2016_09_02/Flightcontroller_PWM_CopterRocks_Working/Libraries/CMSIS/Include\cmsis_gcc.h ****   __ASM volatile ("MSR basepri, %0" : : "r" (value) : "memory");
 265:C:/Workspaces/DAVE-4.3/WS_2016_09_02/Flightcontroller_PWM_CopterRocks_Working/Libraries/CMSIS/Include\cmsis_gcc.h **** }
 266:C:/Workspaces/DAVE-4.3/WS_2016_09_02/Flightcontroller_PWM_CopterRocks_Working/Libraries/CMSIS/Include\cmsis_gcc.h **** 
 267:C:/Workspaces/DAVE-4.3/WS_2016_09_02/Flightcontroller_PWM_CopterRocks_Working/Libraries/CMSIS/Include\cmsis_gcc.h **** 
 268:C:/Workspaces/DAVE-4.3/WS_2016_09_02/Flightcontroller_PWM_CopterRocks_Working/Libraries/CMSIS/Include\cmsis_gcc.h **** /**
 269:C:/Workspaces/DAVE-4.3/WS_2016_09_02/Flightcontroller_PWM_CopterRocks_Working/Libraries/CMSIS/Include\cmsis_gcc.h ****   \brief   Set Base Priority with condition
 270:C:/Workspaces/DAVE-4.3/WS_2016_09_02/Flightcontroller_PWM_CopterRocks_Working/Libraries/CMSIS/Include\cmsis_gcc.h ****   \details Assigns the given value to the Base Priority register only if BASEPRI masking is disable
 271:C:/Workspaces/DAVE-4.3/WS_2016_09_02/Flightcontroller_PWM_CopterRocks_Working/Libraries/CMSIS/Include\cmsis_gcc.h ****            or the new value increases the BASEPRI priority level.
 272:C:/Workspaces/DAVE-4.3/WS_2016_09_02/Flightcontroller_PWM_CopterRocks_Working/Libraries/CMSIS/Include\cmsis_gcc.h ****   \param [in]    basePri  Base Priority value to set
 273:C:/Workspaces/DAVE-4.3/WS_2016_09_02/Flightcontroller_PWM_CopterRocks_Working/Libraries/CMSIS/Include\cmsis_gcc.h ****  */
 274:C:/Workspaces/DAVE-4.3/WS_2016_09_02/Flightcontroller_PWM_CopterRocks_Working/Libraries/CMSIS/Include\cmsis_gcc.h **** __attribute__( ( always_inline ) ) __STATIC_INLINE void __set_BASEPRI_MAX(uint32_t value)
 275:C:/Workspaces/DAVE-4.3/WS_2016_09_02/Flightcontroller_PWM_CopterRocks_Working/Libraries/CMSIS/Include\cmsis_gcc.h **** {
 276:C:/Workspaces/DAVE-4.3/WS_2016_09_02/Flightcontroller_PWM_CopterRocks_Working/Libraries/CMSIS/Include\cmsis_gcc.h ****   __ASM volatile ("MSR basepri_max, %0" : : "r" (value) : "memory");
 277:C:/Workspaces/DAVE-4.3/WS_2016_09_02/Flightcontroller_PWM_CopterRocks_Working/Libraries/CMSIS/Include\cmsis_gcc.h **** }
 278:C:/Workspaces/DAVE-4.3/WS_2016_09_02/Flightcontroller_PWM_CopterRocks_Working/Libraries/CMSIS/Include\cmsis_gcc.h **** 
 279:C:/Workspaces/DAVE-4.3/WS_2016_09_02/Flightcontroller_PWM_CopterRocks_Working/Libraries/CMSIS/Include\cmsis_gcc.h **** 
 280:C:/Workspaces/DAVE-4.3/WS_2016_09_02/Flightcontroller_PWM_CopterRocks_Working/Libraries/CMSIS/Include\cmsis_gcc.h **** /**
 281:C:/Workspaces/DAVE-4.3/WS_2016_09_02/Flightcontroller_PWM_CopterRocks_Working/Libraries/CMSIS/Include\cmsis_gcc.h ****   \brief   Get Fault Mask
 282:C:/Workspaces/DAVE-4.3/WS_2016_09_02/Flightcontroller_PWM_CopterRocks_Working/Libraries/CMSIS/Include\cmsis_gcc.h ****   \details Returns the current value of the Fault Mask register.
 283:C:/Workspaces/DAVE-4.3/WS_2016_09_02/Flightcontroller_PWM_CopterRocks_Working/Libraries/CMSIS/Include\cmsis_gcc.h ****   \return               Fault Mask register value
 284:C:/Workspaces/DAVE-4.3/WS_2016_09_02/Flightcontroller_PWM_CopterRocks_Working/Libraries/CMSIS/Include\cmsis_gcc.h ****  */
 285:C:/Workspaces/DAVE-4.3/WS_2016_09_02/Flightcontroller_PWM_CopterRocks_Working/Libraries/CMSIS/Include\cmsis_gcc.h **** __attribute__( ( always_inline ) ) __STATIC_INLINE uint32_t __get_FAULTMASK(void)
 286:C:/Workspaces/DAVE-4.3/WS_2016_09_02/Flightcontroller_PWM_CopterRocks_Working/Libraries/CMSIS/Include\cmsis_gcc.h **** {
 287:C:/Workspaces/DAVE-4.3/WS_2016_09_02/Flightcontroller_PWM_CopterRocks_Working/Libraries/CMSIS/Include\cmsis_gcc.h ****   uint32_t result;
 288:C:/Workspaces/DAVE-4.3/WS_2016_09_02/Flightcontroller_PWM_CopterRocks_Working/Libraries/CMSIS/Include\cmsis_gcc.h **** 
 289:C:/Workspaces/DAVE-4.3/WS_2016_09_02/Flightcontroller_PWM_CopterRocks_Working/Libraries/CMSIS/Include\cmsis_gcc.h ****   __ASM volatile ("MRS %0, faultmask" : "=r" (result) );
 290:C:/Workspaces/DAVE-4.3/WS_2016_09_02/Flightcontroller_PWM_CopterRocks_Working/Libraries/CMSIS/Include\cmsis_gcc.h ****   return(result);
 291:C:/Workspaces/DAVE-4.3/WS_2016_09_02/Flightcontroller_PWM_CopterRocks_Working/Libraries/CMSIS/Include\cmsis_gcc.h **** }
 292:C:/Workspaces/DAVE-4.3/WS_2016_09_02/Flightcontroller_PWM_CopterRocks_Working/Libraries/CMSIS/Include\cmsis_gcc.h **** 
 293:C:/Workspaces/DAVE-4.3/WS_2016_09_02/Flightcontroller_PWM_CopterRocks_Working/Libraries/CMSIS/Include\cmsis_gcc.h **** 
 294:C:/Workspaces/DAVE-4.3/WS_2016_09_02/Flightcontroller_PWM_CopterRocks_Working/Libraries/CMSIS/Include\cmsis_gcc.h **** /**
 295:C:/Workspaces/DAVE-4.3/WS_2016_09_02/Flightcontroller_PWM_CopterRocks_Working/Libraries/CMSIS/Include\cmsis_gcc.h ****   \brief   Set Fault Mask
 296:C:/Workspaces/DAVE-4.3/WS_2016_09_02/Flightcontroller_PWM_CopterRocks_Working/Libraries/CMSIS/Include\cmsis_gcc.h ****   \details Assigns the given value to the Fault Mask register.
 297:C:/Workspaces/DAVE-4.3/WS_2016_09_02/Flightcontroller_PWM_CopterRocks_Working/Libraries/CMSIS/Include\cmsis_gcc.h ****   \param [in]    faultMask  Fault Mask value to set
 298:C:/Workspaces/DAVE-4.3/WS_2016_09_02/Flightcontroller_PWM_CopterRocks_Working/Libraries/CMSIS/Include\cmsis_gcc.h ****  */
 299:C:/Workspaces/DAVE-4.3/WS_2016_09_02/Flightcontroller_PWM_CopterRocks_Working/Libraries/CMSIS/Include\cmsis_gcc.h **** __attribute__( ( always_inline ) ) __STATIC_INLINE void __set_FAULTMASK(uint32_t faultMask)
 300:C:/Workspaces/DAVE-4.3/WS_2016_09_02/Flightcontroller_PWM_CopterRocks_Working/Libraries/CMSIS/Include\cmsis_gcc.h **** {
 301:C:/Workspaces/DAVE-4.3/WS_2016_09_02/Flightcontroller_PWM_CopterRocks_Working/Libraries/CMSIS/Include\cmsis_gcc.h ****   __ASM volatile ("MSR faultmask, %0" : : "r" (faultMask) : "memory");
 302:C:/Workspaces/DAVE-4.3/WS_2016_09_02/Flightcontroller_PWM_CopterRocks_Working/Libraries/CMSIS/Include\cmsis_gcc.h **** }
 303:C:/Workspaces/DAVE-4.3/WS_2016_09_02/Flightcontroller_PWM_CopterRocks_Working/Libraries/CMSIS/Include\cmsis_gcc.h **** 
 304:C:/Workspaces/DAVE-4.3/WS_2016_09_02/Flightcontroller_PWM_CopterRocks_Working/Libraries/CMSIS/Include\cmsis_gcc.h **** #endif /* (__CORTEX_M >= 0x03U) */
 305:C:/Workspaces/DAVE-4.3/WS_2016_09_02/Flightcontroller_PWM_CopterRocks_Working/Libraries/CMSIS/Include\cmsis_gcc.h **** 
 306:C:/Workspaces/DAVE-4.3/WS_2016_09_02/Flightcontroller_PWM_CopterRocks_Working/Libraries/CMSIS/Include\cmsis_gcc.h **** 
 307:C:/Workspaces/DAVE-4.3/WS_2016_09_02/Flightcontroller_PWM_CopterRocks_Working/Libraries/CMSIS/Include\cmsis_gcc.h **** #if       (__CORTEX_M == 0x04U) || (__CORTEX_M == 0x07U)
 308:C:/Workspaces/DAVE-4.3/WS_2016_09_02/Flightcontroller_PWM_CopterRocks_Working/Libraries/CMSIS/Include\cmsis_gcc.h **** 
 309:C:/Workspaces/DAVE-4.3/WS_2016_09_02/Flightcontroller_PWM_CopterRocks_Working/Libraries/CMSIS/Include\cmsis_gcc.h **** /**
 310:C:/Workspaces/DAVE-4.3/WS_2016_09_02/Flightcontroller_PWM_CopterRocks_Working/Libraries/CMSIS/Include\cmsis_gcc.h ****   \brief   Get FPSCR
 311:C:/Workspaces/DAVE-4.3/WS_2016_09_02/Flightcontroller_PWM_CopterRocks_Working/Libraries/CMSIS/Include\cmsis_gcc.h ****   \details Returns the current value of the Floating Point Status/Control register.
 312:C:/Workspaces/DAVE-4.3/WS_2016_09_02/Flightcontroller_PWM_CopterRocks_Working/Libraries/CMSIS/Include\cmsis_gcc.h ****   \return               Floating Point Status/Control register value
 313:C:/Workspaces/DAVE-4.3/WS_2016_09_02/Flightcontroller_PWM_CopterRocks_Working/Libraries/CMSIS/Include\cmsis_gcc.h ****  */
 314:C:/Workspaces/DAVE-4.3/WS_2016_09_02/Flightcontroller_PWM_CopterRocks_Working/Libraries/CMSIS/Include\cmsis_gcc.h **** __attribute__( ( always_inline ) ) __STATIC_INLINE uint32_t __get_FPSCR(void)
 315:C:/Workspaces/DAVE-4.3/WS_2016_09_02/Flightcontroller_PWM_CopterRocks_Working/Libraries/CMSIS/Include\cmsis_gcc.h **** {
 316:C:/Workspaces/DAVE-4.3/WS_2016_09_02/Flightcontroller_PWM_CopterRocks_Working/Libraries/CMSIS/Include\cmsis_gcc.h **** #if (__FPU_PRESENT == 1U) && (__FPU_USED == 1U)
 317:C:/Workspaces/DAVE-4.3/WS_2016_09_02/Flightcontroller_PWM_CopterRocks_Working/Libraries/CMSIS/Include\cmsis_gcc.h ****   uint32_t result;
 318:C:/Workspaces/DAVE-4.3/WS_2016_09_02/Flightcontroller_PWM_CopterRocks_Working/Libraries/CMSIS/Include\cmsis_gcc.h **** 
 319:C:/Workspaces/DAVE-4.3/WS_2016_09_02/Flightcontroller_PWM_CopterRocks_Working/Libraries/CMSIS/Include\cmsis_gcc.h ****   /* Empty asm statement works as a scheduling barrier */
 320:C:/Workspaces/DAVE-4.3/WS_2016_09_02/Flightcontroller_PWM_CopterRocks_Working/Libraries/CMSIS/Include\cmsis_gcc.h ****   __ASM volatile ("");
 321:C:/Workspaces/DAVE-4.3/WS_2016_09_02/Flightcontroller_PWM_CopterRocks_Working/Libraries/CMSIS/Include\cmsis_gcc.h ****   __ASM volatile ("VMRS %0, fpscr" : "=r" (result) );
 322:C:/Workspaces/DAVE-4.3/WS_2016_09_02/Flightcontroller_PWM_CopterRocks_Working/Libraries/CMSIS/Include\cmsis_gcc.h ****   __ASM volatile ("");
 323:C:/Workspaces/DAVE-4.3/WS_2016_09_02/Flightcontroller_PWM_CopterRocks_Working/Libraries/CMSIS/Include\cmsis_gcc.h ****   return(result);
 324:C:/Workspaces/DAVE-4.3/WS_2016_09_02/Flightcontroller_PWM_CopterRocks_Working/Libraries/CMSIS/Include\cmsis_gcc.h **** #else
 325:C:/Workspaces/DAVE-4.3/WS_2016_09_02/Flightcontroller_PWM_CopterRocks_Working/Libraries/CMSIS/Include\cmsis_gcc.h ****    return(0);
 326:C:/Workspaces/DAVE-4.3/WS_2016_09_02/Flightcontroller_PWM_CopterRocks_Working/Libraries/CMSIS/Include\cmsis_gcc.h **** #endif
 327:C:/Workspaces/DAVE-4.3/WS_2016_09_02/Flightcontroller_PWM_CopterRocks_Working/Libraries/CMSIS/Include\cmsis_gcc.h **** }
 328:C:/Workspaces/DAVE-4.3/WS_2016_09_02/Flightcontroller_PWM_CopterRocks_Working/Libraries/CMSIS/Include\cmsis_gcc.h **** 
 329:C:/Workspaces/DAVE-4.3/WS_2016_09_02/Flightcontroller_PWM_CopterRocks_Working/Libraries/CMSIS/Include\cmsis_gcc.h **** 
 330:C:/Workspaces/DAVE-4.3/WS_2016_09_02/Flightcontroller_PWM_CopterRocks_Working/Libraries/CMSIS/Include\cmsis_gcc.h **** /**
 331:C:/Workspaces/DAVE-4.3/WS_2016_09_02/Flightcontroller_PWM_CopterRocks_Working/Libraries/CMSIS/Include\cmsis_gcc.h ****   \brief   Set FPSCR
 332:C:/Workspaces/DAVE-4.3/WS_2016_09_02/Flightcontroller_PWM_CopterRocks_Working/Libraries/CMSIS/Include\cmsis_gcc.h ****   \details Assigns the given value to the Floating Point Status/Control register.
 333:C:/Workspaces/DAVE-4.3/WS_2016_09_02/Flightcontroller_PWM_CopterRocks_Working/Libraries/CMSIS/Include\cmsis_gcc.h ****   \param [in]    fpscr  Floating Point Status/Control value to set
 334:C:/Workspaces/DAVE-4.3/WS_2016_09_02/Flightcontroller_PWM_CopterRocks_Working/Libraries/CMSIS/Include\cmsis_gcc.h ****  */
 335:C:/Workspaces/DAVE-4.3/WS_2016_09_02/Flightcontroller_PWM_CopterRocks_Working/Libraries/CMSIS/Include\cmsis_gcc.h **** __attribute__( ( always_inline ) ) __STATIC_INLINE void __set_FPSCR(uint32_t fpscr)
 336:C:/Workspaces/DAVE-4.3/WS_2016_09_02/Flightcontroller_PWM_CopterRocks_Working/Libraries/CMSIS/Include\cmsis_gcc.h **** {
 337:C:/Workspaces/DAVE-4.3/WS_2016_09_02/Flightcontroller_PWM_CopterRocks_Working/Libraries/CMSIS/Include\cmsis_gcc.h **** #if (__FPU_PRESENT == 1U) && (__FPU_USED == 1U)
 338:C:/Workspaces/DAVE-4.3/WS_2016_09_02/Flightcontroller_PWM_CopterRocks_Working/Libraries/CMSIS/Include\cmsis_gcc.h ****   /* Empty asm statement works as a scheduling barrier */
 339:C:/Workspaces/DAVE-4.3/WS_2016_09_02/Flightcontroller_PWM_CopterRocks_Working/Libraries/CMSIS/Include\cmsis_gcc.h ****   __ASM volatile ("");
 340:C:/Workspaces/DAVE-4.3/WS_2016_09_02/Flightcontroller_PWM_CopterRocks_Working/Libraries/CMSIS/Include\cmsis_gcc.h ****   __ASM volatile ("VMSR fpscr, %0" : : "r" (fpscr) : "vfpcc");
 341:C:/Workspaces/DAVE-4.3/WS_2016_09_02/Flightcontroller_PWM_CopterRocks_Working/Libraries/CMSIS/Include\cmsis_gcc.h ****   __ASM volatile ("");
 342:C:/Workspaces/DAVE-4.3/WS_2016_09_02/Flightcontroller_PWM_CopterRocks_Working/Libraries/CMSIS/Include\cmsis_gcc.h **** #endif
 343:C:/Workspaces/DAVE-4.3/WS_2016_09_02/Flightcontroller_PWM_CopterRocks_Working/Libraries/CMSIS/Include\cmsis_gcc.h **** }
 344:C:/Workspaces/DAVE-4.3/WS_2016_09_02/Flightcontroller_PWM_CopterRocks_Working/Libraries/CMSIS/Include\cmsis_gcc.h **** 
 345:C:/Workspaces/DAVE-4.3/WS_2016_09_02/Flightcontroller_PWM_CopterRocks_Working/Libraries/CMSIS/Include\cmsis_gcc.h **** #endif /* (__CORTEX_M == 0x04U) || (__CORTEX_M == 0x07U) */
 346:C:/Workspaces/DAVE-4.3/WS_2016_09_02/Flightcontroller_PWM_CopterRocks_Working/Libraries/CMSIS/Include\cmsis_gcc.h **** 
 347:C:/Workspaces/DAVE-4.3/WS_2016_09_02/Flightcontroller_PWM_CopterRocks_Working/Libraries/CMSIS/Include\cmsis_gcc.h **** 
 348:C:/Workspaces/DAVE-4.3/WS_2016_09_02/Flightcontroller_PWM_CopterRocks_Working/Libraries/CMSIS/Include\cmsis_gcc.h **** 
 349:C:/Workspaces/DAVE-4.3/WS_2016_09_02/Flightcontroller_PWM_CopterRocks_Working/Libraries/CMSIS/Include\cmsis_gcc.h **** /*@} end of CMSIS_Core_RegAccFunctions */
 350:C:/Workspaces/DAVE-4.3/WS_2016_09_02/Flightcontroller_PWM_CopterRocks_Working/Libraries/CMSIS/Include\cmsis_gcc.h **** 
 351:C:/Workspaces/DAVE-4.3/WS_2016_09_02/Flightcontroller_PWM_CopterRocks_Working/Libraries/CMSIS/Include\cmsis_gcc.h **** 
 352:C:/Workspaces/DAVE-4.3/WS_2016_09_02/Flightcontroller_PWM_CopterRocks_Working/Libraries/CMSIS/Include\cmsis_gcc.h **** /* ##########################  Core Instruction Access  ######################### */
 353:C:/Workspaces/DAVE-4.3/WS_2016_09_02/Flightcontroller_PWM_CopterRocks_Working/Libraries/CMSIS/Include\cmsis_gcc.h **** /** \defgroup CMSIS_Core_InstructionInterface CMSIS Core Instruction Interface
 354:C:/Workspaces/DAVE-4.3/WS_2016_09_02/Flightcontroller_PWM_CopterRocks_Working/Libraries/CMSIS/Include\cmsis_gcc.h ****   Access to dedicated instructions
 355:C:/Workspaces/DAVE-4.3/WS_2016_09_02/Flightcontroller_PWM_CopterRocks_Working/Libraries/CMSIS/Include\cmsis_gcc.h ****   @{
 356:C:/Workspaces/DAVE-4.3/WS_2016_09_02/Flightcontroller_PWM_CopterRocks_Working/Libraries/CMSIS/Include\cmsis_gcc.h **** */
 357:C:/Workspaces/DAVE-4.3/WS_2016_09_02/Flightcontroller_PWM_CopterRocks_Working/Libraries/CMSIS/Include\cmsis_gcc.h **** 
 358:C:/Workspaces/DAVE-4.3/WS_2016_09_02/Flightcontroller_PWM_CopterRocks_Working/Libraries/CMSIS/Include\cmsis_gcc.h **** /* Define macros for porting to both thumb1 and thumb2.
 359:C:/Workspaces/DAVE-4.3/WS_2016_09_02/Flightcontroller_PWM_CopterRocks_Working/Libraries/CMSIS/Include\cmsis_gcc.h ****  * For thumb1, use low register (r0-r7), specified by constraint "l"
 360:C:/Workspaces/DAVE-4.3/WS_2016_09_02/Flightcontroller_PWM_CopterRocks_Working/Libraries/CMSIS/Include\cmsis_gcc.h ****  * Otherwise, use general registers, specified by constraint "r" */
 361:C:/Workspaces/DAVE-4.3/WS_2016_09_02/Flightcontroller_PWM_CopterRocks_Working/Libraries/CMSIS/Include\cmsis_gcc.h **** #if defined (__thumb__) && !defined (__thumb2__)
 362:C:/Workspaces/DAVE-4.3/WS_2016_09_02/Flightcontroller_PWM_CopterRocks_Working/Libraries/CMSIS/Include\cmsis_gcc.h **** #define __CMSIS_GCC_OUT_REG(r) "=l" (r)
 363:C:/Workspaces/DAVE-4.3/WS_2016_09_02/Flightcontroller_PWM_CopterRocks_Working/Libraries/CMSIS/Include\cmsis_gcc.h **** #define __CMSIS_GCC_USE_REG(r) "l" (r)
 364:C:/Workspaces/DAVE-4.3/WS_2016_09_02/Flightcontroller_PWM_CopterRocks_Working/Libraries/CMSIS/Include\cmsis_gcc.h **** #else
 365:C:/Workspaces/DAVE-4.3/WS_2016_09_02/Flightcontroller_PWM_CopterRocks_Working/Libraries/CMSIS/Include\cmsis_gcc.h **** #define __CMSIS_GCC_OUT_REG(r) "=r" (r)
 366:C:/Workspaces/DAVE-4.3/WS_2016_09_02/Flightcontroller_PWM_CopterRocks_Working/Libraries/CMSIS/Include\cmsis_gcc.h **** #define __CMSIS_GCC_USE_REG(r) "r" (r)
 367:C:/Workspaces/DAVE-4.3/WS_2016_09_02/Flightcontroller_PWM_CopterRocks_Working/Libraries/CMSIS/Include\cmsis_gcc.h **** #endif
 368:C:/Workspaces/DAVE-4.3/WS_2016_09_02/Flightcontroller_PWM_CopterRocks_Working/Libraries/CMSIS/Include\cmsis_gcc.h **** 
 369:C:/Workspaces/DAVE-4.3/WS_2016_09_02/Flightcontroller_PWM_CopterRocks_Working/Libraries/CMSIS/Include\cmsis_gcc.h **** /**
 370:C:/Workspaces/DAVE-4.3/WS_2016_09_02/Flightcontroller_PWM_CopterRocks_Working/Libraries/CMSIS/Include\cmsis_gcc.h ****   \brief   No Operation
 371:C:/Workspaces/DAVE-4.3/WS_2016_09_02/Flightcontroller_PWM_CopterRocks_Working/Libraries/CMSIS/Include\cmsis_gcc.h ****   \details No Operation does nothing. This instruction can be used for code alignment purposes.
 372:C:/Workspaces/DAVE-4.3/WS_2016_09_02/Flightcontroller_PWM_CopterRocks_Working/Libraries/CMSIS/Include\cmsis_gcc.h ****  */
 373:C:/Workspaces/DAVE-4.3/WS_2016_09_02/Flightcontroller_PWM_CopterRocks_Working/Libraries/CMSIS/Include\cmsis_gcc.h **** __attribute__((always_inline)) __STATIC_INLINE void __NOP(void)
 374:C:/Workspaces/DAVE-4.3/WS_2016_09_02/Flightcontroller_PWM_CopterRocks_Working/Libraries/CMSIS/Include\cmsis_gcc.h **** {
 375:C:/Workspaces/DAVE-4.3/WS_2016_09_02/Flightcontroller_PWM_CopterRocks_Working/Libraries/CMSIS/Include\cmsis_gcc.h ****   __ASM volatile ("nop");
 376:C:/Workspaces/DAVE-4.3/WS_2016_09_02/Flightcontroller_PWM_CopterRocks_Working/Libraries/CMSIS/Include\cmsis_gcc.h **** }
 377:C:/Workspaces/DAVE-4.3/WS_2016_09_02/Flightcontroller_PWM_CopterRocks_Working/Libraries/CMSIS/Include\cmsis_gcc.h **** 
 378:C:/Workspaces/DAVE-4.3/WS_2016_09_02/Flightcontroller_PWM_CopterRocks_Working/Libraries/CMSIS/Include\cmsis_gcc.h **** 
 379:C:/Workspaces/DAVE-4.3/WS_2016_09_02/Flightcontroller_PWM_CopterRocks_Working/Libraries/CMSIS/Include\cmsis_gcc.h **** /**
 380:C:/Workspaces/DAVE-4.3/WS_2016_09_02/Flightcontroller_PWM_CopterRocks_Working/Libraries/CMSIS/Include\cmsis_gcc.h ****   \brief   Wait For Interrupt
 381:C:/Workspaces/DAVE-4.3/WS_2016_09_02/Flightcontroller_PWM_CopterRocks_Working/Libraries/CMSIS/Include\cmsis_gcc.h ****   \details Wait For Interrupt is a hint instruction that suspends execution until one of a number o
 382:C:/Workspaces/DAVE-4.3/WS_2016_09_02/Flightcontroller_PWM_CopterRocks_Working/Libraries/CMSIS/Include\cmsis_gcc.h ****  */
 383:C:/Workspaces/DAVE-4.3/WS_2016_09_02/Flightcontroller_PWM_CopterRocks_Working/Libraries/CMSIS/Include\cmsis_gcc.h **** __attribute__((always_inline)) __STATIC_INLINE void __WFI(void)
 384:C:/Workspaces/DAVE-4.3/WS_2016_09_02/Flightcontroller_PWM_CopterRocks_Working/Libraries/CMSIS/Include\cmsis_gcc.h **** {
 385:C:/Workspaces/DAVE-4.3/WS_2016_09_02/Flightcontroller_PWM_CopterRocks_Working/Libraries/CMSIS/Include\cmsis_gcc.h ****   __ASM volatile ("wfi");
 386:C:/Workspaces/DAVE-4.3/WS_2016_09_02/Flightcontroller_PWM_CopterRocks_Working/Libraries/CMSIS/Include\cmsis_gcc.h **** }
 387:C:/Workspaces/DAVE-4.3/WS_2016_09_02/Flightcontroller_PWM_CopterRocks_Working/Libraries/CMSIS/Include\cmsis_gcc.h **** 
 388:C:/Workspaces/DAVE-4.3/WS_2016_09_02/Flightcontroller_PWM_CopterRocks_Working/Libraries/CMSIS/Include\cmsis_gcc.h **** 
 389:C:/Workspaces/DAVE-4.3/WS_2016_09_02/Flightcontroller_PWM_CopterRocks_Working/Libraries/CMSIS/Include\cmsis_gcc.h **** /**
 390:C:/Workspaces/DAVE-4.3/WS_2016_09_02/Flightcontroller_PWM_CopterRocks_Working/Libraries/CMSIS/Include\cmsis_gcc.h ****   \brief   Wait For Event
 391:C:/Workspaces/DAVE-4.3/WS_2016_09_02/Flightcontroller_PWM_CopterRocks_Working/Libraries/CMSIS/Include\cmsis_gcc.h ****   \details Wait For Event is a hint instruction that permits the processor to enter
 392:C:/Workspaces/DAVE-4.3/WS_2016_09_02/Flightcontroller_PWM_CopterRocks_Working/Libraries/CMSIS/Include\cmsis_gcc.h ****     a low-power state until one of a number of events occurs.
 393:C:/Workspaces/DAVE-4.3/WS_2016_09_02/Flightcontroller_PWM_CopterRocks_Working/Libraries/CMSIS/Include\cmsis_gcc.h ****  */
 394:C:/Workspaces/DAVE-4.3/WS_2016_09_02/Flightcontroller_PWM_CopterRocks_Working/Libraries/CMSIS/Include\cmsis_gcc.h **** __attribute__((always_inline)) __STATIC_INLINE void __WFE(void)
 395:C:/Workspaces/DAVE-4.3/WS_2016_09_02/Flightcontroller_PWM_CopterRocks_Working/Libraries/CMSIS/Include\cmsis_gcc.h **** {
 396:C:/Workspaces/DAVE-4.3/WS_2016_09_02/Flightcontroller_PWM_CopterRocks_Working/Libraries/CMSIS/Include\cmsis_gcc.h ****   __ASM volatile ("wfe");
 397:C:/Workspaces/DAVE-4.3/WS_2016_09_02/Flightcontroller_PWM_CopterRocks_Working/Libraries/CMSIS/Include\cmsis_gcc.h **** }
 398:C:/Workspaces/DAVE-4.3/WS_2016_09_02/Flightcontroller_PWM_CopterRocks_Working/Libraries/CMSIS/Include\cmsis_gcc.h **** 
 399:C:/Workspaces/DAVE-4.3/WS_2016_09_02/Flightcontroller_PWM_CopterRocks_Working/Libraries/CMSIS/Include\cmsis_gcc.h **** 
 400:C:/Workspaces/DAVE-4.3/WS_2016_09_02/Flightcontroller_PWM_CopterRocks_Working/Libraries/CMSIS/Include\cmsis_gcc.h **** /**
 401:C:/Workspaces/DAVE-4.3/WS_2016_09_02/Flightcontroller_PWM_CopterRocks_Working/Libraries/CMSIS/Include\cmsis_gcc.h ****   \brief   Send Event
 402:C:/Workspaces/DAVE-4.3/WS_2016_09_02/Flightcontroller_PWM_CopterRocks_Working/Libraries/CMSIS/Include\cmsis_gcc.h ****   \details Send Event is a hint instruction. It causes an event to be signaled to the CPU.
 403:C:/Workspaces/DAVE-4.3/WS_2016_09_02/Flightcontroller_PWM_CopterRocks_Working/Libraries/CMSIS/Include\cmsis_gcc.h ****  */
 404:C:/Workspaces/DAVE-4.3/WS_2016_09_02/Flightcontroller_PWM_CopterRocks_Working/Libraries/CMSIS/Include\cmsis_gcc.h **** __attribute__((always_inline)) __STATIC_INLINE void __SEV(void)
 405:C:/Workspaces/DAVE-4.3/WS_2016_09_02/Flightcontroller_PWM_CopterRocks_Working/Libraries/CMSIS/Include\cmsis_gcc.h **** {
 406:C:/Workspaces/DAVE-4.3/WS_2016_09_02/Flightcontroller_PWM_CopterRocks_Working/Libraries/CMSIS/Include\cmsis_gcc.h ****   __ASM volatile ("sev");
 407:C:/Workspaces/DAVE-4.3/WS_2016_09_02/Flightcontroller_PWM_CopterRocks_Working/Libraries/CMSIS/Include\cmsis_gcc.h **** }
 408:C:/Workspaces/DAVE-4.3/WS_2016_09_02/Flightcontroller_PWM_CopterRocks_Working/Libraries/CMSIS/Include\cmsis_gcc.h **** 
 409:C:/Workspaces/DAVE-4.3/WS_2016_09_02/Flightcontroller_PWM_CopterRocks_Working/Libraries/CMSIS/Include\cmsis_gcc.h **** 
 410:C:/Workspaces/DAVE-4.3/WS_2016_09_02/Flightcontroller_PWM_CopterRocks_Working/Libraries/CMSIS/Include\cmsis_gcc.h **** /**
 411:C:/Workspaces/DAVE-4.3/WS_2016_09_02/Flightcontroller_PWM_CopterRocks_Working/Libraries/CMSIS/Include\cmsis_gcc.h ****   \brief   Instruction Synchronization Barrier
 412:C:/Workspaces/DAVE-4.3/WS_2016_09_02/Flightcontroller_PWM_CopterRocks_Working/Libraries/CMSIS/Include\cmsis_gcc.h ****   \details Instruction Synchronization Barrier flushes the pipeline in the processor,
 413:C:/Workspaces/DAVE-4.3/WS_2016_09_02/Flightcontroller_PWM_CopterRocks_Working/Libraries/CMSIS/Include\cmsis_gcc.h ****            so that all instructions following the ISB are fetched from cache or memory,
 414:C:/Workspaces/DAVE-4.3/WS_2016_09_02/Flightcontroller_PWM_CopterRocks_Working/Libraries/CMSIS/Include\cmsis_gcc.h ****            after the instruction has been completed.
 415:C:/Workspaces/DAVE-4.3/WS_2016_09_02/Flightcontroller_PWM_CopterRocks_Working/Libraries/CMSIS/Include\cmsis_gcc.h ****  */
 416:C:/Workspaces/DAVE-4.3/WS_2016_09_02/Flightcontroller_PWM_CopterRocks_Working/Libraries/CMSIS/Include\cmsis_gcc.h **** __attribute__((always_inline)) __STATIC_INLINE void __ISB(void)
 417:C:/Workspaces/DAVE-4.3/WS_2016_09_02/Flightcontroller_PWM_CopterRocks_Working/Libraries/CMSIS/Include\cmsis_gcc.h **** {
 418:C:/Workspaces/DAVE-4.3/WS_2016_09_02/Flightcontroller_PWM_CopterRocks_Working/Libraries/CMSIS/Include\cmsis_gcc.h ****   __ASM volatile ("isb 0xF":::"memory");
 419:C:/Workspaces/DAVE-4.3/WS_2016_09_02/Flightcontroller_PWM_CopterRocks_Working/Libraries/CMSIS/Include\cmsis_gcc.h **** }
 420:C:/Workspaces/DAVE-4.3/WS_2016_09_02/Flightcontroller_PWM_CopterRocks_Working/Libraries/CMSIS/Include\cmsis_gcc.h **** 
 421:C:/Workspaces/DAVE-4.3/WS_2016_09_02/Flightcontroller_PWM_CopterRocks_Working/Libraries/CMSIS/Include\cmsis_gcc.h **** 
 422:C:/Workspaces/DAVE-4.3/WS_2016_09_02/Flightcontroller_PWM_CopterRocks_Working/Libraries/CMSIS/Include\cmsis_gcc.h **** /**
 423:C:/Workspaces/DAVE-4.3/WS_2016_09_02/Flightcontroller_PWM_CopterRocks_Working/Libraries/CMSIS/Include\cmsis_gcc.h ****   \brief   Data Synchronization Barrier
 424:C:/Workspaces/DAVE-4.3/WS_2016_09_02/Flightcontroller_PWM_CopterRocks_Working/Libraries/CMSIS/Include\cmsis_gcc.h ****   \details Acts as a special kind of Data Memory Barrier.
 425:C:/Workspaces/DAVE-4.3/WS_2016_09_02/Flightcontroller_PWM_CopterRocks_Working/Libraries/CMSIS/Include\cmsis_gcc.h ****            It completes when all explicit memory accesses before this instruction complete.
 426:C:/Workspaces/DAVE-4.3/WS_2016_09_02/Flightcontroller_PWM_CopterRocks_Working/Libraries/CMSIS/Include\cmsis_gcc.h ****  */
 427:C:/Workspaces/DAVE-4.3/WS_2016_09_02/Flightcontroller_PWM_CopterRocks_Working/Libraries/CMSIS/Include\cmsis_gcc.h **** __attribute__((always_inline)) __STATIC_INLINE void __DSB(void)
 428:C:/Workspaces/DAVE-4.3/WS_2016_09_02/Flightcontroller_PWM_CopterRocks_Working/Libraries/CMSIS/Include\cmsis_gcc.h **** {
 429:C:/Workspaces/DAVE-4.3/WS_2016_09_02/Flightcontroller_PWM_CopterRocks_Working/Libraries/CMSIS/Include\cmsis_gcc.h ****   __ASM volatile ("dsb 0xF":::"memory");
 430:C:/Workspaces/DAVE-4.3/WS_2016_09_02/Flightcontroller_PWM_CopterRocks_Working/Libraries/CMSIS/Include\cmsis_gcc.h **** }
 431:C:/Workspaces/DAVE-4.3/WS_2016_09_02/Flightcontroller_PWM_CopterRocks_Working/Libraries/CMSIS/Include\cmsis_gcc.h **** 
 432:C:/Workspaces/DAVE-4.3/WS_2016_09_02/Flightcontroller_PWM_CopterRocks_Working/Libraries/CMSIS/Include\cmsis_gcc.h **** 
 433:C:/Workspaces/DAVE-4.3/WS_2016_09_02/Flightcontroller_PWM_CopterRocks_Working/Libraries/CMSIS/Include\cmsis_gcc.h **** /**
 434:C:/Workspaces/DAVE-4.3/WS_2016_09_02/Flightcontroller_PWM_CopterRocks_Working/Libraries/CMSIS/Include\cmsis_gcc.h ****   \brief   Data Memory Barrier
 435:C:/Workspaces/DAVE-4.3/WS_2016_09_02/Flightcontroller_PWM_CopterRocks_Working/Libraries/CMSIS/Include\cmsis_gcc.h ****   \details Ensures the apparent order of the explicit memory operations before
 436:C:/Workspaces/DAVE-4.3/WS_2016_09_02/Flightcontroller_PWM_CopterRocks_Working/Libraries/CMSIS/Include\cmsis_gcc.h ****            and after the instruction, without ensuring their completion.
 437:C:/Workspaces/DAVE-4.3/WS_2016_09_02/Flightcontroller_PWM_CopterRocks_Working/Libraries/CMSIS/Include\cmsis_gcc.h ****  */
 438:C:/Workspaces/DAVE-4.3/WS_2016_09_02/Flightcontroller_PWM_CopterRocks_Working/Libraries/CMSIS/Include\cmsis_gcc.h **** __attribute__((always_inline)) __STATIC_INLINE void __DMB(void)
 439:C:/Workspaces/DAVE-4.3/WS_2016_09_02/Flightcontroller_PWM_CopterRocks_Working/Libraries/CMSIS/Include\cmsis_gcc.h **** {
 440:C:/Workspaces/DAVE-4.3/WS_2016_09_02/Flightcontroller_PWM_CopterRocks_Working/Libraries/CMSIS/Include\cmsis_gcc.h ****   __ASM volatile ("dmb 0xF":::"memory");
 441:C:/Workspaces/DAVE-4.3/WS_2016_09_02/Flightcontroller_PWM_CopterRocks_Working/Libraries/CMSIS/Include\cmsis_gcc.h **** }
 442:C:/Workspaces/DAVE-4.3/WS_2016_09_02/Flightcontroller_PWM_CopterRocks_Working/Libraries/CMSIS/Include\cmsis_gcc.h **** 
 443:C:/Workspaces/DAVE-4.3/WS_2016_09_02/Flightcontroller_PWM_CopterRocks_Working/Libraries/CMSIS/Include\cmsis_gcc.h **** 
 444:C:/Workspaces/DAVE-4.3/WS_2016_09_02/Flightcontroller_PWM_CopterRocks_Working/Libraries/CMSIS/Include\cmsis_gcc.h **** /**
 445:C:/Workspaces/DAVE-4.3/WS_2016_09_02/Flightcontroller_PWM_CopterRocks_Working/Libraries/CMSIS/Include\cmsis_gcc.h ****   \brief   Reverse byte order (32 bit)
 446:C:/Workspaces/DAVE-4.3/WS_2016_09_02/Flightcontroller_PWM_CopterRocks_Working/Libraries/CMSIS/Include\cmsis_gcc.h ****   \details Reverses the byte order in integer value.
 447:C:/Workspaces/DAVE-4.3/WS_2016_09_02/Flightcontroller_PWM_CopterRocks_Working/Libraries/CMSIS/Include\cmsis_gcc.h ****   \param [in]    value  Value to reverse
 448:C:/Workspaces/DAVE-4.3/WS_2016_09_02/Flightcontroller_PWM_CopterRocks_Working/Libraries/CMSIS/Include\cmsis_gcc.h ****   \return               Reversed value
 449:C:/Workspaces/DAVE-4.3/WS_2016_09_02/Flightcontroller_PWM_CopterRocks_Working/Libraries/CMSIS/Include\cmsis_gcc.h ****  */
 450:C:/Workspaces/DAVE-4.3/WS_2016_09_02/Flightcontroller_PWM_CopterRocks_Working/Libraries/CMSIS/Include\cmsis_gcc.h **** __attribute__((always_inline)) __STATIC_INLINE uint32_t __REV(uint32_t value)
 451:C:/Workspaces/DAVE-4.3/WS_2016_09_02/Flightcontroller_PWM_CopterRocks_Working/Libraries/CMSIS/Include\cmsis_gcc.h **** {
 452:C:/Workspaces/DAVE-4.3/WS_2016_09_02/Flightcontroller_PWM_CopterRocks_Working/Libraries/CMSIS/Include\cmsis_gcc.h **** #if (__GNUC__ > 4) || (__GNUC__ == 4 && __GNUC_MINOR__ >= 5)
 453:C:/Workspaces/DAVE-4.3/WS_2016_09_02/Flightcontroller_PWM_CopterRocks_Working/Libraries/CMSIS/Include\cmsis_gcc.h ****   return __builtin_bswap32(value);
 454:C:/Workspaces/DAVE-4.3/WS_2016_09_02/Flightcontroller_PWM_CopterRocks_Working/Libraries/CMSIS/Include\cmsis_gcc.h **** #else
 455:C:/Workspaces/DAVE-4.3/WS_2016_09_02/Flightcontroller_PWM_CopterRocks_Working/Libraries/CMSIS/Include\cmsis_gcc.h ****   uint32_t result;
 456:C:/Workspaces/DAVE-4.3/WS_2016_09_02/Flightcontroller_PWM_CopterRocks_Working/Libraries/CMSIS/Include\cmsis_gcc.h **** 
 457:C:/Workspaces/DAVE-4.3/WS_2016_09_02/Flightcontroller_PWM_CopterRocks_Working/Libraries/CMSIS/Include\cmsis_gcc.h ****   __ASM volatile ("rev %0, %1" : __CMSIS_GCC_OUT_REG (result) : __CMSIS_GCC_USE_REG (value) );
 458:C:/Workspaces/DAVE-4.3/WS_2016_09_02/Flightcontroller_PWM_CopterRocks_Working/Libraries/CMSIS/Include\cmsis_gcc.h ****   return(result);
 459:C:/Workspaces/DAVE-4.3/WS_2016_09_02/Flightcontroller_PWM_CopterRocks_Working/Libraries/CMSIS/Include\cmsis_gcc.h **** #endif
 460:C:/Workspaces/DAVE-4.3/WS_2016_09_02/Flightcontroller_PWM_CopterRocks_Working/Libraries/CMSIS/Include\cmsis_gcc.h **** }
 461:C:/Workspaces/DAVE-4.3/WS_2016_09_02/Flightcontroller_PWM_CopterRocks_Working/Libraries/CMSIS/Include\cmsis_gcc.h **** 
 462:C:/Workspaces/DAVE-4.3/WS_2016_09_02/Flightcontroller_PWM_CopterRocks_Working/Libraries/CMSIS/Include\cmsis_gcc.h **** 
 463:C:/Workspaces/DAVE-4.3/WS_2016_09_02/Flightcontroller_PWM_CopterRocks_Working/Libraries/CMSIS/Include\cmsis_gcc.h **** /**
 464:C:/Workspaces/DAVE-4.3/WS_2016_09_02/Flightcontroller_PWM_CopterRocks_Working/Libraries/CMSIS/Include\cmsis_gcc.h ****   \brief   Reverse byte order (16 bit)
 465:C:/Workspaces/DAVE-4.3/WS_2016_09_02/Flightcontroller_PWM_CopterRocks_Working/Libraries/CMSIS/Include\cmsis_gcc.h ****   \details Reverses the byte order in two unsigned short values.
 466:C:/Workspaces/DAVE-4.3/WS_2016_09_02/Flightcontroller_PWM_CopterRocks_Working/Libraries/CMSIS/Include\cmsis_gcc.h ****   \param [in]    value  Value to reverse
 467:C:/Workspaces/DAVE-4.3/WS_2016_09_02/Flightcontroller_PWM_CopterRocks_Working/Libraries/CMSIS/Include\cmsis_gcc.h ****   \return               Reversed value
 468:C:/Workspaces/DAVE-4.3/WS_2016_09_02/Flightcontroller_PWM_CopterRocks_Working/Libraries/CMSIS/Include\cmsis_gcc.h ****  */
 469:C:/Workspaces/DAVE-4.3/WS_2016_09_02/Flightcontroller_PWM_CopterRocks_Working/Libraries/CMSIS/Include\cmsis_gcc.h **** __attribute__((always_inline)) __STATIC_INLINE uint32_t __REV16(uint32_t value)
 470:C:/Workspaces/DAVE-4.3/WS_2016_09_02/Flightcontroller_PWM_CopterRocks_Working/Libraries/CMSIS/Include\cmsis_gcc.h **** {
 471:C:/Workspaces/DAVE-4.3/WS_2016_09_02/Flightcontroller_PWM_CopterRocks_Working/Libraries/CMSIS/Include\cmsis_gcc.h ****   uint32_t result;
 472:C:/Workspaces/DAVE-4.3/WS_2016_09_02/Flightcontroller_PWM_CopterRocks_Working/Libraries/CMSIS/Include\cmsis_gcc.h **** 
 473:C:/Workspaces/DAVE-4.3/WS_2016_09_02/Flightcontroller_PWM_CopterRocks_Working/Libraries/CMSIS/Include\cmsis_gcc.h ****   __ASM volatile ("rev16 %0, %1" : __CMSIS_GCC_OUT_REG (result) : __CMSIS_GCC_USE_REG (value) );
 474:C:/Workspaces/DAVE-4.3/WS_2016_09_02/Flightcontroller_PWM_CopterRocks_Working/Libraries/CMSIS/Include\cmsis_gcc.h ****   return(result);
 475:C:/Workspaces/DAVE-4.3/WS_2016_09_02/Flightcontroller_PWM_CopterRocks_Working/Libraries/CMSIS/Include\cmsis_gcc.h **** }
 476:C:/Workspaces/DAVE-4.3/WS_2016_09_02/Flightcontroller_PWM_CopterRocks_Working/Libraries/CMSIS/Include\cmsis_gcc.h **** 
 477:C:/Workspaces/DAVE-4.3/WS_2016_09_02/Flightcontroller_PWM_CopterRocks_Working/Libraries/CMSIS/Include\cmsis_gcc.h **** 
 478:C:/Workspaces/DAVE-4.3/WS_2016_09_02/Flightcontroller_PWM_CopterRocks_Working/Libraries/CMSIS/Include\cmsis_gcc.h **** /**
 479:C:/Workspaces/DAVE-4.3/WS_2016_09_02/Flightcontroller_PWM_CopterRocks_Working/Libraries/CMSIS/Include\cmsis_gcc.h ****   \brief   Reverse byte order in signed short value
 480:C:/Workspaces/DAVE-4.3/WS_2016_09_02/Flightcontroller_PWM_CopterRocks_Working/Libraries/CMSIS/Include\cmsis_gcc.h ****   \details Reverses the byte order in a signed short value with sign extension to integer.
 481:C:/Workspaces/DAVE-4.3/WS_2016_09_02/Flightcontroller_PWM_CopterRocks_Working/Libraries/CMSIS/Include\cmsis_gcc.h ****   \param [in]    value  Value to reverse
 482:C:/Workspaces/DAVE-4.3/WS_2016_09_02/Flightcontroller_PWM_CopterRocks_Working/Libraries/CMSIS/Include\cmsis_gcc.h ****   \return               Reversed value
 483:C:/Workspaces/DAVE-4.3/WS_2016_09_02/Flightcontroller_PWM_CopterRocks_Working/Libraries/CMSIS/Include\cmsis_gcc.h ****  */
 484:C:/Workspaces/DAVE-4.3/WS_2016_09_02/Flightcontroller_PWM_CopterRocks_Working/Libraries/CMSIS/Include\cmsis_gcc.h **** __attribute__((always_inline)) __STATIC_INLINE int32_t __REVSH(int32_t value)
 485:C:/Workspaces/DAVE-4.3/WS_2016_09_02/Flightcontroller_PWM_CopterRocks_Working/Libraries/CMSIS/Include\cmsis_gcc.h **** {
 486:C:/Workspaces/DAVE-4.3/WS_2016_09_02/Flightcontroller_PWM_CopterRocks_Working/Libraries/CMSIS/Include\cmsis_gcc.h **** #if (__GNUC__ > 4) || (__GNUC__ == 4 && __GNUC_MINOR__ >= 8)
 487:C:/Workspaces/DAVE-4.3/WS_2016_09_02/Flightcontroller_PWM_CopterRocks_Working/Libraries/CMSIS/Include\cmsis_gcc.h ****   return (short)__builtin_bswap16(value);
 488:C:/Workspaces/DAVE-4.3/WS_2016_09_02/Flightcontroller_PWM_CopterRocks_Working/Libraries/CMSIS/Include\cmsis_gcc.h **** #else
 489:C:/Workspaces/DAVE-4.3/WS_2016_09_02/Flightcontroller_PWM_CopterRocks_Working/Libraries/CMSIS/Include\cmsis_gcc.h ****   int32_t result;
 490:C:/Workspaces/DAVE-4.3/WS_2016_09_02/Flightcontroller_PWM_CopterRocks_Working/Libraries/CMSIS/Include\cmsis_gcc.h **** 
 491:C:/Workspaces/DAVE-4.3/WS_2016_09_02/Flightcontroller_PWM_CopterRocks_Working/Libraries/CMSIS/Include\cmsis_gcc.h ****   __ASM volatile ("revsh %0, %1" : __CMSIS_GCC_OUT_REG (result) : __CMSIS_GCC_USE_REG (value) );
 492:C:/Workspaces/DAVE-4.3/WS_2016_09_02/Flightcontroller_PWM_CopterRocks_Working/Libraries/CMSIS/Include\cmsis_gcc.h ****   return(result);
 493:C:/Workspaces/DAVE-4.3/WS_2016_09_02/Flightcontroller_PWM_CopterRocks_Working/Libraries/CMSIS/Include\cmsis_gcc.h **** #endif
 494:C:/Workspaces/DAVE-4.3/WS_2016_09_02/Flightcontroller_PWM_CopterRocks_Working/Libraries/CMSIS/Include\cmsis_gcc.h **** }
 495:C:/Workspaces/DAVE-4.3/WS_2016_09_02/Flightcontroller_PWM_CopterRocks_Working/Libraries/CMSIS/Include\cmsis_gcc.h **** 
 496:C:/Workspaces/DAVE-4.3/WS_2016_09_02/Flightcontroller_PWM_CopterRocks_Working/Libraries/CMSIS/Include\cmsis_gcc.h **** 
 497:C:/Workspaces/DAVE-4.3/WS_2016_09_02/Flightcontroller_PWM_CopterRocks_Working/Libraries/CMSIS/Include\cmsis_gcc.h **** /**
 498:C:/Workspaces/DAVE-4.3/WS_2016_09_02/Flightcontroller_PWM_CopterRocks_Working/Libraries/CMSIS/Include\cmsis_gcc.h ****   \brief   Rotate Right in unsigned value (32 bit)
 499:C:/Workspaces/DAVE-4.3/WS_2016_09_02/Flightcontroller_PWM_CopterRocks_Working/Libraries/CMSIS/Include\cmsis_gcc.h ****   \details Rotate Right (immediate) provides the value of the contents of a register rotated by a v
 500:C:/Workspaces/DAVE-4.3/WS_2016_09_02/Flightcontroller_PWM_CopterRocks_Working/Libraries/CMSIS/Include\cmsis_gcc.h ****   \param [in]    value  Value to rotate
 501:C:/Workspaces/DAVE-4.3/WS_2016_09_02/Flightcontroller_PWM_CopterRocks_Working/Libraries/CMSIS/Include\cmsis_gcc.h ****   \param [in]    value  Number of Bits to rotate
 502:C:/Workspaces/DAVE-4.3/WS_2016_09_02/Flightcontroller_PWM_CopterRocks_Working/Libraries/CMSIS/Include\cmsis_gcc.h ****   \return               Rotated value
 503:C:/Workspaces/DAVE-4.3/WS_2016_09_02/Flightcontroller_PWM_CopterRocks_Working/Libraries/CMSIS/Include\cmsis_gcc.h ****  */
 504:C:/Workspaces/DAVE-4.3/WS_2016_09_02/Flightcontroller_PWM_CopterRocks_Working/Libraries/CMSIS/Include\cmsis_gcc.h **** __attribute__((always_inline)) __STATIC_INLINE uint32_t __ROR(uint32_t op1, uint32_t op2)
 505:C:/Workspaces/DAVE-4.3/WS_2016_09_02/Flightcontroller_PWM_CopterRocks_Working/Libraries/CMSIS/Include\cmsis_gcc.h **** {
 506:C:/Workspaces/DAVE-4.3/WS_2016_09_02/Flightcontroller_PWM_CopterRocks_Working/Libraries/CMSIS/Include\cmsis_gcc.h ****   return (op1 >> op2) | (op1 << (32U - op2));
 507:C:/Workspaces/DAVE-4.3/WS_2016_09_02/Flightcontroller_PWM_CopterRocks_Working/Libraries/CMSIS/Include\cmsis_gcc.h **** }
 508:C:/Workspaces/DAVE-4.3/WS_2016_09_02/Flightcontroller_PWM_CopterRocks_Working/Libraries/CMSIS/Include\cmsis_gcc.h **** 
 509:C:/Workspaces/DAVE-4.3/WS_2016_09_02/Flightcontroller_PWM_CopterRocks_Working/Libraries/CMSIS/Include\cmsis_gcc.h **** 
 510:C:/Workspaces/DAVE-4.3/WS_2016_09_02/Flightcontroller_PWM_CopterRocks_Working/Libraries/CMSIS/Include\cmsis_gcc.h **** /**
 511:C:/Workspaces/DAVE-4.3/WS_2016_09_02/Flightcontroller_PWM_CopterRocks_Working/Libraries/CMSIS/Include\cmsis_gcc.h ****   \brief   Breakpoint
 512:C:/Workspaces/DAVE-4.3/WS_2016_09_02/Flightcontroller_PWM_CopterRocks_Working/Libraries/CMSIS/Include\cmsis_gcc.h ****   \details Causes the processor to enter Debug state.
 513:C:/Workspaces/DAVE-4.3/WS_2016_09_02/Flightcontroller_PWM_CopterRocks_Working/Libraries/CMSIS/Include\cmsis_gcc.h ****            Debug tools can use this to investigate system state when the instruction at a particula
 514:C:/Workspaces/DAVE-4.3/WS_2016_09_02/Flightcontroller_PWM_CopterRocks_Working/Libraries/CMSIS/Include\cmsis_gcc.h ****   \param [in]    value  is ignored by the processor.
 515:C:/Workspaces/DAVE-4.3/WS_2016_09_02/Flightcontroller_PWM_CopterRocks_Working/Libraries/CMSIS/Include\cmsis_gcc.h ****                  If required, a debugger can use it to store additional information about the break
 516:C:/Workspaces/DAVE-4.3/WS_2016_09_02/Flightcontroller_PWM_CopterRocks_Working/Libraries/CMSIS/Include\cmsis_gcc.h ****  */
 517:C:/Workspaces/DAVE-4.3/WS_2016_09_02/Flightcontroller_PWM_CopterRocks_Working/Libraries/CMSIS/Include\cmsis_gcc.h **** #define __BKPT(value)                       __ASM volatile ("bkpt "#value)
 518:C:/Workspaces/DAVE-4.3/WS_2016_09_02/Flightcontroller_PWM_CopterRocks_Working/Libraries/CMSIS/Include\cmsis_gcc.h **** 
 519:C:/Workspaces/DAVE-4.3/WS_2016_09_02/Flightcontroller_PWM_CopterRocks_Working/Libraries/CMSIS/Include\cmsis_gcc.h **** 
 520:C:/Workspaces/DAVE-4.3/WS_2016_09_02/Flightcontroller_PWM_CopterRocks_Working/Libraries/CMSIS/Include\cmsis_gcc.h **** /**
 521:C:/Workspaces/DAVE-4.3/WS_2016_09_02/Flightcontroller_PWM_CopterRocks_Working/Libraries/CMSIS/Include\cmsis_gcc.h ****   \brief   Reverse bit order of value
 522:C:/Workspaces/DAVE-4.3/WS_2016_09_02/Flightcontroller_PWM_CopterRocks_Working/Libraries/CMSIS/Include\cmsis_gcc.h ****   \details Reverses the bit order of the given value.
 523:C:/Workspaces/DAVE-4.3/WS_2016_09_02/Flightcontroller_PWM_CopterRocks_Working/Libraries/CMSIS/Include\cmsis_gcc.h ****   \param [in]    value  Value to reverse
 524:C:/Workspaces/DAVE-4.3/WS_2016_09_02/Flightcontroller_PWM_CopterRocks_Working/Libraries/CMSIS/Include\cmsis_gcc.h ****   \return               Reversed value
 525:C:/Workspaces/DAVE-4.3/WS_2016_09_02/Flightcontroller_PWM_CopterRocks_Working/Libraries/CMSIS/Include\cmsis_gcc.h ****  */
 526:C:/Workspaces/DAVE-4.3/WS_2016_09_02/Flightcontroller_PWM_CopterRocks_Working/Libraries/CMSIS/Include\cmsis_gcc.h **** __attribute__((always_inline)) __STATIC_INLINE uint32_t __RBIT(uint32_t value)
 527:C:/Workspaces/DAVE-4.3/WS_2016_09_02/Flightcontroller_PWM_CopterRocks_Working/Libraries/CMSIS/Include\cmsis_gcc.h **** {
 528:C:/Workspaces/DAVE-4.3/WS_2016_09_02/Flightcontroller_PWM_CopterRocks_Working/Libraries/CMSIS/Include\cmsis_gcc.h ****   uint32_t result;
 529:C:/Workspaces/DAVE-4.3/WS_2016_09_02/Flightcontroller_PWM_CopterRocks_Working/Libraries/CMSIS/Include\cmsis_gcc.h **** 
 530:C:/Workspaces/DAVE-4.3/WS_2016_09_02/Flightcontroller_PWM_CopterRocks_Working/Libraries/CMSIS/Include\cmsis_gcc.h **** #if       (__CORTEX_M >= 0x03U) || (__CORTEX_SC >= 300U)
 531:C:/Workspaces/DAVE-4.3/WS_2016_09_02/Flightcontroller_PWM_CopterRocks_Working/Libraries/CMSIS/Include\cmsis_gcc.h ****    __ASM volatile ("rbit %0, %1" : "=r" (result) : "r" (value) );
 532:C:/Workspaces/DAVE-4.3/WS_2016_09_02/Flightcontroller_PWM_CopterRocks_Working/Libraries/CMSIS/Include\cmsis_gcc.h **** #else
 533:C:/Workspaces/DAVE-4.3/WS_2016_09_02/Flightcontroller_PWM_CopterRocks_Working/Libraries/CMSIS/Include\cmsis_gcc.h ****   int32_t s = 4 /*sizeof(v)*/ * 8 - 1; /* extra shift needed at end */
 534:C:/Workspaces/DAVE-4.3/WS_2016_09_02/Flightcontroller_PWM_CopterRocks_Working/Libraries/CMSIS/Include\cmsis_gcc.h **** 
 535:C:/Workspaces/DAVE-4.3/WS_2016_09_02/Flightcontroller_PWM_CopterRocks_Working/Libraries/CMSIS/Include\cmsis_gcc.h ****   result = value;                      /* r will be reversed bits of v; first get LSB of v */
 536:C:/Workspaces/DAVE-4.3/WS_2016_09_02/Flightcontroller_PWM_CopterRocks_Working/Libraries/CMSIS/Include\cmsis_gcc.h ****   for (value >>= 1U; value; value >>= 1U)
 537:C:/Workspaces/DAVE-4.3/WS_2016_09_02/Flightcontroller_PWM_CopterRocks_Working/Libraries/CMSIS/Include\cmsis_gcc.h ****   {
 538:C:/Workspaces/DAVE-4.3/WS_2016_09_02/Flightcontroller_PWM_CopterRocks_Working/Libraries/CMSIS/Include\cmsis_gcc.h ****     result <<= 1U;
 539:C:/Workspaces/DAVE-4.3/WS_2016_09_02/Flightcontroller_PWM_CopterRocks_Working/Libraries/CMSIS/Include\cmsis_gcc.h ****     result |= value & 1U;
 540:C:/Workspaces/DAVE-4.3/WS_2016_09_02/Flightcontroller_PWM_CopterRocks_Working/Libraries/CMSIS/Include\cmsis_gcc.h ****     s--;
 541:C:/Workspaces/DAVE-4.3/WS_2016_09_02/Flightcontroller_PWM_CopterRocks_Working/Libraries/CMSIS/Include\cmsis_gcc.h ****   }
 542:C:/Workspaces/DAVE-4.3/WS_2016_09_02/Flightcontroller_PWM_CopterRocks_Working/Libraries/CMSIS/Include\cmsis_gcc.h ****   result <<= s;                        /* shift when v's highest bits are zero */
 543:C:/Workspaces/DAVE-4.3/WS_2016_09_02/Flightcontroller_PWM_CopterRocks_Working/Libraries/CMSIS/Include\cmsis_gcc.h **** #endif
 544:C:/Workspaces/DAVE-4.3/WS_2016_09_02/Flightcontroller_PWM_CopterRocks_Working/Libraries/CMSIS/Include\cmsis_gcc.h ****   return(result);
 545:C:/Workspaces/DAVE-4.3/WS_2016_09_02/Flightcontroller_PWM_CopterRocks_Working/Libraries/CMSIS/Include\cmsis_gcc.h **** }
 546:C:/Workspaces/DAVE-4.3/WS_2016_09_02/Flightcontroller_PWM_CopterRocks_Working/Libraries/CMSIS/Include\cmsis_gcc.h **** 
 547:C:/Workspaces/DAVE-4.3/WS_2016_09_02/Flightcontroller_PWM_CopterRocks_Working/Libraries/CMSIS/Include\cmsis_gcc.h **** 
 548:C:/Workspaces/DAVE-4.3/WS_2016_09_02/Flightcontroller_PWM_CopterRocks_Working/Libraries/CMSIS/Include\cmsis_gcc.h **** /**
 549:C:/Workspaces/DAVE-4.3/WS_2016_09_02/Flightcontroller_PWM_CopterRocks_Working/Libraries/CMSIS/Include\cmsis_gcc.h ****   \brief   Count leading zeros
 550:C:/Workspaces/DAVE-4.3/WS_2016_09_02/Flightcontroller_PWM_CopterRocks_Working/Libraries/CMSIS/Include\cmsis_gcc.h ****   \details Counts the number of leading zeros of a data value.
 551:C:/Workspaces/DAVE-4.3/WS_2016_09_02/Flightcontroller_PWM_CopterRocks_Working/Libraries/CMSIS/Include\cmsis_gcc.h ****   \param [in]  value  Value to count the leading zeros
 552:C:/Workspaces/DAVE-4.3/WS_2016_09_02/Flightcontroller_PWM_CopterRocks_Working/Libraries/CMSIS/Include\cmsis_gcc.h ****   \return             number of leading zeros in value
 553:C:/Workspaces/DAVE-4.3/WS_2016_09_02/Flightcontroller_PWM_CopterRocks_Working/Libraries/CMSIS/Include\cmsis_gcc.h ****  */
 554:C:/Workspaces/DAVE-4.3/WS_2016_09_02/Flightcontroller_PWM_CopterRocks_Working/Libraries/CMSIS/Include\cmsis_gcc.h **** #define __CLZ             __builtin_clz
 555:C:/Workspaces/DAVE-4.3/WS_2016_09_02/Flightcontroller_PWM_CopterRocks_Working/Libraries/CMSIS/Include\cmsis_gcc.h **** 
 556:C:/Workspaces/DAVE-4.3/WS_2016_09_02/Flightcontroller_PWM_CopterRocks_Working/Libraries/CMSIS/Include\cmsis_gcc.h **** 
 557:C:/Workspaces/DAVE-4.3/WS_2016_09_02/Flightcontroller_PWM_CopterRocks_Working/Libraries/CMSIS/Include\cmsis_gcc.h **** #if       (__CORTEX_M >= 0x03U) || (__CORTEX_SC >= 300U)
 558:C:/Workspaces/DAVE-4.3/WS_2016_09_02/Flightcontroller_PWM_CopterRocks_Working/Libraries/CMSIS/Include\cmsis_gcc.h **** 
 559:C:/Workspaces/DAVE-4.3/WS_2016_09_02/Flightcontroller_PWM_CopterRocks_Working/Libraries/CMSIS/Include\cmsis_gcc.h **** /**
 560:C:/Workspaces/DAVE-4.3/WS_2016_09_02/Flightcontroller_PWM_CopterRocks_Working/Libraries/CMSIS/Include\cmsis_gcc.h ****   \brief   LDR Exclusive (8 bit)
 561:C:/Workspaces/DAVE-4.3/WS_2016_09_02/Flightcontroller_PWM_CopterRocks_Working/Libraries/CMSIS/Include\cmsis_gcc.h ****   \details Executes a exclusive LDR instruction for 8 bit value.
 562:C:/Workspaces/DAVE-4.3/WS_2016_09_02/Flightcontroller_PWM_CopterRocks_Working/Libraries/CMSIS/Include\cmsis_gcc.h ****   \param [in]    ptr  Pointer to data
 563:C:/Workspaces/DAVE-4.3/WS_2016_09_02/Flightcontroller_PWM_CopterRocks_Working/Libraries/CMSIS/Include\cmsis_gcc.h ****   \return             value of type uint8_t at (*ptr)
 564:C:/Workspaces/DAVE-4.3/WS_2016_09_02/Flightcontroller_PWM_CopterRocks_Working/Libraries/CMSIS/Include\cmsis_gcc.h ****  */
 565:C:/Workspaces/DAVE-4.3/WS_2016_09_02/Flightcontroller_PWM_CopterRocks_Working/Libraries/CMSIS/Include\cmsis_gcc.h **** __attribute__((always_inline)) __STATIC_INLINE uint8_t __LDREXB(volatile uint8_t *addr)
 566:C:/Workspaces/DAVE-4.3/WS_2016_09_02/Flightcontroller_PWM_CopterRocks_Working/Libraries/CMSIS/Include\cmsis_gcc.h **** {
 567:C:/Workspaces/DAVE-4.3/WS_2016_09_02/Flightcontroller_PWM_CopterRocks_Working/Libraries/CMSIS/Include\cmsis_gcc.h ****     uint32_t result;
 568:C:/Workspaces/DAVE-4.3/WS_2016_09_02/Flightcontroller_PWM_CopterRocks_Working/Libraries/CMSIS/Include\cmsis_gcc.h **** 
 569:C:/Workspaces/DAVE-4.3/WS_2016_09_02/Flightcontroller_PWM_CopterRocks_Working/Libraries/CMSIS/Include\cmsis_gcc.h **** #if (__GNUC__ > 4) || (__GNUC__ == 4 && __GNUC_MINOR__ >= 8)
 570:C:/Workspaces/DAVE-4.3/WS_2016_09_02/Flightcontroller_PWM_CopterRocks_Working/Libraries/CMSIS/Include\cmsis_gcc.h ****    __ASM volatile ("ldrexb %0, %1" : "=r" (result) : "Q" (*addr) );
 571:C:/Workspaces/DAVE-4.3/WS_2016_09_02/Flightcontroller_PWM_CopterRocks_Working/Libraries/CMSIS/Include\cmsis_gcc.h **** #else
 572:C:/Workspaces/DAVE-4.3/WS_2016_09_02/Flightcontroller_PWM_CopterRocks_Working/Libraries/CMSIS/Include\cmsis_gcc.h ****     /* Prior to GCC 4.8, "Q" will be expanded to [rx, #0] which is not
 573:C:/Workspaces/DAVE-4.3/WS_2016_09_02/Flightcontroller_PWM_CopterRocks_Working/Libraries/CMSIS/Include\cmsis_gcc.h ****        accepted by assembler. So has to use following less efficient pattern.
 574:C:/Workspaces/DAVE-4.3/WS_2016_09_02/Flightcontroller_PWM_CopterRocks_Working/Libraries/CMSIS/Include\cmsis_gcc.h ****     */
 575:C:/Workspaces/DAVE-4.3/WS_2016_09_02/Flightcontroller_PWM_CopterRocks_Working/Libraries/CMSIS/Include\cmsis_gcc.h ****    __ASM volatile ("ldrexb %0, [%1]" : "=r" (result) : "r" (addr) : "memory" );
 576:C:/Workspaces/DAVE-4.3/WS_2016_09_02/Flightcontroller_PWM_CopterRocks_Working/Libraries/CMSIS/Include\cmsis_gcc.h **** #endif
 577:C:/Workspaces/DAVE-4.3/WS_2016_09_02/Flightcontroller_PWM_CopterRocks_Working/Libraries/CMSIS/Include\cmsis_gcc.h ****    return ((uint8_t) result);    /* Add explicit type cast here */
 578:C:/Workspaces/DAVE-4.3/WS_2016_09_02/Flightcontroller_PWM_CopterRocks_Working/Libraries/CMSIS/Include\cmsis_gcc.h **** }
 579:C:/Workspaces/DAVE-4.3/WS_2016_09_02/Flightcontroller_PWM_CopterRocks_Working/Libraries/CMSIS/Include\cmsis_gcc.h **** 
 580:C:/Workspaces/DAVE-4.3/WS_2016_09_02/Flightcontroller_PWM_CopterRocks_Working/Libraries/CMSIS/Include\cmsis_gcc.h **** 
 581:C:/Workspaces/DAVE-4.3/WS_2016_09_02/Flightcontroller_PWM_CopterRocks_Working/Libraries/CMSIS/Include\cmsis_gcc.h **** /**
 582:C:/Workspaces/DAVE-4.3/WS_2016_09_02/Flightcontroller_PWM_CopterRocks_Working/Libraries/CMSIS/Include\cmsis_gcc.h ****   \brief   LDR Exclusive (16 bit)
 583:C:/Workspaces/DAVE-4.3/WS_2016_09_02/Flightcontroller_PWM_CopterRocks_Working/Libraries/CMSIS/Include\cmsis_gcc.h ****   \details Executes a exclusive LDR instruction for 16 bit values.
 584:C:/Workspaces/DAVE-4.3/WS_2016_09_02/Flightcontroller_PWM_CopterRocks_Working/Libraries/CMSIS/Include\cmsis_gcc.h ****   \param [in]    ptr  Pointer to data
 585:C:/Workspaces/DAVE-4.3/WS_2016_09_02/Flightcontroller_PWM_CopterRocks_Working/Libraries/CMSIS/Include\cmsis_gcc.h ****   \return        value of type uint16_t at (*ptr)
 586:C:/Workspaces/DAVE-4.3/WS_2016_09_02/Flightcontroller_PWM_CopterRocks_Working/Libraries/CMSIS/Include\cmsis_gcc.h ****  */
 587:C:/Workspaces/DAVE-4.3/WS_2016_09_02/Flightcontroller_PWM_CopterRocks_Working/Libraries/CMSIS/Include\cmsis_gcc.h **** __attribute__((always_inline)) __STATIC_INLINE uint16_t __LDREXH(volatile uint16_t *addr)
 588:C:/Workspaces/DAVE-4.3/WS_2016_09_02/Flightcontroller_PWM_CopterRocks_Working/Libraries/CMSIS/Include\cmsis_gcc.h **** {
 589:C:/Workspaces/DAVE-4.3/WS_2016_09_02/Flightcontroller_PWM_CopterRocks_Working/Libraries/CMSIS/Include\cmsis_gcc.h ****     uint32_t result;
 590:C:/Workspaces/DAVE-4.3/WS_2016_09_02/Flightcontroller_PWM_CopterRocks_Working/Libraries/CMSIS/Include\cmsis_gcc.h **** 
 591:C:/Workspaces/DAVE-4.3/WS_2016_09_02/Flightcontroller_PWM_CopterRocks_Working/Libraries/CMSIS/Include\cmsis_gcc.h **** #if (__GNUC__ > 4) || (__GNUC__ == 4 && __GNUC_MINOR__ >= 8)
 592:C:/Workspaces/DAVE-4.3/WS_2016_09_02/Flightcontroller_PWM_CopterRocks_Working/Libraries/CMSIS/Include\cmsis_gcc.h ****    __ASM volatile ("ldrexh %0, %1" : "=r" (result) : "Q" (*addr) );
 593:C:/Workspaces/DAVE-4.3/WS_2016_09_02/Flightcontroller_PWM_CopterRocks_Working/Libraries/CMSIS/Include\cmsis_gcc.h **** #else
 594:C:/Workspaces/DAVE-4.3/WS_2016_09_02/Flightcontroller_PWM_CopterRocks_Working/Libraries/CMSIS/Include\cmsis_gcc.h ****     /* Prior to GCC 4.8, "Q" will be expanded to [rx, #0] which is not
 595:C:/Workspaces/DAVE-4.3/WS_2016_09_02/Flightcontroller_PWM_CopterRocks_Working/Libraries/CMSIS/Include\cmsis_gcc.h ****        accepted by assembler. So has to use following less efficient pattern.
 596:C:/Workspaces/DAVE-4.3/WS_2016_09_02/Flightcontroller_PWM_CopterRocks_Working/Libraries/CMSIS/Include\cmsis_gcc.h ****     */
 597:C:/Workspaces/DAVE-4.3/WS_2016_09_02/Flightcontroller_PWM_CopterRocks_Working/Libraries/CMSIS/Include\cmsis_gcc.h ****    __ASM volatile ("ldrexh %0, [%1]" : "=r" (result) : "r" (addr) : "memory" );
 598:C:/Workspaces/DAVE-4.3/WS_2016_09_02/Flightcontroller_PWM_CopterRocks_Working/Libraries/CMSIS/Include\cmsis_gcc.h **** #endif
 599:C:/Workspaces/DAVE-4.3/WS_2016_09_02/Flightcontroller_PWM_CopterRocks_Working/Libraries/CMSIS/Include\cmsis_gcc.h ****    return ((uint16_t) result);    /* Add explicit type cast here */
 600:C:/Workspaces/DAVE-4.3/WS_2016_09_02/Flightcontroller_PWM_CopterRocks_Working/Libraries/CMSIS/Include\cmsis_gcc.h **** }
 601:C:/Workspaces/DAVE-4.3/WS_2016_09_02/Flightcontroller_PWM_CopterRocks_Working/Libraries/CMSIS/Include\cmsis_gcc.h **** 
 602:C:/Workspaces/DAVE-4.3/WS_2016_09_02/Flightcontroller_PWM_CopterRocks_Working/Libraries/CMSIS/Include\cmsis_gcc.h **** 
 603:C:/Workspaces/DAVE-4.3/WS_2016_09_02/Flightcontroller_PWM_CopterRocks_Working/Libraries/CMSIS/Include\cmsis_gcc.h **** /**
 604:C:/Workspaces/DAVE-4.3/WS_2016_09_02/Flightcontroller_PWM_CopterRocks_Working/Libraries/CMSIS/Include\cmsis_gcc.h ****   \brief   LDR Exclusive (32 bit)
 605:C:/Workspaces/DAVE-4.3/WS_2016_09_02/Flightcontroller_PWM_CopterRocks_Working/Libraries/CMSIS/Include\cmsis_gcc.h ****   \details Executes a exclusive LDR instruction for 32 bit values.
 606:C:/Workspaces/DAVE-4.3/WS_2016_09_02/Flightcontroller_PWM_CopterRocks_Working/Libraries/CMSIS/Include\cmsis_gcc.h ****   \param [in]    ptr  Pointer to data
 607:C:/Workspaces/DAVE-4.3/WS_2016_09_02/Flightcontroller_PWM_CopterRocks_Working/Libraries/CMSIS/Include\cmsis_gcc.h ****   \return        value of type uint32_t at (*ptr)
 608:C:/Workspaces/DAVE-4.3/WS_2016_09_02/Flightcontroller_PWM_CopterRocks_Working/Libraries/CMSIS/Include\cmsis_gcc.h ****  */
 609:C:/Workspaces/DAVE-4.3/WS_2016_09_02/Flightcontroller_PWM_CopterRocks_Working/Libraries/CMSIS/Include\cmsis_gcc.h **** __attribute__((always_inline)) __STATIC_INLINE uint32_t __LDREXW(volatile uint32_t *addr)
 610:C:/Workspaces/DAVE-4.3/WS_2016_09_02/Flightcontroller_PWM_CopterRocks_Working/Libraries/CMSIS/Include\cmsis_gcc.h **** {
 611:C:/Workspaces/DAVE-4.3/WS_2016_09_02/Flightcontroller_PWM_CopterRocks_Working/Libraries/CMSIS/Include\cmsis_gcc.h ****     uint32_t result;
 612:C:/Workspaces/DAVE-4.3/WS_2016_09_02/Flightcontroller_PWM_CopterRocks_Working/Libraries/CMSIS/Include\cmsis_gcc.h **** 
 613:C:/Workspaces/DAVE-4.3/WS_2016_09_02/Flightcontroller_PWM_CopterRocks_Working/Libraries/CMSIS/Include\cmsis_gcc.h ****    __ASM volatile ("ldrex %0, %1" : "=r" (result) : "Q" (*addr) );
 614:C:/Workspaces/DAVE-4.3/WS_2016_09_02/Flightcontroller_PWM_CopterRocks_Working/Libraries/CMSIS/Include\cmsis_gcc.h ****    return(result);
 615:C:/Workspaces/DAVE-4.3/WS_2016_09_02/Flightcontroller_PWM_CopterRocks_Working/Libraries/CMSIS/Include\cmsis_gcc.h **** }
 616:C:/Workspaces/DAVE-4.3/WS_2016_09_02/Flightcontroller_PWM_CopterRocks_Working/Libraries/CMSIS/Include\cmsis_gcc.h **** 
 617:C:/Workspaces/DAVE-4.3/WS_2016_09_02/Flightcontroller_PWM_CopterRocks_Working/Libraries/CMSIS/Include\cmsis_gcc.h **** 
 618:C:/Workspaces/DAVE-4.3/WS_2016_09_02/Flightcontroller_PWM_CopterRocks_Working/Libraries/CMSIS/Include\cmsis_gcc.h **** /**
 619:C:/Workspaces/DAVE-4.3/WS_2016_09_02/Flightcontroller_PWM_CopterRocks_Working/Libraries/CMSIS/Include\cmsis_gcc.h ****   \brief   STR Exclusive (8 bit)
 620:C:/Workspaces/DAVE-4.3/WS_2016_09_02/Flightcontroller_PWM_CopterRocks_Working/Libraries/CMSIS/Include\cmsis_gcc.h ****   \details Executes a exclusive STR instruction for 8 bit values.
 621:C:/Workspaces/DAVE-4.3/WS_2016_09_02/Flightcontroller_PWM_CopterRocks_Working/Libraries/CMSIS/Include\cmsis_gcc.h ****   \param [in]  value  Value to store
 622:C:/Workspaces/DAVE-4.3/WS_2016_09_02/Flightcontroller_PWM_CopterRocks_Working/Libraries/CMSIS/Include\cmsis_gcc.h ****   \param [in]    ptr  Pointer to location
 623:C:/Workspaces/DAVE-4.3/WS_2016_09_02/Flightcontroller_PWM_CopterRocks_Working/Libraries/CMSIS/Include\cmsis_gcc.h ****   \return          0  Function succeeded
 624:C:/Workspaces/DAVE-4.3/WS_2016_09_02/Flightcontroller_PWM_CopterRocks_Working/Libraries/CMSIS/Include\cmsis_gcc.h ****   \return          1  Function failed
 625:C:/Workspaces/DAVE-4.3/WS_2016_09_02/Flightcontroller_PWM_CopterRocks_Working/Libraries/CMSIS/Include\cmsis_gcc.h ****  */
 626:C:/Workspaces/DAVE-4.3/WS_2016_09_02/Flightcontroller_PWM_CopterRocks_Working/Libraries/CMSIS/Include\cmsis_gcc.h **** __attribute__((always_inline)) __STATIC_INLINE uint32_t __STREXB(uint8_t value, volatile uint8_t *a
 627:C:/Workspaces/DAVE-4.3/WS_2016_09_02/Flightcontroller_PWM_CopterRocks_Working/Libraries/CMSIS/Include\cmsis_gcc.h **** {
 628:C:/Workspaces/DAVE-4.3/WS_2016_09_02/Flightcontroller_PWM_CopterRocks_Working/Libraries/CMSIS/Include\cmsis_gcc.h ****    uint32_t result;
 629:C:/Workspaces/DAVE-4.3/WS_2016_09_02/Flightcontroller_PWM_CopterRocks_Working/Libraries/CMSIS/Include\cmsis_gcc.h **** 
 630:C:/Workspaces/DAVE-4.3/WS_2016_09_02/Flightcontroller_PWM_CopterRocks_Working/Libraries/CMSIS/Include\cmsis_gcc.h ****    __ASM volatile ("strexb %0, %2, %1" : "=&r" (result), "=Q" (*addr) : "r" ((uint32_t)value) );
 631:C:/Workspaces/DAVE-4.3/WS_2016_09_02/Flightcontroller_PWM_CopterRocks_Working/Libraries/CMSIS/Include\cmsis_gcc.h ****    return(result);
 632:C:/Workspaces/DAVE-4.3/WS_2016_09_02/Flightcontroller_PWM_CopterRocks_Working/Libraries/CMSIS/Include\cmsis_gcc.h **** }
 633:C:/Workspaces/DAVE-4.3/WS_2016_09_02/Flightcontroller_PWM_CopterRocks_Working/Libraries/CMSIS/Include\cmsis_gcc.h **** 
 634:C:/Workspaces/DAVE-4.3/WS_2016_09_02/Flightcontroller_PWM_CopterRocks_Working/Libraries/CMSIS/Include\cmsis_gcc.h **** 
 635:C:/Workspaces/DAVE-4.3/WS_2016_09_02/Flightcontroller_PWM_CopterRocks_Working/Libraries/CMSIS/Include\cmsis_gcc.h **** /**
 636:C:/Workspaces/DAVE-4.3/WS_2016_09_02/Flightcontroller_PWM_CopterRocks_Working/Libraries/CMSIS/Include\cmsis_gcc.h ****   \brief   STR Exclusive (16 bit)
 637:C:/Workspaces/DAVE-4.3/WS_2016_09_02/Flightcontroller_PWM_CopterRocks_Working/Libraries/CMSIS/Include\cmsis_gcc.h ****   \details Executes a exclusive STR instruction for 16 bit values.
 638:C:/Workspaces/DAVE-4.3/WS_2016_09_02/Flightcontroller_PWM_CopterRocks_Working/Libraries/CMSIS/Include\cmsis_gcc.h ****   \param [in]  value  Value to store
 639:C:/Workspaces/DAVE-4.3/WS_2016_09_02/Flightcontroller_PWM_CopterRocks_Working/Libraries/CMSIS/Include\cmsis_gcc.h ****   \param [in]    ptr  Pointer to location
 640:C:/Workspaces/DAVE-4.3/WS_2016_09_02/Flightcontroller_PWM_CopterRocks_Working/Libraries/CMSIS/Include\cmsis_gcc.h ****   \return          0  Function succeeded
 641:C:/Workspaces/DAVE-4.3/WS_2016_09_02/Flightcontroller_PWM_CopterRocks_Working/Libraries/CMSIS/Include\cmsis_gcc.h ****   \return          1  Function failed
 642:C:/Workspaces/DAVE-4.3/WS_2016_09_02/Flightcontroller_PWM_CopterRocks_Working/Libraries/CMSIS/Include\cmsis_gcc.h ****  */
 643:C:/Workspaces/DAVE-4.3/WS_2016_09_02/Flightcontroller_PWM_CopterRocks_Working/Libraries/CMSIS/Include\cmsis_gcc.h **** __attribute__((always_inline)) __STATIC_INLINE uint32_t __STREXH(uint16_t value, volatile uint16_t 
 644:C:/Workspaces/DAVE-4.3/WS_2016_09_02/Flightcontroller_PWM_CopterRocks_Working/Libraries/CMSIS/Include\cmsis_gcc.h **** {
 645:C:/Workspaces/DAVE-4.3/WS_2016_09_02/Flightcontroller_PWM_CopterRocks_Working/Libraries/CMSIS/Include\cmsis_gcc.h ****    uint32_t result;
 646:C:/Workspaces/DAVE-4.3/WS_2016_09_02/Flightcontroller_PWM_CopterRocks_Working/Libraries/CMSIS/Include\cmsis_gcc.h **** 
 647:C:/Workspaces/DAVE-4.3/WS_2016_09_02/Flightcontroller_PWM_CopterRocks_Working/Libraries/CMSIS/Include\cmsis_gcc.h ****    __ASM volatile ("strexh %0, %2, %1" : "=&r" (result), "=Q" (*addr) : "r" ((uint32_t)value) );
 648:C:/Workspaces/DAVE-4.3/WS_2016_09_02/Flightcontroller_PWM_CopterRocks_Working/Libraries/CMSIS/Include\cmsis_gcc.h ****    return(result);
 649:C:/Workspaces/DAVE-4.3/WS_2016_09_02/Flightcontroller_PWM_CopterRocks_Working/Libraries/CMSIS/Include\cmsis_gcc.h **** }
 650:C:/Workspaces/DAVE-4.3/WS_2016_09_02/Flightcontroller_PWM_CopterRocks_Working/Libraries/CMSIS/Include\cmsis_gcc.h **** 
 651:C:/Workspaces/DAVE-4.3/WS_2016_09_02/Flightcontroller_PWM_CopterRocks_Working/Libraries/CMSIS/Include\cmsis_gcc.h **** 
 652:C:/Workspaces/DAVE-4.3/WS_2016_09_02/Flightcontroller_PWM_CopterRocks_Working/Libraries/CMSIS/Include\cmsis_gcc.h **** /**
 653:C:/Workspaces/DAVE-4.3/WS_2016_09_02/Flightcontroller_PWM_CopterRocks_Working/Libraries/CMSIS/Include\cmsis_gcc.h ****   \brief   STR Exclusive (32 bit)
 654:C:/Workspaces/DAVE-4.3/WS_2016_09_02/Flightcontroller_PWM_CopterRocks_Working/Libraries/CMSIS/Include\cmsis_gcc.h ****   \details Executes a exclusive STR instruction for 32 bit values.
 655:C:/Workspaces/DAVE-4.3/WS_2016_09_02/Flightcontroller_PWM_CopterRocks_Working/Libraries/CMSIS/Include\cmsis_gcc.h ****   \param [in]  value  Value to store
 656:C:/Workspaces/DAVE-4.3/WS_2016_09_02/Flightcontroller_PWM_CopterRocks_Working/Libraries/CMSIS/Include\cmsis_gcc.h ****   \param [in]    ptr  Pointer to location
 657:C:/Workspaces/DAVE-4.3/WS_2016_09_02/Flightcontroller_PWM_CopterRocks_Working/Libraries/CMSIS/Include\cmsis_gcc.h ****   \return          0  Function succeeded
 658:C:/Workspaces/DAVE-4.3/WS_2016_09_02/Flightcontroller_PWM_CopterRocks_Working/Libraries/CMSIS/Include\cmsis_gcc.h ****   \return          1  Function failed
 659:C:/Workspaces/DAVE-4.3/WS_2016_09_02/Flightcontroller_PWM_CopterRocks_Working/Libraries/CMSIS/Include\cmsis_gcc.h ****  */
 660:C:/Workspaces/DAVE-4.3/WS_2016_09_02/Flightcontroller_PWM_CopterRocks_Working/Libraries/CMSIS/Include\cmsis_gcc.h **** __attribute__((always_inline)) __STATIC_INLINE uint32_t __STREXW(uint32_t value, volatile uint32_t 
 661:C:/Workspaces/DAVE-4.3/WS_2016_09_02/Flightcontroller_PWM_CopterRocks_Working/Libraries/CMSIS/Include\cmsis_gcc.h **** {
 662:C:/Workspaces/DAVE-4.3/WS_2016_09_02/Flightcontroller_PWM_CopterRocks_Working/Libraries/CMSIS/Include\cmsis_gcc.h ****    uint32_t result;
 663:C:/Workspaces/DAVE-4.3/WS_2016_09_02/Flightcontroller_PWM_CopterRocks_Working/Libraries/CMSIS/Include\cmsis_gcc.h **** 
 664:C:/Workspaces/DAVE-4.3/WS_2016_09_02/Flightcontroller_PWM_CopterRocks_Working/Libraries/CMSIS/Include\cmsis_gcc.h ****    __ASM volatile ("strex %0, %2, %1" : "=&r" (result), "=Q" (*addr) : "r" (value) );
 665:C:/Workspaces/DAVE-4.3/WS_2016_09_02/Flightcontroller_PWM_CopterRocks_Working/Libraries/CMSIS/Include\cmsis_gcc.h ****    return(result);
 666:C:/Workspaces/DAVE-4.3/WS_2016_09_02/Flightcontroller_PWM_CopterRocks_Working/Libraries/CMSIS/Include\cmsis_gcc.h **** }
 667:C:/Workspaces/DAVE-4.3/WS_2016_09_02/Flightcontroller_PWM_CopterRocks_Working/Libraries/CMSIS/Include\cmsis_gcc.h **** 
 668:C:/Workspaces/DAVE-4.3/WS_2016_09_02/Flightcontroller_PWM_CopterRocks_Working/Libraries/CMSIS/Include\cmsis_gcc.h **** 
 669:C:/Workspaces/DAVE-4.3/WS_2016_09_02/Flightcontroller_PWM_CopterRocks_Working/Libraries/CMSIS/Include\cmsis_gcc.h **** /**
 670:C:/Workspaces/DAVE-4.3/WS_2016_09_02/Flightcontroller_PWM_CopterRocks_Working/Libraries/CMSIS/Include\cmsis_gcc.h ****   \brief   Remove the exclusive lock
 671:C:/Workspaces/DAVE-4.3/WS_2016_09_02/Flightcontroller_PWM_CopterRocks_Working/Libraries/CMSIS/Include\cmsis_gcc.h ****   \details Removes the exclusive lock which is created by LDREX.
 672:C:/Workspaces/DAVE-4.3/WS_2016_09_02/Flightcontroller_PWM_CopterRocks_Working/Libraries/CMSIS/Include\cmsis_gcc.h ****  */
 673:C:/Workspaces/DAVE-4.3/WS_2016_09_02/Flightcontroller_PWM_CopterRocks_Working/Libraries/CMSIS/Include\cmsis_gcc.h **** __attribute__((always_inline)) __STATIC_INLINE void __CLREX(void)
 674:C:/Workspaces/DAVE-4.3/WS_2016_09_02/Flightcontroller_PWM_CopterRocks_Working/Libraries/CMSIS/Include\cmsis_gcc.h **** {
 675:C:/Workspaces/DAVE-4.3/WS_2016_09_02/Flightcontroller_PWM_CopterRocks_Working/Libraries/CMSIS/Include\cmsis_gcc.h ****   __ASM volatile ("clrex" ::: "memory");
 676:C:/Workspaces/DAVE-4.3/WS_2016_09_02/Flightcontroller_PWM_CopterRocks_Working/Libraries/CMSIS/Include\cmsis_gcc.h **** }
 677:C:/Workspaces/DAVE-4.3/WS_2016_09_02/Flightcontroller_PWM_CopterRocks_Working/Libraries/CMSIS/Include\cmsis_gcc.h **** 
 678:C:/Workspaces/DAVE-4.3/WS_2016_09_02/Flightcontroller_PWM_CopterRocks_Working/Libraries/CMSIS/Include\cmsis_gcc.h **** 
 679:C:/Workspaces/DAVE-4.3/WS_2016_09_02/Flightcontroller_PWM_CopterRocks_Working/Libraries/CMSIS/Include\cmsis_gcc.h **** /**
 680:C:/Workspaces/DAVE-4.3/WS_2016_09_02/Flightcontroller_PWM_CopterRocks_Working/Libraries/CMSIS/Include\cmsis_gcc.h ****   \brief   Signed Saturate
 681:C:/Workspaces/DAVE-4.3/WS_2016_09_02/Flightcontroller_PWM_CopterRocks_Working/Libraries/CMSIS/Include\cmsis_gcc.h ****   \details Saturates a signed value.
 682:C:/Workspaces/DAVE-4.3/WS_2016_09_02/Flightcontroller_PWM_CopterRocks_Working/Libraries/CMSIS/Include\cmsis_gcc.h ****   \param [in]  value  Value to be saturated
 683:C:/Workspaces/DAVE-4.3/WS_2016_09_02/Flightcontroller_PWM_CopterRocks_Working/Libraries/CMSIS/Include\cmsis_gcc.h ****   \param [in]    sat  Bit position to saturate to (1..32)
 684:C:/Workspaces/DAVE-4.3/WS_2016_09_02/Flightcontroller_PWM_CopterRocks_Working/Libraries/CMSIS/Include\cmsis_gcc.h ****   \return             Saturated value
 685:C:/Workspaces/DAVE-4.3/WS_2016_09_02/Flightcontroller_PWM_CopterRocks_Working/Libraries/CMSIS/Include\cmsis_gcc.h ****  */
 686:C:/Workspaces/DAVE-4.3/WS_2016_09_02/Flightcontroller_PWM_CopterRocks_Working/Libraries/CMSIS/Include\cmsis_gcc.h **** #define __SSAT(ARG1,ARG2) \
 687:C:/Workspaces/DAVE-4.3/WS_2016_09_02/Flightcontroller_PWM_CopterRocks_Working/Libraries/CMSIS/Include\cmsis_gcc.h **** ({                          \
 688:C:/Workspaces/DAVE-4.3/WS_2016_09_02/Flightcontroller_PWM_CopterRocks_Working/Libraries/CMSIS/Include\cmsis_gcc.h ****   uint32_t __RES, __ARG1 = (ARG1); \
 689:C:/Workspaces/DAVE-4.3/WS_2016_09_02/Flightcontroller_PWM_CopterRocks_Working/Libraries/CMSIS/Include\cmsis_gcc.h ****   __ASM ("ssat %0, %1, %2" : "=r" (__RES) :  "I" (ARG2), "r" (__ARG1) ); \
 690:C:/Workspaces/DAVE-4.3/WS_2016_09_02/Flightcontroller_PWM_CopterRocks_Working/Libraries/CMSIS/Include\cmsis_gcc.h ****   __RES; \
 691:C:/Workspaces/DAVE-4.3/WS_2016_09_02/Flightcontroller_PWM_CopterRocks_Working/Libraries/CMSIS/Include\cmsis_gcc.h ****  })
 692:C:/Workspaces/DAVE-4.3/WS_2016_09_02/Flightcontroller_PWM_CopterRocks_Working/Libraries/CMSIS/Include\cmsis_gcc.h **** 
 693:C:/Workspaces/DAVE-4.3/WS_2016_09_02/Flightcontroller_PWM_CopterRocks_Working/Libraries/CMSIS/Include\cmsis_gcc.h **** 
 694:C:/Workspaces/DAVE-4.3/WS_2016_09_02/Flightcontroller_PWM_CopterRocks_Working/Libraries/CMSIS/Include\cmsis_gcc.h **** /**
 695:C:/Workspaces/DAVE-4.3/WS_2016_09_02/Flightcontroller_PWM_CopterRocks_Working/Libraries/CMSIS/Include\cmsis_gcc.h ****   \brief   Unsigned Saturate
 696:C:/Workspaces/DAVE-4.3/WS_2016_09_02/Flightcontroller_PWM_CopterRocks_Working/Libraries/CMSIS/Include\cmsis_gcc.h ****   \details Saturates an unsigned value.
 697:C:/Workspaces/DAVE-4.3/WS_2016_09_02/Flightcontroller_PWM_CopterRocks_Working/Libraries/CMSIS/Include\cmsis_gcc.h ****   \param [in]  value  Value to be saturated
 698:C:/Workspaces/DAVE-4.3/WS_2016_09_02/Flightcontroller_PWM_CopterRocks_Working/Libraries/CMSIS/Include\cmsis_gcc.h ****   \param [in]    sat  Bit position to saturate to (0..31)
 699:C:/Workspaces/DAVE-4.3/WS_2016_09_02/Flightcontroller_PWM_CopterRocks_Working/Libraries/CMSIS/Include\cmsis_gcc.h ****   \return             Saturated value
 700:C:/Workspaces/DAVE-4.3/WS_2016_09_02/Flightcontroller_PWM_CopterRocks_Working/Libraries/CMSIS/Include\cmsis_gcc.h ****  */
 701:C:/Workspaces/DAVE-4.3/WS_2016_09_02/Flightcontroller_PWM_CopterRocks_Working/Libraries/CMSIS/Include\cmsis_gcc.h **** #define __USAT(ARG1,ARG2) \
 702:C:/Workspaces/DAVE-4.3/WS_2016_09_02/Flightcontroller_PWM_CopterRocks_Working/Libraries/CMSIS/Include\cmsis_gcc.h **** ({                          \
 703:C:/Workspaces/DAVE-4.3/WS_2016_09_02/Flightcontroller_PWM_CopterRocks_Working/Libraries/CMSIS/Include\cmsis_gcc.h ****   uint32_t __RES, __ARG1 = (ARG1); \
 704:C:/Workspaces/DAVE-4.3/WS_2016_09_02/Flightcontroller_PWM_CopterRocks_Working/Libraries/CMSIS/Include\cmsis_gcc.h ****   __ASM ("usat %0, %1, %2" : "=r" (__RES) :  "I" (ARG2), "r" (__ARG1) ); \
 705:C:/Workspaces/DAVE-4.3/WS_2016_09_02/Flightcontroller_PWM_CopterRocks_Working/Libraries/CMSIS/Include\cmsis_gcc.h ****   __RES; \
 706:C:/Workspaces/DAVE-4.3/WS_2016_09_02/Flightcontroller_PWM_CopterRocks_Working/Libraries/CMSIS/Include\cmsis_gcc.h ****  })
 707:C:/Workspaces/DAVE-4.3/WS_2016_09_02/Flightcontroller_PWM_CopterRocks_Working/Libraries/CMSIS/Include\cmsis_gcc.h **** 
 708:C:/Workspaces/DAVE-4.3/WS_2016_09_02/Flightcontroller_PWM_CopterRocks_Working/Libraries/CMSIS/Include\cmsis_gcc.h **** 
 709:C:/Workspaces/DAVE-4.3/WS_2016_09_02/Flightcontroller_PWM_CopterRocks_Working/Libraries/CMSIS/Include\cmsis_gcc.h **** /**
 710:C:/Workspaces/DAVE-4.3/WS_2016_09_02/Flightcontroller_PWM_CopterRocks_Working/Libraries/CMSIS/Include\cmsis_gcc.h ****   \brief   Rotate Right with Extend (32 bit)
 711:C:/Workspaces/DAVE-4.3/WS_2016_09_02/Flightcontroller_PWM_CopterRocks_Working/Libraries/CMSIS/Include\cmsis_gcc.h ****   \details Moves each bit of a bitstring right by one bit.
 712:C:/Workspaces/DAVE-4.3/WS_2016_09_02/Flightcontroller_PWM_CopterRocks_Working/Libraries/CMSIS/Include\cmsis_gcc.h ****            The carry input is shifted in at the left end of the bitstring.
 713:C:/Workspaces/DAVE-4.3/WS_2016_09_02/Flightcontroller_PWM_CopterRocks_Working/Libraries/CMSIS/Include\cmsis_gcc.h ****   \param [in]    value  Value to rotate
 714:C:/Workspaces/DAVE-4.3/WS_2016_09_02/Flightcontroller_PWM_CopterRocks_Working/Libraries/CMSIS/Include\cmsis_gcc.h ****   \return               Rotated value
 715:C:/Workspaces/DAVE-4.3/WS_2016_09_02/Flightcontroller_PWM_CopterRocks_Working/Libraries/CMSIS/Include\cmsis_gcc.h ****  */
 716:C:/Workspaces/DAVE-4.3/WS_2016_09_02/Flightcontroller_PWM_CopterRocks_Working/Libraries/CMSIS/Include\cmsis_gcc.h **** __attribute__((always_inline)) __STATIC_INLINE uint32_t __RRX(uint32_t value)
 717:C:/Workspaces/DAVE-4.3/WS_2016_09_02/Flightcontroller_PWM_CopterRocks_Working/Libraries/CMSIS/Include\cmsis_gcc.h **** {
 718:C:/Workspaces/DAVE-4.3/WS_2016_09_02/Flightcontroller_PWM_CopterRocks_Working/Libraries/CMSIS/Include\cmsis_gcc.h ****   uint32_t result;
 719:C:/Workspaces/DAVE-4.3/WS_2016_09_02/Flightcontroller_PWM_CopterRocks_Working/Libraries/CMSIS/Include\cmsis_gcc.h **** 
 720:C:/Workspaces/DAVE-4.3/WS_2016_09_02/Flightcontroller_PWM_CopterRocks_Working/Libraries/CMSIS/Include\cmsis_gcc.h ****   __ASM volatile ("rrx %0, %1" : __CMSIS_GCC_OUT_REG (result) : __CMSIS_GCC_USE_REG (value) );
 721:C:/Workspaces/DAVE-4.3/WS_2016_09_02/Flightcontroller_PWM_CopterRocks_Working/Libraries/CMSIS/Include\cmsis_gcc.h ****   return(result);
 722:C:/Workspaces/DAVE-4.3/WS_2016_09_02/Flightcontroller_PWM_CopterRocks_Working/Libraries/CMSIS/Include\cmsis_gcc.h **** }
 723:C:/Workspaces/DAVE-4.3/WS_2016_09_02/Flightcontroller_PWM_CopterRocks_Working/Libraries/CMSIS/Include\cmsis_gcc.h **** 
 724:C:/Workspaces/DAVE-4.3/WS_2016_09_02/Flightcontroller_PWM_CopterRocks_Working/Libraries/CMSIS/Include\cmsis_gcc.h **** 
 725:C:/Workspaces/DAVE-4.3/WS_2016_09_02/Flightcontroller_PWM_CopterRocks_Working/Libraries/CMSIS/Include\cmsis_gcc.h **** /**
 726:C:/Workspaces/DAVE-4.3/WS_2016_09_02/Flightcontroller_PWM_CopterRocks_Working/Libraries/CMSIS/Include\cmsis_gcc.h ****   \brief   LDRT Unprivileged (8 bit)
 727:C:/Workspaces/DAVE-4.3/WS_2016_09_02/Flightcontroller_PWM_CopterRocks_Working/Libraries/CMSIS/Include\cmsis_gcc.h ****   \details Executes a Unprivileged LDRT instruction for 8 bit value.
 728:C:/Workspaces/DAVE-4.3/WS_2016_09_02/Flightcontroller_PWM_CopterRocks_Working/Libraries/CMSIS/Include\cmsis_gcc.h ****   \param [in]    ptr  Pointer to data
 729:C:/Workspaces/DAVE-4.3/WS_2016_09_02/Flightcontroller_PWM_CopterRocks_Working/Libraries/CMSIS/Include\cmsis_gcc.h ****   \return             value of type uint8_t at (*ptr)
 730:C:/Workspaces/DAVE-4.3/WS_2016_09_02/Flightcontroller_PWM_CopterRocks_Working/Libraries/CMSIS/Include\cmsis_gcc.h ****  */
 731:C:/Workspaces/DAVE-4.3/WS_2016_09_02/Flightcontroller_PWM_CopterRocks_Working/Libraries/CMSIS/Include\cmsis_gcc.h **** __attribute__((always_inline)) __STATIC_INLINE uint8_t __LDRBT(volatile uint8_t *addr)
 732:C:/Workspaces/DAVE-4.3/WS_2016_09_02/Flightcontroller_PWM_CopterRocks_Working/Libraries/CMSIS/Include\cmsis_gcc.h **** {
 733:C:/Workspaces/DAVE-4.3/WS_2016_09_02/Flightcontroller_PWM_CopterRocks_Working/Libraries/CMSIS/Include\cmsis_gcc.h ****     uint32_t result;
 734:C:/Workspaces/DAVE-4.3/WS_2016_09_02/Flightcontroller_PWM_CopterRocks_Working/Libraries/CMSIS/Include\cmsis_gcc.h **** 
 735:C:/Workspaces/DAVE-4.3/WS_2016_09_02/Flightcontroller_PWM_CopterRocks_Working/Libraries/CMSIS/Include\cmsis_gcc.h **** #if (__GNUC__ > 4) || (__GNUC__ == 4 && __GNUC_MINOR__ >= 8)
 736:C:/Workspaces/DAVE-4.3/WS_2016_09_02/Flightcontroller_PWM_CopterRocks_Working/Libraries/CMSIS/Include\cmsis_gcc.h ****    __ASM volatile ("ldrbt %0, %1" : "=r" (result) : "Q" (*addr) );
 737:C:/Workspaces/DAVE-4.3/WS_2016_09_02/Flightcontroller_PWM_CopterRocks_Working/Libraries/CMSIS/Include\cmsis_gcc.h **** #else
 738:C:/Workspaces/DAVE-4.3/WS_2016_09_02/Flightcontroller_PWM_CopterRocks_Working/Libraries/CMSIS/Include\cmsis_gcc.h ****     /* Prior to GCC 4.8, "Q" will be expanded to [rx, #0] which is not
 739:C:/Workspaces/DAVE-4.3/WS_2016_09_02/Flightcontroller_PWM_CopterRocks_Working/Libraries/CMSIS/Include\cmsis_gcc.h ****        accepted by assembler. So has to use following less efficient pattern.
 740:C:/Workspaces/DAVE-4.3/WS_2016_09_02/Flightcontroller_PWM_CopterRocks_Working/Libraries/CMSIS/Include\cmsis_gcc.h ****     */
 741:C:/Workspaces/DAVE-4.3/WS_2016_09_02/Flightcontroller_PWM_CopterRocks_Working/Libraries/CMSIS/Include\cmsis_gcc.h ****    __ASM volatile ("ldrbt %0, [%1]" : "=r" (result) : "r" (addr) : "memory" );
 742:C:/Workspaces/DAVE-4.3/WS_2016_09_02/Flightcontroller_PWM_CopterRocks_Working/Libraries/CMSIS/Include\cmsis_gcc.h **** #endif
 743:C:/Workspaces/DAVE-4.3/WS_2016_09_02/Flightcontroller_PWM_CopterRocks_Working/Libraries/CMSIS/Include\cmsis_gcc.h ****    return ((uint8_t) result);    /* Add explicit type cast here */
 744:C:/Workspaces/DAVE-4.3/WS_2016_09_02/Flightcontroller_PWM_CopterRocks_Working/Libraries/CMSIS/Include\cmsis_gcc.h **** }
 745:C:/Workspaces/DAVE-4.3/WS_2016_09_02/Flightcontroller_PWM_CopterRocks_Working/Libraries/CMSIS/Include\cmsis_gcc.h **** 
 746:C:/Workspaces/DAVE-4.3/WS_2016_09_02/Flightcontroller_PWM_CopterRocks_Working/Libraries/CMSIS/Include\cmsis_gcc.h **** 
 747:C:/Workspaces/DAVE-4.3/WS_2016_09_02/Flightcontroller_PWM_CopterRocks_Working/Libraries/CMSIS/Include\cmsis_gcc.h **** /**
 748:C:/Workspaces/DAVE-4.3/WS_2016_09_02/Flightcontroller_PWM_CopterRocks_Working/Libraries/CMSIS/Include\cmsis_gcc.h ****   \brief   LDRT Unprivileged (16 bit)
 749:C:/Workspaces/DAVE-4.3/WS_2016_09_02/Flightcontroller_PWM_CopterRocks_Working/Libraries/CMSIS/Include\cmsis_gcc.h ****   \details Executes a Unprivileged LDRT instruction for 16 bit values.
 750:C:/Workspaces/DAVE-4.3/WS_2016_09_02/Flightcontroller_PWM_CopterRocks_Working/Libraries/CMSIS/Include\cmsis_gcc.h ****   \param [in]    ptr  Pointer to data
 751:C:/Workspaces/DAVE-4.3/WS_2016_09_02/Flightcontroller_PWM_CopterRocks_Working/Libraries/CMSIS/Include\cmsis_gcc.h ****   \return        value of type uint16_t at (*ptr)
 752:C:/Workspaces/DAVE-4.3/WS_2016_09_02/Flightcontroller_PWM_CopterRocks_Working/Libraries/CMSIS/Include\cmsis_gcc.h ****  */
 753:C:/Workspaces/DAVE-4.3/WS_2016_09_02/Flightcontroller_PWM_CopterRocks_Working/Libraries/CMSIS/Include\cmsis_gcc.h **** __attribute__((always_inline)) __STATIC_INLINE uint16_t __LDRHT(volatile uint16_t *addr)
 754:C:/Workspaces/DAVE-4.3/WS_2016_09_02/Flightcontroller_PWM_CopterRocks_Working/Libraries/CMSIS/Include\cmsis_gcc.h **** {
 755:C:/Workspaces/DAVE-4.3/WS_2016_09_02/Flightcontroller_PWM_CopterRocks_Working/Libraries/CMSIS/Include\cmsis_gcc.h ****     uint32_t result;
 756:C:/Workspaces/DAVE-4.3/WS_2016_09_02/Flightcontroller_PWM_CopterRocks_Working/Libraries/CMSIS/Include\cmsis_gcc.h **** 
 757:C:/Workspaces/DAVE-4.3/WS_2016_09_02/Flightcontroller_PWM_CopterRocks_Working/Libraries/CMSIS/Include\cmsis_gcc.h **** #if (__GNUC__ > 4) || (__GNUC__ == 4 && __GNUC_MINOR__ >= 8)
 758:C:/Workspaces/DAVE-4.3/WS_2016_09_02/Flightcontroller_PWM_CopterRocks_Working/Libraries/CMSIS/Include\cmsis_gcc.h ****    __ASM volatile ("ldrht %0, %1" : "=r" (result) : "Q" (*addr) );
 759:C:/Workspaces/DAVE-4.3/WS_2016_09_02/Flightcontroller_PWM_CopterRocks_Working/Libraries/CMSIS/Include\cmsis_gcc.h **** #else
 760:C:/Workspaces/DAVE-4.3/WS_2016_09_02/Flightcontroller_PWM_CopterRocks_Working/Libraries/CMSIS/Include\cmsis_gcc.h ****     /* Prior to GCC 4.8, "Q" will be expanded to [rx, #0] which is not
 761:C:/Workspaces/DAVE-4.3/WS_2016_09_02/Flightcontroller_PWM_CopterRocks_Working/Libraries/CMSIS/Include\cmsis_gcc.h ****        accepted by assembler. So has to use following less efficient pattern.
 762:C:/Workspaces/DAVE-4.3/WS_2016_09_02/Flightcontroller_PWM_CopterRocks_Working/Libraries/CMSIS/Include\cmsis_gcc.h ****     */
 763:C:/Workspaces/DAVE-4.3/WS_2016_09_02/Flightcontroller_PWM_CopterRocks_Working/Libraries/CMSIS/Include\cmsis_gcc.h ****    __ASM volatile ("ldrht %0, [%1]" : "=r" (result) : "r" (addr) : "memory" );
 764:C:/Workspaces/DAVE-4.3/WS_2016_09_02/Flightcontroller_PWM_CopterRocks_Working/Libraries/CMSIS/Include\cmsis_gcc.h **** #endif
 765:C:/Workspaces/DAVE-4.3/WS_2016_09_02/Flightcontroller_PWM_CopterRocks_Working/Libraries/CMSIS/Include\cmsis_gcc.h ****    return ((uint16_t) result);    /* Add explicit type cast here */
 766:C:/Workspaces/DAVE-4.3/WS_2016_09_02/Flightcontroller_PWM_CopterRocks_Working/Libraries/CMSIS/Include\cmsis_gcc.h **** }
 767:C:/Workspaces/DAVE-4.3/WS_2016_09_02/Flightcontroller_PWM_CopterRocks_Working/Libraries/CMSIS/Include\cmsis_gcc.h **** 
 768:C:/Workspaces/DAVE-4.3/WS_2016_09_02/Flightcontroller_PWM_CopterRocks_Working/Libraries/CMSIS/Include\cmsis_gcc.h **** 
 769:C:/Workspaces/DAVE-4.3/WS_2016_09_02/Flightcontroller_PWM_CopterRocks_Working/Libraries/CMSIS/Include\cmsis_gcc.h **** /**
 770:C:/Workspaces/DAVE-4.3/WS_2016_09_02/Flightcontroller_PWM_CopterRocks_Working/Libraries/CMSIS/Include\cmsis_gcc.h ****   \brief   LDRT Unprivileged (32 bit)
 771:C:/Workspaces/DAVE-4.3/WS_2016_09_02/Flightcontroller_PWM_CopterRocks_Working/Libraries/CMSIS/Include\cmsis_gcc.h ****   \details Executes a Unprivileged LDRT instruction for 32 bit values.
 772:C:/Workspaces/DAVE-4.3/WS_2016_09_02/Flightcontroller_PWM_CopterRocks_Working/Libraries/CMSIS/Include\cmsis_gcc.h ****   \param [in]    ptr  Pointer to data
 773:C:/Workspaces/DAVE-4.3/WS_2016_09_02/Flightcontroller_PWM_CopterRocks_Working/Libraries/CMSIS/Include\cmsis_gcc.h ****   \return        value of type uint32_t at (*ptr)
 774:C:/Workspaces/DAVE-4.3/WS_2016_09_02/Flightcontroller_PWM_CopterRocks_Working/Libraries/CMSIS/Include\cmsis_gcc.h ****  */
 775:C:/Workspaces/DAVE-4.3/WS_2016_09_02/Flightcontroller_PWM_CopterRocks_Working/Libraries/CMSIS/Include\cmsis_gcc.h **** __attribute__((always_inline)) __STATIC_INLINE uint32_t __LDRT(volatile uint32_t *addr)
 776:C:/Workspaces/DAVE-4.3/WS_2016_09_02/Flightcontroller_PWM_CopterRocks_Working/Libraries/CMSIS/Include\cmsis_gcc.h **** {
 777:C:/Workspaces/DAVE-4.3/WS_2016_09_02/Flightcontroller_PWM_CopterRocks_Working/Libraries/CMSIS/Include\cmsis_gcc.h ****     uint32_t result;
 778:C:/Workspaces/DAVE-4.3/WS_2016_09_02/Flightcontroller_PWM_CopterRocks_Working/Libraries/CMSIS/Include\cmsis_gcc.h **** 
 779:C:/Workspaces/DAVE-4.3/WS_2016_09_02/Flightcontroller_PWM_CopterRocks_Working/Libraries/CMSIS/Include\cmsis_gcc.h ****    __ASM volatile ("ldrt %0, %1" : "=r" (result) : "Q" (*addr) );
 780:C:/Workspaces/DAVE-4.3/WS_2016_09_02/Flightcontroller_PWM_CopterRocks_Working/Libraries/CMSIS/Include\cmsis_gcc.h ****    return(result);
 781:C:/Workspaces/DAVE-4.3/WS_2016_09_02/Flightcontroller_PWM_CopterRocks_Working/Libraries/CMSIS/Include\cmsis_gcc.h **** }
 782:C:/Workspaces/DAVE-4.3/WS_2016_09_02/Flightcontroller_PWM_CopterRocks_Working/Libraries/CMSIS/Include\cmsis_gcc.h **** 
 783:C:/Workspaces/DAVE-4.3/WS_2016_09_02/Flightcontroller_PWM_CopterRocks_Working/Libraries/CMSIS/Include\cmsis_gcc.h **** 
 784:C:/Workspaces/DAVE-4.3/WS_2016_09_02/Flightcontroller_PWM_CopterRocks_Working/Libraries/CMSIS/Include\cmsis_gcc.h **** /**
 785:C:/Workspaces/DAVE-4.3/WS_2016_09_02/Flightcontroller_PWM_CopterRocks_Working/Libraries/CMSIS/Include\cmsis_gcc.h ****   \brief   STRT Unprivileged (8 bit)
 786:C:/Workspaces/DAVE-4.3/WS_2016_09_02/Flightcontroller_PWM_CopterRocks_Working/Libraries/CMSIS/Include\cmsis_gcc.h ****   \details Executes a Unprivileged STRT instruction for 8 bit values.
 787:C:/Workspaces/DAVE-4.3/WS_2016_09_02/Flightcontroller_PWM_CopterRocks_Working/Libraries/CMSIS/Include\cmsis_gcc.h ****   \param [in]  value  Value to store
 788:C:/Workspaces/DAVE-4.3/WS_2016_09_02/Flightcontroller_PWM_CopterRocks_Working/Libraries/CMSIS/Include\cmsis_gcc.h ****   \param [in]    ptr  Pointer to location
 789:C:/Workspaces/DAVE-4.3/WS_2016_09_02/Flightcontroller_PWM_CopterRocks_Working/Libraries/CMSIS/Include\cmsis_gcc.h ****  */
 790:C:/Workspaces/DAVE-4.3/WS_2016_09_02/Flightcontroller_PWM_CopterRocks_Working/Libraries/CMSIS/Include\cmsis_gcc.h **** __attribute__((always_inline)) __STATIC_INLINE void __STRBT(uint8_t value, volatile uint8_t *addr)
 791:C:/Workspaces/DAVE-4.3/WS_2016_09_02/Flightcontroller_PWM_CopterRocks_Working/Libraries/CMSIS/Include\cmsis_gcc.h **** {
 792:C:/Workspaces/DAVE-4.3/WS_2016_09_02/Flightcontroller_PWM_CopterRocks_Working/Libraries/CMSIS/Include\cmsis_gcc.h ****    __ASM volatile ("strbt %1, %0" : "=Q" (*addr) : "r" ((uint32_t)value) );
 793:C:/Workspaces/DAVE-4.3/WS_2016_09_02/Flightcontroller_PWM_CopterRocks_Working/Libraries/CMSIS/Include\cmsis_gcc.h **** }
 794:C:/Workspaces/DAVE-4.3/WS_2016_09_02/Flightcontroller_PWM_CopterRocks_Working/Libraries/CMSIS/Include\cmsis_gcc.h **** 
 795:C:/Workspaces/DAVE-4.3/WS_2016_09_02/Flightcontroller_PWM_CopterRocks_Working/Libraries/CMSIS/Include\cmsis_gcc.h **** 
 796:C:/Workspaces/DAVE-4.3/WS_2016_09_02/Flightcontroller_PWM_CopterRocks_Working/Libraries/CMSIS/Include\cmsis_gcc.h **** /**
 797:C:/Workspaces/DAVE-4.3/WS_2016_09_02/Flightcontroller_PWM_CopterRocks_Working/Libraries/CMSIS/Include\cmsis_gcc.h ****   \brief   STRT Unprivileged (16 bit)
 798:C:/Workspaces/DAVE-4.3/WS_2016_09_02/Flightcontroller_PWM_CopterRocks_Working/Libraries/CMSIS/Include\cmsis_gcc.h ****   \details Executes a Unprivileged STRT instruction for 16 bit values.
 799:C:/Workspaces/DAVE-4.3/WS_2016_09_02/Flightcontroller_PWM_CopterRocks_Working/Libraries/CMSIS/Include\cmsis_gcc.h ****   \param [in]  value  Value to store
 800:C:/Workspaces/DAVE-4.3/WS_2016_09_02/Flightcontroller_PWM_CopterRocks_Working/Libraries/CMSIS/Include\cmsis_gcc.h ****   \param [in]    ptr  Pointer to location
 801:C:/Workspaces/DAVE-4.3/WS_2016_09_02/Flightcontroller_PWM_CopterRocks_Working/Libraries/CMSIS/Include\cmsis_gcc.h ****  */
 802:C:/Workspaces/DAVE-4.3/WS_2016_09_02/Flightcontroller_PWM_CopterRocks_Working/Libraries/CMSIS/Include\cmsis_gcc.h **** __attribute__((always_inline)) __STATIC_INLINE void __STRHT(uint16_t value, volatile uint16_t *addr
 803:C:/Workspaces/DAVE-4.3/WS_2016_09_02/Flightcontroller_PWM_CopterRocks_Working/Libraries/CMSIS/Include\cmsis_gcc.h **** {
 804:C:/Workspaces/DAVE-4.3/WS_2016_09_02/Flightcontroller_PWM_CopterRocks_Working/Libraries/CMSIS/Include\cmsis_gcc.h ****    __ASM volatile ("strht %1, %0" : "=Q" (*addr) : "r" ((uint32_t)value) );
 805:C:/Workspaces/DAVE-4.3/WS_2016_09_02/Flightcontroller_PWM_CopterRocks_Working/Libraries/CMSIS/Include\cmsis_gcc.h **** }
 806:C:/Workspaces/DAVE-4.3/WS_2016_09_02/Flightcontroller_PWM_CopterRocks_Working/Libraries/CMSIS/Include\cmsis_gcc.h **** 
 807:C:/Workspaces/DAVE-4.3/WS_2016_09_02/Flightcontroller_PWM_CopterRocks_Working/Libraries/CMSIS/Include\cmsis_gcc.h **** 
 808:C:/Workspaces/DAVE-4.3/WS_2016_09_02/Flightcontroller_PWM_CopterRocks_Working/Libraries/CMSIS/Include\cmsis_gcc.h **** /**
 809:C:/Workspaces/DAVE-4.3/WS_2016_09_02/Flightcontroller_PWM_CopterRocks_Working/Libraries/CMSIS/Include\cmsis_gcc.h ****   \brief   STRT Unprivileged (32 bit)
 810:C:/Workspaces/DAVE-4.3/WS_2016_09_02/Flightcontroller_PWM_CopterRocks_Working/Libraries/CMSIS/Include\cmsis_gcc.h ****   \details Executes a Unprivileged STRT instruction for 32 bit values.
 811:C:/Workspaces/DAVE-4.3/WS_2016_09_02/Flightcontroller_PWM_CopterRocks_Working/Libraries/CMSIS/Include\cmsis_gcc.h ****   \param [in]  value  Value to store
 812:C:/Workspaces/DAVE-4.3/WS_2016_09_02/Flightcontroller_PWM_CopterRocks_Working/Libraries/CMSIS/Include\cmsis_gcc.h ****   \param [in]    ptr  Pointer to location
 813:C:/Workspaces/DAVE-4.3/WS_2016_09_02/Flightcontroller_PWM_CopterRocks_Working/Libraries/CMSIS/Include\cmsis_gcc.h ****  */
 814:C:/Workspaces/DAVE-4.3/WS_2016_09_02/Flightcontroller_PWM_CopterRocks_Working/Libraries/CMSIS/Include\cmsis_gcc.h **** __attribute__((always_inline)) __STATIC_INLINE void __STRT(uint32_t value, volatile uint32_t *addr)
 815:C:/Workspaces/DAVE-4.3/WS_2016_09_02/Flightcontroller_PWM_CopterRocks_Working/Libraries/CMSIS/Include\cmsis_gcc.h **** {
 816:C:/Workspaces/DAVE-4.3/WS_2016_09_02/Flightcontroller_PWM_CopterRocks_Working/Libraries/CMSIS/Include\cmsis_gcc.h ****    __ASM volatile ("strt %1, %0" : "=Q" (*addr) : "r" (value) );
 817:C:/Workspaces/DAVE-4.3/WS_2016_09_02/Flightcontroller_PWM_CopterRocks_Working/Libraries/CMSIS/Include\cmsis_gcc.h **** }
 818:C:/Workspaces/DAVE-4.3/WS_2016_09_02/Flightcontroller_PWM_CopterRocks_Working/Libraries/CMSIS/Include\cmsis_gcc.h **** 
 819:C:/Workspaces/DAVE-4.3/WS_2016_09_02/Flightcontroller_PWM_CopterRocks_Working/Libraries/CMSIS/Include\cmsis_gcc.h **** #endif /* (__CORTEX_M >= 0x03U) || (__CORTEX_SC >= 300U) */
 820:C:/Workspaces/DAVE-4.3/WS_2016_09_02/Flightcontroller_PWM_CopterRocks_Working/Libraries/CMSIS/Include\cmsis_gcc.h **** 
 821:C:/Workspaces/DAVE-4.3/WS_2016_09_02/Flightcontroller_PWM_CopterRocks_Working/Libraries/CMSIS/Include\cmsis_gcc.h **** /*@}*/ /* end of group CMSIS_Core_InstructionInterface */
 822:C:/Workspaces/DAVE-4.3/WS_2016_09_02/Flightcontroller_PWM_CopterRocks_Working/Libraries/CMSIS/Include\cmsis_gcc.h **** 
 823:C:/Workspaces/DAVE-4.3/WS_2016_09_02/Flightcontroller_PWM_CopterRocks_Working/Libraries/CMSIS/Include\cmsis_gcc.h **** 
 824:C:/Workspaces/DAVE-4.3/WS_2016_09_02/Flightcontroller_PWM_CopterRocks_Working/Libraries/CMSIS/Include\cmsis_gcc.h **** /* ###################  Compiler specific Intrinsics  ########################### */
 825:C:/Workspaces/DAVE-4.3/WS_2016_09_02/Flightcontroller_PWM_CopterRocks_Working/Libraries/CMSIS/Include\cmsis_gcc.h **** /** \defgroup CMSIS_SIMD_intrinsics CMSIS SIMD Intrinsics
 826:C:/Workspaces/DAVE-4.3/WS_2016_09_02/Flightcontroller_PWM_CopterRocks_Working/Libraries/CMSIS/Include\cmsis_gcc.h ****   Access to dedicated SIMD instructions
 827:C:/Workspaces/DAVE-4.3/WS_2016_09_02/Flightcontroller_PWM_CopterRocks_Working/Libraries/CMSIS/Include\cmsis_gcc.h ****   @{
 828:C:/Workspaces/DAVE-4.3/WS_2016_09_02/Flightcontroller_PWM_CopterRocks_Working/Libraries/CMSIS/Include\cmsis_gcc.h **** */
 829:C:/Workspaces/DAVE-4.3/WS_2016_09_02/Flightcontroller_PWM_CopterRocks_Working/Libraries/CMSIS/Include\cmsis_gcc.h **** 
 830:C:/Workspaces/DAVE-4.3/WS_2016_09_02/Flightcontroller_PWM_CopterRocks_Working/Libraries/CMSIS/Include\cmsis_gcc.h **** #if (__CORTEX_M >= 0x04U)  /* only for Cortex-M4 and above */
 831:C:/Workspaces/DAVE-4.3/WS_2016_09_02/Flightcontroller_PWM_CopterRocks_Working/Libraries/CMSIS/Include\cmsis_gcc.h **** 
 832:C:/Workspaces/DAVE-4.3/WS_2016_09_02/Flightcontroller_PWM_CopterRocks_Working/Libraries/CMSIS/Include\cmsis_gcc.h **** __attribute__( ( always_inline ) ) __STATIC_INLINE uint32_t __SADD8(uint32_t op1, uint32_t op2)
 833:C:/Workspaces/DAVE-4.3/WS_2016_09_02/Flightcontroller_PWM_CopterRocks_Working/Libraries/CMSIS/Include\cmsis_gcc.h **** {
 834:C:/Workspaces/DAVE-4.3/WS_2016_09_02/Flightcontroller_PWM_CopterRocks_Working/Libraries/CMSIS/Include\cmsis_gcc.h ****   uint32_t result;
 835:C:/Workspaces/DAVE-4.3/WS_2016_09_02/Flightcontroller_PWM_CopterRocks_Working/Libraries/CMSIS/Include\cmsis_gcc.h **** 
 836:C:/Workspaces/DAVE-4.3/WS_2016_09_02/Flightcontroller_PWM_CopterRocks_Working/Libraries/CMSIS/Include\cmsis_gcc.h ****   __ASM volatile ("sadd8 %0, %1, %2" : "=r" (result) : "r" (op1), "r" (op2) );
 837:C:/Workspaces/DAVE-4.3/WS_2016_09_02/Flightcontroller_PWM_CopterRocks_Working/Libraries/CMSIS/Include\cmsis_gcc.h ****   return(result);
 838:C:/Workspaces/DAVE-4.3/WS_2016_09_02/Flightcontroller_PWM_CopterRocks_Working/Libraries/CMSIS/Include\cmsis_gcc.h **** }
 839:C:/Workspaces/DAVE-4.3/WS_2016_09_02/Flightcontroller_PWM_CopterRocks_Working/Libraries/CMSIS/Include\cmsis_gcc.h **** 
 840:C:/Workspaces/DAVE-4.3/WS_2016_09_02/Flightcontroller_PWM_CopterRocks_Working/Libraries/CMSIS/Include\cmsis_gcc.h **** __attribute__( ( always_inline ) ) __STATIC_INLINE uint32_t __QADD8(uint32_t op1, uint32_t op2)
 841:C:/Workspaces/DAVE-4.3/WS_2016_09_02/Flightcontroller_PWM_CopterRocks_Working/Libraries/CMSIS/Include\cmsis_gcc.h **** {
 842:C:/Workspaces/DAVE-4.3/WS_2016_09_02/Flightcontroller_PWM_CopterRocks_Working/Libraries/CMSIS/Include\cmsis_gcc.h ****   uint32_t result;
 843:C:/Workspaces/DAVE-4.3/WS_2016_09_02/Flightcontroller_PWM_CopterRocks_Working/Libraries/CMSIS/Include\cmsis_gcc.h **** 
 844:C:/Workspaces/DAVE-4.3/WS_2016_09_02/Flightcontroller_PWM_CopterRocks_Working/Libraries/CMSIS/Include\cmsis_gcc.h ****   __ASM volatile ("qadd8 %0, %1, %2" : "=r" (result) : "r" (op1), "r" (op2) );
 845:C:/Workspaces/DAVE-4.3/WS_2016_09_02/Flightcontroller_PWM_CopterRocks_Working/Libraries/CMSIS/Include\cmsis_gcc.h ****   return(result);
 846:C:/Workspaces/DAVE-4.3/WS_2016_09_02/Flightcontroller_PWM_CopterRocks_Working/Libraries/CMSIS/Include\cmsis_gcc.h **** }
 847:C:/Workspaces/DAVE-4.3/WS_2016_09_02/Flightcontroller_PWM_CopterRocks_Working/Libraries/CMSIS/Include\cmsis_gcc.h **** 
 848:C:/Workspaces/DAVE-4.3/WS_2016_09_02/Flightcontroller_PWM_CopterRocks_Working/Libraries/CMSIS/Include\cmsis_gcc.h **** __attribute__( ( always_inline ) ) __STATIC_INLINE uint32_t __SHADD8(uint32_t op1, uint32_t op2)
 849:C:/Workspaces/DAVE-4.3/WS_2016_09_02/Flightcontroller_PWM_CopterRocks_Working/Libraries/CMSIS/Include\cmsis_gcc.h **** {
 850:C:/Workspaces/DAVE-4.3/WS_2016_09_02/Flightcontroller_PWM_CopterRocks_Working/Libraries/CMSIS/Include\cmsis_gcc.h ****   uint32_t result;
 851:C:/Workspaces/DAVE-4.3/WS_2016_09_02/Flightcontroller_PWM_CopterRocks_Working/Libraries/CMSIS/Include\cmsis_gcc.h **** 
 852:C:/Workspaces/DAVE-4.3/WS_2016_09_02/Flightcontroller_PWM_CopterRocks_Working/Libraries/CMSIS/Include\cmsis_gcc.h ****   __ASM volatile ("shadd8 %0, %1, %2" : "=r" (result) : "r" (op1), "r" (op2) );
 853:C:/Workspaces/DAVE-4.3/WS_2016_09_02/Flightcontroller_PWM_CopterRocks_Working/Libraries/CMSIS/Include\cmsis_gcc.h ****   return(result);
 854:C:/Workspaces/DAVE-4.3/WS_2016_09_02/Flightcontroller_PWM_CopterRocks_Working/Libraries/CMSIS/Include\cmsis_gcc.h **** }
 855:C:/Workspaces/DAVE-4.3/WS_2016_09_02/Flightcontroller_PWM_CopterRocks_Working/Libraries/CMSIS/Include\cmsis_gcc.h **** 
 856:C:/Workspaces/DAVE-4.3/WS_2016_09_02/Flightcontroller_PWM_CopterRocks_Working/Libraries/CMSIS/Include\cmsis_gcc.h **** __attribute__( ( always_inline ) ) __STATIC_INLINE uint32_t __UADD8(uint32_t op1, uint32_t op2)
 857:C:/Workspaces/DAVE-4.3/WS_2016_09_02/Flightcontroller_PWM_CopterRocks_Working/Libraries/CMSIS/Include\cmsis_gcc.h **** {
 858:C:/Workspaces/DAVE-4.3/WS_2016_09_02/Flightcontroller_PWM_CopterRocks_Working/Libraries/CMSIS/Include\cmsis_gcc.h ****   uint32_t result;
 859:C:/Workspaces/DAVE-4.3/WS_2016_09_02/Flightcontroller_PWM_CopterRocks_Working/Libraries/CMSIS/Include\cmsis_gcc.h **** 
 860:C:/Workspaces/DAVE-4.3/WS_2016_09_02/Flightcontroller_PWM_CopterRocks_Working/Libraries/CMSIS/Include\cmsis_gcc.h ****   __ASM volatile ("uadd8 %0, %1, %2" : "=r" (result) : "r" (op1), "r" (op2) );
 861:C:/Workspaces/DAVE-4.3/WS_2016_09_02/Flightcontroller_PWM_CopterRocks_Working/Libraries/CMSIS/Include\cmsis_gcc.h ****   return(result);
 862:C:/Workspaces/DAVE-4.3/WS_2016_09_02/Flightcontroller_PWM_CopterRocks_Working/Libraries/CMSIS/Include\cmsis_gcc.h **** }
 863:C:/Workspaces/DAVE-4.3/WS_2016_09_02/Flightcontroller_PWM_CopterRocks_Working/Libraries/CMSIS/Include\cmsis_gcc.h **** 
 864:C:/Workspaces/DAVE-4.3/WS_2016_09_02/Flightcontroller_PWM_CopterRocks_Working/Libraries/CMSIS/Include\cmsis_gcc.h **** __attribute__( ( always_inline ) ) __STATIC_INLINE uint32_t __UQADD8(uint32_t op1, uint32_t op2)
 865:C:/Workspaces/DAVE-4.3/WS_2016_09_02/Flightcontroller_PWM_CopterRocks_Working/Libraries/CMSIS/Include\cmsis_gcc.h **** {
 866:C:/Workspaces/DAVE-4.3/WS_2016_09_02/Flightcontroller_PWM_CopterRocks_Working/Libraries/CMSIS/Include\cmsis_gcc.h ****   uint32_t result;
 867:C:/Workspaces/DAVE-4.3/WS_2016_09_02/Flightcontroller_PWM_CopterRocks_Working/Libraries/CMSIS/Include\cmsis_gcc.h **** 
 868:C:/Workspaces/DAVE-4.3/WS_2016_09_02/Flightcontroller_PWM_CopterRocks_Working/Libraries/CMSIS/Include\cmsis_gcc.h ****   __ASM volatile ("uqadd8 %0, %1, %2" : "=r" (result) : "r" (op1), "r" (op2) );
 869:C:/Workspaces/DAVE-4.3/WS_2016_09_02/Flightcontroller_PWM_CopterRocks_Working/Libraries/CMSIS/Include\cmsis_gcc.h ****   return(result);
 870:C:/Workspaces/DAVE-4.3/WS_2016_09_02/Flightcontroller_PWM_CopterRocks_Working/Libraries/CMSIS/Include\cmsis_gcc.h **** }
 871:C:/Workspaces/DAVE-4.3/WS_2016_09_02/Flightcontroller_PWM_CopterRocks_Working/Libraries/CMSIS/Include\cmsis_gcc.h **** 
 872:C:/Workspaces/DAVE-4.3/WS_2016_09_02/Flightcontroller_PWM_CopterRocks_Working/Libraries/CMSIS/Include\cmsis_gcc.h **** __attribute__( ( always_inline ) ) __STATIC_INLINE uint32_t __UHADD8(uint32_t op1, uint32_t op2)
 873:C:/Workspaces/DAVE-4.3/WS_2016_09_02/Flightcontroller_PWM_CopterRocks_Working/Libraries/CMSIS/Include\cmsis_gcc.h **** {
 874:C:/Workspaces/DAVE-4.3/WS_2016_09_02/Flightcontroller_PWM_CopterRocks_Working/Libraries/CMSIS/Include\cmsis_gcc.h ****   uint32_t result;
 875:C:/Workspaces/DAVE-4.3/WS_2016_09_02/Flightcontroller_PWM_CopterRocks_Working/Libraries/CMSIS/Include\cmsis_gcc.h **** 
 876:C:/Workspaces/DAVE-4.3/WS_2016_09_02/Flightcontroller_PWM_CopterRocks_Working/Libraries/CMSIS/Include\cmsis_gcc.h ****   __ASM volatile ("uhadd8 %0, %1, %2" : "=r" (result) : "r" (op1), "r" (op2) );
 877:C:/Workspaces/DAVE-4.3/WS_2016_09_02/Flightcontroller_PWM_CopterRocks_Working/Libraries/CMSIS/Include\cmsis_gcc.h ****   return(result);
 878:C:/Workspaces/DAVE-4.3/WS_2016_09_02/Flightcontroller_PWM_CopterRocks_Working/Libraries/CMSIS/Include\cmsis_gcc.h **** }
 879:C:/Workspaces/DAVE-4.3/WS_2016_09_02/Flightcontroller_PWM_CopterRocks_Working/Libraries/CMSIS/Include\cmsis_gcc.h **** 
 880:C:/Workspaces/DAVE-4.3/WS_2016_09_02/Flightcontroller_PWM_CopterRocks_Working/Libraries/CMSIS/Include\cmsis_gcc.h **** 
 881:C:/Workspaces/DAVE-4.3/WS_2016_09_02/Flightcontroller_PWM_CopterRocks_Working/Libraries/CMSIS/Include\cmsis_gcc.h **** __attribute__( ( always_inline ) ) __STATIC_INLINE uint32_t __SSUB8(uint32_t op1, uint32_t op2)
 882:C:/Workspaces/DAVE-4.3/WS_2016_09_02/Flightcontroller_PWM_CopterRocks_Working/Libraries/CMSIS/Include\cmsis_gcc.h **** {
 883:C:/Workspaces/DAVE-4.3/WS_2016_09_02/Flightcontroller_PWM_CopterRocks_Working/Libraries/CMSIS/Include\cmsis_gcc.h ****   uint32_t result;
 884:C:/Workspaces/DAVE-4.3/WS_2016_09_02/Flightcontroller_PWM_CopterRocks_Working/Libraries/CMSIS/Include\cmsis_gcc.h **** 
 885:C:/Workspaces/DAVE-4.3/WS_2016_09_02/Flightcontroller_PWM_CopterRocks_Working/Libraries/CMSIS/Include\cmsis_gcc.h ****   __ASM volatile ("ssub8 %0, %1, %2" : "=r" (result) : "r" (op1), "r" (op2) );
 886:C:/Workspaces/DAVE-4.3/WS_2016_09_02/Flightcontroller_PWM_CopterRocks_Working/Libraries/CMSIS/Include\cmsis_gcc.h ****   return(result);
 887:C:/Workspaces/DAVE-4.3/WS_2016_09_02/Flightcontroller_PWM_CopterRocks_Working/Libraries/CMSIS/Include\cmsis_gcc.h **** }
 888:C:/Workspaces/DAVE-4.3/WS_2016_09_02/Flightcontroller_PWM_CopterRocks_Working/Libraries/CMSIS/Include\cmsis_gcc.h **** 
 889:C:/Workspaces/DAVE-4.3/WS_2016_09_02/Flightcontroller_PWM_CopterRocks_Working/Libraries/CMSIS/Include\cmsis_gcc.h **** __attribute__( ( always_inline ) ) __STATIC_INLINE uint32_t __QSUB8(uint32_t op1, uint32_t op2)
 890:C:/Workspaces/DAVE-4.3/WS_2016_09_02/Flightcontroller_PWM_CopterRocks_Working/Libraries/CMSIS/Include\cmsis_gcc.h **** {
 891:C:/Workspaces/DAVE-4.3/WS_2016_09_02/Flightcontroller_PWM_CopterRocks_Working/Libraries/CMSIS/Include\cmsis_gcc.h ****   uint32_t result;
 892:C:/Workspaces/DAVE-4.3/WS_2016_09_02/Flightcontroller_PWM_CopterRocks_Working/Libraries/CMSIS/Include\cmsis_gcc.h **** 
 893:C:/Workspaces/DAVE-4.3/WS_2016_09_02/Flightcontroller_PWM_CopterRocks_Working/Libraries/CMSIS/Include\cmsis_gcc.h ****   __ASM volatile ("qsub8 %0, %1, %2" : "=r" (result) : "r" (op1), "r" (op2) );
 894:C:/Workspaces/DAVE-4.3/WS_2016_09_02/Flightcontroller_PWM_CopterRocks_Working/Libraries/CMSIS/Include\cmsis_gcc.h ****   return(result);
 895:C:/Workspaces/DAVE-4.3/WS_2016_09_02/Flightcontroller_PWM_CopterRocks_Working/Libraries/CMSIS/Include\cmsis_gcc.h **** }
 896:C:/Workspaces/DAVE-4.3/WS_2016_09_02/Flightcontroller_PWM_CopterRocks_Working/Libraries/CMSIS/Include\cmsis_gcc.h **** 
 897:C:/Workspaces/DAVE-4.3/WS_2016_09_02/Flightcontroller_PWM_CopterRocks_Working/Libraries/CMSIS/Include\cmsis_gcc.h **** __attribute__( ( always_inline ) ) __STATIC_INLINE uint32_t __SHSUB8(uint32_t op1, uint32_t op2)
 898:C:/Workspaces/DAVE-4.3/WS_2016_09_02/Flightcontroller_PWM_CopterRocks_Working/Libraries/CMSIS/Include\cmsis_gcc.h **** {
 899:C:/Workspaces/DAVE-4.3/WS_2016_09_02/Flightcontroller_PWM_CopterRocks_Working/Libraries/CMSIS/Include\cmsis_gcc.h ****   uint32_t result;
 900:C:/Workspaces/DAVE-4.3/WS_2016_09_02/Flightcontroller_PWM_CopterRocks_Working/Libraries/CMSIS/Include\cmsis_gcc.h **** 
 901:C:/Workspaces/DAVE-4.3/WS_2016_09_02/Flightcontroller_PWM_CopterRocks_Working/Libraries/CMSIS/Include\cmsis_gcc.h ****   __ASM volatile ("shsub8 %0, %1, %2" : "=r" (result) : "r" (op1), "r" (op2) );
 902:C:/Workspaces/DAVE-4.3/WS_2016_09_02/Flightcontroller_PWM_CopterRocks_Working/Libraries/CMSIS/Include\cmsis_gcc.h ****   return(result);
 903:C:/Workspaces/DAVE-4.3/WS_2016_09_02/Flightcontroller_PWM_CopterRocks_Working/Libraries/CMSIS/Include\cmsis_gcc.h **** }
 904:C:/Workspaces/DAVE-4.3/WS_2016_09_02/Flightcontroller_PWM_CopterRocks_Working/Libraries/CMSIS/Include\cmsis_gcc.h **** 
 905:C:/Workspaces/DAVE-4.3/WS_2016_09_02/Flightcontroller_PWM_CopterRocks_Working/Libraries/CMSIS/Include\cmsis_gcc.h **** __attribute__( ( always_inline ) ) __STATIC_INLINE uint32_t __USUB8(uint32_t op1, uint32_t op2)
 906:C:/Workspaces/DAVE-4.3/WS_2016_09_02/Flightcontroller_PWM_CopterRocks_Working/Libraries/CMSIS/Include\cmsis_gcc.h **** {
 907:C:/Workspaces/DAVE-4.3/WS_2016_09_02/Flightcontroller_PWM_CopterRocks_Working/Libraries/CMSIS/Include\cmsis_gcc.h ****   uint32_t result;
 908:C:/Workspaces/DAVE-4.3/WS_2016_09_02/Flightcontroller_PWM_CopterRocks_Working/Libraries/CMSIS/Include\cmsis_gcc.h **** 
 909:C:/Workspaces/DAVE-4.3/WS_2016_09_02/Flightcontroller_PWM_CopterRocks_Working/Libraries/CMSIS/Include\cmsis_gcc.h ****   __ASM volatile ("usub8 %0, %1, %2" : "=r" (result) : "r" (op1), "r" (op2) );
 910:C:/Workspaces/DAVE-4.3/WS_2016_09_02/Flightcontroller_PWM_CopterRocks_Working/Libraries/CMSIS/Include\cmsis_gcc.h ****   return(result);
 911:C:/Workspaces/DAVE-4.3/WS_2016_09_02/Flightcontroller_PWM_CopterRocks_Working/Libraries/CMSIS/Include\cmsis_gcc.h **** }
 912:C:/Workspaces/DAVE-4.3/WS_2016_09_02/Flightcontroller_PWM_CopterRocks_Working/Libraries/CMSIS/Include\cmsis_gcc.h **** 
 913:C:/Workspaces/DAVE-4.3/WS_2016_09_02/Flightcontroller_PWM_CopterRocks_Working/Libraries/CMSIS/Include\cmsis_gcc.h **** __attribute__( ( always_inline ) ) __STATIC_INLINE uint32_t __UQSUB8(uint32_t op1, uint32_t op2)
 914:C:/Workspaces/DAVE-4.3/WS_2016_09_02/Flightcontroller_PWM_CopterRocks_Working/Libraries/CMSIS/Include\cmsis_gcc.h **** {
 915:C:/Workspaces/DAVE-4.3/WS_2016_09_02/Flightcontroller_PWM_CopterRocks_Working/Libraries/CMSIS/Include\cmsis_gcc.h ****   uint32_t result;
 916:C:/Workspaces/DAVE-4.3/WS_2016_09_02/Flightcontroller_PWM_CopterRocks_Working/Libraries/CMSIS/Include\cmsis_gcc.h **** 
 917:C:/Workspaces/DAVE-4.3/WS_2016_09_02/Flightcontroller_PWM_CopterRocks_Working/Libraries/CMSIS/Include\cmsis_gcc.h ****   __ASM volatile ("uqsub8 %0, %1, %2" : "=r" (result) : "r" (op1), "r" (op2) );
 918:C:/Workspaces/DAVE-4.3/WS_2016_09_02/Flightcontroller_PWM_CopterRocks_Working/Libraries/CMSIS/Include\cmsis_gcc.h ****   return(result);
 919:C:/Workspaces/DAVE-4.3/WS_2016_09_02/Flightcontroller_PWM_CopterRocks_Working/Libraries/CMSIS/Include\cmsis_gcc.h **** }
 920:C:/Workspaces/DAVE-4.3/WS_2016_09_02/Flightcontroller_PWM_CopterRocks_Working/Libraries/CMSIS/Include\cmsis_gcc.h **** 
 921:C:/Workspaces/DAVE-4.3/WS_2016_09_02/Flightcontroller_PWM_CopterRocks_Working/Libraries/CMSIS/Include\cmsis_gcc.h **** __attribute__( ( always_inline ) ) __STATIC_INLINE uint32_t __UHSUB8(uint32_t op1, uint32_t op2)
 922:C:/Workspaces/DAVE-4.3/WS_2016_09_02/Flightcontroller_PWM_CopterRocks_Working/Libraries/CMSIS/Include\cmsis_gcc.h **** {
 923:C:/Workspaces/DAVE-4.3/WS_2016_09_02/Flightcontroller_PWM_CopterRocks_Working/Libraries/CMSIS/Include\cmsis_gcc.h ****   uint32_t result;
 924:C:/Workspaces/DAVE-4.3/WS_2016_09_02/Flightcontroller_PWM_CopterRocks_Working/Libraries/CMSIS/Include\cmsis_gcc.h **** 
 925:C:/Workspaces/DAVE-4.3/WS_2016_09_02/Flightcontroller_PWM_CopterRocks_Working/Libraries/CMSIS/Include\cmsis_gcc.h ****   __ASM volatile ("uhsub8 %0, %1, %2" : "=r" (result) : "r" (op1), "r" (op2) );
 926:C:/Workspaces/DAVE-4.3/WS_2016_09_02/Flightcontroller_PWM_CopterRocks_Working/Libraries/CMSIS/Include\cmsis_gcc.h ****   return(result);
 927:C:/Workspaces/DAVE-4.3/WS_2016_09_02/Flightcontroller_PWM_CopterRocks_Working/Libraries/CMSIS/Include\cmsis_gcc.h **** }
 928:C:/Workspaces/DAVE-4.3/WS_2016_09_02/Flightcontroller_PWM_CopterRocks_Working/Libraries/CMSIS/Include\cmsis_gcc.h **** 
 929:C:/Workspaces/DAVE-4.3/WS_2016_09_02/Flightcontroller_PWM_CopterRocks_Working/Libraries/CMSIS/Include\cmsis_gcc.h **** 
 930:C:/Workspaces/DAVE-4.3/WS_2016_09_02/Flightcontroller_PWM_CopterRocks_Working/Libraries/CMSIS/Include\cmsis_gcc.h **** __attribute__( ( always_inline ) ) __STATIC_INLINE uint32_t __SADD16(uint32_t op1, uint32_t op2)
 931:C:/Workspaces/DAVE-4.3/WS_2016_09_02/Flightcontroller_PWM_CopterRocks_Working/Libraries/CMSIS/Include\cmsis_gcc.h **** {
 932:C:/Workspaces/DAVE-4.3/WS_2016_09_02/Flightcontroller_PWM_CopterRocks_Working/Libraries/CMSIS/Include\cmsis_gcc.h ****   uint32_t result;
 933:C:/Workspaces/DAVE-4.3/WS_2016_09_02/Flightcontroller_PWM_CopterRocks_Working/Libraries/CMSIS/Include\cmsis_gcc.h **** 
 934:C:/Workspaces/DAVE-4.3/WS_2016_09_02/Flightcontroller_PWM_CopterRocks_Working/Libraries/CMSIS/Include\cmsis_gcc.h ****   __ASM volatile ("sadd16 %0, %1, %2" : "=r" (result) : "r" (op1), "r" (op2) );
 935:C:/Workspaces/DAVE-4.3/WS_2016_09_02/Flightcontroller_PWM_CopterRocks_Working/Libraries/CMSIS/Include\cmsis_gcc.h ****   return(result);
 936:C:/Workspaces/DAVE-4.3/WS_2016_09_02/Flightcontroller_PWM_CopterRocks_Working/Libraries/CMSIS/Include\cmsis_gcc.h **** }
 937:C:/Workspaces/DAVE-4.3/WS_2016_09_02/Flightcontroller_PWM_CopterRocks_Working/Libraries/CMSIS/Include\cmsis_gcc.h **** 
 938:C:/Workspaces/DAVE-4.3/WS_2016_09_02/Flightcontroller_PWM_CopterRocks_Working/Libraries/CMSIS/Include\cmsis_gcc.h **** __attribute__( ( always_inline ) ) __STATIC_INLINE uint32_t __QADD16(uint32_t op1, uint32_t op2)
 939:C:/Workspaces/DAVE-4.3/WS_2016_09_02/Flightcontroller_PWM_CopterRocks_Working/Libraries/CMSIS/Include\cmsis_gcc.h **** {
 940:C:/Workspaces/DAVE-4.3/WS_2016_09_02/Flightcontroller_PWM_CopterRocks_Working/Libraries/CMSIS/Include\cmsis_gcc.h ****   uint32_t result;
 941:C:/Workspaces/DAVE-4.3/WS_2016_09_02/Flightcontroller_PWM_CopterRocks_Working/Libraries/CMSIS/Include\cmsis_gcc.h **** 
 942:C:/Workspaces/DAVE-4.3/WS_2016_09_02/Flightcontroller_PWM_CopterRocks_Working/Libraries/CMSIS/Include\cmsis_gcc.h ****   __ASM volatile ("qadd16 %0, %1, %2" : "=r" (result) : "r" (op1), "r" (op2) );
 943:C:/Workspaces/DAVE-4.3/WS_2016_09_02/Flightcontroller_PWM_CopterRocks_Working/Libraries/CMSIS/Include\cmsis_gcc.h ****   return(result);
 944:C:/Workspaces/DAVE-4.3/WS_2016_09_02/Flightcontroller_PWM_CopterRocks_Working/Libraries/CMSIS/Include\cmsis_gcc.h **** }
 945:C:/Workspaces/DAVE-4.3/WS_2016_09_02/Flightcontroller_PWM_CopterRocks_Working/Libraries/CMSIS/Include\cmsis_gcc.h **** 
 946:C:/Workspaces/DAVE-4.3/WS_2016_09_02/Flightcontroller_PWM_CopterRocks_Working/Libraries/CMSIS/Include\cmsis_gcc.h **** __attribute__( ( always_inline ) ) __STATIC_INLINE uint32_t __SHADD16(uint32_t op1, uint32_t op2)
 947:C:/Workspaces/DAVE-4.3/WS_2016_09_02/Flightcontroller_PWM_CopterRocks_Working/Libraries/CMSIS/Include\cmsis_gcc.h **** {
 948:C:/Workspaces/DAVE-4.3/WS_2016_09_02/Flightcontroller_PWM_CopterRocks_Working/Libraries/CMSIS/Include\cmsis_gcc.h ****   uint32_t result;
 949:C:/Workspaces/DAVE-4.3/WS_2016_09_02/Flightcontroller_PWM_CopterRocks_Working/Libraries/CMSIS/Include\cmsis_gcc.h **** 
 950:C:/Workspaces/DAVE-4.3/WS_2016_09_02/Flightcontroller_PWM_CopterRocks_Working/Libraries/CMSIS/Include\cmsis_gcc.h ****   __ASM volatile ("shadd16 %0, %1, %2" : "=r" (result) : "r" (op1), "r" (op2) );
 951:C:/Workspaces/DAVE-4.3/WS_2016_09_02/Flightcontroller_PWM_CopterRocks_Working/Libraries/CMSIS/Include\cmsis_gcc.h ****   return(result);
 952:C:/Workspaces/DAVE-4.3/WS_2016_09_02/Flightcontroller_PWM_CopterRocks_Working/Libraries/CMSIS/Include\cmsis_gcc.h **** }
 953:C:/Workspaces/DAVE-4.3/WS_2016_09_02/Flightcontroller_PWM_CopterRocks_Working/Libraries/CMSIS/Include\cmsis_gcc.h **** 
 954:C:/Workspaces/DAVE-4.3/WS_2016_09_02/Flightcontroller_PWM_CopterRocks_Working/Libraries/CMSIS/Include\cmsis_gcc.h **** __attribute__( ( always_inline ) ) __STATIC_INLINE uint32_t __UADD16(uint32_t op1, uint32_t op2)
 955:C:/Workspaces/DAVE-4.3/WS_2016_09_02/Flightcontroller_PWM_CopterRocks_Working/Libraries/CMSIS/Include\cmsis_gcc.h **** {
 956:C:/Workspaces/DAVE-4.3/WS_2016_09_02/Flightcontroller_PWM_CopterRocks_Working/Libraries/CMSIS/Include\cmsis_gcc.h ****   uint32_t result;
 957:C:/Workspaces/DAVE-4.3/WS_2016_09_02/Flightcontroller_PWM_CopterRocks_Working/Libraries/CMSIS/Include\cmsis_gcc.h **** 
 958:C:/Workspaces/DAVE-4.3/WS_2016_09_02/Flightcontroller_PWM_CopterRocks_Working/Libraries/CMSIS/Include\cmsis_gcc.h ****   __ASM volatile ("uadd16 %0, %1, %2" : "=r" (result) : "r" (op1), "r" (op2) );
 959:C:/Workspaces/DAVE-4.3/WS_2016_09_02/Flightcontroller_PWM_CopterRocks_Working/Libraries/CMSIS/Include\cmsis_gcc.h ****   return(result);
 960:C:/Workspaces/DAVE-4.3/WS_2016_09_02/Flightcontroller_PWM_CopterRocks_Working/Libraries/CMSIS/Include\cmsis_gcc.h **** }
 961:C:/Workspaces/DAVE-4.3/WS_2016_09_02/Flightcontroller_PWM_CopterRocks_Working/Libraries/CMSIS/Include\cmsis_gcc.h **** 
 962:C:/Workspaces/DAVE-4.3/WS_2016_09_02/Flightcontroller_PWM_CopterRocks_Working/Libraries/CMSIS/Include\cmsis_gcc.h **** __attribute__( ( always_inline ) ) __STATIC_INLINE uint32_t __UQADD16(uint32_t op1, uint32_t op2)
 963:C:/Workspaces/DAVE-4.3/WS_2016_09_02/Flightcontroller_PWM_CopterRocks_Working/Libraries/CMSIS/Include\cmsis_gcc.h **** {
 964:C:/Workspaces/DAVE-4.3/WS_2016_09_02/Flightcontroller_PWM_CopterRocks_Working/Libraries/CMSIS/Include\cmsis_gcc.h ****   uint32_t result;
 965:C:/Workspaces/DAVE-4.3/WS_2016_09_02/Flightcontroller_PWM_CopterRocks_Working/Libraries/CMSIS/Include\cmsis_gcc.h **** 
 966:C:/Workspaces/DAVE-4.3/WS_2016_09_02/Flightcontroller_PWM_CopterRocks_Working/Libraries/CMSIS/Include\cmsis_gcc.h ****   __ASM volatile ("uqadd16 %0, %1, %2" : "=r" (result) : "r" (op1), "r" (op2) );
 967:C:/Workspaces/DAVE-4.3/WS_2016_09_02/Flightcontroller_PWM_CopterRocks_Working/Libraries/CMSIS/Include\cmsis_gcc.h ****   return(result);
 968:C:/Workspaces/DAVE-4.3/WS_2016_09_02/Flightcontroller_PWM_CopterRocks_Working/Libraries/CMSIS/Include\cmsis_gcc.h **** }
 969:C:/Workspaces/DAVE-4.3/WS_2016_09_02/Flightcontroller_PWM_CopterRocks_Working/Libraries/CMSIS/Include\cmsis_gcc.h **** 
 970:C:/Workspaces/DAVE-4.3/WS_2016_09_02/Flightcontroller_PWM_CopterRocks_Working/Libraries/CMSIS/Include\cmsis_gcc.h **** __attribute__( ( always_inline ) ) __STATIC_INLINE uint32_t __UHADD16(uint32_t op1, uint32_t op2)
 971:C:/Workspaces/DAVE-4.3/WS_2016_09_02/Flightcontroller_PWM_CopterRocks_Working/Libraries/CMSIS/Include\cmsis_gcc.h **** {
 972:C:/Workspaces/DAVE-4.3/WS_2016_09_02/Flightcontroller_PWM_CopterRocks_Working/Libraries/CMSIS/Include\cmsis_gcc.h ****   uint32_t result;
 973:C:/Workspaces/DAVE-4.3/WS_2016_09_02/Flightcontroller_PWM_CopterRocks_Working/Libraries/CMSIS/Include\cmsis_gcc.h **** 
 974:C:/Workspaces/DAVE-4.3/WS_2016_09_02/Flightcontroller_PWM_CopterRocks_Working/Libraries/CMSIS/Include\cmsis_gcc.h ****   __ASM volatile ("uhadd16 %0, %1, %2" : "=r" (result) : "r" (op1), "r" (op2) );
 975:C:/Workspaces/DAVE-4.3/WS_2016_09_02/Flightcontroller_PWM_CopterRocks_Working/Libraries/CMSIS/Include\cmsis_gcc.h ****   return(result);
 976:C:/Workspaces/DAVE-4.3/WS_2016_09_02/Flightcontroller_PWM_CopterRocks_Working/Libraries/CMSIS/Include\cmsis_gcc.h **** }
 977:C:/Workspaces/DAVE-4.3/WS_2016_09_02/Flightcontroller_PWM_CopterRocks_Working/Libraries/CMSIS/Include\cmsis_gcc.h **** 
 978:C:/Workspaces/DAVE-4.3/WS_2016_09_02/Flightcontroller_PWM_CopterRocks_Working/Libraries/CMSIS/Include\cmsis_gcc.h **** __attribute__( ( always_inline ) ) __STATIC_INLINE uint32_t __SSUB16(uint32_t op1, uint32_t op2)
 979:C:/Workspaces/DAVE-4.3/WS_2016_09_02/Flightcontroller_PWM_CopterRocks_Working/Libraries/CMSIS/Include\cmsis_gcc.h **** {
 980:C:/Workspaces/DAVE-4.3/WS_2016_09_02/Flightcontroller_PWM_CopterRocks_Working/Libraries/CMSIS/Include\cmsis_gcc.h ****   uint32_t result;
 981:C:/Workspaces/DAVE-4.3/WS_2016_09_02/Flightcontroller_PWM_CopterRocks_Working/Libraries/CMSIS/Include\cmsis_gcc.h **** 
 982:C:/Workspaces/DAVE-4.3/WS_2016_09_02/Flightcontroller_PWM_CopterRocks_Working/Libraries/CMSIS/Include\cmsis_gcc.h ****   __ASM volatile ("ssub16 %0, %1, %2" : "=r" (result) : "r" (op1), "r" (op2) );
 983:C:/Workspaces/DAVE-4.3/WS_2016_09_02/Flightcontroller_PWM_CopterRocks_Working/Libraries/CMSIS/Include\cmsis_gcc.h ****   return(result);
 984:C:/Workspaces/DAVE-4.3/WS_2016_09_02/Flightcontroller_PWM_CopterRocks_Working/Libraries/CMSIS/Include\cmsis_gcc.h **** }
 985:C:/Workspaces/DAVE-4.3/WS_2016_09_02/Flightcontroller_PWM_CopterRocks_Working/Libraries/CMSIS/Include\cmsis_gcc.h **** 
 986:C:/Workspaces/DAVE-4.3/WS_2016_09_02/Flightcontroller_PWM_CopterRocks_Working/Libraries/CMSIS/Include\cmsis_gcc.h **** __attribute__( ( always_inline ) ) __STATIC_INLINE uint32_t __QSUB16(uint32_t op1, uint32_t op2)
 987:C:/Workspaces/DAVE-4.3/WS_2016_09_02/Flightcontroller_PWM_CopterRocks_Working/Libraries/CMSIS/Include\cmsis_gcc.h **** {
 988:C:/Workspaces/DAVE-4.3/WS_2016_09_02/Flightcontroller_PWM_CopterRocks_Working/Libraries/CMSIS/Include\cmsis_gcc.h ****   uint32_t result;
 989:C:/Workspaces/DAVE-4.3/WS_2016_09_02/Flightcontroller_PWM_CopterRocks_Working/Libraries/CMSIS/Include\cmsis_gcc.h **** 
 990:C:/Workspaces/DAVE-4.3/WS_2016_09_02/Flightcontroller_PWM_CopterRocks_Working/Libraries/CMSIS/Include\cmsis_gcc.h ****   __ASM volatile ("qsub16 %0, %1, %2" : "=r" (result) : "r" (op1), "r" (op2) );
 991:C:/Workspaces/DAVE-4.3/WS_2016_09_02/Flightcontroller_PWM_CopterRocks_Working/Libraries/CMSIS/Include\cmsis_gcc.h ****   return(result);
 992:C:/Workspaces/DAVE-4.3/WS_2016_09_02/Flightcontroller_PWM_CopterRocks_Working/Libraries/CMSIS/Include\cmsis_gcc.h **** }
 993:C:/Workspaces/DAVE-4.3/WS_2016_09_02/Flightcontroller_PWM_CopterRocks_Working/Libraries/CMSIS/Include\cmsis_gcc.h **** 
 994:C:/Workspaces/DAVE-4.3/WS_2016_09_02/Flightcontroller_PWM_CopterRocks_Working/Libraries/CMSIS/Include\cmsis_gcc.h **** __attribute__( ( always_inline ) ) __STATIC_INLINE uint32_t __SHSUB16(uint32_t op1, uint32_t op2)
 995:C:/Workspaces/DAVE-4.3/WS_2016_09_02/Flightcontroller_PWM_CopterRocks_Working/Libraries/CMSIS/Include\cmsis_gcc.h **** {
 996:C:/Workspaces/DAVE-4.3/WS_2016_09_02/Flightcontroller_PWM_CopterRocks_Working/Libraries/CMSIS/Include\cmsis_gcc.h ****   uint32_t result;
 997:C:/Workspaces/DAVE-4.3/WS_2016_09_02/Flightcontroller_PWM_CopterRocks_Working/Libraries/CMSIS/Include\cmsis_gcc.h **** 
 998:C:/Workspaces/DAVE-4.3/WS_2016_09_02/Flightcontroller_PWM_CopterRocks_Working/Libraries/CMSIS/Include\cmsis_gcc.h ****   __ASM volatile ("shsub16 %0, %1, %2" : "=r" (result) : "r" (op1), "r" (op2) );
 999:C:/Workspaces/DAVE-4.3/WS_2016_09_02/Flightcontroller_PWM_CopterRocks_Working/Libraries/CMSIS/Include\cmsis_gcc.h ****   return(result);
1000:C:/Workspaces/DAVE-4.3/WS_2016_09_02/Flightcontroller_PWM_CopterRocks_Working/Libraries/CMSIS/Include\cmsis_gcc.h **** }
1001:C:/Workspaces/DAVE-4.3/WS_2016_09_02/Flightcontroller_PWM_CopterRocks_Working/Libraries/CMSIS/Include\cmsis_gcc.h **** 
1002:C:/Workspaces/DAVE-4.3/WS_2016_09_02/Flightcontroller_PWM_CopterRocks_Working/Libraries/CMSIS/Include\cmsis_gcc.h **** __attribute__( ( always_inline ) ) __STATIC_INLINE uint32_t __USUB16(uint32_t op1, uint32_t op2)
1003:C:/Workspaces/DAVE-4.3/WS_2016_09_02/Flightcontroller_PWM_CopterRocks_Working/Libraries/CMSIS/Include\cmsis_gcc.h **** {
1004:C:/Workspaces/DAVE-4.3/WS_2016_09_02/Flightcontroller_PWM_CopterRocks_Working/Libraries/CMSIS/Include\cmsis_gcc.h ****   uint32_t result;
1005:C:/Workspaces/DAVE-4.3/WS_2016_09_02/Flightcontroller_PWM_CopterRocks_Working/Libraries/CMSIS/Include\cmsis_gcc.h **** 
1006:C:/Workspaces/DAVE-4.3/WS_2016_09_02/Flightcontroller_PWM_CopterRocks_Working/Libraries/CMSIS/Include\cmsis_gcc.h ****   __ASM volatile ("usub16 %0, %1, %2" : "=r" (result) : "r" (op1), "r" (op2) );
1007:C:/Workspaces/DAVE-4.3/WS_2016_09_02/Flightcontroller_PWM_CopterRocks_Working/Libraries/CMSIS/Include\cmsis_gcc.h ****   return(result);
1008:C:/Workspaces/DAVE-4.3/WS_2016_09_02/Flightcontroller_PWM_CopterRocks_Working/Libraries/CMSIS/Include\cmsis_gcc.h **** }
1009:C:/Workspaces/DAVE-4.3/WS_2016_09_02/Flightcontroller_PWM_CopterRocks_Working/Libraries/CMSIS/Include\cmsis_gcc.h **** 
1010:C:/Workspaces/DAVE-4.3/WS_2016_09_02/Flightcontroller_PWM_CopterRocks_Working/Libraries/CMSIS/Include\cmsis_gcc.h **** __attribute__( ( always_inline ) ) __STATIC_INLINE uint32_t __UQSUB16(uint32_t op1, uint32_t op2)
1011:C:/Workspaces/DAVE-4.3/WS_2016_09_02/Flightcontroller_PWM_CopterRocks_Working/Libraries/CMSIS/Include\cmsis_gcc.h **** {
1012:C:/Workspaces/DAVE-4.3/WS_2016_09_02/Flightcontroller_PWM_CopterRocks_Working/Libraries/CMSIS/Include\cmsis_gcc.h ****   uint32_t result;
1013:C:/Workspaces/DAVE-4.3/WS_2016_09_02/Flightcontroller_PWM_CopterRocks_Working/Libraries/CMSIS/Include\cmsis_gcc.h **** 
1014:C:/Workspaces/DAVE-4.3/WS_2016_09_02/Flightcontroller_PWM_CopterRocks_Working/Libraries/CMSIS/Include\cmsis_gcc.h ****   __ASM volatile ("uqsub16 %0, %1, %2" : "=r" (result) : "r" (op1), "r" (op2) );
1015:C:/Workspaces/DAVE-4.3/WS_2016_09_02/Flightcontroller_PWM_CopterRocks_Working/Libraries/CMSIS/Include\cmsis_gcc.h ****   return(result);
1016:C:/Workspaces/DAVE-4.3/WS_2016_09_02/Flightcontroller_PWM_CopterRocks_Working/Libraries/CMSIS/Include\cmsis_gcc.h **** }
1017:C:/Workspaces/DAVE-4.3/WS_2016_09_02/Flightcontroller_PWM_CopterRocks_Working/Libraries/CMSIS/Include\cmsis_gcc.h **** 
1018:C:/Workspaces/DAVE-4.3/WS_2016_09_02/Flightcontroller_PWM_CopterRocks_Working/Libraries/CMSIS/Include\cmsis_gcc.h **** __attribute__( ( always_inline ) ) __STATIC_INLINE uint32_t __UHSUB16(uint32_t op1, uint32_t op2)
1019:C:/Workspaces/DAVE-4.3/WS_2016_09_02/Flightcontroller_PWM_CopterRocks_Working/Libraries/CMSIS/Include\cmsis_gcc.h **** {
1020:C:/Workspaces/DAVE-4.3/WS_2016_09_02/Flightcontroller_PWM_CopterRocks_Working/Libraries/CMSIS/Include\cmsis_gcc.h ****   uint32_t result;
1021:C:/Workspaces/DAVE-4.3/WS_2016_09_02/Flightcontroller_PWM_CopterRocks_Working/Libraries/CMSIS/Include\cmsis_gcc.h **** 
1022:C:/Workspaces/DAVE-4.3/WS_2016_09_02/Flightcontroller_PWM_CopterRocks_Working/Libraries/CMSIS/Include\cmsis_gcc.h ****   __ASM volatile ("uhsub16 %0, %1, %2" : "=r" (result) : "r" (op1), "r" (op2) );
1023:C:/Workspaces/DAVE-4.3/WS_2016_09_02/Flightcontroller_PWM_CopterRocks_Working/Libraries/CMSIS/Include\cmsis_gcc.h ****   return(result);
1024:C:/Workspaces/DAVE-4.3/WS_2016_09_02/Flightcontroller_PWM_CopterRocks_Working/Libraries/CMSIS/Include\cmsis_gcc.h **** }
1025:C:/Workspaces/DAVE-4.3/WS_2016_09_02/Flightcontroller_PWM_CopterRocks_Working/Libraries/CMSIS/Include\cmsis_gcc.h **** 
1026:C:/Workspaces/DAVE-4.3/WS_2016_09_02/Flightcontroller_PWM_CopterRocks_Working/Libraries/CMSIS/Include\cmsis_gcc.h **** __attribute__( ( always_inline ) ) __STATIC_INLINE uint32_t __SASX(uint32_t op1, uint32_t op2)
1027:C:/Workspaces/DAVE-4.3/WS_2016_09_02/Flightcontroller_PWM_CopterRocks_Working/Libraries/CMSIS/Include\cmsis_gcc.h **** {
1028:C:/Workspaces/DAVE-4.3/WS_2016_09_02/Flightcontroller_PWM_CopterRocks_Working/Libraries/CMSIS/Include\cmsis_gcc.h ****   uint32_t result;
1029:C:/Workspaces/DAVE-4.3/WS_2016_09_02/Flightcontroller_PWM_CopterRocks_Working/Libraries/CMSIS/Include\cmsis_gcc.h **** 
1030:C:/Workspaces/DAVE-4.3/WS_2016_09_02/Flightcontroller_PWM_CopterRocks_Working/Libraries/CMSIS/Include\cmsis_gcc.h ****   __ASM volatile ("sasx %0, %1, %2" : "=r" (result) : "r" (op1), "r" (op2) );
1031:C:/Workspaces/DAVE-4.3/WS_2016_09_02/Flightcontroller_PWM_CopterRocks_Working/Libraries/CMSIS/Include\cmsis_gcc.h ****   return(result);
1032:C:/Workspaces/DAVE-4.3/WS_2016_09_02/Flightcontroller_PWM_CopterRocks_Working/Libraries/CMSIS/Include\cmsis_gcc.h **** }
1033:C:/Workspaces/DAVE-4.3/WS_2016_09_02/Flightcontroller_PWM_CopterRocks_Working/Libraries/CMSIS/Include\cmsis_gcc.h **** 
1034:C:/Workspaces/DAVE-4.3/WS_2016_09_02/Flightcontroller_PWM_CopterRocks_Working/Libraries/CMSIS/Include\cmsis_gcc.h **** __attribute__( ( always_inline ) ) __STATIC_INLINE uint32_t __QASX(uint32_t op1, uint32_t op2)
1035:C:/Workspaces/DAVE-4.3/WS_2016_09_02/Flightcontroller_PWM_CopterRocks_Working/Libraries/CMSIS/Include\cmsis_gcc.h **** {
1036:C:/Workspaces/DAVE-4.3/WS_2016_09_02/Flightcontroller_PWM_CopterRocks_Working/Libraries/CMSIS/Include\cmsis_gcc.h ****   uint32_t result;
1037:C:/Workspaces/DAVE-4.3/WS_2016_09_02/Flightcontroller_PWM_CopterRocks_Working/Libraries/CMSIS/Include\cmsis_gcc.h **** 
1038:C:/Workspaces/DAVE-4.3/WS_2016_09_02/Flightcontroller_PWM_CopterRocks_Working/Libraries/CMSIS/Include\cmsis_gcc.h ****   __ASM volatile ("qasx %0, %1, %2" : "=r" (result) : "r" (op1), "r" (op2) );
1039:C:/Workspaces/DAVE-4.3/WS_2016_09_02/Flightcontroller_PWM_CopterRocks_Working/Libraries/CMSIS/Include\cmsis_gcc.h ****   return(result);
1040:C:/Workspaces/DAVE-4.3/WS_2016_09_02/Flightcontroller_PWM_CopterRocks_Working/Libraries/CMSIS/Include\cmsis_gcc.h **** }
1041:C:/Workspaces/DAVE-4.3/WS_2016_09_02/Flightcontroller_PWM_CopterRocks_Working/Libraries/CMSIS/Include\cmsis_gcc.h **** 
1042:C:/Workspaces/DAVE-4.3/WS_2016_09_02/Flightcontroller_PWM_CopterRocks_Working/Libraries/CMSIS/Include\cmsis_gcc.h **** __attribute__( ( always_inline ) ) __STATIC_INLINE uint32_t __SHASX(uint32_t op1, uint32_t op2)
1043:C:/Workspaces/DAVE-4.3/WS_2016_09_02/Flightcontroller_PWM_CopterRocks_Working/Libraries/CMSIS/Include\cmsis_gcc.h **** {
1044:C:/Workspaces/DAVE-4.3/WS_2016_09_02/Flightcontroller_PWM_CopterRocks_Working/Libraries/CMSIS/Include\cmsis_gcc.h ****   uint32_t result;
1045:C:/Workspaces/DAVE-4.3/WS_2016_09_02/Flightcontroller_PWM_CopterRocks_Working/Libraries/CMSIS/Include\cmsis_gcc.h **** 
1046:C:/Workspaces/DAVE-4.3/WS_2016_09_02/Flightcontroller_PWM_CopterRocks_Working/Libraries/CMSIS/Include\cmsis_gcc.h ****   __ASM volatile ("shasx %0, %1, %2" : "=r" (result) : "r" (op1), "r" (op2) );
1047:C:/Workspaces/DAVE-4.3/WS_2016_09_02/Flightcontroller_PWM_CopterRocks_Working/Libraries/CMSIS/Include\cmsis_gcc.h ****   return(result);
1048:C:/Workspaces/DAVE-4.3/WS_2016_09_02/Flightcontroller_PWM_CopterRocks_Working/Libraries/CMSIS/Include\cmsis_gcc.h **** }
1049:C:/Workspaces/DAVE-4.3/WS_2016_09_02/Flightcontroller_PWM_CopterRocks_Working/Libraries/CMSIS/Include\cmsis_gcc.h **** 
1050:C:/Workspaces/DAVE-4.3/WS_2016_09_02/Flightcontroller_PWM_CopterRocks_Working/Libraries/CMSIS/Include\cmsis_gcc.h **** __attribute__( ( always_inline ) ) __STATIC_INLINE uint32_t __UASX(uint32_t op1, uint32_t op2)
1051:C:/Workspaces/DAVE-4.3/WS_2016_09_02/Flightcontroller_PWM_CopterRocks_Working/Libraries/CMSIS/Include\cmsis_gcc.h **** {
1052:C:/Workspaces/DAVE-4.3/WS_2016_09_02/Flightcontroller_PWM_CopterRocks_Working/Libraries/CMSIS/Include\cmsis_gcc.h ****   uint32_t result;
1053:C:/Workspaces/DAVE-4.3/WS_2016_09_02/Flightcontroller_PWM_CopterRocks_Working/Libraries/CMSIS/Include\cmsis_gcc.h **** 
1054:C:/Workspaces/DAVE-4.3/WS_2016_09_02/Flightcontroller_PWM_CopterRocks_Working/Libraries/CMSIS/Include\cmsis_gcc.h ****   __ASM volatile ("uasx %0, %1, %2" : "=r" (result) : "r" (op1), "r" (op2) );
1055:C:/Workspaces/DAVE-4.3/WS_2016_09_02/Flightcontroller_PWM_CopterRocks_Working/Libraries/CMSIS/Include\cmsis_gcc.h ****   return(result);
1056:C:/Workspaces/DAVE-4.3/WS_2016_09_02/Flightcontroller_PWM_CopterRocks_Working/Libraries/CMSIS/Include\cmsis_gcc.h **** }
1057:C:/Workspaces/DAVE-4.3/WS_2016_09_02/Flightcontroller_PWM_CopterRocks_Working/Libraries/CMSIS/Include\cmsis_gcc.h **** 
1058:C:/Workspaces/DAVE-4.3/WS_2016_09_02/Flightcontroller_PWM_CopterRocks_Working/Libraries/CMSIS/Include\cmsis_gcc.h **** __attribute__( ( always_inline ) ) __STATIC_INLINE uint32_t __UQASX(uint32_t op1, uint32_t op2)
1059:C:/Workspaces/DAVE-4.3/WS_2016_09_02/Flightcontroller_PWM_CopterRocks_Working/Libraries/CMSIS/Include\cmsis_gcc.h **** {
1060:C:/Workspaces/DAVE-4.3/WS_2016_09_02/Flightcontroller_PWM_CopterRocks_Working/Libraries/CMSIS/Include\cmsis_gcc.h ****   uint32_t result;
1061:C:/Workspaces/DAVE-4.3/WS_2016_09_02/Flightcontroller_PWM_CopterRocks_Working/Libraries/CMSIS/Include\cmsis_gcc.h **** 
1062:C:/Workspaces/DAVE-4.3/WS_2016_09_02/Flightcontroller_PWM_CopterRocks_Working/Libraries/CMSIS/Include\cmsis_gcc.h ****   __ASM volatile ("uqasx %0, %1, %2" : "=r" (result) : "r" (op1), "r" (op2) );
1063:C:/Workspaces/DAVE-4.3/WS_2016_09_02/Flightcontroller_PWM_CopterRocks_Working/Libraries/CMSIS/Include\cmsis_gcc.h ****   return(result);
1064:C:/Workspaces/DAVE-4.3/WS_2016_09_02/Flightcontroller_PWM_CopterRocks_Working/Libraries/CMSIS/Include\cmsis_gcc.h **** }
1065:C:/Workspaces/DAVE-4.3/WS_2016_09_02/Flightcontroller_PWM_CopterRocks_Working/Libraries/CMSIS/Include\cmsis_gcc.h **** 
1066:C:/Workspaces/DAVE-4.3/WS_2016_09_02/Flightcontroller_PWM_CopterRocks_Working/Libraries/CMSIS/Include\cmsis_gcc.h **** __attribute__( ( always_inline ) ) __STATIC_INLINE uint32_t __UHASX(uint32_t op1, uint32_t op2)
1067:C:/Workspaces/DAVE-4.3/WS_2016_09_02/Flightcontroller_PWM_CopterRocks_Working/Libraries/CMSIS/Include\cmsis_gcc.h **** {
1068:C:/Workspaces/DAVE-4.3/WS_2016_09_02/Flightcontroller_PWM_CopterRocks_Working/Libraries/CMSIS/Include\cmsis_gcc.h ****   uint32_t result;
1069:C:/Workspaces/DAVE-4.3/WS_2016_09_02/Flightcontroller_PWM_CopterRocks_Working/Libraries/CMSIS/Include\cmsis_gcc.h **** 
1070:C:/Workspaces/DAVE-4.3/WS_2016_09_02/Flightcontroller_PWM_CopterRocks_Working/Libraries/CMSIS/Include\cmsis_gcc.h ****   __ASM volatile ("uhasx %0, %1, %2" : "=r" (result) : "r" (op1), "r" (op2) );
1071:C:/Workspaces/DAVE-4.3/WS_2016_09_02/Flightcontroller_PWM_CopterRocks_Working/Libraries/CMSIS/Include\cmsis_gcc.h ****   return(result);
1072:C:/Workspaces/DAVE-4.3/WS_2016_09_02/Flightcontroller_PWM_CopterRocks_Working/Libraries/CMSIS/Include\cmsis_gcc.h **** }
1073:C:/Workspaces/DAVE-4.3/WS_2016_09_02/Flightcontroller_PWM_CopterRocks_Working/Libraries/CMSIS/Include\cmsis_gcc.h **** 
1074:C:/Workspaces/DAVE-4.3/WS_2016_09_02/Flightcontroller_PWM_CopterRocks_Working/Libraries/CMSIS/Include\cmsis_gcc.h **** __attribute__( ( always_inline ) ) __STATIC_INLINE uint32_t __SSAX(uint32_t op1, uint32_t op2)
1075:C:/Workspaces/DAVE-4.3/WS_2016_09_02/Flightcontroller_PWM_CopterRocks_Working/Libraries/CMSIS/Include\cmsis_gcc.h **** {
1076:C:/Workspaces/DAVE-4.3/WS_2016_09_02/Flightcontroller_PWM_CopterRocks_Working/Libraries/CMSIS/Include\cmsis_gcc.h ****   uint32_t result;
1077:C:/Workspaces/DAVE-4.3/WS_2016_09_02/Flightcontroller_PWM_CopterRocks_Working/Libraries/CMSIS/Include\cmsis_gcc.h **** 
1078:C:/Workspaces/DAVE-4.3/WS_2016_09_02/Flightcontroller_PWM_CopterRocks_Working/Libraries/CMSIS/Include\cmsis_gcc.h ****   __ASM volatile ("ssax %0, %1, %2" : "=r" (result) : "r" (op1), "r" (op2) );
1079:C:/Workspaces/DAVE-4.3/WS_2016_09_02/Flightcontroller_PWM_CopterRocks_Working/Libraries/CMSIS/Include\cmsis_gcc.h ****   return(result);
1080:C:/Workspaces/DAVE-4.3/WS_2016_09_02/Flightcontroller_PWM_CopterRocks_Working/Libraries/CMSIS/Include\cmsis_gcc.h **** }
1081:C:/Workspaces/DAVE-4.3/WS_2016_09_02/Flightcontroller_PWM_CopterRocks_Working/Libraries/CMSIS/Include\cmsis_gcc.h **** 
1082:C:/Workspaces/DAVE-4.3/WS_2016_09_02/Flightcontroller_PWM_CopterRocks_Working/Libraries/CMSIS/Include\cmsis_gcc.h **** __attribute__( ( always_inline ) ) __STATIC_INLINE uint32_t __QSAX(uint32_t op1, uint32_t op2)
1083:C:/Workspaces/DAVE-4.3/WS_2016_09_02/Flightcontroller_PWM_CopterRocks_Working/Libraries/CMSIS/Include\cmsis_gcc.h **** {
1084:C:/Workspaces/DAVE-4.3/WS_2016_09_02/Flightcontroller_PWM_CopterRocks_Working/Libraries/CMSIS/Include\cmsis_gcc.h ****   uint32_t result;
1085:C:/Workspaces/DAVE-4.3/WS_2016_09_02/Flightcontroller_PWM_CopterRocks_Working/Libraries/CMSIS/Include\cmsis_gcc.h **** 
1086:C:/Workspaces/DAVE-4.3/WS_2016_09_02/Flightcontroller_PWM_CopterRocks_Working/Libraries/CMSIS/Include\cmsis_gcc.h ****   __ASM volatile ("qsax %0, %1, %2" : "=r" (result) : "r" (op1), "r" (op2) );
1087:C:/Workspaces/DAVE-4.3/WS_2016_09_02/Flightcontroller_PWM_CopterRocks_Working/Libraries/CMSIS/Include\cmsis_gcc.h ****   return(result);
1088:C:/Workspaces/DAVE-4.3/WS_2016_09_02/Flightcontroller_PWM_CopterRocks_Working/Libraries/CMSIS/Include\cmsis_gcc.h **** }
1089:C:/Workspaces/DAVE-4.3/WS_2016_09_02/Flightcontroller_PWM_CopterRocks_Working/Libraries/CMSIS/Include\cmsis_gcc.h **** 
1090:C:/Workspaces/DAVE-4.3/WS_2016_09_02/Flightcontroller_PWM_CopterRocks_Working/Libraries/CMSIS/Include\cmsis_gcc.h **** __attribute__( ( always_inline ) ) __STATIC_INLINE uint32_t __SHSAX(uint32_t op1, uint32_t op2)
1091:C:/Workspaces/DAVE-4.3/WS_2016_09_02/Flightcontroller_PWM_CopterRocks_Working/Libraries/CMSIS/Include\cmsis_gcc.h **** {
1092:C:/Workspaces/DAVE-4.3/WS_2016_09_02/Flightcontroller_PWM_CopterRocks_Working/Libraries/CMSIS/Include\cmsis_gcc.h ****   uint32_t result;
1093:C:/Workspaces/DAVE-4.3/WS_2016_09_02/Flightcontroller_PWM_CopterRocks_Working/Libraries/CMSIS/Include\cmsis_gcc.h **** 
1094:C:/Workspaces/DAVE-4.3/WS_2016_09_02/Flightcontroller_PWM_CopterRocks_Working/Libraries/CMSIS/Include\cmsis_gcc.h ****   __ASM volatile ("shsax %0, %1, %2" : "=r" (result) : "r" (op1), "r" (op2) );
1095:C:/Workspaces/DAVE-4.3/WS_2016_09_02/Flightcontroller_PWM_CopterRocks_Working/Libraries/CMSIS/Include\cmsis_gcc.h ****   return(result);
1096:C:/Workspaces/DAVE-4.3/WS_2016_09_02/Flightcontroller_PWM_CopterRocks_Working/Libraries/CMSIS/Include\cmsis_gcc.h **** }
1097:C:/Workspaces/DAVE-4.3/WS_2016_09_02/Flightcontroller_PWM_CopterRocks_Working/Libraries/CMSIS/Include\cmsis_gcc.h **** 
1098:C:/Workspaces/DAVE-4.3/WS_2016_09_02/Flightcontroller_PWM_CopterRocks_Working/Libraries/CMSIS/Include\cmsis_gcc.h **** __attribute__( ( always_inline ) ) __STATIC_INLINE uint32_t __USAX(uint32_t op1, uint32_t op2)
1099:C:/Workspaces/DAVE-4.3/WS_2016_09_02/Flightcontroller_PWM_CopterRocks_Working/Libraries/CMSIS/Include\cmsis_gcc.h **** {
1100:C:/Workspaces/DAVE-4.3/WS_2016_09_02/Flightcontroller_PWM_CopterRocks_Working/Libraries/CMSIS/Include\cmsis_gcc.h ****   uint32_t result;
1101:C:/Workspaces/DAVE-4.3/WS_2016_09_02/Flightcontroller_PWM_CopterRocks_Working/Libraries/CMSIS/Include\cmsis_gcc.h **** 
1102:C:/Workspaces/DAVE-4.3/WS_2016_09_02/Flightcontroller_PWM_CopterRocks_Working/Libraries/CMSIS/Include\cmsis_gcc.h ****   __ASM volatile ("usax %0, %1, %2" : "=r" (result) : "r" (op1), "r" (op2) );
1103:C:/Workspaces/DAVE-4.3/WS_2016_09_02/Flightcontroller_PWM_CopterRocks_Working/Libraries/CMSIS/Include\cmsis_gcc.h ****   return(result);
1104:C:/Workspaces/DAVE-4.3/WS_2016_09_02/Flightcontroller_PWM_CopterRocks_Working/Libraries/CMSIS/Include\cmsis_gcc.h **** }
1105:C:/Workspaces/DAVE-4.3/WS_2016_09_02/Flightcontroller_PWM_CopterRocks_Working/Libraries/CMSIS/Include\cmsis_gcc.h **** 
1106:C:/Workspaces/DAVE-4.3/WS_2016_09_02/Flightcontroller_PWM_CopterRocks_Working/Libraries/CMSIS/Include\cmsis_gcc.h **** __attribute__( ( always_inline ) ) __STATIC_INLINE uint32_t __UQSAX(uint32_t op1, uint32_t op2)
1107:C:/Workspaces/DAVE-4.3/WS_2016_09_02/Flightcontroller_PWM_CopterRocks_Working/Libraries/CMSIS/Include\cmsis_gcc.h **** {
1108:C:/Workspaces/DAVE-4.3/WS_2016_09_02/Flightcontroller_PWM_CopterRocks_Working/Libraries/CMSIS/Include\cmsis_gcc.h ****   uint32_t result;
1109:C:/Workspaces/DAVE-4.3/WS_2016_09_02/Flightcontroller_PWM_CopterRocks_Working/Libraries/CMSIS/Include\cmsis_gcc.h **** 
1110:C:/Workspaces/DAVE-4.3/WS_2016_09_02/Flightcontroller_PWM_CopterRocks_Working/Libraries/CMSIS/Include\cmsis_gcc.h ****   __ASM volatile ("uqsax %0, %1, %2" : "=r" (result) : "r" (op1), "r" (op2) );
1111:C:/Workspaces/DAVE-4.3/WS_2016_09_02/Flightcontroller_PWM_CopterRocks_Working/Libraries/CMSIS/Include\cmsis_gcc.h ****   return(result);
1112:C:/Workspaces/DAVE-4.3/WS_2016_09_02/Flightcontroller_PWM_CopterRocks_Working/Libraries/CMSIS/Include\cmsis_gcc.h **** }
1113:C:/Workspaces/DAVE-4.3/WS_2016_09_02/Flightcontroller_PWM_CopterRocks_Working/Libraries/CMSIS/Include\cmsis_gcc.h **** 
1114:C:/Workspaces/DAVE-4.3/WS_2016_09_02/Flightcontroller_PWM_CopterRocks_Working/Libraries/CMSIS/Include\cmsis_gcc.h **** __attribute__( ( always_inline ) ) __STATIC_INLINE uint32_t __UHSAX(uint32_t op1, uint32_t op2)
1115:C:/Workspaces/DAVE-4.3/WS_2016_09_02/Flightcontroller_PWM_CopterRocks_Working/Libraries/CMSIS/Include\cmsis_gcc.h **** {
1116:C:/Workspaces/DAVE-4.3/WS_2016_09_02/Flightcontroller_PWM_CopterRocks_Working/Libraries/CMSIS/Include\cmsis_gcc.h ****   uint32_t result;
1117:C:/Workspaces/DAVE-4.3/WS_2016_09_02/Flightcontroller_PWM_CopterRocks_Working/Libraries/CMSIS/Include\cmsis_gcc.h **** 
1118:C:/Workspaces/DAVE-4.3/WS_2016_09_02/Flightcontroller_PWM_CopterRocks_Working/Libraries/CMSIS/Include\cmsis_gcc.h ****   __ASM volatile ("uhsax %0, %1, %2" : "=r" (result) : "r" (op1), "r" (op2) );
1119:C:/Workspaces/DAVE-4.3/WS_2016_09_02/Flightcontroller_PWM_CopterRocks_Working/Libraries/CMSIS/Include\cmsis_gcc.h ****   return(result);
1120:C:/Workspaces/DAVE-4.3/WS_2016_09_02/Flightcontroller_PWM_CopterRocks_Working/Libraries/CMSIS/Include\cmsis_gcc.h **** }
1121:C:/Workspaces/DAVE-4.3/WS_2016_09_02/Flightcontroller_PWM_CopterRocks_Working/Libraries/CMSIS/Include\cmsis_gcc.h **** 
1122:C:/Workspaces/DAVE-4.3/WS_2016_09_02/Flightcontroller_PWM_CopterRocks_Working/Libraries/CMSIS/Include\cmsis_gcc.h **** __attribute__( ( always_inline ) ) __STATIC_INLINE uint32_t __USAD8(uint32_t op1, uint32_t op2)
1123:C:/Workspaces/DAVE-4.3/WS_2016_09_02/Flightcontroller_PWM_CopterRocks_Working/Libraries/CMSIS/Include\cmsis_gcc.h **** {
1124:C:/Workspaces/DAVE-4.3/WS_2016_09_02/Flightcontroller_PWM_CopterRocks_Working/Libraries/CMSIS/Include\cmsis_gcc.h ****   uint32_t result;
1125:C:/Workspaces/DAVE-4.3/WS_2016_09_02/Flightcontroller_PWM_CopterRocks_Working/Libraries/CMSIS/Include\cmsis_gcc.h **** 
1126:C:/Workspaces/DAVE-4.3/WS_2016_09_02/Flightcontroller_PWM_CopterRocks_Working/Libraries/CMSIS/Include\cmsis_gcc.h ****   __ASM volatile ("usad8 %0, %1, %2" : "=r" (result) : "r" (op1), "r" (op2) );
1127:C:/Workspaces/DAVE-4.3/WS_2016_09_02/Flightcontroller_PWM_CopterRocks_Working/Libraries/CMSIS/Include\cmsis_gcc.h ****   return(result);
1128:C:/Workspaces/DAVE-4.3/WS_2016_09_02/Flightcontroller_PWM_CopterRocks_Working/Libraries/CMSIS/Include\cmsis_gcc.h **** }
1129:C:/Workspaces/DAVE-4.3/WS_2016_09_02/Flightcontroller_PWM_CopterRocks_Working/Libraries/CMSIS/Include\cmsis_gcc.h **** 
1130:C:/Workspaces/DAVE-4.3/WS_2016_09_02/Flightcontroller_PWM_CopterRocks_Working/Libraries/CMSIS/Include\cmsis_gcc.h **** __attribute__( ( always_inline ) ) __STATIC_INLINE uint32_t __USADA8(uint32_t op1, uint32_t op2, ui
1131:C:/Workspaces/DAVE-4.3/WS_2016_09_02/Flightcontroller_PWM_CopterRocks_Working/Libraries/CMSIS/Include\cmsis_gcc.h **** {
1132:C:/Workspaces/DAVE-4.3/WS_2016_09_02/Flightcontroller_PWM_CopterRocks_Working/Libraries/CMSIS/Include\cmsis_gcc.h ****   uint32_t result;
1133:C:/Workspaces/DAVE-4.3/WS_2016_09_02/Flightcontroller_PWM_CopterRocks_Working/Libraries/CMSIS/Include\cmsis_gcc.h **** 
1134:C:/Workspaces/DAVE-4.3/WS_2016_09_02/Flightcontroller_PWM_CopterRocks_Working/Libraries/CMSIS/Include\cmsis_gcc.h ****   __ASM volatile ("usada8 %0, %1, %2, %3" : "=r" (result) : "r" (op1), "r" (op2), "r" (op3) );
1135:C:/Workspaces/DAVE-4.3/WS_2016_09_02/Flightcontroller_PWM_CopterRocks_Working/Libraries/CMSIS/Include\cmsis_gcc.h ****   return(result);
1136:C:/Workspaces/DAVE-4.3/WS_2016_09_02/Flightcontroller_PWM_CopterRocks_Working/Libraries/CMSIS/Include\cmsis_gcc.h **** }
1137:C:/Workspaces/DAVE-4.3/WS_2016_09_02/Flightcontroller_PWM_CopterRocks_Working/Libraries/CMSIS/Include\cmsis_gcc.h **** 
1138:C:/Workspaces/DAVE-4.3/WS_2016_09_02/Flightcontroller_PWM_CopterRocks_Working/Libraries/CMSIS/Include\cmsis_gcc.h **** #define __SSAT16(ARG1,ARG2) \
1139:C:/Workspaces/DAVE-4.3/WS_2016_09_02/Flightcontroller_PWM_CopterRocks_Working/Libraries/CMSIS/Include\cmsis_gcc.h **** ({                          \
1140:C:/Workspaces/DAVE-4.3/WS_2016_09_02/Flightcontroller_PWM_CopterRocks_Working/Libraries/CMSIS/Include\cmsis_gcc.h ****   int32_t __RES, __ARG1 = (ARG1); \
1141:C:/Workspaces/DAVE-4.3/WS_2016_09_02/Flightcontroller_PWM_CopterRocks_Working/Libraries/CMSIS/Include\cmsis_gcc.h ****   __ASM ("ssat16 %0, %1, %2" : "=r" (__RES) :  "I" (ARG2), "r" (__ARG1) ); \
1142:C:/Workspaces/DAVE-4.3/WS_2016_09_02/Flightcontroller_PWM_CopterRocks_Working/Libraries/CMSIS/Include\cmsis_gcc.h ****   __RES; \
1143:C:/Workspaces/DAVE-4.3/WS_2016_09_02/Flightcontroller_PWM_CopterRocks_Working/Libraries/CMSIS/Include\cmsis_gcc.h ****  })
1144:C:/Workspaces/DAVE-4.3/WS_2016_09_02/Flightcontroller_PWM_CopterRocks_Working/Libraries/CMSIS/Include\cmsis_gcc.h **** 
1145:C:/Workspaces/DAVE-4.3/WS_2016_09_02/Flightcontroller_PWM_CopterRocks_Working/Libraries/CMSIS/Include\cmsis_gcc.h **** #define __USAT16(ARG1,ARG2) \
1146:C:/Workspaces/DAVE-4.3/WS_2016_09_02/Flightcontroller_PWM_CopterRocks_Working/Libraries/CMSIS/Include\cmsis_gcc.h **** ({                          \
1147:C:/Workspaces/DAVE-4.3/WS_2016_09_02/Flightcontroller_PWM_CopterRocks_Working/Libraries/CMSIS/Include\cmsis_gcc.h ****   uint32_t __RES, __ARG1 = (ARG1); \
1148:C:/Workspaces/DAVE-4.3/WS_2016_09_02/Flightcontroller_PWM_CopterRocks_Working/Libraries/CMSIS/Include\cmsis_gcc.h ****   __ASM ("usat16 %0, %1, %2" : "=r" (__RES) :  "I" (ARG2), "r" (__ARG1) ); \
1149:C:/Workspaces/DAVE-4.3/WS_2016_09_02/Flightcontroller_PWM_CopterRocks_Working/Libraries/CMSIS/Include\cmsis_gcc.h ****   __RES; \
1150:C:/Workspaces/DAVE-4.3/WS_2016_09_02/Flightcontroller_PWM_CopterRocks_Working/Libraries/CMSIS/Include\cmsis_gcc.h ****  })
1151:C:/Workspaces/DAVE-4.3/WS_2016_09_02/Flightcontroller_PWM_CopterRocks_Working/Libraries/CMSIS/Include\cmsis_gcc.h **** 
1152:C:/Workspaces/DAVE-4.3/WS_2016_09_02/Flightcontroller_PWM_CopterRocks_Working/Libraries/CMSIS/Include\cmsis_gcc.h **** __attribute__( ( always_inline ) ) __STATIC_INLINE uint32_t __UXTB16(uint32_t op1)
1153:C:/Workspaces/DAVE-4.3/WS_2016_09_02/Flightcontroller_PWM_CopterRocks_Working/Libraries/CMSIS/Include\cmsis_gcc.h **** {
1154:C:/Workspaces/DAVE-4.3/WS_2016_09_02/Flightcontroller_PWM_CopterRocks_Working/Libraries/CMSIS/Include\cmsis_gcc.h ****   uint32_t result;
1155:C:/Workspaces/DAVE-4.3/WS_2016_09_02/Flightcontroller_PWM_CopterRocks_Working/Libraries/CMSIS/Include\cmsis_gcc.h **** 
1156:C:/Workspaces/DAVE-4.3/WS_2016_09_02/Flightcontroller_PWM_CopterRocks_Working/Libraries/CMSIS/Include\cmsis_gcc.h ****   __ASM volatile ("uxtb16 %0, %1" : "=r" (result) : "r" (op1));
1157:C:/Workspaces/DAVE-4.3/WS_2016_09_02/Flightcontroller_PWM_CopterRocks_Working/Libraries/CMSIS/Include\cmsis_gcc.h ****   return(result);
1158:C:/Workspaces/DAVE-4.3/WS_2016_09_02/Flightcontroller_PWM_CopterRocks_Working/Libraries/CMSIS/Include\cmsis_gcc.h **** }
1159:C:/Workspaces/DAVE-4.3/WS_2016_09_02/Flightcontroller_PWM_CopterRocks_Working/Libraries/CMSIS/Include\cmsis_gcc.h **** 
1160:C:/Workspaces/DAVE-4.3/WS_2016_09_02/Flightcontroller_PWM_CopterRocks_Working/Libraries/CMSIS/Include\cmsis_gcc.h **** __attribute__( ( always_inline ) ) __STATIC_INLINE uint32_t __UXTAB16(uint32_t op1, uint32_t op2)
1161:C:/Workspaces/DAVE-4.3/WS_2016_09_02/Flightcontroller_PWM_CopterRocks_Working/Libraries/CMSIS/Include\cmsis_gcc.h **** {
1162:C:/Workspaces/DAVE-4.3/WS_2016_09_02/Flightcontroller_PWM_CopterRocks_Working/Libraries/CMSIS/Include\cmsis_gcc.h ****   uint32_t result;
1163:C:/Workspaces/DAVE-4.3/WS_2016_09_02/Flightcontroller_PWM_CopterRocks_Working/Libraries/CMSIS/Include\cmsis_gcc.h **** 
1164:C:/Workspaces/DAVE-4.3/WS_2016_09_02/Flightcontroller_PWM_CopterRocks_Working/Libraries/CMSIS/Include\cmsis_gcc.h ****   __ASM volatile ("uxtab16 %0, %1, %2" : "=r" (result) : "r" (op1), "r" (op2) );
1165:C:/Workspaces/DAVE-4.3/WS_2016_09_02/Flightcontroller_PWM_CopterRocks_Working/Libraries/CMSIS/Include\cmsis_gcc.h ****   return(result);
1166:C:/Workspaces/DAVE-4.3/WS_2016_09_02/Flightcontroller_PWM_CopterRocks_Working/Libraries/CMSIS/Include\cmsis_gcc.h **** }
1167:C:/Workspaces/DAVE-4.3/WS_2016_09_02/Flightcontroller_PWM_CopterRocks_Working/Libraries/CMSIS/Include\cmsis_gcc.h **** 
1168:C:/Workspaces/DAVE-4.3/WS_2016_09_02/Flightcontroller_PWM_CopterRocks_Working/Libraries/CMSIS/Include\cmsis_gcc.h **** __attribute__( ( always_inline ) ) __STATIC_INLINE uint32_t __SXTB16(uint32_t op1)
1169:C:/Workspaces/DAVE-4.3/WS_2016_09_02/Flightcontroller_PWM_CopterRocks_Working/Libraries/CMSIS/Include\cmsis_gcc.h **** {
1170:C:/Workspaces/DAVE-4.3/WS_2016_09_02/Flightcontroller_PWM_CopterRocks_Working/Libraries/CMSIS/Include\cmsis_gcc.h ****   uint32_t result;
1171:C:/Workspaces/DAVE-4.3/WS_2016_09_02/Flightcontroller_PWM_CopterRocks_Working/Libraries/CMSIS/Include\cmsis_gcc.h **** 
1172:C:/Workspaces/DAVE-4.3/WS_2016_09_02/Flightcontroller_PWM_CopterRocks_Working/Libraries/CMSIS/Include\cmsis_gcc.h ****   __ASM volatile ("sxtb16 %0, %1" : "=r" (result) : "r" (op1));
1173:C:/Workspaces/DAVE-4.3/WS_2016_09_02/Flightcontroller_PWM_CopterRocks_Working/Libraries/CMSIS/Include\cmsis_gcc.h ****   return(result);
1174:C:/Workspaces/DAVE-4.3/WS_2016_09_02/Flightcontroller_PWM_CopterRocks_Working/Libraries/CMSIS/Include\cmsis_gcc.h **** }
1175:C:/Workspaces/DAVE-4.3/WS_2016_09_02/Flightcontroller_PWM_CopterRocks_Working/Libraries/CMSIS/Include\cmsis_gcc.h **** 
1176:C:/Workspaces/DAVE-4.3/WS_2016_09_02/Flightcontroller_PWM_CopterRocks_Working/Libraries/CMSIS/Include\cmsis_gcc.h **** __attribute__( ( always_inline ) ) __STATIC_INLINE uint32_t __SXTAB16(uint32_t op1, uint32_t op2)
1177:C:/Workspaces/DAVE-4.3/WS_2016_09_02/Flightcontroller_PWM_CopterRocks_Working/Libraries/CMSIS/Include\cmsis_gcc.h **** {
1178:C:/Workspaces/DAVE-4.3/WS_2016_09_02/Flightcontroller_PWM_CopterRocks_Working/Libraries/CMSIS/Include\cmsis_gcc.h ****   uint32_t result;
1179:C:/Workspaces/DAVE-4.3/WS_2016_09_02/Flightcontroller_PWM_CopterRocks_Working/Libraries/CMSIS/Include\cmsis_gcc.h **** 
1180:C:/Workspaces/DAVE-4.3/WS_2016_09_02/Flightcontroller_PWM_CopterRocks_Working/Libraries/CMSIS/Include\cmsis_gcc.h ****   __ASM volatile ("sxtab16 %0, %1, %2" : "=r" (result) : "r" (op1), "r" (op2) );
1181:C:/Workspaces/DAVE-4.3/WS_2016_09_02/Flightcontroller_PWM_CopterRocks_Working/Libraries/CMSIS/Include\cmsis_gcc.h ****   return(result);
1182:C:/Workspaces/DAVE-4.3/WS_2016_09_02/Flightcontroller_PWM_CopterRocks_Working/Libraries/CMSIS/Include\cmsis_gcc.h **** }
1183:C:/Workspaces/DAVE-4.3/WS_2016_09_02/Flightcontroller_PWM_CopterRocks_Working/Libraries/CMSIS/Include\cmsis_gcc.h **** 
1184:C:/Workspaces/DAVE-4.3/WS_2016_09_02/Flightcontroller_PWM_CopterRocks_Working/Libraries/CMSIS/Include\cmsis_gcc.h **** __attribute__( ( always_inline ) ) __STATIC_INLINE uint32_t __SMUAD  (uint32_t op1, uint32_t op2)
1185:C:/Workspaces/DAVE-4.3/WS_2016_09_02/Flightcontroller_PWM_CopterRocks_Working/Libraries/CMSIS/Include\cmsis_gcc.h **** {
1186:C:/Workspaces/DAVE-4.3/WS_2016_09_02/Flightcontroller_PWM_CopterRocks_Working/Libraries/CMSIS/Include\cmsis_gcc.h ****   uint32_t result;
1187:C:/Workspaces/DAVE-4.3/WS_2016_09_02/Flightcontroller_PWM_CopterRocks_Working/Libraries/CMSIS/Include\cmsis_gcc.h **** 
1188:C:/Workspaces/DAVE-4.3/WS_2016_09_02/Flightcontroller_PWM_CopterRocks_Working/Libraries/CMSIS/Include\cmsis_gcc.h ****   __ASM volatile ("smuad %0, %1, %2" : "=r" (result) : "r" (op1), "r" (op2) );
1189:C:/Workspaces/DAVE-4.3/WS_2016_09_02/Flightcontroller_PWM_CopterRocks_Working/Libraries/CMSIS/Include\cmsis_gcc.h ****   return(result);
1190:C:/Workspaces/DAVE-4.3/WS_2016_09_02/Flightcontroller_PWM_CopterRocks_Working/Libraries/CMSIS/Include\cmsis_gcc.h **** }
1191:C:/Workspaces/DAVE-4.3/WS_2016_09_02/Flightcontroller_PWM_CopterRocks_Working/Libraries/CMSIS/Include\cmsis_gcc.h **** 
1192:C:/Workspaces/DAVE-4.3/WS_2016_09_02/Flightcontroller_PWM_CopterRocks_Working/Libraries/CMSIS/Include\cmsis_gcc.h **** __attribute__( ( always_inline ) ) __STATIC_INLINE uint32_t __SMUADX (uint32_t op1, uint32_t op2)
1193:C:/Workspaces/DAVE-4.3/WS_2016_09_02/Flightcontroller_PWM_CopterRocks_Working/Libraries/CMSIS/Include\cmsis_gcc.h **** {
1194:C:/Workspaces/DAVE-4.3/WS_2016_09_02/Flightcontroller_PWM_CopterRocks_Working/Libraries/CMSIS/Include\cmsis_gcc.h ****   uint32_t result;
1195:C:/Workspaces/DAVE-4.3/WS_2016_09_02/Flightcontroller_PWM_CopterRocks_Working/Libraries/CMSIS/Include\cmsis_gcc.h **** 
1196:C:/Workspaces/DAVE-4.3/WS_2016_09_02/Flightcontroller_PWM_CopterRocks_Working/Libraries/CMSIS/Include\cmsis_gcc.h ****   __ASM volatile ("smuadx %0, %1, %2" : "=r" (result) : "r" (op1), "r" (op2) );
1197:C:/Workspaces/DAVE-4.3/WS_2016_09_02/Flightcontroller_PWM_CopterRocks_Working/Libraries/CMSIS/Include\cmsis_gcc.h ****   return(result);
1198:C:/Workspaces/DAVE-4.3/WS_2016_09_02/Flightcontroller_PWM_CopterRocks_Working/Libraries/CMSIS/Include\cmsis_gcc.h **** }
1199:C:/Workspaces/DAVE-4.3/WS_2016_09_02/Flightcontroller_PWM_CopterRocks_Working/Libraries/CMSIS/Include\cmsis_gcc.h **** 
1200:C:/Workspaces/DAVE-4.3/WS_2016_09_02/Flightcontroller_PWM_CopterRocks_Working/Libraries/CMSIS/Include\cmsis_gcc.h **** __attribute__( ( always_inline ) ) __STATIC_INLINE uint32_t __SMLAD (uint32_t op1, uint32_t op2, ui
1201:C:/Workspaces/DAVE-4.3/WS_2016_09_02/Flightcontroller_PWM_CopterRocks_Working/Libraries/CMSIS/Include\cmsis_gcc.h **** {
1202:C:/Workspaces/DAVE-4.3/WS_2016_09_02/Flightcontroller_PWM_CopterRocks_Working/Libraries/CMSIS/Include\cmsis_gcc.h ****   uint32_t result;
1203:C:/Workspaces/DAVE-4.3/WS_2016_09_02/Flightcontroller_PWM_CopterRocks_Working/Libraries/CMSIS/Include\cmsis_gcc.h **** 
1204:C:/Workspaces/DAVE-4.3/WS_2016_09_02/Flightcontroller_PWM_CopterRocks_Working/Libraries/CMSIS/Include\cmsis_gcc.h ****   __ASM volatile ("smlad %0, %1, %2, %3" : "=r" (result) : "r" (op1), "r" (op2), "r" (op3) );
1205:C:/Workspaces/DAVE-4.3/WS_2016_09_02/Flightcontroller_PWM_CopterRocks_Working/Libraries/CMSIS/Include\cmsis_gcc.h ****   return(result);
1206:C:/Workspaces/DAVE-4.3/WS_2016_09_02/Flightcontroller_PWM_CopterRocks_Working/Libraries/CMSIS/Include\cmsis_gcc.h **** }
1207:C:/Workspaces/DAVE-4.3/WS_2016_09_02/Flightcontroller_PWM_CopterRocks_Working/Libraries/CMSIS/Include\cmsis_gcc.h **** 
1208:C:/Workspaces/DAVE-4.3/WS_2016_09_02/Flightcontroller_PWM_CopterRocks_Working/Libraries/CMSIS/Include\cmsis_gcc.h **** __attribute__( ( always_inline ) ) __STATIC_INLINE uint32_t __SMLADX (uint32_t op1, uint32_t op2, u
1209:C:/Workspaces/DAVE-4.3/WS_2016_09_02/Flightcontroller_PWM_CopterRocks_Working/Libraries/CMSIS/Include\cmsis_gcc.h **** {
1210:C:/Workspaces/DAVE-4.3/WS_2016_09_02/Flightcontroller_PWM_CopterRocks_Working/Libraries/CMSIS/Include\cmsis_gcc.h ****   uint32_t result;
1211:C:/Workspaces/DAVE-4.3/WS_2016_09_02/Flightcontroller_PWM_CopterRocks_Working/Libraries/CMSIS/Include\cmsis_gcc.h **** 
1212:C:/Workspaces/DAVE-4.3/WS_2016_09_02/Flightcontroller_PWM_CopterRocks_Working/Libraries/CMSIS/Include\cmsis_gcc.h ****   __ASM volatile ("smladx %0, %1, %2, %3" : "=r" (result) : "r" (op1), "r" (op2), "r" (op3) );
1213:C:/Workspaces/DAVE-4.3/WS_2016_09_02/Flightcontroller_PWM_CopterRocks_Working/Libraries/CMSIS/Include\cmsis_gcc.h ****   return(result);
1214:C:/Workspaces/DAVE-4.3/WS_2016_09_02/Flightcontroller_PWM_CopterRocks_Working/Libraries/CMSIS/Include\cmsis_gcc.h **** }
1215:C:/Workspaces/DAVE-4.3/WS_2016_09_02/Flightcontroller_PWM_CopterRocks_Working/Libraries/CMSIS/Include\cmsis_gcc.h **** 
1216:C:/Workspaces/DAVE-4.3/WS_2016_09_02/Flightcontroller_PWM_CopterRocks_Working/Libraries/CMSIS/Include\cmsis_gcc.h **** __attribute__( ( always_inline ) ) __STATIC_INLINE uint64_t __SMLALD (uint32_t op1, uint32_t op2, u
1217:C:/Workspaces/DAVE-4.3/WS_2016_09_02/Flightcontroller_PWM_CopterRocks_Working/Libraries/CMSIS/Include\cmsis_gcc.h **** {
1218:C:/Workspaces/DAVE-4.3/WS_2016_09_02/Flightcontroller_PWM_CopterRocks_Working/Libraries/CMSIS/Include\cmsis_gcc.h ****   union llreg_u{
1219:C:/Workspaces/DAVE-4.3/WS_2016_09_02/Flightcontroller_PWM_CopterRocks_Working/Libraries/CMSIS/Include\cmsis_gcc.h ****     uint32_t w32[2];
1220:C:/Workspaces/DAVE-4.3/WS_2016_09_02/Flightcontroller_PWM_CopterRocks_Working/Libraries/CMSIS/Include\cmsis_gcc.h ****     uint64_t w64;
1221:C:/Workspaces/DAVE-4.3/WS_2016_09_02/Flightcontroller_PWM_CopterRocks_Working/Libraries/CMSIS/Include\cmsis_gcc.h ****   } llr;
1222:C:/Workspaces/DAVE-4.3/WS_2016_09_02/Flightcontroller_PWM_CopterRocks_Working/Libraries/CMSIS/Include\cmsis_gcc.h ****   llr.w64 = acc;
 215              	 .loc 2 1222 0
 216 019c 07F14001 	 add r1,r7,#64
 217 01a0 07F54273 	 add r3,r7,#776
 218 01a4 D3E90023 	 ldrd r2,[r3]
 219 01a8 C1E90023 	 strd r2,[r1]
1223:C:/Workspaces/DAVE-4.3/WS_2016_09_02/Flightcontroller_PWM_CopterRocks_Working/Libraries/CMSIS/Include\cmsis_gcc.h **** 
1224:C:/Workspaces/DAVE-4.3/WS_2016_09_02/Flightcontroller_PWM_CopterRocks_Working/Libraries/CMSIS/Include\cmsis_gcc.h **** #ifndef __ARMEB__   /* Little endian */
1225:C:/Workspaces/DAVE-4.3/WS_2016_09_02/Flightcontroller_PWM_CopterRocks_Working/Libraries/CMSIS/Include\cmsis_gcc.h ****   __ASM volatile ("smlald %0, %1, %2, %3" : "=r" (llr.w32[0]), "=r" (llr.w32[1]): "r" (op1), "r" (o
 220              	 .loc 2 1225 0
 221 01ac 07F14003 	 add r3,r7,#64
 222 01b0 1A68     	 ldr r2,[r3]
 223 01b2 07F14003 	 add r3,r7,#64
 224 01b6 5968     	 ldr r1,[r3,#4]
 225 01b8 D7F81803 	 ldr r0,[r7,#792]
 226 01bc D7F81433 	 ldr r3,[r7,#788]
 227              	
 228 01c0 C0FBC321 	 smlald r2,r1,r0,r3
 229              	
 230              	 .thumb
 231 01c4 07F14003 	 add r3,r7,#64
 232 01c8 1A60     	 str r2,[r3]
 233 01ca 07F14003 	 add r3,r7,#64
 234 01ce 5960     	 str r1,[r3,#4]
1226:C:/Workspaces/DAVE-4.3/WS_2016_09_02/Flightcontroller_PWM_CopterRocks_Working/Libraries/CMSIS/Include\cmsis_gcc.h **** #else               /* Big endian */
1227:C:/Workspaces/DAVE-4.3/WS_2016_09_02/Flightcontroller_PWM_CopterRocks_Working/Libraries/CMSIS/Include\cmsis_gcc.h ****   __ASM volatile ("smlald %0, %1, %2, %3" : "=r" (llr.w32[1]), "=r" (llr.w32[0]): "r" (op1), "r" (o
1228:C:/Workspaces/DAVE-4.3/WS_2016_09_02/Flightcontroller_PWM_CopterRocks_Working/Libraries/CMSIS/Include\cmsis_gcc.h **** #endif
1229:C:/Workspaces/DAVE-4.3/WS_2016_09_02/Flightcontroller_PWM_CopterRocks_Working/Libraries/CMSIS/Include\cmsis_gcc.h **** 
1230:C:/Workspaces/DAVE-4.3/WS_2016_09_02/Flightcontroller_PWM_CopterRocks_Working/Libraries/CMSIS/Include\cmsis_gcc.h ****   return(llr.w64);
 235              	 .loc 2 1230 0
 236 01d0 07F14003 	 add r3,r7,#64
 237 01d4 D3E90023 	 ldrd r2,[r3]
 238              	.LBE71:
 239              	.LBE70:
 240              	 .loc 1 211 0
 241 01d8 07F56E71 	 add r1,r7,#952
 242 01dc C1E90023 	 strd r2,[r1]
 212:../Dave/Generated/CMSIS_DSP/FilteringFunctions/arm_correlate_q15.c ****       /* x[3] * y[srcBLen - 1] , x[2] * y[srcBLen - 2] */
 213:../Dave/Generated/CMSIS_DSP/FilteringFunctions/arm_correlate_q15.c ****       sum = __SMLALD(*__SIMD32(px)++, *__SIMD32(py)++, sum);
 243              	 .loc 1 213 0
 244 01e0 07F59A71 	 add r1,r7,#308
 245 01e4 0A68     	 ldr r2,[r1]
 246 01e6 131D     	 adds r3,r2,#4
 247 01e8 0B60     	 str r3,[r1]
 248 01ea 1368     	 ldr r3,[r2]
 249 01ec 1846     	 mov r0,r3
 250 01ee 07F59871 	 add r1,r7,#304
 251 01f2 0A68     	 ldr r2,[r1]
 252 01f4 131D     	 adds r3,r2,#4
 253 01f6 0B60     	 str r3,[r1]
 254 01f8 1368     	 ldr r3,[r2]
 255 01fa 1946     	 mov r1,r3
 256 01fc 07F56E73 	 add r3,r7,#952
 257 0200 D3E90023 	 ldrd r2,[r3]
 258 0204 C7F80403 	 str r0,[r7,#772]
 259 0208 C7F80013 	 str r1,[r7,#768]
 260 020c 07F53E71 	 add r1,r7,#760
 261 0210 C1E90023 	 strd r2,[r1]
 262              	.LBB72:
 263              	.LBB73:
1222:C:/Workspaces/DAVE-4.3/WS_2016_09_02/Flightcontroller_PWM_CopterRocks_Working/Libraries/CMSIS/Include\cmsis_gcc.h **** 
 264              	 .loc 2 1222 0
 265 0214 07F14801 	 add r1,r7,#72
 266 0218 07F53E73 	 add r3,r7,#760
 267 021c D3E90023 	 ldrd r2,[r3]
 268 0220 C1E90023 	 strd r2,[r1]
1225:C:/Workspaces/DAVE-4.3/WS_2016_09_02/Flightcontroller_PWM_CopterRocks_Working/Libraries/CMSIS/Include\cmsis_gcc.h **** #else               /* Big endian */
 269              	 .loc 2 1225 0
 270 0224 07F14803 	 add r3,r7,#72
 271 0228 1A68     	 ldr r2,[r3]
 272 022a 07F14803 	 add r3,r7,#72
 273 022e 5968     	 ldr r1,[r3,#4]
 274 0230 D7F80403 	 ldr r0,[r7,#772]
 275 0234 D7F80033 	 ldr r3,[r7,#768]
 276              	
 277 0238 C0FBC321 	 smlald r2,r1,r0,r3
 278              	
 279              	 .thumb
 280 023c 07F14803 	 add r3,r7,#72
 281 0240 1A60     	 str r2,[r3]
 282 0242 07F14803 	 add r3,r7,#72
 283 0246 5960     	 str r1,[r3,#4]
 284              	 .loc 2 1230 0
 285 0248 07F14803 	 add r3,r7,#72
 286 024c D3E90023 	 ldrd r2,[r3]
 287              	.LBE73:
 288              	.LBE72:
 289              	 .loc 1 213 0
 290 0250 07F56E71 	 add r1,r7,#952
 291 0254 C1E90023 	 strd r2,[r1]
 214:../Dave/Generated/CMSIS_DSP/FilteringFunctions/arm_correlate_q15.c **** 
 215:../Dave/Generated/CMSIS_DSP/FilteringFunctions/arm_correlate_q15.c ****       /* Decrement the loop counter */
 216:../Dave/Generated/CMSIS_DSP/FilteringFunctions/arm_correlate_q15.c ****       k--;
 292              	 .loc 1 216 0
 293 0258 D7F88833 	 ldr r3,[r7,#904]
 294 025c 013B     	 subs r3,r3,#1
 295 025e C7F88833 	 str r3,[r7,#904]
 296              	.L5:
 208:../Dave/Generated/CMSIS_DSP/FilteringFunctions/arm_correlate_q15.c ****     {
 297              	 .loc 1 208 0
 298 0262 D7F88833 	 ldr r3,[r7,#904]
 299 0266 002B     	 cmp r3,#0
 300 0268 7FF47EAF 	 bne .L8
 217:../Dave/Generated/CMSIS_DSP/FilteringFunctions/arm_correlate_q15.c ****     }
 218:../Dave/Generated/CMSIS_DSP/FilteringFunctions/arm_correlate_q15.c **** 
 219:../Dave/Generated/CMSIS_DSP/FilteringFunctions/arm_correlate_q15.c ****     /* If the count is not a multiple of 4, compute any remaining MACs here.   
 220:../Dave/Generated/CMSIS_DSP/FilteringFunctions/arm_correlate_q15.c ****      ** No loop unrolling is used. */
 221:../Dave/Generated/CMSIS_DSP/FilteringFunctions/arm_correlate_q15.c ****     k = count % 0x4u;
 301              	 .loc 1 221 0
 302 026c D7F88433 	 ldr r3,[r7,#900]
 303 0270 03F00303 	 and r3,r3,#3
 304 0274 C7F88833 	 str r3,[r7,#904]
 222:../Dave/Generated/CMSIS_DSP/FilteringFunctions/arm_correlate_q15.c **** 
 223:../Dave/Generated/CMSIS_DSP/FilteringFunctions/arm_correlate_q15.c ****     while(k > 0u)
 305              	 .loc 1 223 0
 306 0278 44E0     	 b .L9
 307              	.L11:
 224:../Dave/Generated/CMSIS_DSP/FilteringFunctions/arm_correlate_q15.c ****     {
 225:../Dave/Generated/CMSIS_DSP/FilteringFunctions/arm_correlate_q15.c ****       /* Perform the multiply-accumulates */
 226:../Dave/Generated/CMSIS_DSP/FilteringFunctions/arm_correlate_q15.c ****       /* x[0] * y[srcBLen - 1] */
 227:../Dave/Generated/CMSIS_DSP/FilteringFunctions/arm_correlate_q15.c ****       sum = __SMLALD(*px++, *py++, sum);
 308              	 .loc 1 227 0
 309 027a 07F59A73 	 add r3,r7,#308
 310 027e 1968     	 ldr r1,[r3]
 311 0280 8A1C     	 adds r2,r1,#2
 312 0282 07F59A73 	 add r3,r7,#308
 313 0286 1A60     	 str r2,[r3]
 314 0288 0B88     	 ldrh r3,[r1]
 315 028a 18B2     	 sxth r0,r3
 316 028c 07F59873 	 add r3,r7,#304
 317 0290 1968     	 ldr r1,[r3]
 318 0292 8A1C     	 adds r2,r1,#2
 319 0294 07F59873 	 add r3,r7,#304
 320 0298 1A60     	 str r2,[r3]
 321 029a 0B88     	 ldrh r3,[r1]
 322 029c 19B2     	 sxth r1,r3
 323 029e 07F56E73 	 add r3,r7,#952
 324 02a2 D3E90023 	 ldrd r2,[r3]
 325 02a6 C7F8F402 	 str r0,[r7,#756]
 326 02aa C7F8F012 	 str r1,[r7,#752]
 327 02ae 07F53A71 	 add r1,r7,#744
 328 02b2 C1E90023 	 strd r2,[r1]
 329              	.LBB74:
 330              	.LBB75:
1222:C:/Workspaces/DAVE-4.3/WS_2016_09_02/Flightcontroller_PWM_CopterRocks_Working/Libraries/CMSIS/Include\cmsis_gcc.h **** 
 331              	 .loc 2 1222 0
 332 02b6 07F15001 	 add r1,r7,#80
 333 02ba 07F53A73 	 add r3,r7,#744
 334 02be D3E90023 	 ldrd r2,[r3]
 335 02c2 C1E90023 	 strd r2,[r1]
1225:C:/Workspaces/DAVE-4.3/WS_2016_09_02/Flightcontroller_PWM_CopterRocks_Working/Libraries/CMSIS/Include\cmsis_gcc.h **** #else               /* Big endian */
 336              	 .loc 2 1225 0
 337 02c6 07F15003 	 add r3,r7,#80
 338 02ca 1A68     	 ldr r2,[r3]
 339 02cc 07F15003 	 add r3,r7,#80
 340 02d0 5968     	 ldr r1,[r3,#4]
 341 02d2 D7F8F402 	 ldr r0,[r7,#756]
 342 02d6 D7F8F032 	 ldr r3,[r7,#752]
 343              	
 344 02da C0FBC321 	 smlald r2,r1,r0,r3
 345              	
 346              	 .thumb
 347 02de 07F15003 	 add r3,r7,#80
 348 02e2 1A60     	 str r2,[r3]
 349 02e4 07F15003 	 add r3,r7,#80
 350 02e8 5960     	 str r1,[r3,#4]
 351              	 .loc 2 1230 0
 352 02ea 07F15003 	 add r3,r7,#80
 353 02ee D3E90023 	 ldrd r2,[r3]
 354              	.LBE75:
 355              	.LBE74:
 356              	 .loc 1 227 0
 357 02f2 07F56E71 	 add r1,r7,#952
 358 02f6 C1E90023 	 strd r2,[r1]
 228:../Dave/Generated/CMSIS_DSP/FilteringFunctions/arm_correlate_q15.c **** 
 229:../Dave/Generated/CMSIS_DSP/FilteringFunctions/arm_correlate_q15.c ****       /* Decrement the loop counter */
 230:../Dave/Generated/CMSIS_DSP/FilteringFunctions/arm_correlate_q15.c ****       k--;
 359              	 .loc 1 230 0
 360 02fa D7F88833 	 ldr r3,[r7,#904]
 361 02fe 013B     	 subs r3,r3,#1
 362 0300 C7F88833 	 str r3,[r7,#904]
 363              	.L9:
 223:../Dave/Generated/CMSIS_DSP/FilteringFunctions/arm_correlate_q15.c ****     {
 364              	 .loc 1 223 0
 365 0304 D7F88833 	 ldr r3,[r7,#904]
 366 0308 002B     	 cmp r3,#0
 367 030a B6D1     	 bne .L11
 368              	.LBB76:
 231:../Dave/Generated/CMSIS_DSP/FilteringFunctions/arm_correlate_q15.c ****     }
 232:../Dave/Generated/CMSIS_DSP/FilteringFunctions/arm_correlate_q15.c **** 
 233:../Dave/Generated/CMSIS_DSP/FilteringFunctions/arm_correlate_q15.c ****     /* Store the result in the accumulator in the destination buffer. */
 234:../Dave/Generated/CMSIS_DSP/FilteringFunctions/arm_correlate_q15.c ****     *pOut = (q15_t) (__SSAT((sum >> 15), 16));
 369              	 .loc 1 234 0
 370 030c 07F56E73 	 add r3,r7,#952
 371 0310 D3E90023 	 ldrd r2,[r3]
 372 0314 4FEAD23A 	 lsr r10,r2,#15
 373 0318 4AEA434A 	 orr r10,r10,r3,lsl#17
 374 031c 4FEAE33B 	 asr fp,r3,#15
 375 0320 5346     	 mov r3,r10
 376 0322 C7F86433 	 str r3,[r7,#868]
 377 0326 D7F86433 	 ldr r3,[r7,#868]
 378              	
 379 032a 03F30F03 	 ssat r3,#16,r3
 380              	
 381              	 .thumb
 382 032e C7F86033 	 str r3,[r7,#864]
 383 0332 D7F86033 	 ldr r3,[r7,#864]
 384              	.LBE76:
 385 0336 9BB2     	 uxth r3,r3
 386 0338 D7F8C423 	 ldr r2,[r7,#964]
 387 033c 1380     	 strh r3,[r2]
 235:../Dave/Generated/CMSIS_DSP/FilteringFunctions/arm_correlate_q15.c ****     /* Destination pointer is updated according to the address modifier, inc */
 236:../Dave/Generated/CMSIS_DSP/FilteringFunctions/arm_correlate_q15.c ****     pOut += inc;
 388              	 .loc 1 236 0
 389 033e D7F87433 	 ldr r3,[r7,#884]
 390 0342 5A00     	 lsls r2,r3,#1
 391 0344 D7F8C433 	 ldr r3,[r7,#964]
 392 0348 1344     	 add r3,r3,r2
 393 034a C7F8C433 	 str r3,[r7,#964]
 237:../Dave/Generated/CMSIS_DSP/FilteringFunctions/arm_correlate_q15.c **** 
 238:../Dave/Generated/CMSIS_DSP/FilteringFunctions/arm_correlate_q15.c ****     /* Update the inputA and inputB pointers for next MAC calculation */
 239:../Dave/Generated/CMSIS_DSP/FilteringFunctions/arm_correlate_q15.c ****     py = pSrc1 - count;
 394              	 .loc 1 239 0
 395 034e D7F88433 	 ldr r3,[r7,#900]
 396 0352 5B00     	 lsls r3,r3,#1
 397 0354 5A42     	 negs r2,r3
 398 0356 D7F89433 	 ldr r3,[r7,#916]
 399 035a 1A44     	 add r2,r2,r3
 400 035c 07F59873 	 add r3,r7,#304
 401 0360 1A60     	 str r2,[r3]
 240:../Dave/Generated/CMSIS_DSP/FilteringFunctions/arm_correlate_q15.c ****     px = pIn1;
 402              	 .loc 1 240 0
 403 0362 07F59A72 	 add r2,r7,#308
 404 0366 D7F8CC33 	 ldr r3,[r7,#972]
 405 036a 1360     	 str r3,[r2]
 241:../Dave/Generated/CMSIS_DSP/FilteringFunctions/arm_correlate_q15.c **** 
 242:../Dave/Generated/CMSIS_DSP/FilteringFunctions/arm_correlate_q15.c ****     /* Increment the MAC count */
 243:../Dave/Generated/CMSIS_DSP/FilteringFunctions/arm_correlate_q15.c ****     count++;
 406              	 .loc 1 243 0
 407 036c D7F88433 	 ldr r3,[r7,#900]
 408 0370 0133     	 adds r3,r3,#1
 409 0372 C7F88433 	 str r3,[r7,#900]
 244:../Dave/Generated/CMSIS_DSP/FilteringFunctions/arm_correlate_q15.c **** 
 245:../Dave/Generated/CMSIS_DSP/FilteringFunctions/arm_correlate_q15.c ****     /* Decrement the loop counter */
 246:../Dave/Generated/CMSIS_DSP/FilteringFunctions/arm_correlate_q15.c ****     blockSize1--;
 410              	 .loc 1 246 0
 411 0376 D7F87C33 	 ldr r3,[r7,#892]
 412 037a 013B     	 subs r3,r3,#1
 413 037c C7F87C33 	 str r3,[r7,#892]
 414              	.L4:
 198:../Dave/Generated/CMSIS_DSP/FilteringFunctions/arm_correlate_q15.c ****   {
 415              	 .loc 1 198 0
 416 0380 D7F87C33 	 ldr r3,[r7,#892]
 417 0384 002B     	 cmp r3,#0
 418 0386 7FF4E1AE 	 bne .L12
 247:../Dave/Generated/CMSIS_DSP/FilteringFunctions/arm_correlate_q15.c ****   }
 248:../Dave/Generated/CMSIS_DSP/FilteringFunctions/arm_correlate_q15.c **** 
 249:../Dave/Generated/CMSIS_DSP/FilteringFunctions/arm_correlate_q15.c ****   /* --------------------------   
 250:../Dave/Generated/CMSIS_DSP/FilteringFunctions/arm_correlate_q15.c ****    * Initializations of stage2   
 251:../Dave/Generated/CMSIS_DSP/FilteringFunctions/arm_correlate_q15.c ****    * ------------------------*/
 252:../Dave/Generated/CMSIS_DSP/FilteringFunctions/arm_correlate_q15.c **** 
 253:../Dave/Generated/CMSIS_DSP/FilteringFunctions/arm_correlate_q15.c ****   /* sum = x[0] * y[0] + x[1] * y[1] +...+ x[srcBLen-1] * y[srcBLen-1]   
 254:../Dave/Generated/CMSIS_DSP/FilteringFunctions/arm_correlate_q15.c ****    * sum = x[1] * y[0] + x[2] * y[1] +...+ x[srcBLen] * y[srcBLen-1]   
 255:../Dave/Generated/CMSIS_DSP/FilteringFunctions/arm_correlate_q15.c ****    * ....   
 256:../Dave/Generated/CMSIS_DSP/FilteringFunctions/arm_correlate_q15.c ****    * sum = x[srcALen-srcBLen-2] * y[0] + x[srcALen-srcBLen-1] * y[1] +...+ x[srcALen-1] * y[srcBLen
 257:../Dave/Generated/CMSIS_DSP/FilteringFunctions/arm_correlate_q15.c ****    */
 258:../Dave/Generated/CMSIS_DSP/FilteringFunctions/arm_correlate_q15.c **** 
 259:../Dave/Generated/CMSIS_DSP/FilteringFunctions/arm_correlate_q15.c ****   /* Working pointer of inputA */
 260:../Dave/Generated/CMSIS_DSP/FilteringFunctions/arm_correlate_q15.c ****   px = pIn1;
 419              	 .loc 1 260 0
 420 038a 07F59A72 	 add r2,r7,#308
 421 038e D7F8CC33 	 ldr r3,[r7,#972]
 422 0392 1360     	 str r3,[r2]
 261:../Dave/Generated/CMSIS_DSP/FilteringFunctions/arm_correlate_q15.c **** 
 262:../Dave/Generated/CMSIS_DSP/FilteringFunctions/arm_correlate_q15.c ****   /* Working pointer of inputB */
 263:../Dave/Generated/CMSIS_DSP/FilteringFunctions/arm_correlate_q15.c ****   py = pIn2;
 423              	 .loc 1 263 0
 424 0394 07F59872 	 add r2,r7,#304
 425 0398 D7F8C833 	 ldr r3,[r7,#968]
 426 039c 1360     	 str r3,[r2]
 264:../Dave/Generated/CMSIS_DSP/FilteringFunctions/arm_correlate_q15.c **** 
 265:../Dave/Generated/CMSIS_DSP/FilteringFunctions/arm_correlate_q15.c ****   /* count is index by which the pointer pIn1 to be incremented */
 266:../Dave/Generated/CMSIS_DSP/FilteringFunctions/arm_correlate_q15.c ****   count = 0u;
 427              	 .loc 1 266 0
 428 039e 0023     	 movs r3,#0
 429 03a0 C7F88433 	 str r3,[r7,#900]
 267:../Dave/Generated/CMSIS_DSP/FilteringFunctions/arm_correlate_q15.c **** 
 268:../Dave/Generated/CMSIS_DSP/FilteringFunctions/arm_correlate_q15.c ****   /* -------------------   
 269:../Dave/Generated/CMSIS_DSP/FilteringFunctions/arm_correlate_q15.c ****    * Stage2 process   
 270:../Dave/Generated/CMSIS_DSP/FilteringFunctions/arm_correlate_q15.c ****    * ------------------*/
 271:../Dave/Generated/CMSIS_DSP/FilteringFunctions/arm_correlate_q15.c **** 
 272:../Dave/Generated/CMSIS_DSP/FilteringFunctions/arm_correlate_q15.c ****   /* Stage2 depends on srcBLen as in this stage srcBLen number of MACS are performed.   
 273:../Dave/Generated/CMSIS_DSP/FilteringFunctions/arm_correlate_q15.c ****    * So, to loop unroll over blockSize2,   
 274:../Dave/Generated/CMSIS_DSP/FilteringFunctions/arm_correlate_q15.c ****    * srcBLen should be greater than or equal to 4, to loop unroll the srcBLen loop */
 275:../Dave/Generated/CMSIS_DSP/FilteringFunctions/arm_correlate_q15.c ****   if(srcBLen >= 4u)
 430              	 .loc 1 275 0
 431 03a4 07F13003 	 add r3,r7,#48
 432 03a8 1B68     	 ldr r3,[r3]
 433 03aa 032B     	 cmp r3,#3
 434 03ac 40F2EB87 	 bls .L13
 276:../Dave/Generated/CMSIS_DSP/FilteringFunctions/arm_correlate_q15.c ****   {
 277:../Dave/Generated/CMSIS_DSP/FilteringFunctions/arm_correlate_q15.c ****     /* Loop unroll over blockSize2, by 4 */
 278:../Dave/Generated/CMSIS_DSP/FilteringFunctions/arm_correlate_q15.c ****     blkCnt = blockSize2 >> 2u;
 435              	 .loc 1 278 0
 436 03b0 D7F86833 	 ldr r3,[r7,#872]
 437 03b4 9B08     	 lsrs r3,r3,#2
 438 03b6 C7F88033 	 str r3,[r7,#896]
 279:../Dave/Generated/CMSIS_DSP/FilteringFunctions/arm_correlate_q15.c **** 
 280:../Dave/Generated/CMSIS_DSP/FilteringFunctions/arm_correlate_q15.c ****     while(blkCnt > 0u)
 439              	 .loc 1 280 0
 440 03ba 00F09BBE 	 b .L14
 441              	.L43:
 281:../Dave/Generated/CMSIS_DSP/FilteringFunctions/arm_correlate_q15.c ****     {
 282:../Dave/Generated/CMSIS_DSP/FilteringFunctions/arm_correlate_q15.c ****       /* Set all accumulators to zero */
 283:../Dave/Generated/CMSIS_DSP/FilteringFunctions/arm_correlate_q15.c ****       acc0 = 0;
 442              	 .loc 1 283 0
 443 03be 4FF00002 	 mov r2,#0
 444 03c2 4FF00003 	 mov r3,#0
 445 03c6 07F56C71 	 add r1,r7,#944
 446 03ca C1E90023 	 strd r2,[r1]
 284:../Dave/Generated/CMSIS_DSP/FilteringFunctions/arm_correlate_q15.c ****       acc1 = 0;
 447              	 .loc 1 284 0
 448 03ce 4FF00002 	 mov r2,#0
 449 03d2 4FF00003 	 mov r3,#0
 450 03d6 07F56A71 	 add r1,r7,#936
 451 03da C1E90023 	 strd r2,[r1]
 285:../Dave/Generated/CMSIS_DSP/FilteringFunctions/arm_correlate_q15.c ****       acc2 = 0;
 452              	 .loc 1 285 0
 453 03de 4FF00002 	 mov r2,#0
 454 03e2 4FF00003 	 mov r3,#0
 455 03e6 07F56871 	 add r1,r7,#928
 456 03ea C1E90023 	 strd r2,[r1]
 286:../Dave/Generated/CMSIS_DSP/FilteringFunctions/arm_correlate_q15.c ****       acc3 = 0;
 457              	 .loc 1 286 0
 458 03ee 4FF00002 	 mov r2,#0
 459 03f2 4FF00003 	 mov r3,#0
 460 03f6 07F56671 	 add r1,r7,#920
 461 03fa C1E90023 	 strd r2,[r1]
 287:../Dave/Generated/CMSIS_DSP/FilteringFunctions/arm_correlate_q15.c **** 
 288:../Dave/Generated/CMSIS_DSP/FilteringFunctions/arm_correlate_q15.c ****       /* read x[0], x[1] samples */
 289:../Dave/Generated/CMSIS_DSP/FilteringFunctions/arm_correlate_q15.c ****       x0 = *__SIMD32(px);
 462              	 .loc 1 289 0
 463 03fe 07F59A73 	 add r3,r7,#308
 464 0402 1B68     	 ldr r3,[r3]
 465 0404 1B68     	 ldr r3,[r3]
 466 0406 C7F89033 	 str r3,[r7,#912]
 290:../Dave/Generated/CMSIS_DSP/FilteringFunctions/arm_correlate_q15.c ****       /* read x[1], x[2] samples */
 291:../Dave/Generated/CMSIS_DSP/FilteringFunctions/arm_correlate_q15.c ****       x1 = _SIMD32_OFFSET(px + 1);
 467              	 .loc 1 291 0
 468 040a 07F59A73 	 add r3,r7,#308
 469 040e 1B68     	 ldr r3,[r3]
 470 0410 D3F80230 	 ldr r3,[r3,#2]
 471 0414 C7F88C33 	 str r3,[r7,#908]
 292:../Dave/Generated/CMSIS_DSP/FilteringFunctions/arm_correlate_q15.c **** 	  px += 2u;
 472              	 .loc 1 292 0
 473 0418 07F59A73 	 add r3,r7,#308
 474 041c 1B68     	 ldr r3,[r3]
 475 041e 1A1D     	 adds r2,r3,#4
 476 0420 07F59A73 	 add r3,r7,#308
 477 0424 1A60     	 str r2,[r3]
 293:../Dave/Generated/CMSIS_DSP/FilteringFunctions/arm_correlate_q15.c **** 
 294:../Dave/Generated/CMSIS_DSP/FilteringFunctions/arm_correlate_q15.c ****       /* Apply loop unrolling and compute 4 MACs simultaneously. */
 295:../Dave/Generated/CMSIS_DSP/FilteringFunctions/arm_correlate_q15.c ****       k = srcBLen >> 2u;
 478              	 .loc 1 295 0
 479 0426 07F13003 	 add r3,r7,#48
 480 042a 1B68     	 ldr r3,[r3]
 481 042c 9B08     	 lsrs r3,r3,#2
 482 042e C7F88833 	 str r3,[r7,#904]
 483              	.L23:
 296:../Dave/Generated/CMSIS_DSP/FilteringFunctions/arm_correlate_q15.c **** 
 297:../Dave/Generated/CMSIS_DSP/FilteringFunctions/arm_correlate_q15.c ****       /* First part of the processing with loop unrolling.  Compute 4 MACs at a time.   
 298:../Dave/Generated/CMSIS_DSP/FilteringFunctions/arm_correlate_q15.c ****        ** a second loop below computes MACs for the remaining 1 to 3 samples. */
 299:../Dave/Generated/CMSIS_DSP/FilteringFunctions/arm_correlate_q15.c ****       do
 300:../Dave/Generated/CMSIS_DSP/FilteringFunctions/arm_correlate_q15.c ****       {
 301:../Dave/Generated/CMSIS_DSP/FilteringFunctions/arm_correlate_q15.c ****         /* Read the first two inputB samples using SIMD:   
 302:../Dave/Generated/CMSIS_DSP/FilteringFunctions/arm_correlate_q15.c ****          * y[0] and y[1] */
 303:../Dave/Generated/CMSIS_DSP/FilteringFunctions/arm_correlate_q15.c ****         c0 = *__SIMD32(py)++;
 484              	 .loc 1 303 0 discriminator 1
 485 0432 07F59871 	 add r1,r7,#304
 486 0436 0A68     	 ldr r2,[r1]
 487 0438 131D     	 adds r3,r2,#4
 488 043a 0B60     	 str r3,[r1]
 489 043c 1368     	 ldr r3,[r2]
 490 043e C7F85C33 	 str r3,[r7,#860]
 304:../Dave/Generated/CMSIS_DSP/FilteringFunctions/arm_correlate_q15.c **** 
 305:../Dave/Generated/CMSIS_DSP/FilteringFunctions/arm_correlate_q15.c ****         /* acc0 +=  x[0] * y[0] + x[1] * y[1] */
 306:../Dave/Generated/CMSIS_DSP/FilteringFunctions/arm_correlate_q15.c ****         acc0 = __SMLALD(x0, c0, acc0);
 491              	 .loc 1 306 0 discriminator 1
 492 0442 D7F89013 	 ldr r1,[r7,#912]
 493 0446 D7F85C03 	 ldr r0,[r7,#860]
 494 044a 07F56C73 	 add r3,r7,#944
 495 044e D3E90023 	 ldrd r2,[r3]
 496 0452 C7F8E412 	 str r1,[r7,#740]
 497 0456 C7F8E002 	 str r0,[r7,#736]
 498 045a 07F53671 	 add r1,r7,#728
 499 045e C1E90023 	 strd r2,[r1]
 500              	.LBB77:
 501              	.LBB78:
1222:C:/Workspaces/DAVE-4.3/WS_2016_09_02/Flightcontroller_PWM_CopterRocks_Working/Libraries/CMSIS/Include\cmsis_gcc.h **** 
 502              	 .loc 2 1222 0 discriminator 1
 503 0462 07F15801 	 add r1,r7,#88
 504 0466 07F53673 	 add r3,r7,#728
 505 046a D3E90023 	 ldrd r2,[r3]
 506 046e C1E90023 	 strd r2,[r1]
1225:C:/Workspaces/DAVE-4.3/WS_2016_09_02/Flightcontroller_PWM_CopterRocks_Working/Libraries/CMSIS/Include\cmsis_gcc.h **** #else               /* Big endian */
 507              	 .loc 2 1225 0 discriminator 1
 508 0472 07F15803 	 add r3,r7,#88
 509 0476 1968     	 ldr r1,[r3]
 510 0478 07F15803 	 add r3,r7,#88
 511 047c 5A68     	 ldr r2,[r3,#4]
 512 047e D7F8E402 	 ldr r0,[r7,#740]
 513 0482 D7F8E032 	 ldr r3,[r7,#736]
 514              	
 515 0486 C0FBC312 	 smlald r1,r2,r0,r3
 516              	
 517              	 .thumb
 518 048a 07F15803 	 add r3,r7,#88
 519 048e 1960     	 str r1,[r3]
 520 0490 07F15803 	 add r3,r7,#88
 521 0494 5A60     	 str r2,[r3,#4]
 522              	 .loc 2 1230 0 discriminator 1
 523 0496 07F15803 	 add r3,r7,#88
 524 049a D3E90023 	 ldrd r2,[r3]
 525              	.LBE78:
 526              	.LBE77:
 527              	 .loc 1 306 0 discriminator 1
 528 049e 07F56C71 	 add r1,r7,#944
 529 04a2 C1E90023 	 strd r2,[r1]
 307:../Dave/Generated/CMSIS_DSP/FilteringFunctions/arm_correlate_q15.c **** 
 308:../Dave/Generated/CMSIS_DSP/FilteringFunctions/arm_correlate_q15.c ****         /* acc1 +=  x[1] * y[0] + x[2] * y[1] */
 309:../Dave/Generated/CMSIS_DSP/FilteringFunctions/arm_correlate_q15.c ****         acc1 = __SMLALD(x1, c0, acc1);
 530              	 .loc 1 309 0 discriminator 1
 531 04a6 D7F88C33 	 ldr r3,[r7,#908]
 532 04aa D7F85C23 	 ldr r2,[r7,#860]
 533 04ae 07F56A71 	 add r1,r7,#936
 534 04b2 D1E90001 	 ldrd r0,[r1]
 535 04b6 C7F8D432 	 str r3,[r7,#724]
 536 04ba 07F53473 	 add r3,r7,#720
 537 04be 1A60     	 str r2,[r3]
 538 04c0 07F53273 	 add r3,r7,#712
 539 04c4 C3E90001 	 strd r0,[r3]
 540              	.LBB79:
 541              	.LBB80:
1222:C:/Workspaces/DAVE-4.3/WS_2016_09_02/Flightcontroller_PWM_CopterRocks_Working/Libraries/CMSIS/Include\cmsis_gcc.h **** 
 542              	 .loc 2 1222 0 discriminator 1
 543 04c8 07F16001 	 add r1,r7,#96
 544 04cc 07F53273 	 add r3,r7,#712
 545 04d0 D3E90023 	 ldrd r2,[r3]
 546 04d4 C1E90023 	 strd r2,[r1]
1225:C:/Workspaces/DAVE-4.3/WS_2016_09_02/Flightcontroller_PWM_CopterRocks_Working/Libraries/CMSIS/Include\cmsis_gcc.h **** #else               /* Big endian */
 547              	 .loc 2 1225 0 discriminator 1
 548 04d8 07F16003 	 add r3,r7,#96
 549 04dc 1968     	 ldr r1,[r3]
 550 04de 07F16003 	 add r3,r7,#96
 551 04e2 5A68     	 ldr r2,[r3,#4]
 552 04e4 D7F8D402 	 ldr r0,[r7,#724]
 553 04e8 07F53473 	 add r3,r7,#720
 554 04ec 1B68     	 ldr r3,[r3]
 555              	
 556 04ee C0FBC312 	 smlald r1,r2,r0,r3
 557              	
 558              	 .thumb
 559 04f2 07F16003 	 add r3,r7,#96
 560 04f6 1960     	 str r1,[r3]
 561 04f8 07F16003 	 add r3,r7,#96
 562 04fc 5A60     	 str r2,[r3,#4]
 563              	 .loc 2 1230 0 discriminator 1
 564 04fe 07F16003 	 add r3,r7,#96
 565 0502 D3E90023 	 ldrd r2,[r3]
 566              	.LBE80:
 567              	.LBE79:
 568              	 .loc 1 309 0 discriminator 1
 569 0506 07F56A71 	 add r1,r7,#936
 570 050a C1E90023 	 strd r2,[r1]
 310:../Dave/Generated/CMSIS_DSP/FilteringFunctions/arm_correlate_q15.c **** 
 311:../Dave/Generated/CMSIS_DSP/FilteringFunctions/arm_correlate_q15.c ****         /* Read x[2], x[3] */
 312:../Dave/Generated/CMSIS_DSP/FilteringFunctions/arm_correlate_q15.c ****         x2 = *__SIMD32(px);
 571              	 .loc 1 312 0 discriminator 1
 572 050e 07F59A73 	 add r3,r7,#308
 573 0512 1B68     	 ldr r3,[r3]
 574 0514 1B68     	 ldr r3,[r3]
 575 0516 C7F85833 	 str r3,[r7,#856]
 313:../Dave/Generated/CMSIS_DSP/FilteringFunctions/arm_correlate_q15.c **** 
 314:../Dave/Generated/CMSIS_DSP/FilteringFunctions/arm_correlate_q15.c ****         /* Read x[3], x[4] */
 315:../Dave/Generated/CMSIS_DSP/FilteringFunctions/arm_correlate_q15.c ****         x3 = _SIMD32_OFFSET(px + 1);
 576              	 .loc 1 315 0 discriminator 1
 577 051a 07F59A73 	 add r3,r7,#308
 578 051e 1B68     	 ldr r3,[r3]
 579 0520 D3F80230 	 ldr r3,[r3,#2]
 580 0524 C7F85433 	 str r3,[r7,#852]
 316:../Dave/Generated/CMSIS_DSP/FilteringFunctions/arm_correlate_q15.c **** 
 317:../Dave/Generated/CMSIS_DSP/FilteringFunctions/arm_correlate_q15.c ****         /* acc2 +=  x[2] * y[0] + x[3] * y[1] */
 318:../Dave/Generated/CMSIS_DSP/FilteringFunctions/arm_correlate_q15.c ****         acc2 = __SMLALD(x2, c0, acc2);
 581              	 .loc 1 318 0 discriminator 1
 582 0528 D7F85823 	 ldr r2,[r7,#856]
 583 052c D7F85C43 	 ldr r4,[r7,#860]
 584 0530 07F56873 	 add r3,r7,#928
 585 0534 D3E90001 	 ldrd r0,[r3]
 586 0538 07F53173 	 add r3,r7,#708
 587 053c 1A60     	 str r2,[r3]
 588 053e 07F53073 	 add r3,r7,#704
 589 0542 1C60     	 str r4,[r3]
 590 0544 07F52E73 	 add r3,r7,#696
 591 0548 C3E90001 	 strd r0,[r3]
 592              	.LBB81:
 593              	.LBB82:
1222:C:/Workspaces/DAVE-4.3/WS_2016_09_02/Flightcontroller_PWM_CopterRocks_Working/Libraries/CMSIS/Include\cmsis_gcc.h **** 
 594              	 .loc 2 1222 0 discriminator 1
 595 054c 07F16801 	 add r1,r7,#104
 596 0550 07F52E73 	 add r3,r7,#696
 597 0554 D3E90023 	 ldrd r2,[r3]
 598 0558 C1E90023 	 strd r2,[r1]
1225:C:/Workspaces/DAVE-4.3/WS_2016_09_02/Flightcontroller_PWM_CopterRocks_Working/Libraries/CMSIS/Include\cmsis_gcc.h **** #else               /* Big endian */
 599              	 .loc 2 1225 0 discriminator 1
 600 055c 07F16803 	 add r3,r7,#104
 601 0560 1968     	 ldr r1,[r3]
 602 0562 07F16803 	 add r3,r7,#104
 603 0566 5A68     	 ldr r2,[r3,#4]
 604 0568 07F53173 	 add r3,r7,#708
 605 056c 1868     	 ldr r0,[r3]
 606 056e 07F53073 	 add r3,r7,#704
 607 0572 1B68     	 ldr r3,[r3]
 608              	
 609 0574 C0FBC312 	 smlald r1,r2,r0,r3
 610              	
 611              	 .thumb
 612 0578 07F16803 	 add r3,r7,#104
 613 057c 1960     	 str r1,[r3]
 614 057e 07F16803 	 add r3,r7,#104
 615 0582 5A60     	 str r2,[r3,#4]
 616              	 .loc 2 1230 0 discriminator 1
 617 0584 07F16803 	 add r3,r7,#104
 618 0588 D3E90023 	 ldrd r2,[r3]
 619              	.LBE82:
 620              	.LBE81:
 621              	 .loc 1 318 0 discriminator 1
 622 058c 07F56871 	 add r1,r7,#928
 623 0590 C1E90023 	 strd r2,[r1]
 319:../Dave/Generated/CMSIS_DSP/FilteringFunctions/arm_correlate_q15.c **** 
 320:../Dave/Generated/CMSIS_DSP/FilteringFunctions/arm_correlate_q15.c ****         /* acc3 +=  x[3] * y[0] + x[4] * y[1] */
 321:../Dave/Generated/CMSIS_DSP/FilteringFunctions/arm_correlate_q15.c ****         acc3 = __SMLALD(x3, c0, acc3);
 624              	 .loc 1 321 0 discriminator 1
 625 0594 D7F85423 	 ldr r2,[r7,#852]
 626 0598 D7F85C43 	 ldr r4,[r7,#860]
 627 059c 07F56673 	 add r3,r7,#920
 628 05a0 D3E90001 	 ldrd r0,[r3]
 629 05a4 07F52D73 	 add r3,r7,#692
 630 05a8 1A60     	 str r2,[r3]
 631 05aa 07F52C73 	 add r3,r7,#688
 632 05ae 1C60     	 str r4,[r3]
 633 05b0 07F52A73 	 add r3,r7,#680
 634 05b4 C3E90001 	 strd r0,[r3]
 635              	.LBB83:
 636              	.LBB84:
1222:C:/Workspaces/DAVE-4.3/WS_2016_09_02/Flightcontroller_PWM_CopterRocks_Working/Libraries/CMSIS/Include\cmsis_gcc.h **** 
 637              	 .loc 2 1222 0 discriminator 1
 638 05b8 07F17001 	 add r1,r7,#112
 639 05bc 07F52A73 	 add r3,r7,#680
 640 05c0 D3E90023 	 ldrd r2,[r3]
 641 05c4 C1E90023 	 strd r2,[r1]
1225:C:/Workspaces/DAVE-4.3/WS_2016_09_02/Flightcontroller_PWM_CopterRocks_Working/Libraries/CMSIS/Include\cmsis_gcc.h **** #else               /* Big endian */
 642              	 .loc 2 1225 0 discriminator 1
 643 05c8 07F17003 	 add r3,r7,#112
 644 05cc 1968     	 ldr r1,[r3]
 645 05ce 07F17003 	 add r3,r7,#112
 646 05d2 5A68     	 ldr r2,[r3,#4]
 647 05d4 07F52D73 	 add r3,r7,#692
 648 05d8 1868     	 ldr r0,[r3]
 649 05da 07F52C73 	 add r3,r7,#688
 650 05de 1B68     	 ldr r3,[r3]
 651              	
 652 05e0 C0FBC312 	 smlald r1,r2,r0,r3
 653              	
 654              	 .thumb
 655 05e4 07F17003 	 add r3,r7,#112
 656 05e8 1960     	 str r1,[r3]
 657 05ea 07F17003 	 add r3,r7,#112
 658 05ee 5A60     	 str r2,[r3,#4]
 659              	 .loc 2 1230 0 discriminator 1
 660 05f0 07F17003 	 add r3,r7,#112
 661 05f4 D3E90023 	 ldrd r2,[r3]
 662              	.LBE84:
 663              	.LBE83:
 664              	 .loc 1 321 0 discriminator 1
 665 05f8 07F56671 	 add r1,r7,#920
 666 05fc C1E90023 	 strd r2,[r1]
 322:../Dave/Generated/CMSIS_DSP/FilteringFunctions/arm_correlate_q15.c **** 
 323:../Dave/Generated/CMSIS_DSP/FilteringFunctions/arm_correlate_q15.c ****         /* Read y[2] and y[3] */
 324:../Dave/Generated/CMSIS_DSP/FilteringFunctions/arm_correlate_q15.c ****         c0 = *__SIMD32(py)++;
 667              	 .loc 1 324 0 discriminator 1
 668 0600 07F59871 	 add r1,r7,#304
 669 0604 0A68     	 ldr r2,[r1]
 670 0606 131D     	 adds r3,r2,#4
 671 0608 0B60     	 str r3,[r1]
 672 060a 1368     	 ldr r3,[r2]
 673 060c C7F85C33 	 str r3,[r7,#860]
 325:../Dave/Generated/CMSIS_DSP/FilteringFunctions/arm_correlate_q15.c **** 
 326:../Dave/Generated/CMSIS_DSP/FilteringFunctions/arm_correlate_q15.c ****         /* acc0 +=  x[2] * y[2] + x[3] * y[3] */
 327:../Dave/Generated/CMSIS_DSP/FilteringFunctions/arm_correlate_q15.c ****         acc0 = __SMLALD(x2, c0, acc0);
