   1              	 .syntax unified
   2              	 .cpu cortex-m4
   3              	 .eabi_attribute 27,3
   4              	 .fpu fpv4-sp-d16
   5              	 .eabi_attribute 20,1
   6              	 .eabi_attribute 21,1
   7              	 .eabi_attribute 23,3
   8              	 .eabi_attribute 24,1
   9              	 .eabi_attribute 25,1
  10              	 .eabi_attribute 26,1
  11              	 .eabi_attribute 30,6
  12              	 .eabi_attribute 34,1
  13              	 .eabi_attribute 18,4
  14              	 .thumb
  15              	 .file "arm_correlate_fast_q15.c"
  16              	 .text
  17              	.Ltext0:
  18              	 .cfi_sections .debug_frame
  19              	 .section .text.arm_correlate_fast_q15,"ax",%progbits
  20              	 .align 2
  21              	 .global arm_correlate_fast_q15
  22              	 .thumb
  23              	 .thumb_func
  25              	arm_correlate_fast_q15:
  26              	.LFB139:
  27              	 .file 1 "../Dave/Generated/CMSIS_DSP/FilteringFunctions/arm_correlate_fast_q15.c"
   1:../Dave/Generated/CMSIS_DSP/FilteringFunctions/arm_correlate_fast_q15.c **** /* ----------------------------------------------------------------------   
   2:../Dave/Generated/CMSIS_DSP/FilteringFunctions/arm_correlate_fast_q15.c **** * Copyright (C) 2010-2014 ARM Limited. All rights reserved.   
   3:../Dave/Generated/CMSIS_DSP/FilteringFunctions/arm_correlate_fast_q15.c **** *   
   4:../Dave/Generated/CMSIS_DSP/FilteringFunctions/arm_correlate_fast_q15.c **** * $Date:        12. March 2014
   5:../Dave/Generated/CMSIS_DSP/FilteringFunctions/arm_correlate_fast_q15.c **** * $Revision: 	V1.4.4
   6:../Dave/Generated/CMSIS_DSP/FilteringFunctions/arm_correlate_fast_q15.c **** *   
   7:../Dave/Generated/CMSIS_DSP/FilteringFunctions/arm_correlate_fast_q15.c **** * Project: 	    CMSIS DSP Library   
   8:../Dave/Generated/CMSIS_DSP/FilteringFunctions/arm_correlate_fast_q15.c **** * Title:		arm_correlate_fast_q15.c   
   9:../Dave/Generated/CMSIS_DSP/FilteringFunctions/arm_correlate_fast_q15.c **** *   
  10:../Dave/Generated/CMSIS_DSP/FilteringFunctions/arm_correlate_fast_q15.c **** * Description:	Fast Q15 Correlation.   
  11:../Dave/Generated/CMSIS_DSP/FilteringFunctions/arm_correlate_fast_q15.c **** *   
  12:../Dave/Generated/CMSIS_DSP/FilteringFunctions/arm_correlate_fast_q15.c **** * Target Processor: Cortex-M4/Cortex-M3
  13:../Dave/Generated/CMSIS_DSP/FilteringFunctions/arm_correlate_fast_q15.c **** *  
  14:../Dave/Generated/CMSIS_DSP/FilteringFunctions/arm_correlate_fast_q15.c **** * Redistribution and use in source and binary forms, with or without 
  15:../Dave/Generated/CMSIS_DSP/FilteringFunctions/arm_correlate_fast_q15.c **** * modification, are permitted provided that the following conditions
  16:../Dave/Generated/CMSIS_DSP/FilteringFunctions/arm_correlate_fast_q15.c **** * are met:
  17:../Dave/Generated/CMSIS_DSP/FilteringFunctions/arm_correlate_fast_q15.c **** *   - Redistributions of source code must retain the above copyright
  18:../Dave/Generated/CMSIS_DSP/FilteringFunctions/arm_correlate_fast_q15.c **** *     notice, this list of conditions and the following disclaimer.
  19:../Dave/Generated/CMSIS_DSP/FilteringFunctions/arm_correlate_fast_q15.c **** *   - Redistributions in binary form must reproduce the above copyright
  20:../Dave/Generated/CMSIS_DSP/FilteringFunctions/arm_correlate_fast_q15.c **** *     notice, this list of conditions and the following disclaimer in
  21:../Dave/Generated/CMSIS_DSP/FilteringFunctions/arm_correlate_fast_q15.c **** *     the documentation and/or other materials provided with the 
  22:../Dave/Generated/CMSIS_DSP/FilteringFunctions/arm_correlate_fast_q15.c **** *     distribution.
  23:../Dave/Generated/CMSIS_DSP/FilteringFunctions/arm_correlate_fast_q15.c **** *   - Neither the name of ARM LIMITED nor the names of its contributors
  24:../Dave/Generated/CMSIS_DSP/FilteringFunctions/arm_correlate_fast_q15.c **** *     may be used to endorse or promote products derived from this
  25:../Dave/Generated/CMSIS_DSP/FilteringFunctions/arm_correlate_fast_q15.c **** *     software without specific prior written permission.
  26:../Dave/Generated/CMSIS_DSP/FilteringFunctions/arm_correlate_fast_q15.c **** *
  27:../Dave/Generated/CMSIS_DSP/FilteringFunctions/arm_correlate_fast_q15.c **** * THIS SOFTWARE IS PROVIDED BY THE COPYRIGHT HOLDERS AND CONTRIBUTORS
  28:../Dave/Generated/CMSIS_DSP/FilteringFunctions/arm_correlate_fast_q15.c **** * "AS IS" AND ANY EXPRESS OR IMPLIED WARRANTIES, INCLUDING, BUT NOT
  29:../Dave/Generated/CMSIS_DSP/FilteringFunctions/arm_correlate_fast_q15.c **** * LIMITED TO, THE IMPLIED WARRANTIES OF MERCHANTABILITY AND FITNESS
  30:../Dave/Generated/CMSIS_DSP/FilteringFunctions/arm_correlate_fast_q15.c **** * FOR A PARTICULAR PURPOSE ARE DISCLAIMED. IN NO EVENT SHALL THE 
  31:../Dave/Generated/CMSIS_DSP/FilteringFunctions/arm_correlate_fast_q15.c **** * COPYRIGHT OWNER OR CONTRIBUTORS BE LIABLE FOR ANY DIRECT, INDIRECT,
  32:../Dave/Generated/CMSIS_DSP/FilteringFunctions/arm_correlate_fast_q15.c **** * INCIDENTAL, SPECIAL, EXEMPLARY, OR CONSEQUENTIAL DAMAGES (INCLUDING,
  33:../Dave/Generated/CMSIS_DSP/FilteringFunctions/arm_correlate_fast_q15.c **** * BUT NOT LIMITED TO, PROCUREMENT OF SUBSTITUTE GOODS OR SERVICES;
  34:../Dave/Generated/CMSIS_DSP/FilteringFunctions/arm_correlate_fast_q15.c **** * LOSS OF USE, DATA, OR PROFITS; OR BUSINESS INTERRUPTION) HOWEVER
  35:../Dave/Generated/CMSIS_DSP/FilteringFunctions/arm_correlate_fast_q15.c **** * CAUSED AND ON ANY THEORY OF LIABILITY, WHETHER IN CONTRACT, STRICT
  36:../Dave/Generated/CMSIS_DSP/FilteringFunctions/arm_correlate_fast_q15.c **** * LIABILITY, OR TORT (INCLUDING NEGLIGENCE OR OTHERWISE) ARISING IN
  37:../Dave/Generated/CMSIS_DSP/FilteringFunctions/arm_correlate_fast_q15.c **** * ANY WAY OUT OF THE USE OF THIS SOFTWARE, EVEN IF ADVISED OF THE
  38:../Dave/Generated/CMSIS_DSP/FilteringFunctions/arm_correlate_fast_q15.c **** * POSSIBILITY OF SUCH DAMAGE.   
  39:../Dave/Generated/CMSIS_DSP/FilteringFunctions/arm_correlate_fast_q15.c **** * -------------------------------------------------------------------- */
  40:../Dave/Generated/CMSIS_DSP/FilteringFunctions/arm_correlate_fast_q15.c **** 
  41:../Dave/Generated/CMSIS_DSP/FilteringFunctions/arm_correlate_fast_q15.c **** #include "CMSIS_DSP/cmsis_dsp.h"
  42:../Dave/Generated/CMSIS_DSP/FilteringFunctions/arm_correlate_fast_q15.c **** 
  43:../Dave/Generated/CMSIS_DSP/FilteringFunctions/arm_correlate_fast_q15.c **** /**   
  44:../Dave/Generated/CMSIS_DSP/FilteringFunctions/arm_correlate_fast_q15.c ****  * @ingroup groupFilters   
  45:../Dave/Generated/CMSIS_DSP/FilteringFunctions/arm_correlate_fast_q15.c ****  */
  46:../Dave/Generated/CMSIS_DSP/FilteringFunctions/arm_correlate_fast_q15.c **** 
  47:../Dave/Generated/CMSIS_DSP/FilteringFunctions/arm_correlate_fast_q15.c **** /**   
  48:../Dave/Generated/CMSIS_DSP/FilteringFunctions/arm_correlate_fast_q15.c ****  * @addtogroup Corr   
  49:../Dave/Generated/CMSIS_DSP/FilteringFunctions/arm_correlate_fast_q15.c ****  * @{   
  50:../Dave/Generated/CMSIS_DSP/FilteringFunctions/arm_correlate_fast_q15.c ****  */
  51:../Dave/Generated/CMSIS_DSP/FilteringFunctions/arm_correlate_fast_q15.c **** 
  52:../Dave/Generated/CMSIS_DSP/FilteringFunctions/arm_correlate_fast_q15.c **** /**   
  53:../Dave/Generated/CMSIS_DSP/FilteringFunctions/arm_correlate_fast_q15.c ****  * @brief Correlation of Q15 sequences (fast version) for Cortex-M3 and Cortex-M4.   
  54:../Dave/Generated/CMSIS_DSP/FilteringFunctions/arm_correlate_fast_q15.c ****  * @param[in] *pSrcA points to the first input sequence.   
  55:../Dave/Generated/CMSIS_DSP/FilteringFunctions/arm_correlate_fast_q15.c ****  * @param[in] srcALen length of the first input sequence.   
  56:../Dave/Generated/CMSIS_DSP/FilteringFunctions/arm_correlate_fast_q15.c ****  * @param[in] *pSrcB points to the second input sequence.   
  57:../Dave/Generated/CMSIS_DSP/FilteringFunctions/arm_correlate_fast_q15.c ****  * @param[in] srcBLen length of the second input sequence.   
  58:../Dave/Generated/CMSIS_DSP/FilteringFunctions/arm_correlate_fast_q15.c ****  * @param[out] *pDst points to the location where the output result is written.  Length 2 * max(src
  59:../Dave/Generated/CMSIS_DSP/FilteringFunctions/arm_correlate_fast_q15.c ****  * @return none.   
  60:../Dave/Generated/CMSIS_DSP/FilteringFunctions/arm_correlate_fast_q15.c ****  *   
  61:../Dave/Generated/CMSIS_DSP/FilteringFunctions/arm_correlate_fast_q15.c ****  * <b>Scaling and Overflow Behavior:</b>   
  62:../Dave/Generated/CMSIS_DSP/FilteringFunctions/arm_correlate_fast_q15.c ****  *   
  63:../Dave/Generated/CMSIS_DSP/FilteringFunctions/arm_correlate_fast_q15.c ****  * \par   
  64:../Dave/Generated/CMSIS_DSP/FilteringFunctions/arm_correlate_fast_q15.c ****  * This fast version uses a 32-bit accumulator with 2.30 format.   
  65:../Dave/Generated/CMSIS_DSP/FilteringFunctions/arm_correlate_fast_q15.c ****  * The accumulator maintains full precision of the intermediate multiplication results but provides
  66:../Dave/Generated/CMSIS_DSP/FilteringFunctions/arm_correlate_fast_q15.c ****  * There is no saturation on intermediate additions.   
  67:../Dave/Generated/CMSIS_DSP/FilteringFunctions/arm_correlate_fast_q15.c ****  * Thus, if the accumulator overflows it wraps around and distorts the result.   
  68:../Dave/Generated/CMSIS_DSP/FilteringFunctions/arm_correlate_fast_q15.c ****  * The input signals should be scaled down to avoid intermediate overflows.   
  69:../Dave/Generated/CMSIS_DSP/FilteringFunctions/arm_correlate_fast_q15.c ****  * Scale down one of the inputs by 1/min(srcALen, srcBLen) to avoid overflow since a   
  70:../Dave/Generated/CMSIS_DSP/FilteringFunctions/arm_correlate_fast_q15.c ****  * maximum of min(srcALen, srcBLen) number of additions is carried internally.   
  71:../Dave/Generated/CMSIS_DSP/FilteringFunctions/arm_correlate_fast_q15.c ****  * The 2.30 accumulator is right shifted by 15 bits and then saturated to 1.15 format to yield the 
  72:../Dave/Generated/CMSIS_DSP/FilteringFunctions/arm_correlate_fast_q15.c ****  *   
  73:../Dave/Generated/CMSIS_DSP/FilteringFunctions/arm_correlate_fast_q15.c ****  * \par   
  74:../Dave/Generated/CMSIS_DSP/FilteringFunctions/arm_correlate_fast_q15.c ****  * See <code>arm_correlate_q15()</code> for a slower implementation of this function which uses a 6
  75:../Dave/Generated/CMSIS_DSP/FilteringFunctions/arm_correlate_fast_q15.c ****  */
  76:../Dave/Generated/CMSIS_DSP/FilteringFunctions/arm_correlate_fast_q15.c **** 
  77:../Dave/Generated/CMSIS_DSP/FilteringFunctions/arm_correlate_fast_q15.c **** void arm_correlate_fast_q15(
  78:../Dave/Generated/CMSIS_DSP/FilteringFunctions/arm_correlate_fast_q15.c ****   q15_t * pSrcA,
  79:../Dave/Generated/CMSIS_DSP/FilteringFunctions/arm_correlate_fast_q15.c ****   uint32_t srcALen,
  80:../Dave/Generated/CMSIS_DSP/FilteringFunctions/arm_correlate_fast_q15.c ****   q15_t * pSrcB,
  81:../Dave/Generated/CMSIS_DSP/FilteringFunctions/arm_correlate_fast_q15.c ****   uint32_t srcBLen,
  82:../Dave/Generated/CMSIS_DSP/FilteringFunctions/arm_correlate_fast_q15.c ****   q15_t * pDst)
  83:../Dave/Generated/CMSIS_DSP/FilteringFunctions/arm_correlate_fast_q15.c **** {
  28              	 .loc 1 83 0
  29              	 .cfi_startproc
  30              	 
  31              	 
  32              	 
  33 0000 90B4     	 push {r4,r7}
  34              	.LCFI0:
  35              	 .cfi_def_cfa_offset 8
  36              	 .cfi_offset 4,-8
  37              	 .cfi_offset 7,-4
  38 0002 ADF5167D 	 sub sp,sp,#600
  39              	.LCFI1:
  40              	 .cfi_def_cfa_offset 608
  41 0006 00AF     	 add r7,sp,#0
  42              	.LCFI2:
  43              	 .cfi_def_cfa_register 7
  44 0008 07F10C04 	 add r4,r7,#12
  45 000c 2060     	 str r0,[r4]
  46 000e 07F10800 	 add r0,r7,#8
  47 0012 0160     	 str r1,[r0]
  48 0014 391D     	 adds r1,r7,#4
  49 0016 0A60     	 str r2,[r1]
  50 0018 3A46     	 mov r2,r7
  51 001a 1360     	 str r3,[r2]
  84:../Dave/Generated/CMSIS_DSP/FilteringFunctions/arm_correlate_fast_q15.c **** #ifndef UNALIGNED_SUPPORT_DISABLE
  85:../Dave/Generated/CMSIS_DSP/FilteringFunctions/arm_correlate_fast_q15.c **** 
  86:../Dave/Generated/CMSIS_DSP/FilteringFunctions/arm_correlate_fast_q15.c ****   q15_t *pIn1;                                   /* inputA pointer               */
  87:../Dave/Generated/CMSIS_DSP/FilteringFunctions/arm_correlate_fast_q15.c ****   q15_t *pIn2;                                   /* inputB pointer               */
  88:../Dave/Generated/CMSIS_DSP/FilteringFunctions/arm_correlate_fast_q15.c ****   q15_t *pOut = pDst;                            /* output pointer               */
  52              	 .loc 1 88 0
  53 001c D7F86032 	 ldr r3,[r7,#608]
  54 0020 C7F84C32 	 str r3,[r7,#588]
  89:../Dave/Generated/CMSIS_DSP/FilteringFunctions/arm_correlate_fast_q15.c ****   q31_t sum, acc0, acc1, acc2, acc3;             /* Accumulators                  */
  90:../Dave/Generated/CMSIS_DSP/FilteringFunctions/arm_correlate_fast_q15.c ****   q15_t *px;                                     /* Intermediate inputA pointer  */
  91:../Dave/Generated/CMSIS_DSP/FilteringFunctions/arm_correlate_fast_q15.c ****   q15_t *py;                                     /* Intermediate inputB pointer  */
  92:../Dave/Generated/CMSIS_DSP/FilteringFunctions/arm_correlate_fast_q15.c ****   q15_t *pSrc1;                                  /* Intermediate pointers        */
  93:../Dave/Generated/CMSIS_DSP/FilteringFunctions/arm_correlate_fast_q15.c ****   q31_t x0, x1, x2, x3, c0;                      /* temporary variables for holding input and coeff
  94:../Dave/Generated/CMSIS_DSP/FilteringFunctions/arm_correlate_fast_q15.c ****   uint32_t j, k = 0u, count, blkCnt, outBlockSize, blockSize1, blockSize2, blockSize3;  /* loop cou
  55              	 .loc 1 94 0
  56 0024 0023     	 movs r3,#0
  57 0026 C7F82832 	 str r3,[r7,#552]
  95:../Dave/Generated/CMSIS_DSP/FilteringFunctions/arm_correlate_fast_q15.c ****   int32_t inc = 1;                               /* Destination address modifier */
  58              	 .loc 1 95 0
  59 002a 0123     	 movs r3,#1
  60 002c C7F81432 	 str r3,[r7,#532]
  96:../Dave/Generated/CMSIS_DSP/FilteringFunctions/arm_correlate_fast_q15.c **** 
  97:../Dave/Generated/CMSIS_DSP/FilteringFunctions/arm_correlate_fast_q15.c **** 
  98:../Dave/Generated/CMSIS_DSP/FilteringFunctions/arm_correlate_fast_q15.c ****   /* The algorithm implementation is based on the lengths of the inputs. */
  99:../Dave/Generated/CMSIS_DSP/FilteringFunctions/arm_correlate_fast_q15.c ****   /* srcB is always made to slide across srcA. */
 100:../Dave/Generated/CMSIS_DSP/FilteringFunctions/arm_correlate_fast_q15.c ****   /* So srcBLen is always considered as shorter or equal to srcALen */
 101:../Dave/Generated/CMSIS_DSP/FilteringFunctions/arm_correlate_fast_q15.c ****   /* But CORR(x, y) is reverse of CORR(y, x) */
 102:../Dave/Generated/CMSIS_DSP/FilteringFunctions/arm_correlate_fast_q15.c ****   /* So, when srcBLen > srcALen, output pointer is made to point to the end of the output buffer */
 103:../Dave/Generated/CMSIS_DSP/FilteringFunctions/arm_correlate_fast_q15.c ****   /* and the destination pointer modifier, inc is set to -1 */
 104:../Dave/Generated/CMSIS_DSP/FilteringFunctions/arm_correlate_fast_q15.c ****   /* If srcALen > srcBLen, zero pad has to be done to srcB to make the two inputs of same length */
 105:../Dave/Generated/CMSIS_DSP/FilteringFunctions/arm_correlate_fast_q15.c ****   /* But to improve the performance,   
 106:../Dave/Generated/CMSIS_DSP/FilteringFunctions/arm_correlate_fast_q15.c ****    * we include zeroes in the output instead of zero padding either of the the inputs*/
 107:../Dave/Generated/CMSIS_DSP/FilteringFunctions/arm_correlate_fast_q15.c ****   /* If srcALen > srcBLen,   
 108:../Dave/Generated/CMSIS_DSP/FilteringFunctions/arm_correlate_fast_q15.c ****    * (srcALen - srcBLen) zeroes has to included in the starting of the output buffer */
 109:../Dave/Generated/CMSIS_DSP/FilteringFunctions/arm_correlate_fast_q15.c ****   /* If srcALen < srcBLen,   
 110:../Dave/Generated/CMSIS_DSP/FilteringFunctions/arm_correlate_fast_q15.c ****    * (srcALen - srcBLen) zeroes has to included in the ending of the output buffer */
 111:../Dave/Generated/CMSIS_DSP/FilteringFunctions/arm_correlate_fast_q15.c ****   if(srcALen >= srcBLen)
  61              	 .loc 1 111 0
  62 0030 07F10802 	 add r2,r7,#8
  63 0034 3B46     	 mov r3,r7
  64 0036 1268     	 ldr r2,[r2]
  65 0038 1B68     	 ldr r3,[r3]
  66 003a 9A42     	 cmp r2,r3
  67 003c 24D3     	 bcc .L2
 112:../Dave/Generated/CMSIS_DSP/FilteringFunctions/arm_correlate_fast_q15.c ****   {
 113:../Dave/Generated/CMSIS_DSP/FilteringFunctions/arm_correlate_fast_q15.c ****     /* Initialization of inputA pointer */
 114:../Dave/Generated/CMSIS_DSP/FilteringFunctions/arm_correlate_fast_q15.c ****     pIn1 = (pSrcA);
  68              	 .loc 1 114 0
  69 003e 07F10C03 	 add r3,r7,#12
  70 0042 1B68     	 ldr r3,[r3]
  71 0044 C7F85432 	 str r3,[r7,#596]
 115:../Dave/Generated/CMSIS_DSP/FilteringFunctions/arm_correlate_fast_q15.c **** 
 116:../Dave/Generated/CMSIS_DSP/FilteringFunctions/arm_correlate_fast_q15.c ****     /* Initialization of inputB pointer */
 117:../Dave/Generated/CMSIS_DSP/FilteringFunctions/arm_correlate_fast_q15.c ****     pIn2 = (pSrcB);
  72              	 .loc 1 117 0
  73 0048 3B1D     	 adds r3,r7,#4
  74 004a 1B68     	 ldr r3,[r3]
  75 004c C7F85032 	 str r3,[r7,#592]
 118:../Dave/Generated/CMSIS_DSP/FilteringFunctions/arm_correlate_fast_q15.c **** 
 119:../Dave/Generated/CMSIS_DSP/FilteringFunctions/arm_correlate_fast_q15.c ****     /* Number of output samples is calculated */
 120:../Dave/Generated/CMSIS_DSP/FilteringFunctions/arm_correlate_fast_q15.c ****     outBlockSize = (2u * srcALen) - 1u;
  76              	 .loc 1 120 0
  77 0050 07F10803 	 add r3,r7,#8
  78 0054 1B68     	 ldr r3,[r3]
  79 0056 5B00     	 lsls r3,r3,#1
  80 0058 013B     	 subs r3,r3,#1
  81 005a C7F81032 	 str r3,[r7,#528]
 121:../Dave/Generated/CMSIS_DSP/FilteringFunctions/arm_correlate_fast_q15.c **** 
 122:../Dave/Generated/CMSIS_DSP/FilteringFunctions/arm_correlate_fast_q15.c ****     /* When srcALen > srcBLen, zero padding is done to srcB   
 123:../Dave/Generated/CMSIS_DSP/FilteringFunctions/arm_correlate_fast_q15.c ****      * to make their lengths equal.   
 124:../Dave/Generated/CMSIS_DSP/FilteringFunctions/arm_correlate_fast_q15.c ****      * Instead, (outBlockSize - (srcALen + srcBLen - 1))   
 125:../Dave/Generated/CMSIS_DSP/FilteringFunctions/arm_correlate_fast_q15.c ****      * number of output samples are made zero */
 126:../Dave/Generated/CMSIS_DSP/FilteringFunctions/arm_correlate_fast_q15.c ****     j = outBlockSize - (srcALen + (srcBLen - 1u));
  82              	 .loc 1 126 0
  83 005e 3A46     	 mov r2,r7
  84 0060 07F10803 	 add r3,r7,#8
  85 0064 1268     	 ldr r2,[r2]
  86 0066 1B68     	 ldr r3,[r3]
  87 0068 1344     	 add r3,r3,r2
  88 006a D7F81022 	 ldr r2,[r7,#528]
  89 006e D31A     	 subs r3,r2,r3
  90 0070 0133     	 adds r3,r3,#1
  91 0072 C7F80C32 	 str r3,[r7,#524]
 127:../Dave/Generated/CMSIS_DSP/FilteringFunctions/arm_correlate_fast_q15.c **** 
 128:../Dave/Generated/CMSIS_DSP/FilteringFunctions/arm_correlate_fast_q15.c ****     /* Updating the pointer position to non zero value */
 129:../Dave/Generated/CMSIS_DSP/FilteringFunctions/arm_correlate_fast_q15.c ****     pOut += j;
  92              	 .loc 1 129 0
  93 0076 D7F80C32 	 ldr r3,[r7,#524]
  94 007a 5B00     	 lsls r3,r3,#1
  95 007c D7F84C22 	 ldr r2,[r7,#588]
  96 0080 1344     	 add r3,r3,r2
  97 0082 C7F84C32 	 str r3,[r7,#588]
  98 0086 29E0     	 b .L3
  99              	.L2:
 130:../Dave/Generated/CMSIS_DSP/FilteringFunctions/arm_correlate_fast_q15.c **** 
 131:../Dave/Generated/CMSIS_DSP/FilteringFunctions/arm_correlate_fast_q15.c ****   }
 132:../Dave/Generated/CMSIS_DSP/FilteringFunctions/arm_correlate_fast_q15.c ****   else
 133:../Dave/Generated/CMSIS_DSP/FilteringFunctions/arm_correlate_fast_q15.c ****   {
 134:../Dave/Generated/CMSIS_DSP/FilteringFunctions/arm_correlate_fast_q15.c ****     /* Initialization of inputA pointer */
 135:../Dave/Generated/CMSIS_DSP/FilteringFunctions/arm_correlate_fast_q15.c ****     pIn1 = (pSrcB);
 100              	 .loc 1 135 0
 101 0088 3B1D     	 adds r3,r7,#4
 102 008a 1B68     	 ldr r3,[r3]
 103 008c C7F85432 	 str r3,[r7,#596]
 136:../Dave/Generated/CMSIS_DSP/FilteringFunctions/arm_correlate_fast_q15.c **** 
 137:../Dave/Generated/CMSIS_DSP/FilteringFunctions/arm_correlate_fast_q15.c ****     /* Initialization of inputB pointer */
 138:../Dave/Generated/CMSIS_DSP/FilteringFunctions/arm_correlate_fast_q15.c ****     pIn2 = (pSrcA);
 104              	 .loc 1 138 0
 105 0090 07F10C03 	 add r3,r7,#12
 106 0094 1B68     	 ldr r3,[r3]
 107 0096 C7F85032 	 str r3,[r7,#592]
 139:../Dave/Generated/CMSIS_DSP/FilteringFunctions/arm_correlate_fast_q15.c **** 
 140:../Dave/Generated/CMSIS_DSP/FilteringFunctions/arm_correlate_fast_q15.c ****     /* srcBLen is always considered as shorter or equal to srcALen */
 141:../Dave/Generated/CMSIS_DSP/FilteringFunctions/arm_correlate_fast_q15.c ****     j = srcBLen;
 108              	 .loc 1 141 0
 109 009a 3B46     	 mov r3,r7
 110 009c 1B68     	 ldr r3,[r3]
 111 009e C7F80C32 	 str r3,[r7,#524]
 142:../Dave/Generated/CMSIS_DSP/FilteringFunctions/arm_correlate_fast_q15.c ****     srcBLen = srcALen;
 112              	 .loc 1 142 0
 113 00a2 3B46     	 mov r3,r7
 114 00a4 07F10802 	 add r2,r7,#8
 115 00a8 1268     	 ldr r2,[r2]
 116 00aa 1A60     	 str r2,[r3]
 143:../Dave/Generated/CMSIS_DSP/FilteringFunctions/arm_correlate_fast_q15.c ****     srcALen = j;
 117              	 .loc 1 143 0
 118 00ac 07F10803 	 add r3,r7,#8
 119 00b0 D7F80C22 	 ldr r2,[r7,#524]
 120 00b4 1A60     	 str r2,[r3]
 144:../Dave/Generated/CMSIS_DSP/FilteringFunctions/arm_correlate_fast_q15.c **** 
 145:../Dave/Generated/CMSIS_DSP/FilteringFunctions/arm_correlate_fast_q15.c ****     /* CORR(x, y) = Reverse order(CORR(y, x)) */
 146:../Dave/Generated/CMSIS_DSP/FilteringFunctions/arm_correlate_fast_q15.c ****     /* Hence set the destination pointer to point to the last output sample */
 147:../Dave/Generated/CMSIS_DSP/FilteringFunctions/arm_correlate_fast_q15.c ****     pOut = pDst + ((srcALen + srcBLen) - 2u);
 121              	 .loc 1 147 0
 122 00b6 07F10802 	 add r2,r7,#8
 123 00ba 3B46     	 mov r3,r7
 124 00bc 1268     	 ldr r2,[r2]
 125 00be 1B68     	 ldr r3,[r3]
 126 00c0 1344     	 add r3,r3,r2
 127 00c2 03F10043 	 add r3,r3,#-2147483648
 128 00c6 023B     	 subs r3,r3,#2
 129 00c8 5B00     	 lsls r3,r3,#1
 130 00ca D7F86022 	 ldr r2,[r7,#608]
 131 00ce 1344     	 add r3,r3,r2
 132 00d0 C7F84C32 	 str r3,[r7,#588]
 148:../Dave/Generated/CMSIS_DSP/FilteringFunctions/arm_correlate_fast_q15.c **** 
 149:../Dave/Generated/CMSIS_DSP/FilteringFunctions/arm_correlate_fast_q15.c ****     /* Destination address modifier is set to -1 */
 150:../Dave/Generated/CMSIS_DSP/FilteringFunctions/arm_correlate_fast_q15.c ****     inc = -1;
 133              	 .loc 1 150 0
 134 00d4 4FF0FF33 	 mov r3,#-1
 135 00d8 C7F81432 	 str r3,[r7,#532]
 136              	.L3:
 151:../Dave/Generated/CMSIS_DSP/FilteringFunctions/arm_correlate_fast_q15.c **** 
 152:../Dave/Generated/CMSIS_DSP/FilteringFunctions/arm_correlate_fast_q15.c ****   }
 153:../Dave/Generated/CMSIS_DSP/FilteringFunctions/arm_correlate_fast_q15.c **** 
 154:../Dave/Generated/CMSIS_DSP/FilteringFunctions/arm_correlate_fast_q15.c ****   /* The function is internally   
 155:../Dave/Generated/CMSIS_DSP/FilteringFunctions/arm_correlate_fast_q15.c ****    * divided into three parts according to the number of multiplications that has to be   
 156:../Dave/Generated/CMSIS_DSP/FilteringFunctions/arm_correlate_fast_q15.c ****    * taken place between inputA samples and inputB samples. In the first part of the   
 157:../Dave/Generated/CMSIS_DSP/FilteringFunctions/arm_correlate_fast_q15.c ****    * algorithm, the multiplications increase by one for every iteration.   
 158:../Dave/Generated/CMSIS_DSP/FilteringFunctions/arm_correlate_fast_q15.c ****    * In the second part of the algorithm, srcBLen number of multiplications are done.   
 159:../Dave/Generated/CMSIS_DSP/FilteringFunctions/arm_correlate_fast_q15.c ****    * In the third part of the algorithm, the multiplications decrease by one   
 160:../Dave/Generated/CMSIS_DSP/FilteringFunctions/arm_correlate_fast_q15.c ****    * for every iteration.*/
 161:../Dave/Generated/CMSIS_DSP/FilteringFunctions/arm_correlate_fast_q15.c ****   /* The algorithm is implemented in three stages.   
 162:../Dave/Generated/CMSIS_DSP/FilteringFunctions/arm_correlate_fast_q15.c ****    * The loop counters of each stage is initiated here. */
 163:../Dave/Generated/CMSIS_DSP/FilteringFunctions/arm_correlate_fast_q15.c ****   blockSize1 = srcBLen - 1u;
 137              	 .loc 1 163 0
 138 00dc 3B46     	 mov r3,r7
 139 00de 1B68     	 ldr r3,[r3]
 140 00e0 013B     	 subs r3,r3,#1
 141 00e2 C7F81C32 	 str r3,[r7,#540]
 164:../Dave/Generated/CMSIS_DSP/FilteringFunctions/arm_correlate_fast_q15.c ****   blockSize2 = srcALen - (srcBLen - 1u);
 142              	 .loc 1 164 0
 143 00e6 07F10802 	 add r2,r7,#8
 144 00ea 3B46     	 mov r3,r7
 145 00ec 1268     	 ldr r2,[r2]
 146 00ee 1B68     	 ldr r3,[r3]
 147 00f0 D31A     	 subs r3,r2,r3
 148 00f2 0133     	 adds r3,r3,#1
 149 00f4 C7F80832 	 str r3,[r7,#520]
 165:../Dave/Generated/CMSIS_DSP/FilteringFunctions/arm_correlate_fast_q15.c ****   blockSize3 = blockSize1;
 150              	 .loc 1 165 0
 151 00f8 D7F81C32 	 ldr r3,[r7,#540]
 152 00fc C7F81832 	 str r3,[r7,#536]
 166:../Dave/Generated/CMSIS_DSP/FilteringFunctions/arm_correlate_fast_q15.c **** 
 167:../Dave/Generated/CMSIS_DSP/FilteringFunctions/arm_correlate_fast_q15.c ****   /* --------------------------   
 168:../Dave/Generated/CMSIS_DSP/FilteringFunctions/arm_correlate_fast_q15.c ****    * Initializations of stage1   
 169:../Dave/Generated/CMSIS_DSP/FilteringFunctions/arm_correlate_fast_q15.c ****    * -------------------------*/
 170:../Dave/Generated/CMSIS_DSP/FilteringFunctions/arm_correlate_fast_q15.c **** 
 171:../Dave/Generated/CMSIS_DSP/FilteringFunctions/arm_correlate_fast_q15.c ****   /* sum = x[0] * y[srcBlen - 1]   
 172:../Dave/Generated/CMSIS_DSP/FilteringFunctions/arm_correlate_fast_q15.c ****    * sum = x[0] * y[srcBlen - 2] + x[1] * y[srcBlen - 1]   
 173:../Dave/Generated/CMSIS_DSP/FilteringFunctions/arm_correlate_fast_q15.c ****    * ....   
 174:../Dave/Generated/CMSIS_DSP/FilteringFunctions/arm_correlate_fast_q15.c ****    * sum = x[0] * y[0] + x[1] * y[1] +...+ x[srcBLen - 1] * y[srcBLen - 1]   
 175:../Dave/Generated/CMSIS_DSP/FilteringFunctions/arm_correlate_fast_q15.c ****    */
 176:../Dave/Generated/CMSIS_DSP/FilteringFunctions/arm_correlate_fast_q15.c **** 
 177:../Dave/Generated/CMSIS_DSP/FilteringFunctions/arm_correlate_fast_q15.c ****   /* In this stage the MAC operations are increased by 1 for every iteration.   
 178:../Dave/Generated/CMSIS_DSP/FilteringFunctions/arm_correlate_fast_q15.c ****      The count variable holds the number of MAC operations performed */
 179:../Dave/Generated/CMSIS_DSP/FilteringFunctions/arm_correlate_fast_q15.c ****   count = 1u;
 153              	 .loc 1 179 0
 154 0100 0123     	 movs r3,#1
 155 0102 C7F82432 	 str r3,[r7,#548]
 180:../Dave/Generated/CMSIS_DSP/FilteringFunctions/arm_correlate_fast_q15.c **** 
 181:../Dave/Generated/CMSIS_DSP/FilteringFunctions/arm_correlate_fast_q15.c ****   /* Working pointer of inputA */
 182:../Dave/Generated/CMSIS_DSP/FilteringFunctions/arm_correlate_fast_q15.c ****   px = pIn1;
 156              	 .loc 1 182 0
 157 0106 07F11803 	 add r3,r7,#24
 158 010a D7F85422 	 ldr r2,[r7,#596]
 159 010e 1A60     	 str r2,[r3]
 183:../Dave/Generated/CMSIS_DSP/FilteringFunctions/arm_correlate_fast_q15.c **** 
 184:../Dave/Generated/CMSIS_DSP/FilteringFunctions/arm_correlate_fast_q15.c ****   /* Working pointer of inputB */
 185:../Dave/Generated/CMSIS_DSP/FilteringFunctions/arm_correlate_fast_q15.c ****   pSrc1 = pIn2 + (srcBLen - 1u);
 160              	 .loc 1 185 0
 161 0110 3B46     	 mov r3,r7
 162 0112 1B68     	 ldr r3,[r3]
 163 0114 03F10043 	 add r3,r3,#-2147483648
 164 0118 013B     	 subs r3,r3,#1
 165 011a 5B00     	 lsls r3,r3,#1
 166 011c D7F85022 	 ldr r2,[r7,#592]
 167 0120 1344     	 add r3,r3,r2
 168 0122 C7F83432 	 str r3,[r7,#564]
 186:../Dave/Generated/CMSIS_DSP/FilteringFunctions/arm_correlate_fast_q15.c ****   py = pSrc1;
 169              	 .loc 1 186 0
 170 0126 07F11403 	 add r3,r7,#20
 171 012a D7F83422 	 ldr r2,[r7,#564]
 172 012e 1A60     	 str r2,[r3]
 187:../Dave/Generated/CMSIS_DSP/FilteringFunctions/arm_correlate_fast_q15.c **** 
 188:../Dave/Generated/CMSIS_DSP/FilteringFunctions/arm_correlate_fast_q15.c ****   /* ------------------------   
 189:../Dave/Generated/CMSIS_DSP/FilteringFunctions/arm_correlate_fast_q15.c ****    * Stage1 process   
 190:../Dave/Generated/CMSIS_DSP/FilteringFunctions/arm_correlate_fast_q15.c ****    * ----------------------*/
 191:../Dave/Generated/CMSIS_DSP/FilteringFunctions/arm_correlate_fast_q15.c **** 
 192:../Dave/Generated/CMSIS_DSP/FilteringFunctions/arm_correlate_fast_q15.c ****   /* The first loop starts here */
 193:../Dave/Generated/CMSIS_DSP/FilteringFunctions/arm_correlate_fast_q15.c ****   while(blockSize1 > 0u)
 173              	 .loc 1 193 0
 174 0130 B9E0     	 b .L4
 175              	.L12:
 194:../Dave/Generated/CMSIS_DSP/FilteringFunctions/arm_correlate_fast_q15.c ****   {
 195:../Dave/Generated/CMSIS_DSP/FilteringFunctions/arm_correlate_fast_q15.c ****     /* Accumulator is made zero for every iteration */
 196:../Dave/Generated/CMSIS_DSP/FilteringFunctions/arm_correlate_fast_q15.c ****     sum = 0;
 176              	 .loc 1 196 0
 177 0132 0023     	 movs r3,#0
 178 0134 C7F84832 	 str r3,[r7,#584]
 197:../Dave/Generated/CMSIS_DSP/FilteringFunctions/arm_correlate_fast_q15.c **** 
 198:../Dave/Generated/CMSIS_DSP/FilteringFunctions/arm_correlate_fast_q15.c ****     /* Apply loop unrolling and compute 4 MACs simultaneously. */
 199:../Dave/Generated/CMSIS_DSP/FilteringFunctions/arm_correlate_fast_q15.c ****     k = count >> 2;
 179              	 .loc 1 199 0
 180 0138 D7F82432 	 ldr r3,[r7,#548]
 181 013c 9B08     	 lsrs r3,r3,#2
 182 013e C7F82832 	 str r3,[r7,#552]
 200:../Dave/Generated/CMSIS_DSP/FilteringFunctions/arm_correlate_fast_q15.c **** 
 201:../Dave/Generated/CMSIS_DSP/FilteringFunctions/arm_correlate_fast_q15.c ****     /* First part of the processing with loop unrolling.  Compute 4 MACs at a time.   
 202:../Dave/Generated/CMSIS_DSP/FilteringFunctions/arm_correlate_fast_q15.c ****      ** a second loop below computes MACs for the remaining 1 to 3 samples. */
 203:../Dave/Generated/CMSIS_DSP/FilteringFunctions/arm_correlate_fast_q15.c ****     while(k > 0u)
 183              	 .loc 1 203 0
 184 0142 4CE0     	 b .L5
 185              	.L8:
 204:../Dave/Generated/CMSIS_DSP/FilteringFunctions/arm_correlate_fast_q15.c ****     {
 205:../Dave/Generated/CMSIS_DSP/FilteringFunctions/arm_correlate_fast_q15.c ****       /* x[0] * y[srcBLen - 4] , x[1] * y[srcBLen - 3] */
 206:../Dave/Generated/CMSIS_DSP/FilteringFunctions/arm_correlate_fast_q15.c ****       sum = __SMLAD(*__SIMD32(px)++, *__SIMD32(py)++, sum);
 186              	 .loc 1 206 0
 187 0144 07F11802 	 add r2,r7,#24
 188 0148 1368     	 ldr r3,[r2]
 189 014a 191D     	 adds r1,r3,#4
 190 014c 1160     	 str r1,[r2]
 191 014e 1B68     	 ldr r3,[r3]
 192 0150 1846     	 mov r0,r3
 193 0152 07F11402 	 add r2,r7,#20
 194 0156 1368     	 ldr r3,[r2]
 195 0158 191D     	 adds r1,r3,#4
 196 015a 1160     	 str r1,[r2]
 197 015c 1B68     	 ldr r3,[r3]
 198 015e 1A46     	 mov r2,r3
 199 0160 D7F84832 	 ldr r3,[r7,#584]
 200 0164 C7F8F801 	 str r0,[r7,#504]
 201 0168 C7F8F421 	 str r2,[r7,#500]
 202 016c C7F8F031 	 str r3,[r7,#496]
 203              	.LBB62:
 204              	.LBB63:
 205              	 .file 2 "C:/Workspaces/DAVE-4.3/WS_2016_09_02/Flightcontroller_PWM_CopterRocks_Working/Libraries/CMSIS/Include/cmsis_gcc.h"
   1:C:/Workspaces/DAVE-4.3/WS_2016_09_02/Flightcontroller_PWM_CopterRocks_Working/Libraries/CMSIS/Include\cmsis_gcc.h **** /**************************************************************************//**
   2:C:/Workspaces/DAVE-4.3/WS_2016_09_02/Flightcontroller_PWM_CopterRocks_Working/Libraries/CMSIS/Include\cmsis_gcc.h ****  * @file     cmsis_gcc.h
   3:C:/Workspaces/DAVE-4.3/WS_2016_09_02/Flightcontroller_PWM_CopterRocks_Working/Libraries/CMSIS/Include\cmsis_gcc.h ****  * @brief    CMSIS Cortex-M Core Function/Instruction Header File
   4:C:/Workspaces/DAVE-4.3/WS_2016_09_02/Flightcontroller_PWM_CopterRocks_Working/Libraries/CMSIS/Include\cmsis_gcc.h ****  * @version  V4.30
   5:C:/Workspaces/DAVE-4.3/WS_2016_09_02/Flightcontroller_PWM_CopterRocks_Working/Libraries/CMSIS/Include\cmsis_gcc.h ****  * @date     20. October 2015
   6:C:/Workspaces/DAVE-4.3/WS_2016_09_02/Flightcontroller_PWM_CopterRocks_Working/Libraries/CMSIS/Include\cmsis_gcc.h ****  ******************************************************************************/
   7:C:/Workspaces/DAVE-4.3/WS_2016_09_02/Flightcontroller_PWM_CopterRocks_Working/Libraries/CMSIS/Include\cmsis_gcc.h **** /* Copyright (c) 2009 - 2015 ARM LIMITED
   8:C:/Workspaces/DAVE-4.3/WS_2016_09_02/Flightcontroller_PWM_CopterRocks_Working/Libraries/CMSIS/Include\cmsis_gcc.h **** 
   9:C:/Workspaces/DAVE-4.3/WS_2016_09_02/Flightcontroller_PWM_CopterRocks_Working/Libraries/CMSIS/Include\cmsis_gcc.h ****    All rights reserved.
  10:C:/Workspaces/DAVE-4.3/WS_2016_09_02/Flightcontroller_PWM_CopterRocks_Working/Libraries/CMSIS/Include\cmsis_gcc.h ****    Redistribution and use in source and binary forms, with or without
  11:C:/Workspaces/DAVE-4.3/WS_2016_09_02/Flightcontroller_PWM_CopterRocks_Working/Libraries/CMSIS/Include\cmsis_gcc.h ****    modification, are permitted provided that the following conditions are met:
  12:C:/Workspaces/DAVE-4.3/WS_2016_09_02/Flightcontroller_PWM_CopterRocks_Working/Libraries/CMSIS/Include\cmsis_gcc.h ****    - Redistributions of source code must retain the above copyright
  13:C:/Workspaces/DAVE-4.3/WS_2016_09_02/Flightcontroller_PWM_CopterRocks_Working/Libraries/CMSIS/Include\cmsis_gcc.h ****      notice, this list of conditions and the following disclaimer.
  14:C:/Workspaces/DAVE-4.3/WS_2016_09_02/Flightcontroller_PWM_CopterRocks_Working/Libraries/CMSIS/Include\cmsis_gcc.h ****    - Redistributions in binary form must reproduce the above copyright
  15:C:/Workspaces/DAVE-4.3/WS_2016_09_02/Flightcontroller_PWM_CopterRocks_Working/Libraries/CMSIS/Include\cmsis_gcc.h ****      notice, this list of conditions and the following disclaimer in the
  16:C:/Workspaces/DAVE-4.3/WS_2016_09_02/Flightcontroller_PWM_CopterRocks_Working/Libraries/CMSIS/Include\cmsis_gcc.h ****      documentation and/or other materials provided with the distribution.
  17:C:/Workspaces/DAVE-4.3/WS_2016_09_02/Flightcontroller_PWM_CopterRocks_Working/Libraries/CMSIS/Include\cmsis_gcc.h ****    - Neither the name of ARM nor the names of its contributors may be used
  18:C:/Workspaces/DAVE-4.3/WS_2016_09_02/Flightcontroller_PWM_CopterRocks_Working/Libraries/CMSIS/Include\cmsis_gcc.h ****      to endorse or promote products derived from this software without
  19:C:/Workspaces/DAVE-4.3/WS_2016_09_02/Flightcontroller_PWM_CopterRocks_Working/Libraries/CMSIS/Include\cmsis_gcc.h ****      specific prior written permission.
  20:C:/Workspaces/DAVE-4.3/WS_2016_09_02/Flightcontroller_PWM_CopterRocks_Working/Libraries/CMSIS/Include\cmsis_gcc.h ****    *
  21:C:/Workspaces/DAVE-4.3/WS_2016_09_02/Flightcontroller_PWM_CopterRocks_Working/Libraries/CMSIS/Include\cmsis_gcc.h ****    THIS SOFTWARE IS PROVIDED BY THE COPYRIGHT HOLDERS AND CONTRIBUTORS "AS IS"
  22:C:/Workspaces/DAVE-4.3/WS_2016_09_02/Flightcontroller_PWM_CopterRocks_Working/Libraries/CMSIS/Include\cmsis_gcc.h ****    AND ANY EXPRESS OR IMPLIED WARRANTIES, INCLUDING, BUT NOT LIMITED TO, THE
  23:C:/Workspaces/DAVE-4.3/WS_2016_09_02/Flightcontroller_PWM_CopterRocks_Working/Libraries/CMSIS/Include\cmsis_gcc.h ****    IMPLIED WARRANTIES OF MERCHANTABILITY AND FITNESS FOR A PARTICULAR PURPOSE
  24:C:/Workspaces/DAVE-4.3/WS_2016_09_02/Flightcontroller_PWM_CopterRocks_Working/Libraries/CMSIS/Include\cmsis_gcc.h ****    ARE DISCLAIMED. IN NO EVENT SHALL COPYRIGHT HOLDERS AND CONTRIBUTORS BE
  25:C:/Workspaces/DAVE-4.3/WS_2016_09_02/Flightcontroller_PWM_CopterRocks_Working/Libraries/CMSIS/Include\cmsis_gcc.h ****    LIABLE FOR ANY DIRECT, INDIRECT, INCIDENTAL, SPECIAL, EXEMPLARY, OR
  26:C:/Workspaces/DAVE-4.3/WS_2016_09_02/Flightcontroller_PWM_CopterRocks_Working/Libraries/CMSIS/Include\cmsis_gcc.h ****    CONSEQUENTIAL DAMAGES (INCLUDING, BUT NOT LIMITED TO, PROCUREMENT OF
  27:C:/Workspaces/DAVE-4.3/WS_2016_09_02/Flightcontroller_PWM_CopterRocks_Working/Libraries/CMSIS/Include\cmsis_gcc.h ****    SUBSTITUTE GOODS OR SERVICES; LOSS OF USE, DATA, OR PROFITS; OR BUSINESS
  28:C:/Workspaces/DAVE-4.3/WS_2016_09_02/Flightcontroller_PWM_CopterRocks_Working/Libraries/CMSIS/Include\cmsis_gcc.h ****    INTERRUPTION) HOWEVER CAUSED AND ON ANY THEORY OF LIABILITY, WHETHER IN
  29:C:/Workspaces/DAVE-4.3/WS_2016_09_02/Flightcontroller_PWM_CopterRocks_Working/Libraries/CMSIS/Include\cmsis_gcc.h ****    CONTRACT, STRICT LIABILITY, OR TORT (INCLUDING NEGLIGENCE OR OTHERWISE)
  30:C:/Workspaces/DAVE-4.3/WS_2016_09_02/Flightcontroller_PWM_CopterRocks_Working/Libraries/CMSIS/Include\cmsis_gcc.h ****    ARISING IN ANY WAY OUT OF THE USE OF THIS SOFTWARE, EVEN IF ADVISED OF THE
  31:C:/Workspaces/DAVE-4.3/WS_2016_09_02/Flightcontroller_PWM_CopterRocks_Working/Libraries/CMSIS/Include\cmsis_gcc.h ****    POSSIBILITY OF SUCH DAMAGE.
  32:C:/Workspaces/DAVE-4.3/WS_2016_09_02/Flightcontroller_PWM_CopterRocks_Working/Libraries/CMSIS/Include\cmsis_gcc.h ****    ---------------------------------------------------------------------------*/
  33:C:/Workspaces/DAVE-4.3/WS_2016_09_02/Flightcontroller_PWM_CopterRocks_Working/Libraries/CMSIS/Include\cmsis_gcc.h **** 
  34:C:/Workspaces/DAVE-4.3/WS_2016_09_02/Flightcontroller_PWM_CopterRocks_Working/Libraries/CMSIS/Include\cmsis_gcc.h **** 
  35:C:/Workspaces/DAVE-4.3/WS_2016_09_02/Flightcontroller_PWM_CopterRocks_Working/Libraries/CMSIS/Include\cmsis_gcc.h **** #ifndef __CMSIS_GCC_H
  36:C:/Workspaces/DAVE-4.3/WS_2016_09_02/Flightcontroller_PWM_CopterRocks_Working/Libraries/CMSIS/Include\cmsis_gcc.h **** #define __CMSIS_GCC_H
  37:C:/Workspaces/DAVE-4.3/WS_2016_09_02/Flightcontroller_PWM_CopterRocks_Working/Libraries/CMSIS/Include\cmsis_gcc.h **** 
  38:C:/Workspaces/DAVE-4.3/WS_2016_09_02/Flightcontroller_PWM_CopterRocks_Working/Libraries/CMSIS/Include\cmsis_gcc.h **** /* ignore some GCC warnings */
  39:C:/Workspaces/DAVE-4.3/WS_2016_09_02/Flightcontroller_PWM_CopterRocks_Working/Libraries/CMSIS/Include\cmsis_gcc.h **** #if defined ( __GNUC__ )
  40:C:/Workspaces/DAVE-4.3/WS_2016_09_02/Flightcontroller_PWM_CopterRocks_Working/Libraries/CMSIS/Include\cmsis_gcc.h **** #pragma GCC diagnostic push
  41:C:/Workspaces/DAVE-4.3/WS_2016_09_02/Flightcontroller_PWM_CopterRocks_Working/Libraries/CMSIS/Include\cmsis_gcc.h **** #pragma GCC diagnostic ignored "-Wsign-conversion"
  42:C:/Workspaces/DAVE-4.3/WS_2016_09_02/Flightcontroller_PWM_CopterRocks_Working/Libraries/CMSIS/Include\cmsis_gcc.h **** #pragma GCC diagnostic ignored "-Wconversion"
  43:C:/Workspaces/DAVE-4.3/WS_2016_09_02/Flightcontroller_PWM_CopterRocks_Working/Libraries/CMSIS/Include\cmsis_gcc.h **** #pragma GCC diagnostic ignored "-Wunused-parameter"
  44:C:/Workspaces/DAVE-4.3/WS_2016_09_02/Flightcontroller_PWM_CopterRocks_Working/Libraries/CMSIS/Include\cmsis_gcc.h **** #endif
  45:C:/Workspaces/DAVE-4.3/WS_2016_09_02/Flightcontroller_PWM_CopterRocks_Working/Libraries/CMSIS/Include\cmsis_gcc.h **** 
  46:C:/Workspaces/DAVE-4.3/WS_2016_09_02/Flightcontroller_PWM_CopterRocks_Working/Libraries/CMSIS/Include\cmsis_gcc.h **** 
  47:C:/Workspaces/DAVE-4.3/WS_2016_09_02/Flightcontroller_PWM_CopterRocks_Working/Libraries/CMSIS/Include\cmsis_gcc.h **** /* ###########################  Core Function Access  ########################### */
  48:C:/Workspaces/DAVE-4.3/WS_2016_09_02/Flightcontroller_PWM_CopterRocks_Working/Libraries/CMSIS/Include\cmsis_gcc.h **** /** \ingroup  CMSIS_Core_FunctionInterface
  49:C:/Workspaces/DAVE-4.3/WS_2016_09_02/Flightcontroller_PWM_CopterRocks_Working/Libraries/CMSIS/Include\cmsis_gcc.h ****     \defgroup CMSIS_Core_RegAccFunctions CMSIS Core Register Access Functions
  50:C:/Workspaces/DAVE-4.3/WS_2016_09_02/Flightcontroller_PWM_CopterRocks_Working/Libraries/CMSIS/Include\cmsis_gcc.h ****   @{
  51:C:/Workspaces/DAVE-4.3/WS_2016_09_02/Flightcontroller_PWM_CopterRocks_Working/Libraries/CMSIS/Include\cmsis_gcc.h ****  */
  52:C:/Workspaces/DAVE-4.3/WS_2016_09_02/Flightcontroller_PWM_CopterRocks_Working/Libraries/CMSIS/Include\cmsis_gcc.h **** 
  53:C:/Workspaces/DAVE-4.3/WS_2016_09_02/Flightcontroller_PWM_CopterRocks_Working/Libraries/CMSIS/Include\cmsis_gcc.h **** /**
  54:C:/Workspaces/DAVE-4.3/WS_2016_09_02/Flightcontroller_PWM_CopterRocks_Working/Libraries/CMSIS/Include\cmsis_gcc.h ****   \brief   Enable IRQ Interrupts
  55:C:/Workspaces/DAVE-4.3/WS_2016_09_02/Flightcontroller_PWM_CopterRocks_Working/Libraries/CMSIS/Include\cmsis_gcc.h ****   \details Enables IRQ interrupts by clearing the I-bit in the CPSR.
  56:C:/Workspaces/DAVE-4.3/WS_2016_09_02/Flightcontroller_PWM_CopterRocks_Working/Libraries/CMSIS/Include\cmsis_gcc.h ****            Can only be executed in Privileged modes.
  57:C:/Workspaces/DAVE-4.3/WS_2016_09_02/Flightcontroller_PWM_CopterRocks_Working/Libraries/CMSIS/Include\cmsis_gcc.h ****  */
  58:C:/Workspaces/DAVE-4.3/WS_2016_09_02/Flightcontroller_PWM_CopterRocks_Working/Libraries/CMSIS/Include\cmsis_gcc.h **** __attribute__( ( always_inline ) ) __STATIC_INLINE void __enable_irq(void)
  59:C:/Workspaces/DAVE-4.3/WS_2016_09_02/Flightcontroller_PWM_CopterRocks_Working/Libraries/CMSIS/Include\cmsis_gcc.h **** {
  60:C:/Workspaces/DAVE-4.3/WS_2016_09_02/Flightcontroller_PWM_CopterRocks_Working/Libraries/CMSIS/Include\cmsis_gcc.h ****   __ASM volatile ("cpsie i" : : : "memory");
  61:C:/Workspaces/DAVE-4.3/WS_2016_09_02/Flightcontroller_PWM_CopterRocks_Working/Libraries/CMSIS/Include\cmsis_gcc.h **** }
  62:C:/Workspaces/DAVE-4.3/WS_2016_09_02/Flightcontroller_PWM_CopterRocks_Working/Libraries/CMSIS/Include\cmsis_gcc.h **** 
  63:C:/Workspaces/DAVE-4.3/WS_2016_09_02/Flightcontroller_PWM_CopterRocks_Working/Libraries/CMSIS/Include\cmsis_gcc.h **** 
  64:C:/Workspaces/DAVE-4.3/WS_2016_09_02/Flightcontroller_PWM_CopterRocks_Working/Libraries/CMSIS/Include\cmsis_gcc.h **** /**
  65:C:/Workspaces/DAVE-4.3/WS_2016_09_02/Flightcontroller_PWM_CopterRocks_Working/Libraries/CMSIS/Include\cmsis_gcc.h ****   \brief   Disable IRQ Interrupts
  66:C:/Workspaces/DAVE-4.3/WS_2016_09_02/Flightcontroller_PWM_CopterRocks_Working/Libraries/CMSIS/Include\cmsis_gcc.h ****   \details Disables IRQ interrupts by setting the I-bit in the CPSR.
  67:C:/Workspaces/DAVE-4.3/WS_2016_09_02/Flightcontroller_PWM_CopterRocks_Working/Libraries/CMSIS/Include\cmsis_gcc.h ****   Can only be executed in Privileged modes.
  68:C:/Workspaces/DAVE-4.3/WS_2016_09_02/Flightcontroller_PWM_CopterRocks_Working/Libraries/CMSIS/Include\cmsis_gcc.h ****  */
  69:C:/Workspaces/DAVE-4.3/WS_2016_09_02/Flightcontroller_PWM_CopterRocks_Working/Libraries/CMSIS/Include\cmsis_gcc.h **** __attribute__( ( always_inline ) ) __STATIC_INLINE void __disable_irq(void)
  70:C:/Workspaces/DAVE-4.3/WS_2016_09_02/Flightcontroller_PWM_CopterRocks_Working/Libraries/CMSIS/Include\cmsis_gcc.h **** {
  71:C:/Workspaces/DAVE-4.3/WS_2016_09_02/Flightcontroller_PWM_CopterRocks_Working/Libraries/CMSIS/Include\cmsis_gcc.h ****   __ASM volatile ("cpsid i" : : : "memory");
  72:C:/Workspaces/DAVE-4.3/WS_2016_09_02/Flightcontroller_PWM_CopterRocks_Working/Libraries/CMSIS/Include\cmsis_gcc.h **** }
  73:C:/Workspaces/DAVE-4.3/WS_2016_09_02/Flightcontroller_PWM_CopterRocks_Working/Libraries/CMSIS/Include\cmsis_gcc.h **** 
  74:C:/Workspaces/DAVE-4.3/WS_2016_09_02/Flightcontroller_PWM_CopterRocks_Working/Libraries/CMSIS/Include\cmsis_gcc.h **** 
  75:C:/Workspaces/DAVE-4.3/WS_2016_09_02/Flightcontroller_PWM_CopterRocks_Working/Libraries/CMSIS/Include\cmsis_gcc.h **** /**
  76:C:/Workspaces/DAVE-4.3/WS_2016_09_02/Flightcontroller_PWM_CopterRocks_Working/Libraries/CMSIS/Include\cmsis_gcc.h ****   \brief   Get Control Register
  77:C:/Workspaces/DAVE-4.3/WS_2016_09_02/Flightcontroller_PWM_CopterRocks_Working/Libraries/CMSIS/Include\cmsis_gcc.h ****   \details Returns the content of the Control Register.
  78:C:/Workspaces/DAVE-4.3/WS_2016_09_02/Flightcontroller_PWM_CopterRocks_Working/Libraries/CMSIS/Include\cmsis_gcc.h ****   \return               Control Register value
  79:C:/Workspaces/DAVE-4.3/WS_2016_09_02/Flightcontroller_PWM_CopterRocks_Working/Libraries/CMSIS/Include\cmsis_gcc.h ****  */
  80:C:/Workspaces/DAVE-4.3/WS_2016_09_02/Flightcontroller_PWM_CopterRocks_Working/Libraries/CMSIS/Include\cmsis_gcc.h **** __attribute__( ( always_inline ) ) __STATIC_INLINE uint32_t __get_CONTROL(void)
  81:C:/Workspaces/DAVE-4.3/WS_2016_09_02/Flightcontroller_PWM_CopterRocks_Working/Libraries/CMSIS/Include\cmsis_gcc.h **** {
  82:C:/Workspaces/DAVE-4.3/WS_2016_09_02/Flightcontroller_PWM_CopterRocks_Working/Libraries/CMSIS/Include\cmsis_gcc.h ****   uint32_t result;
  83:C:/Workspaces/DAVE-4.3/WS_2016_09_02/Flightcontroller_PWM_CopterRocks_Working/Libraries/CMSIS/Include\cmsis_gcc.h **** 
  84:C:/Workspaces/DAVE-4.3/WS_2016_09_02/Flightcontroller_PWM_CopterRocks_Working/Libraries/CMSIS/Include\cmsis_gcc.h ****   __ASM volatile ("MRS %0, control" : "=r" (result) );
  85:C:/Workspaces/DAVE-4.3/WS_2016_09_02/Flightcontroller_PWM_CopterRocks_Working/Libraries/CMSIS/Include\cmsis_gcc.h ****   return(result);
  86:C:/Workspaces/DAVE-4.3/WS_2016_09_02/Flightcontroller_PWM_CopterRocks_Working/Libraries/CMSIS/Include\cmsis_gcc.h **** }
  87:C:/Workspaces/DAVE-4.3/WS_2016_09_02/Flightcontroller_PWM_CopterRocks_Working/Libraries/CMSIS/Include\cmsis_gcc.h **** 
  88:C:/Workspaces/DAVE-4.3/WS_2016_09_02/Flightcontroller_PWM_CopterRocks_Working/Libraries/CMSIS/Include\cmsis_gcc.h **** 
  89:C:/Workspaces/DAVE-4.3/WS_2016_09_02/Flightcontroller_PWM_CopterRocks_Working/Libraries/CMSIS/Include\cmsis_gcc.h **** /**
  90:C:/Workspaces/DAVE-4.3/WS_2016_09_02/Flightcontroller_PWM_CopterRocks_Working/Libraries/CMSIS/Include\cmsis_gcc.h ****   \brief   Set Control Register
  91:C:/Workspaces/DAVE-4.3/WS_2016_09_02/Flightcontroller_PWM_CopterRocks_Working/Libraries/CMSIS/Include\cmsis_gcc.h ****   \details Writes the given value to the Control Register.
  92:C:/Workspaces/DAVE-4.3/WS_2016_09_02/Flightcontroller_PWM_CopterRocks_Working/Libraries/CMSIS/Include\cmsis_gcc.h ****   \param [in]    control  Control Register value to set
  93:C:/Workspaces/DAVE-4.3/WS_2016_09_02/Flightcontroller_PWM_CopterRocks_Working/Libraries/CMSIS/Include\cmsis_gcc.h ****  */
  94:C:/Workspaces/DAVE-4.3/WS_2016_09_02/Flightcontroller_PWM_CopterRocks_Working/Libraries/CMSIS/Include\cmsis_gcc.h **** __attribute__( ( always_inline ) ) __STATIC_INLINE void __set_CONTROL(uint32_t control)
  95:C:/Workspaces/DAVE-4.3/WS_2016_09_02/Flightcontroller_PWM_CopterRocks_Working/Libraries/CMSIS/Include\cmsis_gcc.h **** {
  96:C:/Workspaces/DAVE-4.3/WS_2016_09_02/Flightcontroller_PWM_CopterRocks_Working/Libraries/CMSIS/Include\cmsis_gcc.h ****   __ASM volatile ("MSR control, %0" : : "r" (control) : "memory");
  97:C:/Workspaces/DAVE-4.3/WS_2016_09_02/Flightcontroller_PWM_CopterRocks_Working/Libraries/CMSIS/Include\cmsis_gcc.h **** }
  98:C:/Workspaces/DAVE-4.3/WS_2016_09_02/Flightcontroller_PWM_CopterRocks_Working/Libraries/CMSIS/Include\cmsis_gcc.h **** 
  99:C:/Workspaces/DAVE-4.3/WS_2016_09_02/Flightcontroller_PWM_CopterRocks_Working/Libraries/CMSIS/Include\cmsis_gcc.h **** 
 100:C:/Workspaces/DAVE-4.3/WS_2016_09_02/Flightcontroller_PWM_CopterRocks_Working/Libraries/CMSIS/Include\cmsis_gcc.h **** /**
 101:C:/Workspaces/DAVE-4.3/WS_2016_09_02/Flightcontroller_PWM_CopterRocks_Working/Libraries/CMSIS/Include\cmsis_gcc.h ****   \brief   Get IPSR Register
 102:C:/Workspaces/DAVE-4.3/WS_2016_09_02/Flightcontroller_PWM_CopterRocks_Working/Libraries/CMSIS/Include\cmsis_gcc.h ****   \details Returns the content of the IPSR Register.
 103:C:/Workspaces/DAVE-4.3/WS_2016_09_02/Flightcontroller_PWM_CopterRocks_Working/Libraries/CMSIS/Include\cmsis_gcc.h ****   \return               IPSR Register value
 104:C:/Workspaces/DAVE-4.3/WS_2016_09_02/Flightcontroller_PWM_CopterRocks_Working/Libraries/CMSIS/Include\cmsis_gcc.h ****  */
 105:C:/Workspaces/DAVE-4.3/WS_2016_09_02/Flightcontroller_PWM_CopterRocks_Working/Libraries/CMSIS/Include\cmsis_gcc.h **** __attribute__( ( always_inline ) ) __STATIC_INLINE uint32_t __get_IPSR(void)
 106:C:/Workspaces/DAVE-4.3/WS_2016_09_02/Flightcontroller_PWM_CopterRocks_Working/Libraries/CMSIS/Include\cmsis_gcc.h **** {
 107:C:/Workspaces/DAVE-4.3/WS_2016_09_02/Flightcontroller_PWM_CopterRocks_Working/Libraries/CMSIS/Include\cmsis_gcc.h ****   uint32_t result;
 108:C:/Workspaces/DAVE-4.3/WS_2016_09_02/Flightcontroller_PWM_CopterRocks_Working/Libraries/CMSIS/Include\cmsis_gcc.h **** 
 109:C:/Workspaces/DAVE-4.3/WS_2016_09_02/Flightcontroller_PWM_CopterRocks_Working/Libraries/CMSIS/Include\cmsis_gcc.h ****   __ASM volatile ("MRS %0, ipsr" : "=r" (result) );
 110:C:/Workspaces/DAVE-4.3/WS_2016_09_02/Flightcontroller_PWM_CopterRocks_Working/Libraries/CMSIS/Include\cmsis_gcc.h ****   return(result);
 111:C:/Workspaces/DAVE-4.3/WS_2016_09_02/Flightcontroller_PWM_CopterRocks_Working/Libraries/CMSIS/Include\cmsis_gcc.h **** }
 112:C:/Workspaces/DAVE-4.3/WS_2016_09_02/Flightcontroller_PWM_CopterRocks_Working/Libraries/CMSIS/Include\cmsis_gcc.h **** 
 113:C:/Workspaces/DAVE-4.3/WS_2016_09_02/Flightcontroller_PWM_CopterRocks_Working/Libraries/CMSIS/Include\cmsis_gcc.h **** 
 114:C:/Workspaces/DAVE-4.3/WS_2016_09_02/Flightcontroller_PWM_CopterRocks_Working/Libraries/CMSIS/Include\cmsis_gcc.h **** /**
 115:C:/Workspaces/DAVE-4.3/WS_2016_09_02/Flightcontroller_PWM_CopterRocks_Working/Libraries/CMSIS/Include\cmsis_gcc.h ****   \brief   Get APSR Register
 116:C:/Workspaces/DAVE-4.3/WS_2016_09_02/Flightcontroller_PWM_CopterRocks_Working/Libraries/CMSIS/Include\cmsis_gcc.h ****   \details Returns the content of the APSR Register.
 117:C:/Workspaces/DAVE-4.3/WS_2016_09_02/Flightcontroller_PWM_CopterRocks_Working/Libraries/CMSIS/Include\cmsis_gcc.h ****   \return               APSR Register value
 118:C:/Workspaces/DAVE-4.3/WS_2016_09_02/Flightcontroller_PWM_CopterRocks_Working/Libraries/CMSIS/Include\cmsis_gcc.h ****  */
 119:C:/Workspaces/DAVE-4.3/WS_2016_09_02/Flightcontroller_PWM_CopterRocks_Working/Libraries/CMSIS/Include\cmsis_gcc.h **** __attribute__( ( always_inline ) ) __STATIC_INLINE uint32_t __get_APSR(void)
 120:C:/Workspaces/DAVE-4.3/WS_2016_09_02/Flightcontroller_PWM_CopterRocks_Working/Libraries/CMSIS/Include\cmsis_gcc.h **** {
 121:C:/Workspaces/DAVE-4.3/WS_2016_09_02/Flightcontroller_PWM_CopterRocks_Working/Libraries/CMSIS/Include\cmsis_gcc.h ****   uint32_t result;
 122:C:/Workspaces/DAVE-4.3/WS_2016_09_02/Flightcontroller_PWM_CopterRocks_Working/Libraries/CMSIS/Include\cmsis_gcc.h **** 
 123:C:/Workspaces/DAVE-4.3/WS_2016_09_02/Flightcontroller_PWM_CopterRocks_Working/Libraries/CMSIS/Include\cmsis_gcc.h ****   __ASM volatile ("MRS %0, apsr" : "=r" (result) );
 124:C:/Workspaces/DAVE-4.3/WS_2016_09_02/Flightcontroller_PWM_CopterRocks_Working/Libraries/CMSIS/Include\cmsis_gcc.h ****   return(result);
 125:C:/Workspaces/DAVE-4.3/WS_2016_09_02/Flightcontroller_PWM_CopterRocks_Working/Libraries/CMSIS/Include\cmsis_gcc.h **** }
 126:C:/Workspaces/DAVE-4.3/WS_2016_09_02/Flightcontroller_PWM_CopterRocks_Working/Libraries/CMSIS/Include\cmsis_gcc.h **** 
 127:C:/Workspaces/DAVE-4.3/WS_2016_09_02/Flightcontroller_PWM_CopterRocks_Working/Libraries/CMSIS/Include\cmsis_gcc.h **** 
 128:C:/Workspaces/DAVE-4.3/WS_2016_09_02/Flightcontroller_PWM_CopterRocks_Working/Libraries/CMSIS/Include\cmsis_gcc.h **** /**
 129:C:/Workspaces/DAVE-4.3/WS_2016_09_02/Flightcontroller_PWM_CopterRocks_Working/Libraries/CMSIS/Include\cmsis_gcc.h ****   \brief   Get xPSR Register
 130:C:/Workspaces/DAVE-4.3/WS_2016_09_02/Flightcontroller_PWM_CopterRocks_Working/Libraries/CMSIS/Include\cmsis_gcc.h ****   \details Returns the content of the xPSR Register.
 131:C:/Workspaces/DAVE-4.3/WS_2016_09_02/Flightcontroller_PWM_CopterRocks_Working/Libraries/CMSIS/Include\cmsis_gcc.h **** 
 132:C:/Workspaces/DAVE-4.3/WS_2016_09_02/Flightcontroller_PWM_CopterRocks_Working/Libraries/CMSIS/Include\cmsis_gcc.h ****     \return               xPSR Register value
 133:C:/Workspaces/DAVE-4.3/WS_2016_09_02/Flightcontroller_PWM_CopterRocks_Working/Libraries/CMSIS/Include\cmsis_gcc.h ****  */
 134:C:/Workspaces/DAVE-4.3/WS_2016_09_02/Flightcontroller_PWM_CopterRocks_Working/Libraries/CMSIS/Include\cmsis_gcc.h **** __attribute__( ( always_inline ) ) __STATIC_INLINE uint32_t __get_xPSR(void)
 135:C:/Workspaces/DAVE-4.3/WS_2016_09_02/Flightcontroller_PWM_CopterRocks_Working/Libraries/CMSIS/Include\cmsis_gcc.h **** {
 136:C:/Workspaces/DAVE-4.3/WS_2016_09_02/Flightcontroller_PWM_CopterRocks_Working/Libraries/CMSIS/Include\cmsis_gcc.h ****   uint32_t result;
 137:C:/Workspaces/DAVE-4.3/WS_2016_09_02/Flightcontroller_PWM_CopterRocks_Working/Libraries/CMSIS/Include\cmsis_gcc.h **** 
 138:C:/Workspaces/DAVE-4.3/WS_2016_09_02/Flightcontroller_PWM_CopterRocks_Working/Libraries/CMSIS/Include\cmsis_gcc.h ****   __ASM volatile ("MRS %0, xpsr" : "=r" (result) );
 139:C:/Workspaces/DAVE-4.3/WS_2016_09_02/Flightcontroller_PWM_CopterRocks_Working/Libraries/CMSIS/Include\cmsis_gcc.h ****   return(result);
 140:C:/Workspaces/DAVE-4.3/WS_2016_09_02/Flightcontroller_PWM_CopterRocks_Working/Libraries/CMSIS/Include\cmsis_gcc.h **** }
 141:C:/Workspaces/DAVE-4.3/WS_2016_09_02/Flightcontroller_PWM_CopterRocks_Working/Libraries/CMSIS/Include\cmsis_gcc.h **** 
 142:C:/Workspaces/DAVE-4.3/WS_2016_09_02/Flightcontroller_PWM_CopterRocks_Working/Libraries/CMSIS/Include\cmsis_gcc.h **** 
 143:C:/Workspaces/DAVE-4.3/WS_2016_09_02/Flightcontroller_PWM_CopterRocks_Working/Libraries/CMSIS/Include\cmsis_gcc.h **** /**
 144:C:/Workspaces/DAVE-4.3/WS_2016_09_02/Flightcontroller_PWM_CopterRocks_Working/Libraries/CMSIS/Include\cmsis_gcc.h ****   \brief   Get Process Stack Pointer
 145:C:/Workspaces/DAVE-4.3/WS_2016_09_02/Flightcontroller_PWM_CopterRocks_Working/Libraries/CMSIS/Include\cmsis_gcc.h ****   \details Returns the current value of the Process Stack Pointer (PSP).
 146:C:/Workspaces/DAVE-4.3/WS_2016_09_02/Flightcontroller_PWM_CopterRocks_Working/Libraries/CMSIS/Include\cmsis_gcc.h ****   \return               PSP Register value
 147:C:/Workspaces/DAVE-4.3/WS_2016_09_02/Flightcontroller_PWM_CopterRocks_Working/Libraries/CMSIS/Include\cmsis_gcc.h ****  */
 148:C:/Workspaces/DAVE-4.3/WS_2016_09_02/Flightcontroller_PWM_CopterRocks_Working/Libraries/CMSIS/Include\cmsis_gcc.h **** __attribute__( ( always_inline ) ) __STATIC_INLINE uint32_t __get_PSP(void)
 149:C:/Workspaces/DAVE-4.3/WS_2016_09_02/Flightcontroller_PWM_CopterRocks_Working/Libraries/CMSIS/Include\cmsis_gcc.h **** {
 150:C:/Workspaces/DAVE-4.3/WS_2016_09_02/Flightcontroller_PWM_CopterRocks_Working/Libraries/CMSIS/Include\cmsis_gcc.h ****   register uint32_t result;
 151:C:/Workspaces/DAVE-4.3/WS_2016_09_02/Flightcontroller_PWM_CopterRocks_Working/Libraries/CMSIS/Include\cmsis_gcc.h **** 
 152:C:/Workspaces/DAVE-4.3/WS_2016_09_02/Flightcontroller_PWM_CopterRocks_Working/Libraries/CMSIS/Include\cmsis_gcc.h ****   __ASM volatile ("MRS %0, psp\n"  : "=r" (result) );
 153:C:/Workspaces/DAVE-4.3/WS_2016_09_02/Flightcontroller_PWM_CopterRocks_Working/Libraries/CMSIS/Include\cmsis_gcc.h ****   return(result);
 154:C:/Workspaces/DAVE-4.3/WS_2016_09_02/Flightcontroller_PWM_CopterRocks_Working/Libraries/CMSIS/Include\cmsis_gcc.h **** }
 155:C:/Workspaces/DAVE-4.3/WS_2016_09_02/Flightcontroller_PWM_CopterRocks_Working/Libraries/CMSIS/Include\cmsis_gcc.h **** 
 156:C:/Workspaces/DAVE-4.3/WS_2016_09_02/Flightcontroller_PWM_CopterRocks_Working/Libraries/CMSIS/Include\cmsis_gcc.h **** 
 157:C:/Workspaces/DAVE-4.3/WS_2016_09_02/Flightcontroller_PWM_CopterRocks_Working/Libraries/CMSIS/Include\cmsis_gcc.h **** /**
 158:C:/Workspaces/DAVE-4.3/WS_2016_09_02/Flightcontroller_PWM_CopterRocks_Working/Libraries/CMSIS/Include\cmsis_gcc.h ****   \brief   Set Process Stack Pointer
 159:C:/Workspaces/DAVE-4.3/WS_2016_09_02/Flightcontroller_PWM_CopterRocks_Working/Libraries/CMSIS/Include\cmsis_gcc.h ****   \details Assigns the given value to the Process Stack Pointer (PSP).
 160:C:/Workspaces/DAVE-4.3/WS_2016_09_02/Flightcontroller_PWM_CopterRocks_Working/Libraries/CMSIS/Include\cmsis_gcc.h ****   \param [in]    topOfProcStack  Process Stack Pointer value to set
 161:C:/Workspaces/DAVE-4.3/WS_2016_09_02/Flightcontroller_PWM_CopterRocks_Working/Libraries/CMSIS/Include\cmsis_gcc.h ****  */
 162:C:/Workspaces/DAVE-4.3/WS_2016_09_02/Flightcontroller_PWM_CopterRocks_Working/Libraries/CMSIS/Include\cmsis_gcc.h **** __attribute__( ( always_inline ) ) __STATIC_INLINE void __set_PSP(uint32_t topOfProcStack)
 163:C:/Workspaces/DAVE-4.3/WS_2016_09_02/Flightcontroller_PWM_CopterRocks_Working/Libraries/CMSIS/Include\cmsis_gcc.h **** {
 164:C:/Workspaces/DAVE-4.3/WS_2016_09_02/Flightcontroller_PWM_CopterRocks_Working/Libraries/CMSIS/Include\cmsis_gcc.h ****   __ASM volatile ("MSR psp, %0\n" : : "r" (topOfProcStack) : "sp");
 165:C:/Workspaces/DAVE-4.3/WS_2016_09_02/Flightcontroller_PWM_CopterRocks_Working/Libraries/CMSIS/Include\cmsis_gcc.h **** }
 166:C:/Workspaces/DAVE-4.3/WS_2016_09_02/Flightcontroller_PWM_CopterRocks_Working/Libraries/CMSIS/Include\cmsis_gcc.h **** 
 167:C:/Workspaces/DAVE-4.3/WS_2016_09_02/Flightcontroller_PWM_CopterRocks_Working/Libraries/CMSIS/Include\cmsis_gcc.h **** 
 168:C:/Workspaces/DAVE-4.3/WS_2016_09_02/Flightcontroller_PWM_CopterRocks_Working/Libraries/CMSIS/Include\cmsis_gcc.h **** /**
 169:C:/Workspaces/DAVE-4.3/WS_2016_09_02/Flightcontroller_PWM_CopterRocks_Working/Libraries/CMSIS/Include\cmsis_gcc.h ****   \brief   Get Main Stack Pointer
 170:C:/Workspaces/DAVE-4.3/WS_2016_09_02/Flightcontroller_PWM_CopterRocks_Working/Libraries/CMSIS/Include\cmsis_gcc.h ****   \details Returns the current value of the Main Stack Pointer (MSP).
 171:C:/Workspaces/DAVE-4.3/WS_2016_09_02/Flightcontroller_PWM_CopterRocks_Working/Libraries/CMSIS/Include\cmsis_gcc.h ****   \return               MSP Register value
 172:C:/Workspaces/DAVE-4.3/WS_2016_09_02/Flightcontroller_PWM_CopterRocks_Working/Libraries/CMSIS/Include\cmsis_gcc.h ****  */
 173:C:/Workspaces/DAVE-4.3/WS_2016_09_02/Flightcontroller_PWM_CopterRocks_Working/Libraries/CMSIS/Include\cmsis_gcc.h **** __attribute__( ( always_inline ) ) __STATIC_INLINE uint32_t __get_MSP(void)
 174:C:/Workspaces/DAVE-4.3/WS_2016_09_02/Flightcontroller_PWM_CopterRocks_Working/Libraries/CMSIS/Include\cmsis_gcc.h **** {
 175:C:/Workspaces/DAVE-4.3/WS_2016_09_02/Flightcontroller_PWM_CopterRocks_Working/Libraries/CMSIS/Include\cmsis_gcc.h ****   register uint32_t result;
 176:C:/Workspaces/DAVE-4.3/WS_2016_09_02/Flightcontroller_PWM_CopterRocks_Working/Libraries/CMSIS/Include\cmsis_gcc.h **** 
 177:C:/Workspaces/DAVE-4.3/WS_2016_09_02/Flightcontroller_PWM_CopterRocks_Working/Libraries/CMSIS/Include\cmsis_gcc.h ****   __ASM volatile ("MRS %0, msp\n" : "=r" (result) );
 178:C:/Workspaces/DAVE-4.3/WS_2016_09_02/Flightcontroller_PWM_CopterRocks_Working/Libraries/CMSIS/Include\cmsis_gcc.h ****   return(result);
 179:C:/Workspaces/DAVE-4.3/WS_2016_09_02/Flightcontroller_PWM_CopterRocks_Working/Libraries/CMSIS/Include\cmsis_gcc.h **** }
 180:C:/Workspaces/DAVE-4.3/WS_2016_09_02/Flightcontroller_PWM_CopterRocks_Working/Libraries/CMSIS/Include\cmsis_gcc.h **** 
 181:C:/Workspaces/DAVE-4.3/WS_2016_09_02/Flightcontroller_PWM_CopterRocks_Working/Libraries/CMSIS/Include\cmsis_gcc.h **** 
 182:C:/Workspaces/DAVE-4.3/WS_2016_09_02/Flightcontroller_PWM_CopterRocks_Working/Libraries/CMSIS/Include\cmsis_gcc.h **** /**
 183:C:/Workspaces/DAVE-4.3/WS_2016_09_02/Flightcontroller_PWM_CopterRocks_Working/Libraries/CMSIS/Include\cmsis_gcc.h ****   \brief   Set Main Stack Pointer
 184:C:/Workspaces/DAVE-4.3/WS_2016_09_02/Flightcontroller_PWM_CopterRocks_Working/Libraries/CMSIS/Include\cmsis_gcc.h ****   \details Assigns the given value to the Main Stack Pointer (MSP).
 185:C:/Workspaces/DAVE-4.3/WS_2016_09_02/Flightcontroller_PWM_CopterRocks_Working/Libraries/CMSIS/Include\cmsis_gcc.h **** 
 186:C:/Workspaces/DAVE-4.3/WS_2016_09_02/Flightcontroller_PWM_CopterRocks_Working/Libraries/CMSIS/Include\cmsis_gcc.h ****     \param [in]    topOfMainStack  Main Stack Pointer value to set
 187:C:/Workspaces/DAVE-4.3/WS_2016_09_02/Flightcontroller_PWM_CopterRocks_Working/Libraries/CMSIS/Include\cmsis_gcc.h ****  */
 188:C:/Workspaces/DAVE-4.3/WS_2016_09_02/Flightcontroller_PWM_CopterRocks_Working/Libraries/CMSIS/Include\cmsis_gcc.h **** __attribute__( ( always_inline ) ) __STATIC_INLINE void __set_MSP(uint32_t topOfMainStack)
 189:C:/Workspaces/DAVE-4.3/WS_2016_09_02/Flightcontroller_PWM_CopterRocks_Working/Libraries/CMSIS/Include\cmsis_gcc.h **** {
 190:C:/Workspaces/DAVE-4.3/WS_2016_09_02/Flightcontroller_PWM_CopterRocks_Working/Libraries/CMSIS/Include\cmsis_gcc.h ****   __ASM volatile ("MSR msp, %0\n" : : "r" (topOfMainStack) : "sp");
 191:C:/Workspaces/DAVE-4.3/WS_2016_09_02/Flightcontroller_PWM_CopterRocks_Working/Libraries/CMSIS/Include\cmsis_gcc.h **** }
 192:C:/Workspaces/DAVE-4.3/WS_2016_09_02/Flightcontroller_PWM_CopterRocks_Working/Libraries/CMSIS/Include\cmsis_gcc.h **** 
 193:C:/Workspaces/DAVE-4.3/WS_2016_09_02/Flightcontroller_PWM_CopterRocks_Working/Libraries/CMSIS/Include\cmsis_gcc.h **** 
 194:C:/Workspaces/DAVE-4.3/WS_2016_09_02/Flightcontroller_PWM_CopterRocks_Working/Libraries/CMSIS/Include\cmsis_gcc.h **** /**
 195:C:/Workspaces/DAVE-4.3/WS_2016_09_02/Flightcontroller_PWM_CopterRocks_Working/Libraries/CMSIS/Include\cmsis_gcc.h ****   \brief   Get Priority Mask
 196:C:/Workspaces/DAVE-4.3/WS_2016_09_02/Flightcontroller_PWM_CopterRocks_Working/Libraries/CMSIS/Include\cmsis_gcc.h ****   \details Returns the current state of the priority mask bit from the Priority Mask Register.
 197:C:/Workspaces/DAVE-4.3/WS_2016_09_02/Flightcontroller_PWM_CopterRocks_Working/Libraries/CMSIS/Include\cmsis_gcc.h ****   \return               Priority Mask value
 198:C:/Workspaces/DAVE-4.3/WS_2016_09_02/Flightcontroller_PWM_CopterRocks_Working/Libraries/CMSIS/Include\cmsis_gcc.h ****  */
 199:C:/Workspaces/DAVE-4.3/WS_2016_09_02/Flightcontroller_PWM_CopterRocks_Working/Libraries/CMSIS/Include\cmsis_gcc.h **** __attribute__( ( always_inline ) ) __STATIC_INLINE uint32_t __get_PRIMASK(void)
 200:C:/Workspaces/DAVE-4.3/WS_2016_09_02/Flightcontroller_PWM_CopterRocks_Working/Libraries/CMSIS/Include\cmsis_gcc.h **** {
 201:C:/Workspaces/DAVE-4.3/WS_2016_09_02/Flightcontroller_PWM_CopterRocks_Working/Libraries/CMSIS/Include\cmsis_gcc.h ****   uint32_t result;
 202:C:/Workspaces/DAVE-4.3/WS_2016_09_02/Flightcontroller_PWM_CopterRocks_Working/Libraries/CMSIS/Include\cmsis_gcc.h **** 
 203:C:/Workspaces/DAVE-4.3/WS_2016_09_02/Flightcontroller_PWM_CopterRocks_Working/Libraries/CMSIS/Include\cmsis_gcc.h ****   __ASM volatile ("MRS %0, primask" : "=r" (result) );
 204:C:/Workspaces/DAVE-4.3/WS_2016_09_02/Flightcontroller_PWM_CopterRocks_Working/Libraries/CMSIS/Include\cmsis_gcc.h ****   return(result);
 205:C:/Workspaces/DAVE-4.3/WS_2016_09_02/Flightcontroller_PWM_CopterRocks_Working/Libraries/CMSIS/Include\cmsis_gcc.h **** }
 206:C:/Workspaces/DAVE-4.3/WS_2016_09_02/Flightcontroller_PWM_CopterRocks_Working/Libraries/CMSIS/Include\cmsis_gcc.h **** 
 207:C:/Workspaces/DAVE-4.3/WS_2016_09_02/Flightcontroller_PWM_CopterRocks_Working/Libraries/CMSIS/Include\cmsis_gcc.h **** 
 208:C:/Workspaces/DAVE-4.3/WS_2016_09_02/Flightcontroller_PWM_CopterRocks_Working/Libraries/CMSIS/Include\cmsis_gcc.h **** /**
 209:C:/Workspaces/DAVE-4.3/WS_2016_09_02/Flightcontroller_PWM_CopterRocks_Working/Libraries/CMSIS/Include\cmsis_gcc.h ****   \brief   Set Priority Mask
 210:C:/Workspaces/DAVE-4.3/WS_2016_09_02/Flightcontroller_PWM_CopterRocks_Working/Libraries/CMSIS/Include\cmsis_gcc.h ****   \details Assigns the given value to the Priority Mask Register.
 211:C:/Workspaces/DAVE-4.3/WS_2016_09_02/Flightcontroller_PWM_CopterRocks_Working/Libraries/CMSIS/Include\cmsis_gcc.h ****   \param [in]    priMask  Priority Mask
 212:C:/Workspaces/DAVE-4.3/WS_2016_09_02/Flightcontroller_PWM_CopterRocks_Working/Libraries/CMSIS/Include\cmsis_gcc.h ****  */
 213:C:/Workspaces/DAVE-4.3/WS_2016_09_02/Flightcontroller_PWM_CopterRocks_Working/Libraries/CMSIS/Include\cmsis_gcc.h **** __attribute__( ( always_inline ) ) __STATIC_INLINE void __set_PRIMASK(uint32_t priMask)
 214:C:/Workspaces/DAVE-4.3/WS_2016_09_02/Flightcontroller_PWM_CopterRocks_Working/Libraries/CMSIS/Include\cmsis_gcc.h **** {
 215:C:/Workspaces/DAVE-4.3/WS_2016_09_02/Flightcontroller_PWM_CopterRocks_Working/Libraries/CMSIS/Include\cmsis_gcc.h ****   __ASM volatile ("MSR primask, %0" : : "r" (priMask) : "memory");
 216:C:/Workspaces/DAVE-4.3/WS_2016_09_02/Flightcontroller_PWM_CopterRocks_Working/Libraries/CMSIS/Include\cmsis_gcc.h **** }
 217:C:/Workspaces/DAVE-4.3/WS_2016_09_02/Flightcontroller_PWM_CopterRocks_Working/Libraries/CMSIS/Include\cmsis_gcc.h **** 
 218:C:/Workspaces/DAVE-4.3/WS_2016_09_02/Flightcontroller_PWM_CopterRocks_Working/Libraries/CMSIS/Include\cmsis_gcc.h **** 
 219:C:/Workspaces/DAVE-4.3/WS_2016_09_02/Flightcontroller_PWM_CopterRocks_Working/Libraries/CMSIS/Include\cmsis_gcc.h **** #if       (__CORTEX_M >= 0x03U)
 220:C:/Workspaces/DAVE-4.3/WS_2016_09_02/Flightcontroller_PWM_CopterRocks_Working/Libraries/CMSIS/Include\cmsis_gcc.h **** 
 221:C:/Workspaces/DAVE-4.3/WS_2016_09_02/Flightcontroller_PWM_CopterRocks_Working/Libraries/CMSIS/Include\cmsis_gcc.h **** /**
 222:C:/Workspaces/DAVE-4.3/WS_2016_09_02/Flightcontroller_PWM_CopterRocks_Working/Libraries/CMSIS/Include\cmsis_gcc.h ****   \brief   Enable FIQ
 223:C:/Workspaces/DAVE-4.3/WS_2016_09_02/Flightcontroller_PWM_CopterRocks_Working/Libraries/CMSIS/Include\cmsis_gcc.h ****   \details Enables FIQ interrupts by clearing the F-bit in the CPSR.
 224:C:/Workspaces/DAVE-4.3/WS_2016_09_02/Flightcontroller_PWM_CopterRocks_Working/Libraries/CMSIS/Include\cmsis_gcc.h ****            Can only be executed in Privileged modes.
 225:C:/Workspaces/DAVE-4.3/WS_2016_09_02/Flightcontroller_PWM_CopterRocks_Working/Libraries/CMSIS/Include\cmsis_gcc.h ****  */
 226:C:/Workspaces/DAVE-4.3/WS_2016_09_02/Flightcontroller_PWM_CopterRocks_Working/Libraries/CMSIS/Include\cmsis_gcc.h **** __attribute__( ( always_inline ) ) __STATIC_INLINE void __enable_fault_irq(void)
 227:C:/Workspaces/DAVE-4.3/WS_2016_09_02/Flightcontroller_PWM_CopterRocks_Working/Libraries/CMSIS/Include\cmsis_gcc.h **** {
 228:C:/Workspaces/DAVE-4.3/WS_2016_09_02/Flightcontroller_PWM_CopterRocks_Working/Libraries/CMSIS/Include\cmsis_gcc.h ****   __ASM volatile ("cpsie f" : : : "memory");
 229:C:/Workspaces/DAVE-4.3/WS_2016_09_02/Flightcontroller_PWM_CopterRocks_Working/Libraries/CMSIS/Include\cmsis_gcc.h **** }
 230:C:/Workspaces/DAVE-4.3/WS_2016_09_02/Flightcontroller_PWM_CopterRocks_Working/Libraries/CMSIS/Include\cmsis_gcc.h **** 
 231:C:/Workspaces/DAVE-4.3/WS_2016_09_02/Flightcontroller_PWM_CopterRocks_Working/Libraries/CMSIS/Include\cmsis_gcc.h **** 
 232:C:/Workspaces/DAVE-4.3/WS_2016_09_02/Flightcontroller_PWM_CopterRocks_Working/Libraries/CMSIS/Include\cmsis_gcc.h **** /**
 233:C:/Workspaces/DAVE-4.3/WS_2016_09_02/Flightcontroller_PWM_CopterRocks_Working/Libraries/CMSIS/Include\cmsis_gcc.h ****   \brief   Disable FIQ
 234:C:/Workspaces/DAVE-4.3/WS_2016_09_02/Flightcontroller_PWM_CopterRocks_Working/Libraries/CMSIS/Include\cmsis_gcc.h ****   \details Disables FIQ interrupts by setting the F-bit in the CPSR.
 235:C:/Workspaces/DAVE-4.3/WS_2016_09_02/Flightcontroller_PWM_CopterRocks_Working/Libraries/CMSIS/Include\cmsis_gcc.h ****            Can only be executed in Privileged modes.
 236:C:/Workspaces/DAVE-4.3/WS_2016_09_02/Flightcontroller_PWM_CopterRocks_Working/Libraries/CMSIS/Include\cmsis_gcc.h ****  */
 237:C:/Workspaces/DAVE-4.3/WS_2016_09_02/Flightcontroller_PWM_CopterRocks_Working/Libraries/CMSIS/Include\cmsis_gcc.h **** __attribute__( ( always_inline ) ) __STATIC_INLINE void __disable_fault_irq(void)
 238:C:/Workspaces/DAVE-4.3/WS_2016_09_02/Flightcontroller_PWM_CopterRocks_Working/Libraries/CMSIS/Include\cmsis_gcc.h **** {
 239:C:/Workspaces/DAVE-4.3/WS_2016_09_02/Flightcontroller_PWM_CopterRocks_Working/Libraries/CMSIS/Include\cmsis_gcc.h ****   __ASM volatile ("cpsid f" : : : "memory");
 240:C:/Workspaces/DAVE-4.3/WS_2016_09_02/Flightcontroller_PWM_CopterRocks_Working/Libraries/CMSIS/Include\cmsis_gcc.h **** }
 241:C:/Workspaces/DAVE-4.3/WS_2016_09_02/Flightcontroller_PWM_CopterRocks_Working/Libraries/CMSIS/Include\cmsis_gcc.h **** 
 242:C:/Workspaces/DAVE-4.3/WS_2016_09_02/Flightcontroller_PWM_CopterRocks_Working/Libraries/CMSIS/Include\cmsis_gcc.h **** 
 243:C:/Workspaces/DAVE-4.3/WS_2016_09_02/Flightcontroller_PWM_CopterRocks_Working/Libraries/CMSIS/Include\cmsis_gcc.h **** /**
 244:C:/Workspaces/DAVE-4.3/WS_2016_09_02/Flightcontroller_PWM_CopterRocks_Working/Libraries/CMSIS/Include\cmsis_gcc.h ****   \brief   Get Base Priority
 245:C:/Workspaces/DAVE-4.3/WS_2016_09_02/Flightcontroller_PWM_CopterRocks_Working/Libraries/CMSIS/Include\cmsis_gcc.h ****   \details Returns the current value of the Base Priority register.
 246:C:/Workspaces/DAVE-4.3/WS_2016_09_02/Flightcontroller_PWM_CopterRocks_Working/Libraries/CMSIS/Include\cmsis_gcc.h ****   \return               Base Priority register value
 247:C:/Workspaces/DAVE-4.3/WS_2016_09_02/Flightcontroller_PWM_CopterRocks_Working/Libraries/CMSIS/Include\cmsis_gcc.h ****  */
 248:C:/Workspaces/DAVE-4.3/WS_2016_09_02/Flightcontroller_PWM_CopterRocks_Working/Libraries/CMSIS/Include\cmsis_gcc.h **** __attribute__( ( always_inline ) ) __STATIC_INLINE uint32_t __get_BASEPRI(void)
 249:C:/Workspaces/DAVE-4.3/WS_2016_09_02/Flightcontroller_PWM_CopterRocks_Working/Libraries/CMSIS/Include\cmsis_gcc.h **** {
 250:C:/Workspaces/DAVE-4.3/WS_2016_09_02/Flightcontroller_PWM_CopterRocks_Working/Libraries/CMSIS/Include\cmsis_gcc.h ****   uint32_t result;
 251:C:/Workspaces/DAVE-4.3/WS_2016_09_02/Flightcontroller_PWM_CopterRocks_Working/Libraries/CMSIS/Include\cmsis_gcc.h **** 
 252:C:/Workspaces/DAVE-4.3/WS_2016_09_02/Flightcontroller_PWM_CopterRocks_Working/Libraries/CMSIS/Include\cmsis_gcc.h ****   __ASM volatile ("MRS %0, basepri" : "=r" (result) );
 253:C:/Workspaces/DAVE-4.3/WS_2016_09_02/Flightcontroller_PWM_CopterRocks_Working/Libraries/CMSIS/Include\cmsis_gcc.h ****   return(result);
 254:C:/Workspaces/DAVE-4.3/WS_2016_09_02/Flightcontroller_PWM_CopterRocks_Working/Libraries/CMSIS/Include\cmsis_gcc.h **** }
 255:C:/Workspaces/DAVE-4.3/WS_2016_09_02/Flightcontroller_PWM_CopterRocks_Working/Libraries/CMSIS/Include\cmsis_gcc.h **** 
 256:C:/Workspaces/DAVE-4.3/WS_2016_09_02/Flightcontroller_PWM_CopterRocks_Working/Libraries/CMSIS/Include\cmsis_gcc.h **** 
 257:C:/Workspaces/DAVE-4.3/WS_2016_09_02/Flightcontroller_PWM_CopterRocks_Working/Libraries/CMSIS/Include\cmsis_gcc.h **** /**
 258:C:/Workspaces/DAVE-4.3/WS_2016_09_02/Flightcontroller_PWM_CopterRocks_Working/Libraries/CMSIS/Include\cmsis_gcc.h ****   \brief   Set Base Priority
 259:C:/Workspaces/DAVE-4.3/WS_2016_09_02/Flightcontroller_PWM_CopterRocks_Working/Libraries/CMSIS/Include\cmsis_gcc.h ****   \details Assigns the given value to the Base Priority register.
 260:C:/Workspaces/DAVE-4.3/WS_2016_09_02/Flightcontroller_PWM_CopterRocks_Working/Libraries/CMSIS/Include\cmsis_gcc.h ****   \param [in]    basePri  Base Priority value to set
 261:C:/Workspaces/DAVE-4.3/WS_2016_09_02/Flightcontroller_PWM_CopterRocks_Working/Libraries/CMSIS/Include\cmsis_gcc.h ****  */
 262:C:/Workspaces/DAVE-4.3/WS_2016_09_02/Flightcontroller_PWM_CopterRocks_Working/Libraries/CMSIS/Include\cmsis_gcc.h **** __attribute__( ( always_inline ) ) __STATIC_INLINE void __set_BASEPRI(uint32_t value)
 263:C:/Workspaces/DAVE-4.3/WS_2016_09_02/Flightcontroller_PWM_CopterRocks_Working/Libraries/CMSIS/Include\cmsis_gcc.h **** {
 264:C:/Workspaces/DAVE-4.3/WS_2016_09_02/Flightcontroller_PWM_CopterRocks_Working/Libraries/CMSIS/Include\cmsis_gcc.h ****   __ASM volatile ("MSR basepri, %0" : : "r" (value) : "memory");
 265:C:/Workspaces/DAVE-4.3/WS_2016_09_02/Flightcontroller_PWM_CopterRocks_Working/Libraries/CMSIS/Include\cmsis_gcc.h **** }
 266:C:/Workspaces/DAVE-4.3/WS_2016_09_02/Flightcontroller_PWM_CopterRocks_Working/Libraries/CMSIS/Include\cmsis_gcc.h **** 
 267:C:/Workspaces/DAVE-4.3/WS_2016_09_02/Flightcontroller_PWM_CopterRocks_Working/Libraries/CMSIS/Include\cmsis_gcc.h **** 
 268:C:/Workspaces/DAVE-4.3/WS_2016_09_02/Flightcontroller_PWM_CopterRocks_Working/Libraries/CMSIS/Include\cmsis_gcc.h **** /**
 269:C:/Workspaces/DAVE-4.3/WS_2016_09_02/Flightcontroller_PWM_CopterRocks_Working/Libraries/CMSIS/Include\cmsis_gcc.h ****   \brief   Set Base Priority with condition
 270:C:/Workspaces/DAVE-4.3/WS_2016_09_02/Flightcontroller_PWM_CopterRocks_Working/Libraries/CMSIS/Include\cmsis_gcc.h ****   \details Assigns the given value to the Base Priority register only if BASEPRI masking is disable
 271:C:/Workspaces/DAVE-4.3/WS_2016_09_02/Flightcontroller_PWM_CopterRocks_Working/Libraries/CMSIS/Include\cmsis_gcc.h ****            or the new value increases the BASEPRI priority level.
 272:C:/Workspaces/DAVE-4.3/WS_2016_09_02/Flightcontroller_PWM_CopterRocks_Working/Libraries/CMSIS/Include\cmsis_gcc.h ****   \param [in]    basePri  Base Priority value to set
 273:C:/Workspaces/DAVE-4.3/WS_2016_09_02/Flightcontroller_PWM_CopterRocks_Working/Libraries/CMSIS/Include\cmsis_gcc.h ****  */
 274:C:/Workspaces/DAVE-4.3/WS_2016_09_02/Flightcontroller_PWM_CopterRocks_Working/Libraries/CMSIS/Include\cmsis_gcc.h **** __attribute__( ( always_inline ) ) __STATIC_INLINE void __set_BASEPRI_MAX(uint32_t value)
 275:C:/Workspaces/DAVE-4.3/WS_2016_09_02/Flightcontroller_PWM_CopterRocks_Working/Libraries/CMSIS/Include\cmsis_gcc.h **** {
 276:C:/Workspaces/DAVE-4.3/WS_2016_09_02/Flightcontroller_PWM_CopterRocks_Working/Libraries/CMSIS/Include\cmsis_gcc.h ****   __ASM volatile ("MSR basepri_max, %0" : : "r" (value) : "memory");
 277:C:/Workspaces/DAVE-4.3/WS_2016_09_02/Flightcontroller_PWM_CopterRocks_Working/Libraries/CMSIS/Include\cmsis_gcc.h **** }
 278:C:/Workspaces/DAVE-4.3/WS_2016_09_02/Flightcontroller_PWM_CopterRocks_Working/Libraries/CMSIS/Include\cmsis_gcc.h **** 
 279:C:/Workspaces/DAVE-4.3/WS_2016_09_02/Flightcontroller_PWM_CopterRocks_Working/Libraries/CMSIS/Include\cmsis_gcc.h **** 
 280:C:/Workspaces/DAVE-4.3/WS_2016_09_02/Flightcontroller_PWM_CopterRocks_Working/Libraries/CMSIS/Include\cmsis_gcc.h **** /**
 281:C:/Workspaces/DAVE-4.3/WS_2016_09_02/Flightcontroller_PWM_CopterRocks_Working/Libraries/CMSIS/Include\cmsis_gcc.h ****   \brief   Get Fault Mask
 282:C:/Workspaces/DAVE-4.3/WS_2016_09_02/Flightcontroller_PWM_CopterRocks_Working/Libraries/CMSIS/Include\cmsis_gcc.h ****   \details Returns the current value of the Fault Mask register.
 283:C:/Workspaces/DAVE-4.3/WS_2016_09_02/Flightcontroller_PWM_CopterRocks_Working/Libraries/CMSIS/Include\cmsis_gcc.h ****   \return               Fault Mask register value
 284:C:/Workspaces/DAVE-4.3/WS_2016_09_02/Flightcontroller_PWM_CopterRocks_Working/Libraries/CMSIS/Include\cmsis_gcc.h ****  */
 285:C:/Workspaces/DAVE-4.3/WS_2016_09_02/Flightcontroller_PWM_CopterRocks_Working/Libraries/CMSIS/Include\cmsis_gcc.h **** __attribute__( ( always_inline ) ) __STATIC_INLINE uint32_t __get_FAULTMASK(void)
 286:C:/Workspaces/DAVE-4.3/WS_2016_09_02/Flightcontroller_PWM_CopterRocks_Working/Libraries/CMSIS/Include\cmsis_gcc.h **** {
 287:C:/Workspaces/DAVE-4.3/WS_2016_09_02/Flightcontroller_PWM_CopterRocks_Working/Libraries/CMSIS/Include\cmsis_gcc.h ****   uint32_t result;
 288:C:/Workspaces/DAVE-4.3/WS_2016_09_02/Flightcontroller_PWM_CopterRocks_Working/Libraries/CMSIS/Include\cmsis_gcc.h **** 
 289:C:/Workspaces/DAVE-4.3/WS_2016_09_02/Flightcontroller_PWM_CopterRocks_Working/Libraries/CMSIS/Include\cmsis_gcc.h ****   __ASM volatile ("MRS %0, faultmask" : "=r" (result) );
 290:C:/Workspaces/DAVE-4.3/WS_2016_09_02/Flightcontroller_PWM_CopterRocks_Working/Libraries/CMSIS/Include\cmsis_gcc.h ****   return(result);
 291:C:/Workspaces/DAVE-4.3/WS_2016_09_02/Flightcontroller_PWM_CopterRocks_Working/Libraries/CMSIS/Include\cmsis_gcc.h **** }
 292:C:/Workspaces/DAVE-4.3/WS_2016_09_02/Flightcontroller_PWM_CopterRocks_Working/Libraries/CMSIS/Include\cmsis_gcc.h **** 
 293:C:/Workspaces/DAVE-4.3/WS_2016_09_02/Flightcontroller_PWM_CopterRocks_Working/Libraries/CMSIS/Include\cmsis_gcc.h **** 
 294:C:/Workspaces/DAVE-4.3/WS_2016_09_02/Flightcontroller_PWM_CopterRocks_Working/Libraries/CMSIS/Include\cmsis_gcc.h **** /**
 295:C:/Workspaces/DAVE-4.3/WS_2016_09_02/Flightcontroller_PWM_CopterRocks_Working/Libraries/CMSIS/Include\cmsis_gcc.h ****   \brief   Set Fault Mask
 296:C:/Workspaces/DAVE-4.3/WS_2016_09_02/Flightcontroller_PWM_CopterRocks_Working/Libraries/CMSIS/Include\cmsis_gcc.h ****   \details Assigns the given value to the Fault Mask register.
 297:C:/Workspaces/DAVE-4.3/WS_2016_09_02/Flightcontroller_PWM_CopterRocks_Working/Libraries/CMSIS/Include\cmsis_gcc.h ****   \param [in]    faultMask  Fault Mask value to set
 298:C:/Workspaces/DAVE-4.3/WS_2016_09_02/Flightcontroller_PWM_CopterRocks_Working/Libraries/CMSIS/Include\cmsis_gcc.h ****  */
 299:C:/Workspaces/DAVE-4.3/WS_2016_09_02/Flightcontroller_PWM_CopterRocks_Working/Libraries/CMSIS/Include\cmsis_gcc.h **** __attribute__( ( always_inline ) ) __STATIC_INLINE void __set_FAULTMASK(uint32_t faultMask)
 300:C:/Workspaces/DAVE-4.3/WS_2016_09_02/Flightcontroller_PWM_CopterRocks_Working/Libraries/CMSIS/Include\cmsis_gcc.h **** {
 301:C:/Workspaces/DAVE-4.3/WS_2016_09_02/Flightcontroller_PWM_CopterRocks_Working/Libraries/CMSIS/Include\cmsis_gcc.h ****   __ASM volatile ("MSR faultmask, %0" : : "r" (faultMask) : "memory");
 302:C:/Workspaces/DAVE-4.3/WS_2016_09_02/Flightcontroller_PWM_CopterRocks_Working/Libraries/CMSIS/Include\cmsis_gcc.h **** }
 303:C:/Workspaces/DAVE-4.3/WS_2016_09_02/Flightcontroller_PWM_CopterRocks_Working/Libraries/CMSIS/Include\cmsis_gcc.h **** 
 304:C:/Workspaces/DAVE-4.3/WS_2016_09_02/Flightcontroller_PWM_CopterRocks_Working/Libraries/CMSIS/Include\cmsis_gcc.h **** #endif /* (__CORTEX_M >= 0x03U) */
 305:C:/Workspaces/DAVE-4.3/WS_2016_09_02/Flightcontroller_PWM_CopterRocks_Working/Libraries/CMSIS/Include\cmsis_gcc.h **** 
 306:C:/Workspaces/DAVE-4.3/WS_2016_09_02/Flightcontroller_PWM_CopterRocks_Working/Libraries/CMSIS/Include\cmsis_gcc.h **** 
 307:C:/Workspaces/DAVE-4.3/WS_2016_09_02/Flightcontroller_PWM_CopterRocks_Working/Libraries/CMSIS/Include\cmsis_gcc.h **** #if       (__CORTEX_M == 0x04U) || (__CORTEX_M == 0x07U)
 308:C:/Workspaces/DAVE-4.3/WS_2016_09_02/Flightcontroller_PWM_CopterRocks_Working/Libraries/CMSIS/Include\cmsis_gcc.h **** 
 309:C:/Workspaces/DAVE-4.3/WS_2016_09_02/Flightcontroller_PWM_CopterRocks_Working/Libraries/CMSIS/Include\cmsis_gcc.h **** /**
 310:C:/Workspaces/DAVE-4.3/WS_2016_09_02/Flightcontroller_PWM_CopterRocks_Working/Libraries/CMSIS/Include\cmsis_gcc.h ****   \brief   Get FPSCR
 311:C:/Workspaces/DAVE-4.3/WS_2016_09_02/Flightcontroller_PWM_CopterRocks_Working/Libraries/CMSIS/Include\cmsis_gcc.h ****   \details Returns the current value of the Floating Point Status/Control register.
 312:C:/Workspaces/DAVE-4.3/WS_2016_09_02/Flightcontroller_PWM_CopterRocks_Working/Libraries/CMSIS/Include\cmsis_gcc.h ****   \return               Floating Point Status/Control register value
 313:C:/Workspaces/DAVE-4.3/WS_2016_09_02/Flightcontroller_PWM_CopterRocks_Working/Libraries/CMSIS/Include\cmsis_gcc.h ****  */
 314:C:/Workspaces/DAVE-4.3/WS_2016_09_02/Flightcontroller_PWM_CopterRocks_Working/Libraries/CMSIS/Include\cmsis_gcc.h **** __attribute__( ( always_inline ) ) __STATIC_INLINE uint32_t __get_FPSCR(void)
 315:C:/Workspaces/DAVE-4.3/WS_2016_09_02/Flightcontroller_PWM_CopterRocks_Working/Libraries/CMSIS/Include\cmsis_gcc.h **** {
 316:C:/Workspaces/DAVE-4.3/WS_2016_09_02/Flightcontroller_PWM_CopterRocks_Working/Libraries/CMSIS/Include\cmsis_gcc.h **** #if (__FPU_PRESENT == 1U) && (__FPU_USED == 1U)
 317:C:/Workspaces/DAVE-4.3/WS_2016_09_02/Flightcontroller_PWM_CopterRocks_Working/Libraries/CMSIS/Include\cmsis_gcc.h ****   uint32_t result;
 318:C:/Workspaces/DAVE-4.3/WS_2016_09_02/Flightcontroller_PWM_CopterRocks_Working/Libraries/CMSIS/Include\cmsis_gcc.h **** 
 319:C:/Workspaces/DAVE-4.3/WS_2016_09_02/Flightcontroller_PWM_CopterRocks_Working/Libraries/CMSIS/Include\cmsis_gcc.h ****   /* Empty asm statement works as a scheduling barrier */
 320:C:/Workspaces/DAVE-4.3/WS_2016_09_02/Flightcontroller_PWM_CopterRocks_Working/Libraries/CMSIS/Include\cmsis_gcc.h ****   __ASM volatile ("");
 321:C:/Workspaces/DAVE-4.3/WS_2016_09_02/Flightcontroller_PWM_CopterRocks_Working/Libraries/CMSIS/Include\cmsis_gcc.h ****   __ASM volatile ("VMRS %0, fpscr" : "=r" (result) );
 322:C:/Workspaces/DAVE-4.3/WS_2016_09_02/Flightcontroller_PWM_CopterRocks_Working/Libraries/CMSIS/Include\cmsis_gcc.h ****   __ASM volatile ("");
 323:C:/Workspaces/DAVE-4.3/WS_2016_09_02/Flightcontroller_PWM_CopterRocks_Working/Libraries/CMSIS/Include\cmsis_gcc.h ****   return(result);
 324:C:/Workspaces/DAVE-4.3/WS_2016_09_02/Flightcontroller_PWM_CopterRocks_Working/Libraries/CMSIS/Include\cmsis_gcc.h **** #else
 325:C:/Workspaces/DAVE-4.3/WS_2016_09_02/Flightcontroller_PWM_CopterRocks_Working/Libraries/CMSIS/Include\cmsis_gcc.h ****    return(0);
 326:C:/Workspaces/DAVE-4.3/WS_2016_09_02/Flightcontroller_PWM_CopterRocks_Working/Libraries/CMSIS/Include\cmsis_gcc.h **** #endif
 327:C:/Workspaces/DAVE-4.3/WS_2016_09_02/Flightcontroller_PWM_CopterRocks_Working/Libraries/CMSIS/Include\cmsis_gcc.h **** }
 328:C:/Workspaces/DAVE-4.3/WS_2016_09_02/Flightcontroller_PWM_CopterRocks_Working/Libraries/CMSIS/Include\cmsis_gcc.h **** 
 329:C:/Workspaces/DAVE-4.3/WS_2016_09_02/Flightcontroller_PWM_CopterRocks_Working/Libraries/CMSIS/Include\cmsis_gcc.h **** 
 330:C:/Workspaces/DAVE-4.3/WS_2016_09_02/Flightcontroller_PWM_CopterRocks_Working/Libraries/CMSIS/Include\cmsis_gcc.h **** /**
 331:C:/Workspaces/DAVE-4.3/WS_2016_09_02/Flightcontroller_PWM_CopterRocks_Working/Libraries/CMSIS/Include\cmsis_gcc.h ****   \brief   Set FPSCR
 332:C:/Workspaces/DAVE-4.3/WS_2016_09_02/Flightcontroller_PWM_CopterRocks_Working/Libraries/CMSIS/Include\cmsis_gcc.h ****   \details Assigns the given value to the Floating Point Status/Control register.
 333:C:/Workspaces/DAVE-4.3/WS_2016_09_02/Flightcontroller_PWM_CopterRocks_Working/Libraries/CMSIS/Include\cmsis_gcc.h ****   \param [in]    fpscr  Floating Point Status/Control value to set
 334:C:/Workspaces/DAVE-4.3/WS_2016_09_02/Flightcontroller_PWM_CopterRocks_Working/Libraries/CMSIS/Include\cmsis_gcc.h ****  */
 335:C:/Workspaces/DAVE-4.3/WS_2016_09_02/Flightcontroller_PWM_CopterRocks_Working/Libraries/CMSIS/Include\cmsis_gcc.h **** __attribute__( ( always_inline ) ) __STATIC_INLINE void __set_FPSCR(uint32_t fpscr)
 336:C:/Workspaces/DAVE-4.3/WS_2016_09_02/Flightcontroller_PWM_CopterRocks_Working/Libraries/CMSIS/Include\cmsis_gcc.h **** {
 337:C:/Workspaces/DAVE-4.3/WS_2016_09_02/Flightcontroller_PWM_CopterRocks_Working/Libraries/CMSIS/Include\cmsis_gcc.h **** #if (__FPU_PRESENT == 1U) && (__FPU_USED == 1U)
 338:C:/Workspaces/DAVE-4.3/WS_2016_09_02/Flightcontroller_PWM_CopterRocks_Working/Libraries/CMSIS/Include\cmsis_gcc.h ****   /* Empty asm statement works as a scheduling barrier */
 339:C:/Workspaces/DAVE-4.3/WS_2016_09_02/Flightcontroller_PWM_CopterRocks_Working/Libraries/CMSIS/Include\cmsis_gcc.h ****   __ASM volatile ("");
 340:C:/Workspaces/DAVE-4.3/WS_2016_09_02/Flightcontroller_PWM_CopterRocks_Working/Libraries/CMSIS/Include\cmsis_gcc.h ****   __ASM volatile ("VMSR fpscr, %0" : : "r" (fpscr) : "vfpcc");
 341:C:/Workspaces/DAVE-4.3/WS_2016_09_02/Flightcontroller_PWM_CopterRocks_Working/Libraries/CMSIS/Include\cmsis_gcc.h ****   __ASM volatile ("");
 342:C:/Workspaces/DAVE-4.3/WS_2016_09_02/Flightcontroller_PWM_CopterRocks_Working/Libraries/CMSIS/Include\cmsis_gcc.h **** #endif
 343:C:/Workspaces/DAVE-4.3/WS_2016_09_02/Flightcontroller_PWM_CopterRocks_Working/Libraries/CMSIS/Include\cmsis_gcc.h **** }
 344:C:/Workspaces/DAVE-4.3/WS_2016_09_02/Flightcontroller_PWM_CopterRocks_Working/Libraries/CMSIS/Include\cmsis_gcc.h **** 
 345:C:/Workspaces/DAVE-4.3/WS_2016_09_02/Flightcontroller_PWM_CopterRocks_Working/Libraries/CMSIS/Include\cmsis_gcc.h **** #endif /* (__CORTEX_M == 0x04U) || (__CORTEX_M == 0x07U) */
 346:C:/Workspaces/DAVE-4.3/WS_2016_09_02/Flightcontroller_PWM_CopterRocks_Working/Libraries/CMSIS/Include\cmsis_gcc.h **** 
 347:C:/Workspaces/DAVE-4.3/WS_2016_09_02/Flightcontroller_PWM_CopterRocks_Working/Libraries/CMSIS/Include\cmsis_gcc.h **** 
 348:C:/Workspaces/DAVE-4.3/WS_2016_09_02/Flightcontroller_PWM_CopterRocks_Working/Libraries/CMSIS/Include\cmsis_gcc.h **** 
 349:C:/Workspaces/DAVE-4.3/WS_2016_09_02/Flightcontroller_PWM_CopterRocks_Working/Libraries/CMSIS/Include\cmsis_gcc.h **** /*@} end of CMSIS_Core_RegAccFunctions */
 350:C:/Workspaces/DAVE-4.3/WS_2016_09_02/Flightcontroller_PWM_CopterRocks_Working/Libraries/CMSIS/Include\cmsis_gcc.h **** 
 351:C:/Workspaces/DAVE-4.3/WS_2016_09_02/Flightcontroller_PWM_CopterRocks_Working/Libraries/CMSIS/Include\cmsis_gcc.h **** 
 352:C:/Workspaces/DAVE-4.3/WS_2016_09_02/Flightcontroller_PWM_CopterRocks_Working/Libraries/CMSIS/Include\cmsis_gcc.h **** /* ##########################  Core Instruction Access  ######################### */
 353:C:/Workspaces/DAVE-4.3/WS_2016_09_02/Flightcontroller_PWM_CopterRocks_Working/Libraries/CMSIS/Include\cmsis_gcc.h **** /** \defgroup CMSIS_Core_InstructionInterface CMSIS Core Instruction Interface
 354:C:/Workspaces/DAVE-4.3/WS_2016_09_02/Flightcontroller_PWM_CopterRocks_Working/Libraries/CMSIS/Include\cmsis_gcc.h ****   Access to dedicated instructions
 355:C:/Workspaces/DAVE-4.3/WS_2016_09_02/Flightcontroller_PWM_CopterRocks_Working/Libraries/CMSIS/Include\cmsis_gcc.h ****   @{
 356:C:/Workspaces/DAVE-4.3/WS_2016_09_02/Flightcontroller_PWM_CopterRocks_Working/Libraries/CMSIS/Include\cmsis_gcc.h **** */
 357:C:/Workspaces/DAVE-4.3/WS_2016_09_02/Flightcontroller_PWM_CopterRocks_Working/Libraries/CMSIS/Include\cmsis_gcc.h **** 
 358:C:/Workspaces/DAVE-4.3/WS_2016_09_02/Flightcontroller_PWM_CopterRocks_Working/Libraries/CMSIS/Include\cmsis_gcc.h **** /* Define macros for porting to both thumb1 and thumb2.
 359:C:/Workspaces/DAVE-4.3/WS_2016_09_02/Flightcontroller_PWM_CopterRocks_Working/Libraries/CMSIS/Include\cmsis_gcc.h ****  * For thumb1, use low register (r0-r7), specified by constraint "l"
 360:C:/Workspaces/DAVE-4.3/WS_2016_09_02/Flightcontroller_PWM_CopterRocks_Working/Libraries/CMSIS/Include\cmsis_gcc.h ****  * Otherwise, use general registers, specified by constraint "r" */
 361:C:/Workspaces/DAVE-4.3/WS_2016_09_02/Flightcontroller_PWM_CopterRocks_Working/Libraries/CMSIS/Include\cmsis_gcc.h **** #if defined (__thumb__) && !defined (__thumb2__)
 362:C:/Workspaces/DAVE-4.3/WS_2016_09_02/Flightcontroller_PWM_CopterRocks_Working/Libraries/CMSIS/Include\cmsis_gcc.h **** #define __CMSIS_GCC_OUT_REG(r) "=l" (r)
 363:C:/Workspaces/DAVE-4.3/WS_2016_09_02/Flightcontroller_PWM_CopterRocks_Working/Libraries/CMSIS/Include\cmsis_gcc.h **** #define __CMSIS_GCC_USE_REG(r) "l" (r)
 364:C:/Workspaces/DAVE-4.3/WS_2016_09_02/Flightcontroller_PWM_CopterRocks_Working/Libraries/CMSIS/Include\cmsis_gcc.h **** #else
 365:C:/Workspaces/DAVE-4.3/WS_2016_09_02/Flightcontroller_PWM_CopterRocks_Working/Libraries/CMSIS/Include\cmsis_gcc.h **** #define __CMSIS_GCC_OUT_REG(r) "=r" (r)
 366:C:/Workspaces/DAVE-4.3/WS_2016_09_02/Flightcontroller_PWM_CopterRocks_Working/Libraries/CMSIS/Include\cmsis_gcc.h **** #define __CMSIS_GCC_USE_REG(r) "r" (r)
 367:C:/Workspaces/DAVE-4.3/WS_2016_09_02/Flightcontroller_PWM_CopterRocks_Working/Libraries/CMSIS/Include\cmsis_gcc.h **** #endif
 368:C:/Workspaces/DAVE-4.3/WS_2016_09_02/Flightcontroller_PWM_CopterRocks_Working/Libraries/CMSIS/Include\cmsis_gcc.h **** 
 369:C:/Workspaces/DAVE-4.3/WS_2016_09_02/Flightcontroller_PWM_CopterRocks_Working/Libraries/CMSIS/Include\cmsis_gcc.h **** /**
 370:C:/Workspaces/DAVE-4.3/WS_2016_09_02/Flightcontroller_PWM_CopterRocks_Working/Libraries/CMSIS/Include\cmsis_gcc.h ****   \brief   No Operation
 371:C:/Workspaces/DAVE-4.3/WS_2016_09_02/Flightcontroller_PWM_CopterRocks_Working/Libraries/CMSIS/Include\cmsis_gcc.h ****   \details No Operation does nothing. This instruction can be used for code alignment purposes.
 372:C:/Workspaces/DAVE-4.3/WS_2016_09_02/Flightcontroller_PWM_CopterRocks_Working/Libraries/CMSIS/Include\cmsis_gcc.h ****  */
 373:C:/Workspaces/DAVE-4.3/WS_2016_09_02/Flightcontroller_PWM_CopterRocks_Working/Libraries/CMSIS/Include\cmsis_gcc.h **** __attribute__((always_inline)) __STATIC_INLINE void __NOP(void)
 374:C:/Workspaces/DAVE-4.3/WS_2016_09_02/Flightcontroller_PWM_CopterRocks_Working/Libraries/CMSIS/Include\cmsis_gcc.h **** {
 375:C:/Workspaces/DAVE-4.3/WS_2016_09_02/Flightcontroller_PWM_CopterRocks_Working/Libraries/CMSIS/Include\cmsis_gcc.h ****   __ASM volatile ("nop");
 376:C:/Workspaces/DAVE-4.3/WS_2016_09_02/Flightcontroller_PWM_CopterRocks_Working/Libraries/CMSIS/Include\cmsis_gcc.h **** }
 377:C:/Workspaces/DAVE-4.3/WS_2016_09_02/Flightcontroller_PWM_CopterRocks_Working/Libraries/CMSIS/Include\cmsis_gcc.h **** 
 378:C:/Workspaces/DAVE-4.3/WS_2016_09_02/Flightcontroller_PWM_CopterRocks_Working/Libraries/CMSIS/Include\cmsis_gcc.h **** 
 379:C:/Workspaces/DAVE-4.3/WS_2016_09_02/Flightcontroller_PWM_CopterRocks_Working/Libraries/CMSIS/Include\cmsis_gcc.h **** /**
 380:C:/Workspaces/DAVE-4.3/WS_2016_09_02/Flightcontroller_PWM_CopterRocks_Working/Libraries/CMSIS/Include\cmsis_gcc.h ****   \brief   Wait For Interrupt
 381:C:/Workspaces/DAVE-4.3/WS_2016_09_02/Flightcontroller_PWM_CopterRocks_Working/Libraries/CMSIS/Include\cmsis_gcc.h ****   \details Wait For Interrupt is a hint instruction that suspends execution until one of a number o
 382:C:/Workspaces/DAVE-4.3/WS_2016_09_02/Flightcontroller_PWM_CopterRocks_Working/Libraries/CMSIS/Include\cmsis_gcc.h ****  */
 383:C:/Workspaces/DAVE-4.3/WS_2016_09_02/Flightcontroller_PWM_CopterRocks_Working/Libraries/CMSIS/Include\cmsis_gcc.h **** __attribute__((always_inline)) __STATIC_INLINE void __WFI(void)
 384:C:/Workspaces/DAVE-4.3/WS_2016_09_02/Flightcontroller_PWM_CopterRocks_Working/Libraries/CMSIS/Include\cmsis_gcc.h **** {
 385:C:/Workspaces/DAVE-4.3/WS_2016_09_02/Flightcontroller_PWM_CopterRocks_Working/Libraries/CMSIS/Include\cmsis_gcc.h ****   __ASM volatile ("wfi");
 386:C:/Workspaces/DAVE-4.3/WS_2016_09_02/Flightcontroller_PWM_CopterRocks_Working/Libraries/CMSIS/Include\cmsis_gcc.h **** }
 387:C:/Workspaces/DAVE-4.3/WS_2016_09_02/Flightcontroller_PWM_CopterRocks_Working/Libraries/CMSIS/Include\cmsis_gcc.h **** 
 388:C:/Workspaces/DAVE-4.3/WS_2016_09_02/Flightcontroller_PWM_CopterRocks_Working/Libraries/CMSIS/Include\cmsis_gcc.h **** 
 389:C:/Workspaces/DAVE-4.3/WS_2016_09_02/Flightcontroller_PWM_CopterRocks_Working/Libraries/CMSIS/Include\cmsis_gcc.h **** /**
 390:C:/Workspaces/DAVE-4.3/WS_2016_09_02/Flightcontroller_PWM_CopterRocks_Working/Libraries/CMSIS/Include\cmsis_gcc.h ****   \brief   Wait For Event
 391:C:/Workspaces/DAVE-4.3/WS_2016_09_02/Flightcontroller_PWM_CopterRocks_Working/Libraries/CMSIS/Include\cmsis_gcc.h ****   \details Wait For Event is a hint instruction that permits the processor to enter
 392:C:/Workspaces/DAVE-4.3/WS_2016_09_02/Flightcontroller_PWM_CopterRocks_Working/Libraries/CMSIS/Include\cmsis_gcc.h ****     a low-power state until one of a number of events occurs.
 393:C:/Workspaces/DAVE-4.3/WS_2016_09_02/Flightcontroller_PWM_CopterRocks_Working/Libraries/CMSIS/Include\cmsis_gcc.h ****  */
 394:C:/Workspaces/DAVE-4.3/WS_2016_09_02/Flightcontroller_PWM_CopterRocks_Working/Libraries/CMSIS/Include\cmsis_gcc.h **** __attribute__((always_inline)) __STATIC_INLINE void __WFE(void)
 395:C:/Workspaces/DAVE-4.3/WS_2016_09_02/Flightcontroller_PWM_CopterRocks_Working/Libraries/CMSIS/Include\cmsis_gcc.h **** {
 396:C:/Workspaces/DAVE-4.3/WS_2016_09_02/Flightcontroller_PWM_CopterRocks_Working/Libraries/CMSIS/Include\cmsis_gcc.h ****   __ASM volatile ("wfe");
 397:C:/Workspaces/DAVE-4.3/WS_2016_09_02/Flightcontroller_PWM_CopterRocks_Working/Libraries/CMSIS/Include\cmsis_gcc.h **** }
 398:C:/Workspaces/DAVE-4.3/WS_2016_09_02/Flightcontroller_PWM_CopterRocks_Working/Libraries/CMSIS/Include\cmsis_gcc.h **** 
 399:C:/Workspaces/DAVE-4.3/WS_2016_09_02/Flightcontroller_PWM_CopterRocks_Working/Libraries/CMSIS/Include\cmsis_gcc.h **** 
 400:C:/Workspaces/DAVE-4.3/WS_2016_09_02/Flightcontroller_PWM_CopterRocks_Working/Libraries/CMSIS/Include\cmsis_gcc.h **** /**
 401:C:/Workspaces/DAVE-4.3/WS_2016_09_02/Flightcontroller_PWM_CopterRocks_Working/Libraries/CMSIS/Include\cmsis_gcc.h ****   \brief   Send Event
 402:C:/Workspaces/DAVE-4.3/WS_2016_09_02/Flightcontroller_PWM_CopterRocks_Working/Libraries/CMSIS/Include\cmsis_gcc.h ****   \details Send Event is a hint instruction. It causes an event to be signaled to the CPU.
 403:C:/Workspaces/DAVE-4.3/WS_2016_09_02/Flightcontroller_PWM_CopterRocks_Working/Libraries/CMSIS/Include\cmsis_gcc.h ****  */
 404:C:/Workspaces/DAVE-4.3/WS_2016_09_02/Flightcontroller_PWM_CopterRocks_Working/Libraries/CMSIS/Include\cmsis_gcc.h **** __attribute__((always_inline)) __STATIC_INLINE void __SEV(void)
 405:C:/Workspaces/DAVE-4.3/WS_2016_09_02/Flightcontroller_PWM_CopterRocks_Working/Libraries/CMSIS/Include\cmsis_gcc.h **** {
 406:C:/Workspaces/DAVE-4.3/WS_2016_09_02/Flightcontroller_PWM_CopterRocks_Working/Libraries/CMSIS/Include\cmsis_gcc.h ****   __ASM volatile ("sev");
 407:C:/Workspaces/DAVE-4.3/WS_2016_09_02/Flightcontroller_PWM_CopterRocks_Working/Libraries/CMSIS/Include\cmsis_gcc.h **** }
 408:C:/Workspaces/DAVE-4.3/WS_2016_09_02/Flightcontroller_PWM_CopterRocks_Working/Libraries/CMSIS/Include\cmsis_gcc.h **** 
 409:C:/Workspaces/DAVE-4.3/WS_2016_09_02/Flightcontroller_PWM_CopterRocks_Working/Libraries/CMSIS/Include\cmsis_gcc.h **** 
 410:C:/Workspaces/DAVE-4.3/WS_2016_09_02/Flightcontroller_PWM_CopterRocks_Working/Libraries/CMSIS/Include\cmsis_gcc.h **** /**
 411:C:/Workspaces/DAVE-4.3/WS_2016_09_02/Flightcontroller_PWM_CopterRocks_Working/Libraries/CMSIS/Include\cmsis_gcc.h ****   \brief   Instruction Synchronization Barrier
 412:C:/Workspaces/DAVE-4.3/WS_2016_09_02/Flightcontroller_PWM_CopterRocks_Working/Libraries/CMSIS/Include\cmsis_gcc.h ****   \details Instruction Synchronization Barrier flushes the pipeline in the processor,
 413:C:/Workspaces/DAVE-4.3/WS_2016_09_02/Flightcontroller_PWM_CopterRocks_Working/Libraries/CMSIS/Include\cmsis_gcc.h ****            so that all instructions following the ISB are fetched from cache or memory,
 414:C:/Workspaces/DAVE-4.3/WS_2016_09_02/Flightcontroller_PWM_CopterRocks_Working/Libraries/CMSIS/Include\cmsis_gcc.h ****            after the instruction has been completed.
 415:C:/Workspaces/DAVE-4.3/WS_2016_09_02/Flightcontroller_PWM_CopterRocks_Working/Libraries/CMSIS/Include\cmsis_gcc.h ****  */
 416:C:/Workspaces/DAVE-4.3/WS_2016_09_02/Flightcontroller_PWM_CopterRocks_Working/Libraries/CMSIS/Include\cmsis_gcc.h **** __attribute__((always_inline)) __STATIC_INLINE void __ISB(void)
 417:C:/Workspaces/DAVE-4.3/WS_2016_09_02/Flightcontroller_PWM_CopterRocks_Working/Libraries/CMSIS/Include\cmsis_gcc.h **** {
 418:C:/Workspaces/DAVE-4.3/WS_2016_09_02/Flightcontroller_PWM_CopterRocks_Working/Libraries/CMSIS/Include\cmsis_gcc.h ****   __ASM volatile ("isb 0xF":::"memory");
 419:C:/Workspaces/DAVE-4.3/WS_2016_09_02/Flightcontroller_PWM_CopterRocks_Working/Libraries/CMSIS/Include\cmsis_gcc.h **** }
 420:C:/Workspaces/DAVE-4.3/WS_2016_09_02/Flightcontroller_PWM_CopterRocks_Working/Libraries/CMSIS/Include\cmsis_gcc.h **** 
 421:C:/Workspaces/DAVE-4.3/WS_2016_09_02/Flightcontroller_PWM_CopterRocks_Working/Libraries/CMSIS/Include\cmsis_gcc.h **** 
 422:C:/Workspaces/DAVE-4.3/WS_2016_09_02/Flightcontroller_PWM_CopterRocks_Working/Libraries/CMSIS/Include\cmsis_gcc.h **** /**
 423:C:/Workspaces/DAVE-4.3/WS_2016_09_02/Flightcontroller_PWM_CopterRocks_Working/Libraries/CMSIS/Include\cmsis_gcc.h ****   \brief   Data Synchronization Barrier
 424:C:/Workspaces/DAVE-4.3/WS_2016_09_02/Flightcontroller_PWM_CopterRocks_Working/Libraries/CMSIS/Include\cmsis_gcc.h ****   \details Acts as a special kind of Data Memory Barrier.
 425:C:/Workspaces/DAVE-4.3/WS_2016_09_02/Flightcontroller_PWM_CopterRocks_Working/Libraries/CMSIS/Include\cmsis_gcc.h ****            It completes when all explicit memory accesses before this instruction complete.
 426:C:/Workspaces/DAVE-4.3/WS_2016_09_02/Flightcontroller_PWM_CopterRocks_Working/Libraries/CMSIS/Include\cmsis_gcc.h ****  */
 427:C:/Workspaces/DAVE-4.3/WS_2016_09_02/Flightcontroller_PWM_CopterRocks_Working/Libraries/CMSIS/Include\cmsis_gcc.h **** __attribute__((always_inline)) __STATIC_INLINE void __DSB(void)
 428:C:/Workspaces/DAVE-4.3/WS_2016_09_02/Flightcontroller_PWM_CopterRocks_Working/Libraries/CMSIS/Include\cmsis_gcc.h **** {
 429:C:/Workspaces/DAVE-4.3/WS_2016_09_02/Flightcontroller_PWM_CopterRocks_Working/Libraries/CMSIS/Include\cmsis_gcc.h ****   __ASM volatile ("dsb 0xF":::"memory");
 430:C:/Workspaces/DAVE-4.3/WS_2016_09_02/Flightcontroller_PWM_CopterRocks_Working/Libraries/CMSIS/Include\cmsis_gcc.h **** }
 431:C:/Workspaces/DAVE-4.3/WS_2016_09_02/Flightcontroller_PWM_CopterRocks_Working/Libraries/CMSIS/Include\cmsis_gcc.h **** 
 432:C:/Workspaces/DAVE-4.3/WS_2016_09_02/Flightcontroller_PWM_CopterRocks_Working/Libraries/CMSIS/Include\cmsis_gcc.h **** 
 433:C:/Workspaces/DAVE-4.3/WS_2016_09_02/Flightcontroller_PWM_CopterRocks_Working/Libraries/CMSIS/Include\cmsis_gcc.h **** /**
 434:C:/Workspaces/DAVE-4.3/WS_2016_09_02/Flightcontroller_PWM_CopterRocks_Working/Libraries/CMSIS/Include\cmsis_gcc.h ****   \brief   Data Memory Barrier
 435:C:/Workspaces/DAVE-4.3/WS_2016_09_02/Flightcontroller_PWM_CopterRocks_Working/Libraries/CMSIS/Include\cmsis_gcc.h ****   \details Ensures the apparent order of the explicit memory operations before
 436:C:/Workspaces/DAVE-4.3/WS_2016_09_02/Flightcontroller_PWM_CopterRocks_Working/Libraries/CMSIS/Include\cmsis_gcc.h ****            and after the instruction, without ensuring their completion.
 437:C:/Workspaces/DAVE-4.3/WS_2016_09_02/Flightcontroller_PWM_CopterRocks_Working/Libraries/CMSIS/Include\cmsis_gcc.h ****  */
 438:C:/Workspaces/DAVE-4.3/WS_2016_09_02/Flightcontroller_PWM_CopterRocks_Working/Libraries/CMSIS/Include\cmsis_gcc.h **** __attribute__((always_inline)) __STATIC_INLINE void __DMB(void)
 439:C:/Workspaces/DAVE-4.3/WS_2016_09_02/Flightcontroller_PWM_CopterRocks_Working/Libraries/CMSIS/Include\cmsis_gcc.h **** {
 440:C:/Workspaces/DAVE-4.3/WS_2016_09_02/Flightcontroller_PWM_CopterRocks_Working/Libraries/CMSIS/Include\cmsis_gcc.h ****   __ASM volatile ("dmb 0xF":::"memory");
 441:C:/Workspaces/DAVE-4.3/WS_2016_09_02/Flightcontroller_PWM_CopterRocks_Working/Libraries/CMSIS/Include\cmsis_gcc.h **** }
 442:C:/Workspaces/DAVE-4.3/WS_2016_09_02/Flightcontroller_PWM_CopterRocks_Working/Libraries/CMSIS/Include\cmsis_gcc.h **** 
 443:C:/Workspaces/DAVE-4.3/WS_2016_09_02/Flightcontroller_PWM_CopterRocks_Working/Libraries/CMSIS/Include\cmsis_gcc.h **** 
 444:C:/Workspaces/DAVE-4.3/WS_2016_09_02/Flightcontroller_PWM_CopterRocks_Working/Libraries/CMSIS/Include\cmsis_gcc.h **** /**
 445:C:/Workspaces/DAVE-4.3/WS_2016_09_02/Flightcontroller_PWM_CopterRocks_Working/Libraries/CMSIS/Include\cmsis_gcc.h ****   \brief   Reverse byte order (32 bit)
 446:C:/Workspaces/DAVE-4.3/WS_2016_09_02/Flightcontroller_PWM_CopterRocks_Working/Libraries/CMSIS/Include\cmsis_gcc.h ****   \details Reverses the byte order in integer value.
 447:C:/Workspaces/DAVE-4.3/WS_2016_09_02/Flightcontroller_PWM_CopterRocks_Working/Libraries/CMSIS/Include\cmsis_gcc.h ****   \param [in]    value  Value to reverse
 448:C:/Workspaces/DAVE-4.3/WS_2016_09_02/Flightcontroller_PWM_CopterRocks_Working/Libraries/CMSIS/Include\cmsis_gcc.h ****   \return               Reversed value
 449:C:/Workspaces/DAVE-4.3/WS_2016_09_02/Flightcontroller_PWM_CopterRocks_Working/Libraries/CMSIS/Include\cmsis_gcc.h ****  */
 450:C:/Workspaces/DAVE-4.3/WS_2016_09_02/Flightcontroller_PWM_CopterRocks_Working/Libraries/CMSIS/Include\cmsis_gcc.h **** __attribute__((always_inline)) __STATIC_INLINE uint32_t __REV(uint32_t value)
 451:C:/Workspaces/DAVE-4.3/WS_2016_09_02/Flightcontroller_PWM_CopterRocks_Working/Libraries/CMSIS/Include\cmsis_gcc.h **** {
 452:C:/Workspaces/DAVE-4.3/WS_2016_09_02/Flightcontroller_PWM_CopterRocks_Working/Libraries/CMSIS/Include\cmsis_gcc.h **** #if (__GNUC__ > 4) || (__GNUC__ == 4 && __GNUC_MINOR__ >= 5)
 453:C:/Workspaces/DAVE-4.3/WS_2016_09_02/Flightcontroller_PWM_CopterRocks_Working/Libraries/CMSIS/Include\cmsis_gcc.h ****   return __builtin_bswap32(value);
 454:C:/Workspaces/DAVE-4.3/WS_2016_09_02/Flightcontroller_PWM_CopterRocks_Working/Libraries/CMSIS/Include\cmsis_gcc.h **** #else
 455:C:/Workspaces/DAVE-4.3/WS_2016_09_02/Flightcontroller_PWM_CopterRocks_Working/Libraries/CMSIS/Include\cmsis_gcc.h ****   uint32_t result;
 456:C:/Workspaces/DAVE-4.3/WS_2016_09_02/Flightcontroller_PWM_CopterRocks_Working/Libraries/CMSIS/Include\cmsis_gcc.h **** 
 457:C:/Workspaces/DAVE-4.3/WS_2016_09_02/Flightcontroller_PWM_CopterRocks_Working/Libraries/CMSIS/Include\cmsis_gcc.h ****   __ASM volatile ("rev %0, %1" : __CMSIS_GCC_OUT_REG (result) : __CMSIS_GCC_USE_REG (value) );
 458:C:/Workspaces/DAVE-4.3/WS_2016_09_02/Flightcontroller_PWM_CopterRocks_Working/Libraries/CMSIS/Include\cmsis_gcc.h ****   return(result);
 459:C:/Workspaces/DAVE-4.3/WS_2016_09_02/Flightcontroller_PWM_CopterRocks_Working/Libraries/CMSIS/Include\cmsis_gcc.h **** #endif
 460:C:/Workspaces/DAVE-4.3/WS_2016_09_02/Flightcontroller_PWM_CopterRocks_Working/Libraries/CMSIS/Include\cmsis_gcc.h **** }
 461:C:/Workspaces/DAVE-4.3/WS_2016_09_02/Flightcontroller_PWM_CopterRocks_Working/Libraries/CMSIS/Include\cmsis_gcc.h **** 
 462:C:/Workspaces/DAVE-4.3/WS_2016_09_02/Flightcontroller_PWM_CopterRocks_Working/Libraries/CMSIS/Include\cmsis_gcc.h **** 
 463:C:/Workspaces/DAVE-4.3/WS_2016_09_02/Flightcontroller_PWM_CopterRocks_Working/Libraries/CMSIS/Include\cmsis_gcc.h **** /**
 464:C:/Workspaces/DAVE-4.3/WS_2016_09_02/Flightcontroller_PWM_CopterRocks_Working/Libraries/CMSIS/Include\cmsis_gcc.h ****   \brief   Reverse byte order (16 bit)
 465:C:/Workspaces/DAVE-4.3/WS_2016_09_02/Flightcontroller_PWM_CopterRocks_Working/Libraries/CMSIS/Include\cmsis_gcc.h ****   \details Reverses the byte order in two unsigned short values.
 466:C:/Workspaces/DAVE-4.3/WS_2016_09_02/Flightcontroller_PWM_CopterRocks_Working/Libraries/CMSIS/Include\cmsis_gcc.h ****   \param [in]    value  Value to reverse
 467:C:/Workspaces/DAVE-4.3/WS_2016_09_02/Flightcontroller_PWM_CopterRocks_Working/Libraries/CMSIS/Include\cmsis_gcc.h ****   \return               Reversed value
 468:C:/Workspaces/DAVE-4.3/WS_2016_09_02/Flightcontroller_PWM_CopterRocks_Working/Libraries/CMSIS/Include\cmsis_gcc.h ****  */
 469:C:/Workspaces/DAVE-4.3/WS_2016_09_02/Flightcontroller_PWM_CopterRocks_Working/Libraries/CMSIS/Include\cmsis_gcc.h **** __attribute__((always_inline)) __STATIC_INLINE uint32_t __REV16(uint32_t value)
 470:C:/Workspaces/DAVE-4.3/WS_2016_09_02/Flightcontroller_PWM_CopterRocks_Working/Libraries/CMSIS/Include\cmsis_gcc.h **** {
 471:C:/Workspaces/DAVE-4.3/WS_2016_09_02/Flightcontroller_PWM_CopterRocks_Working/Libraries/CMSIS/Include\cmsis_gcc.h ****   uint32_t result;
 472:C:/Workspaces/DAVE-4.3/WS_2016_09_02/Flightcontroller_PWM_CopterRocks_Working/Libraries/CMSIS/Include\cmsis_gcc.h **** 
 473:C:/Workspaces/DAVE-4.3/WS_2016_09_02/Flightcontroller_PWM_CopterRocks_Working/Libraries/CMSIS/Include\cmsis_gcc.h ****   __ASM volatile ("rev16 %0, %1" : __CMSIS_GCC_OUT_REG (result) : __CMSIS_GCC_USE_REG (value) );
 474:C:/Workspaces/DAVE-4.3/WS_2016_09_02/Flightcontroller_PWM_CopterRocks_Working/Libraries/CMSIS/Include\cmsis_gcc.h ****   return(result);
 475:C:/Workspaces/DAVE-4.3/WS_2016_09_02/Flightcontroller_PWM_CopterRocks_Working/Libraries/CMSIS/Include\cmsis_gcc.h **** }
 476:C:/Workspaces/DAVE-4.3/WS_2016_09_02/Flightcontroller_PWM_CopterRocks_Working/Libraries/CMSIS/Include\cmsis_gcc.h **** 
 477:C:/Workspaces/DAVE-4.3/WS_2016_09_02/Flightcontroller_PWM_CopterRocks_Working/Libraries/CMSIS/Include\cmsis_gcc.h **** 
 478:C:/Workspaces/DAVE-4.3/WS_2016_09_02/Flightcontroller_PWM_CopterRocks_Working/Libraries/CMSIS/Include\cmsis_gcc.h **** /**
 479:C:/Workspaces/DAVE-4.3/WS_2016_09_02/Flightcontroller_PWM_CopterRocks_Working/Libraries/CMSIS/Include\cmsis_gcc.h ****   \brief   Reverse byte order in signed short value
 480:C:/Workspaces/DAVE-4.3/WS_2016_09_02/Flightcontroller_PWM_CopterRocks_Working/Libraries/CMSIS/Include\cmsis_gcc.h ****   \details Reverses the byte order in a signed short value with sign extension to integer.
 481:C:/Workspaces/DAVE-4.3/WS_2016_09_02/Flightcontroller_PWM_CopterRocks_Working/Libraries/CMSIS/Include\cmsis_gcc.h ****   \param [in]    value  Value to reverse
 482:C:/Workspaces/DAVE-4.3/WS_2016_09_02/Flightcontroller_PWM_CopterRocks_Working/Libraries/CMSIS/Include\cmsis_gcc.h ****   \return               Reversed value
 483:C:/Workspaces/DAVE-4.3/WS_2016_09_02/Flightcontroller_PWM_CopterRocks_Working/Libraries/CMSIS/Include\cmsis_gcc.h ****  */
 484:C:/Workspaces/DAVE-4.3/WS_2016_09_02/Flightcontroller_PWM_CopterRocks_Working/Libraries/CMSIS/Include\cmsis_gcc.h **** __attribute__((always_inline)) __STATIC_INLINE int32_t __REVSH(int32_t value)
 485:C:/Workspaces/DAVE-4.3/WS_2016_09_02/Flightcontroller_PWM_CopterRocks_Working/Libraries/CMSIS/Include\cmsis_gcc.h **** {
 486:C:/Workspaces/DAVE-4.3/WS_2016_09_02/Flightcontroller_PWM_CopterRocks_Working/Libraries/CMSIS/Include\cmsis_gcc.h **** #if (__GNUC__ > 4) || (__GNUC__ == 4 && __GNUC_MINOR__ >= 8)
 487:C:/Workspaces/DAVE-4.3/WS_2016_09_02/Flightcontroller_PWM_CopterRocks_Working/Libraries/CMSIS/Include\cmsis_gcc.h ****   return (short)__builtin_bswap16(value);
 488:C:/Workspaces/DAVE-4.3/WS_2016_09_02/Flightcontroller_PWM_CopterRocks_Working/Libraries/CMSIS/Include\cmsis_gcc.h **** #else
 489:C:/Workspaces/DAVE-4.3/WS_2016_09_02/Flightcontroller_PWM_CopterRocks_Working/Libraries/CMSIS/Include\cmsis_gcc.h ****   int32_t result;
 490:C:/Workspaces/DAVE-4.3/WS_2016_09_02/Flightcontroller_PWM_CopterRocks_Working/Libraries/CMSIS/Include\cmsis_gcc.h **** 
 491:C:/Workspaces/DAVE-4.3/WS_2016_09_02/Flightcontroller_PWM_CopterRocks_Working/Libraries/CMSIS/Include\cmsis_gcc.h ****   __ASM volatile ("revsh %0, %1" : __CMSIS_GCC_OUT_REG (result) : __CMSIS_GCC_USE_REG (value) );
 492:C:/Workspaces/DAVE-4.3/WS_2016_09_02/Flightcontroller_PWM_CopterRocks_Working/Libraries/CMSIS/Include\cmsis_gcc.h ****   return(result);
 493:C:/Workspaces/DAVE-4.3/WS_2016_09_02/Flightcontroller_PWM_CopterRocks_Working/Libraries/CMSIS/Include\cmsis_gcc.h **** #endif
 494:C:/Workspaces/DAVE-4.3/WS_2016_09_02/Flightcontroller_PWM_CopterRocks_Working/Libraries/CMSIS/Include\cmsis_gcc.h **** }
 495:C:/Workspaces/DAVE-4.3/WS_2016_09_02/Flightcontroller_PWM_CopterRocks_Working/Libraries/CMSIS/Include\cmsis_gcc.h **** 
 496:C:/Workspaces/DAVE-4.3/WS_2016_09_02/Flightcontroller_PWM_CopterRocks_Working/Libraries/CMSIS/Include\cmsis_gcc.h **** 
 497:C:/Workspaces/DAVE-4.3/WS_2016_09_02/Flightcontroller_PWM_CopterRocks_Working/Libraries/CMSIS/Include\cmsis_gcc.h **** /**
 498:C:/Workspaces/DAVE-4.3/WS_2016_09_02/Flightcontroller_PWM_CopterRocks_Working/Libraries/CMSIS/Include\cmsis_gcc.h ****   \brief   Rotate Right in unsigned value (32 bit)
 499:C:/Workspaces/DAVE-4.3/WS_2016_09_02/Flightcontroller_PWM_CopterRocks_Working/Libraries/CMSIS/Include\cmsis_gcc.h ****   \details Rotate Right (immediate) provides the value of the contents of a register rotated by a v
 500:C:/Workspaces/DAVE-4.3/WS_2016_09_02/Flightcontroller_PWM_CopterRocks_Working/Libraries/CMSIS/Include\cmsis_gcc.h ****   \param [in]    value  Value to rotate
 501:C:/Workspaces/DAVE-4.3/WS_2016_09_02/Flightcontroller_PWM_CopterRocks_Working/Libraries/CMSIS/Include\cmsis_gcc.h ****   \param [in]    value  Number of Bits to rotate
 502:C:/Workspaces/DAVE-4.3/WS_2016_09_02/Flightcontroller_PWM_CopterRocks_Working/Libraries/CMSIS/Include\cmsis_gcc.h ****   \return               Rotated value
 503:C:/Workspaces/DAVE-4.3/WS_2016_09_02/Flightcontroller_PWM_CopterRocks_Working/Libraries/CMSIS/Include\cmsis_gcc.h ****  */
 504:C:/Workspaces/DAVE-4.3/WS_2016_09_02/Flightcontroller_PWM_CopterRocks_Working/Libraries/CMSIS/Include\cmsis_gcc.h **** __attribute__((always_inline)) __STATIC_INLINE uint32_t __ROR(uint32_t op1, uint32_t op2)
 505:C:/Workspaces/DAVE-4.3/WS_2016_09_02/Flightcontroller_PWM_CopterRocks_Working/Libraries/CMSIS/Include\cmsis_gcc.h **** {
 506:C:/Workspaces/DAVE-4.3/WS_2016_09_02/Flightcontroller_PWM_CopterRocks_Working/Libraries/CMSIS/Include\cmsis_gcc.h ****   return (op1 >> op2) | (op1 << (32U - op2));
 507:C:/Workspaces/DAVE-4.3/WS_2016_09_02/Flightcontroller_PWM_CopterRocks_Working/Libraries/CMSIS/Include\cmsis_gcc.h **** }
 508:C:/Workspaces/DAVE-4.3/WS_2016_09_02/Flightcontroller_PWM_CopterRocks_Working/Libraries/CMSIS/Include\cmsis_gcc.h **** 
 509:C:/Workspaces/DAVE-4.3/WS_2016_09_02/Flightcontroller_PWM_CopterRocks_Working/Libraries/CMSIS/Include\cmsis_gcc.h **** 
 510:C:/Workspaces/DAVE-4.3/WS_2016_09_02/Flightcontroller_PWM_CopterRocks_Working/Libraries/CMSIS/Include\cmsis_gcc.h **** /**
 511:C:/Workspaces/DAVE-4.3/WS_2016_09_02/Flightcontroller_PWM_CopterRocks_Working/Libraries/CMSIS/Include\cmsis_gcc.h ****   \brief   Breakpoint
 512:C:/Workspaces/DAVE-4.3/WS_2016_09_02/Flightcontroller_PWM_CopterRocks_Working/Libraries/CMSIS/Include\cmsis_gcc.h ****   \details Causes the processor to enter Debug state.
 513:C:/Workspaces/DAVE-4.3/WS_2016_09_02/Flightcontroller_PWM_CopterRocks_Working/Libraries/CMSIS/Include\cmsis_gcc.h ****            Debug tools can use this to investigate system state when the instruction at a particula
 514:C:/Workspaces/DAVE-4.3/WS_2016_09_02/Flightcontroller_PWM_CopterRocks_Working/Libraries/CMSIS/Include\cmsis_gcc.h ****   \param [in]    value  is ignored by the processor.
 515:C:/Workspaces/DAVE-4.3/WS_2016_09_02/Flightcontroller_PWM_CopterRocks_Working/Libraries/CMSIS/Include\cmsis_gcc.h ****                  If required, a debugger can use it to store additional information about the break
 516:C:/Workspaces/DAVE-4.3/WS_2016_09_02/Flightcontroller_PWM_CopterRocks_Working/Libraries/CMSIS/Include\cmsis_gcc.h ****  */
 517:C:/Workspaces/DAVE-4.3/WS_2016_09_02/Flightcontroller_PWM_CopterRocks_Working/Libraries/CMSIS/Include\cmsis_gcc.h **** #define __BKPT(value)                       __ASM volatile ("bkpt "#value)
 518:C:/Workspaces/DAVE-4.3/WS_2016_09_02/Flightcontroller_PWM_CopterRocks_Working/Libraries/CMSIS/Include\cmsis_gcc.h **** 
 519:C:/Workspaces/DAVE-4.3/WS_2016_09_02/Flightcontroller_PWM_CopterRocks_Working/Libraries/CMSIS/Include\cmsis_gcc.h **** 
 520:C:/Workspaces/DAVE-4.3/WS_2016_09_02/Flightcontroller_PWM_CopterRocks_Working/Libraries/CMSIS/Include\cmsis_gcc.h **** /**
 521:C:/Workspaces/DAVE-4.3/WS_2016_09_02/Flightcontroller_PWM_CopterRocks_Working/Libraries/CMSIS/Include\cmsis_gcc.h ****   \brief   Reverse bit order of value
 522:C:/Workspaces/DAVE-4.3/WS_2016_09_02/Flightcontroller_PWM_CopterRocks_Working/Libraries/CMSIS/Include\cmsis_gcc.h ****   \details Reverses the bit order of the given value.
 523:C:/Workspaces/DAVE-4.3/WS_2016_09_02/Flightcontroller_PWM_CopterRocks_Working/Libraries/CMSIS/Include\cmsis_gcc.h ****   \param [in]    value  Value to reverse
 524:C:/Workspaces/DAVE-4.3/WS_2016_09_02/Flightcontroller_PWM_CopterRocks_Working/Libraries/CMSIS/Include\cmsis_gcc.h ****   \return               Reversed value
 525:C:/Workspaces/DAVE-4.3/WS_2016_09_02/Flightcontroller_PWM_CopterRocks_Working/Libraries/CMSIS/Include\cmsis_gcc.h ****  */
 526:C:/Workspaces/DAVE-4.3/WS_2016_09_02/Flightcontroller_PWM_CopterRocks_Working/Libraries/CMSIS/Include\cmsis_gcc.h **** __attribute__((always_inline)) __STATIC_INLINE uint32_t __RBIT(uint32_t value)
 527:C:/Workspaces/DAVE-4.3/WS_2016_09_02/Flightcontroller_PWM_CopterRocks_Working/Libraries/CMSIS/Include\cmsis_gcc.h **** {
 528:C:/Workspaces/DAVE-4.3/WS_2016_09_02/Flightcontroller_PWM_CopterRocks_Working/Libraries/CMSIS/Include\cmsis_gcc.h ****   uint32_t result;
 529:C:/Workspaces/DAVE-4.3/WS_2016_09_02/Flightcontroller_PWM_CopterRocks_Working/Libraries/CMSIS/Include\cmsis_gcc.h **** 
 530:C:/Workspaces/DAVE-4.3/WS_2016_09_02/Flightcontroller_PWM_CopterRocks_Working/Libraries/CMSIS/Include\cmsis_gcc.h **** #if       (__CORTEX_M >= 0x03U) || (__CORTEX_SC >= 300U)
 531:C:/Workspaces/DAVE-4.3/WS_2016_09_02/Flightcontroller_PWM_CopterRocks_Working/Libraries/CMSIS/Include\cmsis_gcc.h ****    __ASM volatile ("rbit %0, %1" : "=r" (result) : "r" (value) );
 532:C:/Workspaces/DAVE-4.3/WS_2016_09_02/Flightcontroller_PWM_CopterRocks_Working/Libraries/CMSIS/Include\cmsis_gcc.h **** #else
 533:C:/Workspaces/DAVE-4.3/WS_2016_09_02/Flightcontroller_PWM_CopterRocks_Working/Libraries/CMSIS/Include\cmsis_gcc.h ****   int32_t s = 4 /*sizeof(v)*/ * 8 - 1; /* extra shift needed at end */
 534:C:/Workspaces/DAVE-4.3/WS_2016_09_02/Flightcontroller_PWM_CopterRocks_Working/Libraries/CMSIS/Include\cmsis_gcc.h **** 
 535:C:/Workspaces/DAVE-4.3/WS_2016_09_02/Flightcontroller_PWM_CopterRocks_Working/Libraries/CMSIS/Include\cmsis_gcc.h ****   result = value;                      /* r will be reversed bits of v; first get LSB of v */
 536:C:/Workspaces/DAVE-4.3/WS_2016_09_02/Flightcontroller_PWM_CopterRocks_Working/Libraries/CMSIS/Include\cmsis_gcc.h ****   for (value >>= 1U; value; value >>= 1U)
 537:C:/Workspaces/DAVE-4.3/WS_2016_09_02/Flightcontroller_PWM_CopterRocks_Working/Libraries/CMSIS/Include\cmsis_gcc.h ****   {
 538:C:/Workspaces/DAVE-4.3/WS_2016_09_02/Flightcontroller_PWM_CopterRocks_Working/Libraries/CMSIS/Include\cmsis_gcc.h ****     result <<= 1U;
 539:C:/Workspaces/DAVE-4.3/WS_2016_09_02/Flightcontroller_PWM_CopterRocks_Working/Libraries/CMSIS/Include\cmsis_gcc.h ****     result |= value & 1U;
 540:C:/Workspaces/DAVE-4.3/WS_2016_09_02/Flightcontroller_PWM_CopterRocks_Working/Libraries/CMSIS/Include\cmsis_gcc.h ****     s--;
 541:C:/Workspaces/DAVE-4.3/WS_2016_09_02/Flightcontroller_PWM_CopterRocks_Working/Libraries/CMSIS/Include\cmsis_gcc.h ****   }
 542:C:/Workspaces/DAVE-4.3/WS_2016_09_02/Flightcontroller_PWM_CopterRocks_Working/Libraries/CMSIS/Include\cmsis_gcc.h ****   result <<= s;                        /* shift when v's highest bits are zero */
 543:C:/Workspaces/DAVE-4.3/WS_2016_09_02/Flightcontroller_PWM_CopterRocks_Working/Libraries/CMSIS/Include\cmsis_gcc.h **** #endif
 544:C:/Workspaces/DAVE-4.3/WS_2016_09_02/Flightcontroller_PWM_CopterRocks_Working/Libraries/CMSIS/Include\cmsis_gcc.h ****   return(result);
 545:C:/Workspaces/DAVE-4.3/WS_2016_09_02/Flightcontroller_PWM_CopterRocks_Working/Libraries/CMSIS/Include\cmsis_gcc.h **** }
 546:C:/Workspaces/DAVE-4.3/WS_2016_09_02/Flightcontroller_PWM_CopterRocks_Working/Libraries/CMSIS/Include\cmsis_gcc.h **** 
 547:C:/Workspaces/DAVE-4.3/WS_2016_09_02/Flightcontroller_PWM_CopterRocks_Working/Libraries/CMSIS/Include\cmsis_gcc.h **** 
 548:C:/Workspaces/DAVE-4.3/WS_2016_09_02/Flightcontroller_PWM_CopterRocks_Working/Libraries/CMSIS/Include\cmsis_gcc.h **** /**
 549:C:/Workspaces/DAVE-4.3/WS_2016_09_02/Flightcontroller_PWM_CopterRocks_Working/Libraries/CMSIS/Include\cmsis_gcc.h ****   \brief   Count leading zeros
 550:C:/Workspaces/DAVE-4.3/WS_2016_09_02/Flightcontroller_PWM_CopterRocks_Working/Libraries/CMSIS/Include\cmsis_gcc.h ****   \details Counts the number of leading zeros of a data value.
 551:C:/Workspaces/DAVE-4.3/WS_2016_09_02/Flightcontroller_PWM_CopterRocks_Working/Libraries/CMSIS/Include\cmsis_gcc.h ****   \param [in]  value  Value to count the leading zeros
 552:C:/Workspaces/DAVE-4.3/WS_2016_09_02/Flightcontroller_PWM_CopterRocks_Working/Libraries/CMSIS/Include\cmsis_gcc.h ****   \return             number of leading zeros in value
 553:C:/Workspaces/DAVE-4.3/WS_2016_09_02/Flightcontroller_PWM_CopterRocks_Working/Libraries/CMSIS/Include\cmsis_gcc.h ****  */
 554:C:/Workspaces/DAVE-4.3/WS_2016_09_02/Flightcontroller_PWM_CopterRocks_Working/Libraries/CMSIS/Include\cmsis_gcc.h **** #define __CLZ             __builtin_clz
 555:C:/Workspaces/DAVE-4.3/WS_2016_09_02/Flightcontroller_PWM_CopterRocks_Working/Libraries/CMSIS/Include\cmsis_gcc.h **** 
 556:C:/Workspaces/DAVE-4.3/WS_2016_09_02/Flightcontroller_PWM_CopterRocks_Working/Libraries/CMSIS/Include\cmsis_gcc.h **** 
 557:C:/Workspaces/DAVE-4.3/WS_2016_09_02/Flightcontroller_PWM_CopterRocks_Working/Libraries/CMSIS/Include\cmsis_gcc.h **** #if       (__CORTEX_M >= 0x03U) || (__CORTEX_SC >= 300U)
 558:C:/Workspaces/DAVE-4.3/WS_2016_09_02/Flightcontroller_PWM_CopterRocks_Working/Libraries/CMSIS/Include\cmsis_gcc.h **** 
 559:C:/Workspaces/DAVE-4.3/WS_2016_09_02/Flightcontroller_PWM_CopterRocks_Working/Libraries/CMSIS/Include\cmsis_gcc.h **** /**
 560:C:/Workspaces/DAVE-4.3/WS_2016_09_02/Flightcontroller_PWM_CopterRocks_Working/Libraries/CMSIS/Include\cmsis_gcc.h ****   \brief   LDR Exclusive (8 bit)
 561:C:/Workspaces/DAVE-4.3/WS_2016_09_02/Flightcontroller_PWM_CopterRocks_Working/Libraries/CMSIS/Include\cmsis_gcc.h ****   \details Executes a exclusive LDR instruction for 8 bit value.
 562:C:/Workspaces/DAVE-4.3/WS_2016_09_02/Flightcontroller_PWM_CopterRocks_Working/Libraries/CMSIS/Include\cmsis_gcc.h ****   \param [in]    ptr  Pointer to data
 563:C:/Workspaces/DAVE-4.3/WS_2016_09_02/Flightcontroller_PWM_CopterRocks_Working/Libraries/CMSIS/Include\cmsis_gcc.h ****   \return             value of type uint8_t at (*ptr)
 564:C:/Workspaces/DAVE-4.3/WS_2016_09_02/Flightcontroller_PWM_CopterRocks_Working/Libraries/CMSIS/Include\cmsis_gcc.h ****  */
 565:C:/Workspaces/DAVE-4.3/WS_2016_09_02/Flightcontroller_PWM_CopterRocks_Working/Libraries/CMSIS/Include\cmsis_gcc.h **** __attribute__((always_inline)) __STATIC_INLINE uint8_t __LDREXB(volatile uint8_t *addr)
 566:C:/Workspaces/DAVE-4.3/WS_2016_09_02/Flightcontroller_PWM_CopterRocks_Working/Libraries/CMSIS/Include\cmsis_gcc.h **** {
 567:C:/Workspaces/DAVE-4.3/WS_2016_09_02/Flightcontroller_PWM_CopterRocks_Working/Libraries/CMSIS/Include\cmsis_gcc.h ****     uint32_t result;
 568:C:/Workspaces/DAVE-4.3/WS_2016_09_02/Flightcontroller_PWM_CopterRocks_Working/Libraries/CMSIS/Include\cmsis_gcc.h **** 
 569:C:/Workspaces/DAVE-4.3/WS_2016_09_02/Flightcontroller_PWM_CopterRocks_Working/Libraries/CMSIS/Include\cmsis_gcc.h **** #if (__GNUC__ > 4) || (__GNUC__ == 4 && __GNUC_MINOR__ >= 8)
 570:C:/Workspaces/DAVE-4.3/WS_2016_09_02/Flightcontroller_PWM_CopterRocks_Working/Libraries/CMSIS/Include\cmsis_gcc.h ****    __ASM volatile ("ldrexb %0, %1" : "=r" (result) : "Q" (*addr) );
 571:C:/Workspaces/DAVE-4.3/WS_2016_09_02/Flightcontroller_PWM_CopterRocks_Working/Libraries/CMSIS/Include\cmsis_gcc.h **** #else
 572:C:/Workspaces/DAVE-4.3/WS_2016_09_02/Flightcontroller_PWM_CopterRocks_Working/Libraries/CMSIS/Include\cmsis_gcc.h ****     /* Prior to GCC 4.8, "Q" will be expanded to [rx, #0] which is not
 573:C:/Workspaces/DAVE-4.3/WS_2016_09_02/Flightcontroller_PWM_CopterRocks_Working/Libraries/CMSIS/Include\cmsis_gcc.h ****        accepted by assembler. So has to use following less efficient pattern.
 574:C:/Workspaces/DAVE-4.3/WS_2016_09_02/Flightcontroller_PWM_CopterRocks_Working/Libraries/CMSIS/Include\cmsis_gcc.h ****     */
 575:C:/Workspaces/DAVE-4.3/WS_2016_09_02/Flightcontroller_PWM_CopterRocks_Working/Libraries/CMSIS/Include\cmsis_gcc.h ****    __ASM volatile ("ldrexb %0, [%1]" : "=r" (result) : "r" (addr) : "memory" );
 576:C:/Workspaces/DAVE-4.3/WS_2016_09_02/Flightcontroller_PWM_CopterRocks_Working/Libraries/CMSIS/Include\cmsis_gcc.h **** #endif
 577:C:/Workspaces/DAVE-4.3/WS_2016_09_02/Flightcontroller_PWM_CopterRocks_Working/Libraries/CMSIS/Include\cmsis_gcc.h ****    return ((uint8_t) result);    /* Add explicit type cast here */
 578:C:/Workspaces/DAVE-4.3/WS_2016_09_02/Flightcontroller_PWM_CopterRocks_Working/Libraries/CMSIS/Include\cmsis_gcc.h **** }
 579:C:/Workspaces/DAVE-4.3/WS_2016_09_02/Flightcontroller_PWM_CopterRocks_Working/Libraries/CMSIS/Include\cmsis_gcc.h **** 
 580:C:/Workspaces/DAVE-4.3/WS_2016_09_02/Flightcontroller_PWM_CopterRocks_Working/Libraries/CMSIS/Include\cmsis_gcc.h **** 
 581:C:/Workspaces/DAVE-4.3/WS_2016_09_02/Flightcontroller_PWM_CopterRocks_Working/Libraries/CMSIS/Include\cmsis_gcc.h **** /**
 582:C:/Workspaces/DAVE-4.3/WS_2016_09_02/Flightcontroller_PWM_CopterRocks_Working/Libraries/CMSIS/Include\cmsis_gcc.h ****   \brief   LDR Exclusive (16 bit)
 583:C:/Workspaces/DAVE-4.3/WS_2016_09_02/Flightcontroller_PWM_CopterRocks_Working/Libraries/CMSIS/Include\cmsis_gcc.h ****   \details Executes a exclusive LDR instruction for 16 bit values.
 584:C:/Workspaces/DAVE-4.3/WS_2016_09_02/Flightcontroller_PWM_CopterRocks_Working/Libraries/CMSIS/Include\cmsis_gcc.h ****   \param [in]    ptr  Pointer to data
 585:C:/Workspaces/DAVE-4.3/WS_2016_09_02/Flightcontroller_PWM_CopterRocks_Working/Libraries/CMSIS/Include\cmsis_gcc.h ****   \return        value of type uint16_t at (*ptr)
 586:C:/Workspaces/DAVE-4.3/WS_2016_09_02/Flightcontroller_PWM_CopterRocks_Working/Libraries/CMSIS/Include\cmsis_gcc.h ****  */
 587:C:/Workspaces/DAVE-4.3/WS_2016_09_02/Flightcontroller_PWM_CopterRocks_Working/Libraries/CMSIS/Include\cmsis_gcc.h **** __attribute__((always_inline)) __STATIC_INLINE uint16_t __LDREXH(volatile uint16_t *addr)
 588:C:/Workspaces/DAVE-4.3/WS_2016_09_02/Flightcontroller_PWM_CopterRocks_Working/Libraries/CMSIS/Include\cmsis_gcc.h **** {
 589:C:/Workspaces/DAVE-4.3/WS_2016_09_02/Flightcontroller_PWM_CopterRocks_Working/Libraries/CMSIS/Include\cmsis_gcc.h ****     uint32_t result;
 590:C:/Workspaces/DAVE-4.3/WS_2016_09_02/Flightcontroller_PWM_CopterRocks_Working/Libraries/CMSIS/Include\cmsis_gcc.h **** 
 591:C:/Workspaces/DAVE-4.3/WS_2016_09_02/Flightcontroller_PWM_CopterRocks_Working/Libraries/CMSIS/Include\cmsis_gcc.h **** #if (__GNUC__ > 4) || (__GNUC__ == 4 && __GNUC_MINOR__ >= 8)
 592:C:/Workspaces/DAVE-4.3/WS_2016_09_02/Flightcontroller_PWM_CopterRocks_Working/Libraries/CMSIS/Include\cmsis_gcc.h ****    __ASM volatile ("ldrexh %0, %1" : "=r" (result) : "Q" (*addr) );
 593:C:/Workspaces/DAVE-4.3/WS_2016_09_02/Flightcontroller_PWM_CopterRocks_Working/Libraries/CMSIS/Include\cmsis_gcc.h **** #else
 594:C:/Workspaces/DAVE-4.3/WS_2016_09_02/Flightcontroller_PWM_CopterRocks_Working/Libraries/CMSIS/Include\cmsis_gcc.h ****     /* Prior to GCC 4.8, "Q" will be expanded to [rx, #0] which is not
 595:C:/Workspaces/DAVE-4.3/WS_2016_09_02/Flightcontroller_PWM_CopterRocks_Working/Libraries/CMSIS/Include\cmsis_gcc.h ****        accepted by assembler. So has to use following less efficient pattern.
 596:C:/Workspaces/DAVE-4.3/WS_2016_09_02/Flightcontroller_PWM_CopterRocks_Working/Libraries/CMSIS/Include\cmsis_gcc.h ****     */
 597:C:/Workspaces/DAVE-4.3/WS_2016_09_02/Flightcontroller_PWM_CopterRocks_Working/Libraries/CMSIS/Include\cmsis_gcc.h ****    __ASM volatile ("ldrexh %0, [%1]" : "=r" (result) : "r" (addr) : "memory" );
 598:C:/Workspaces/DAVE-4.3/WS_2016_09_02/Flightcontroller_PWM_CopterRocks_Working/Libraries/CMSIS/Include\cmsis_gcc.h **** #endif
 599:C:/Workspaces/DAVE-4.3/WS_2016_09_02/Flightcontroller_PWM_CopterRocks_Working/Libraries/CMSIS/Include\cmsis_gcc.h ****    return ((uint16_t) result);    /* Add explicit type cast here */
 600:C:/Workspaces/DAVE-4.3/WS_2016_09_02/Flightcontroller_PWM_CopterRocks_Working/Libraries/CMSIS/Include\cmsis_gcc.h **** }
 601:C:/Workspaces/DAVE-4.3/WS_2016_09_02/Flightcontroller_PWM_CopterRocks_Working/Libraries/CMSIS/Include\cmsis_gcc.h **** 
 602:C:/Workspaces/DAVE-4.3/WS_2016_09_02/Flightcontroller_PWM_CopterRocks_Working/Libraries/CMSIS/Include\cmsis_gcc.h **** 
 603:C:/Workspaces/DAVE-4.3/WS_2016_09_02/Flightcontroller_PWM_CopterRocks_Working/Libraries/CMSIS/Include\cmsis_gcc.h **** /**
 604:C:/Workspaces/DAVE-4.3/WS_2016_09_02/Flightcontroller_PWM_CopterRocks_Working/Libraries/CMSIS/Include\cmsis_gcc.h ****   \brief   LDR Exclusive (32 bit)
 605:C:/Workspaces/DAVE-4.3/WS_2016_09_02/Flightcontroller_PWM_CopterRocks_Working/Libraries/CMSIS/Include\cmsis_gcc.h ****   \details Executes a exclusive LDR instruction for 32 bit values.
 606:C:/Workspaces/DAVE-4.3/WS_2016_09_02/Flightcontroller_PWM_CopterRocks_Working/Libraries/CMSIS/Include\cmsis_gcc.h ****   \param [in]    ptr  Pointer to data
 607:C:/Workspaces/DAVE-4.3/WS_2016_09_02/Flightcontroller_PWM_CopterRocks_Working/Libraries/CMSIS/Include\cmsis_gcc.h ****   \return        value of type uint32_t at (*ptr)
 608:C:/Workspaces/DAVE-4.3/WS_2016_09_02/Flightcontroller_PWM_CopterRocks_Working/Libraries/CMSIS/Include\cmsis_gcc.h ****  */
 609:C:/Workspaces/DAVE-4.3/WS_2016_09_02/Flightcontroller_PWM_CopterRocks_Working/Libraries/CMSIS/Include\cmsis_gcc.h **** __attribute__((always_inline)) __STATIC_INLINE uint32_t __LDREXW(volatile uint32_t *addr)
 610:C:/Workspaces/DAVE-4.3/WS_2016_09_02/Flightcontroller_PWM_CopterRocks_Working/Libraries/CMSIS/Include\cmsis_gcc.h **** {
 611:C:/Workspaces/DAVE-4.3/WS_2016_09_02/Flightcontroller_PWM_CopterRocks_Working/Libraries/CMSIS/Include\cmsis_gcc.h ****     uint32_t result;
 612:C:/Workspaces/DAVE-4.3/WS_2016_09_02/Flightcontroller_PWM_CopterRocks_Working/Libraries/CMSIS/Include\cmsis_gcc.h **** 
 613:C:/Workspaces/DAVE-4.3/WS_2016_09_02/Flightcontroller_PWM_CopterRocks_Working/Libraries/CMSIS/Include\cmsis_gcc.h ****    __ASM volatile ("ldrex %0, %1" : "=r" (result) : "Q" (*addr) );
 614:C:/Workspaces/DAVE-4.3/WS_2016_09_02/Flightcontroller_PWM_CopterRocks_Working/Libraries/CMSIS/Include\cmsis_gcc.h ****    return(result);
 615:C:/Workspaces/DAVE-4.3/WS_2016_09_02/Flightcontroller_PWM_CopterRocks_Working/Libraries/CMSIS/Include\cmsis_gcc.h **** }
 616:C:/Workspaces/DAVE-4.3/WS_2016_09_02/Flightcontroller_PWM_CopterRocks_Working/Libraries/CMSIS/Include\cmsis_gcc.h **** 
 617:C:/Workspaces/DAVE-4.3/WS_2016_09_02/Flightcontroller_PWM_CopterRocks_Working/Libraries/CMSIS/Include\cmsis_gcc.h **** 
 618:C:/Workspaces/DAVE-4.3/WS_2016_09_02/Flightcontroller_PWM_CopterRocks_Working/Libraries/CMSIS/Include\cmsis_gcc.h **** /**
 619:C:/Workspaces/DAVE-4.3/WS_2016_09_02/Flightcontroller_PWM_CopterRocks_Working/Libraries/CMSIS/Include\cmsis_gcc.h ****   \brief   STR Exclusive (8 bit)
 620:C:/Workspaces/DAVE-4.3/WS_2016_09_02/Flightcontroller_PWM_CopterRocks_Working/Libraries/CMSIS/Include\cmsis_gcc.h ****   \details Executes a exclusive STR instruction for 8 bit values.
 621:C:/Workspaces/DAVE-4.3/WS_2016_09_02/Flightcontroller_PWM_CopterRocks_Working/Libraries/CMSIS/Include\cmsis_gcc.h ****   \param [in]  value  Value to store
 622:C:/Workspaces/DAVE-4.3/WS_2016_09_02/Flightcontroller_PWM_CopterRocks_Working/Libraries/CMSIS/Include\cmsis_gcc.h ****   \param [in]    ptr  Pointer to location
 623:C:/Workspaces/DAVE-4.3/WS_2016_09_02/Flightcontroller_PWM_CopterRocks_Working/Libraries/CMSIS/Include\cmsis_gcc.h ****   \return          0  Function succeeded
 624:C:/Workspaces/DAVE-4.3/WS_2016_09_02/Flightcontroller_PWM_CopterRocks_Working/Libraries/CMSIS/Include\cmsis_gcc.h ****   \return          1  Function failed
 625:C:/Workspaces/DAVE-4.3/WS_2016_09_02/Flightcontroller_PWM_CopterRocks_Working/Libraries/CMSIS/Include\cmsis_gcc.h ****  */
 626:C:/Workspaces/DAVE-4.3/WS_2016_09_02/Flightcontroller_PWM_CopterRocks_Working/Libraries/CMSIS/Include\cmsis_gcc.h **** __attribute__((always_inline)) __STATIC_INLINE uint32_t __STREXB(uint8_t value, volatile uint8_t *a
 627:C:/Workspaces/DAVE-4.3/WS_2016_09_02/Flightcontroller_PWM_CopterRocks_Working/Libraries/CMSIS/Include\cmsis_gcc.h **** {
 628:C:/Workspaces/DAVE-4.3/WS_2016_09_02/Flightcontroller_PWM_CopterRocks_Working/Libraries/CMSIS/Include\cmsis_gcc.h ****    uint32_t result;
 629:C:/Workspaces/DAVE-4.3/WS_2016_09_02/Flightcontroller_PWM_CopterRocks_Working/Libraries/CMSIS/Include\cmsis_gcc.h **** 
 630:C:/Workspaces/DAVE-4.3/WS_2016_09_02/Flightcontroller_PWM_CopterRocks_Working/Libraries/CMSIS/Include\cmsis_gcc.h ****    __ASM volatile ("strexb %0, %2, %1" : "=&r" (result), "=Q" (*addr) : "r" ((uint32_t)value) );
 631:C:/Workspaces/DAVE-4.3/WS_2016_09_02/Flightcontroller_PWM_CopterRocks_Working/Libraries/CMSIS/Include\cmsis_gcc.h ****    return(result);
 632:C:/Workspaces/DAVE-4.3/WS_2016_09_02/Flightcontroller_PWM_CopterRocks_Working/Libraries/CMSIS/Include\cmsis_gcc.h **** }
 633:C:/Workspaces/DAVE-4.3/WS_2016_09_02/Flightcontroller_PWM_CopterRocks_Working/Libraries/CMSIS/Include\cmsis_gcc.h **** 
 634:C:/Workspaces/DAVE-4.3/WS_2016_09_02/Flightcontroller_PWM_CopterRocks_Working/Libraries/CMSIS/Include\cmsis_gcc.h **** 
 635:C:/Workspaces/DAVE-4.3/WS_2016_09_02/Flightcontroller_PWM_CopterRocks_Working/Libraries/CMSIS/Include\cmsis_gcc.h **** /**
 636:C:/Workspaces/DAVE-4.3/WS_2016_09_02/Flightcontroller_PWM_CopterRocks_Working/Libraries/CMSIS/Include\cmsis_gcc.h ****   \brief   STR Exclusive (16 bit)
 637:C:/Workspaces/DAVE-4.3/WS_2016_09_02/Flightcontroller_PWM_CopterRocks_Working/Libraries/CMSIS/Include\cmsis_gcc.h ****   \details Executes a exclusive STR instruction for 16 bit values.
 638:C:/Workspaces/DAVE-4.3/WS_2016_09_02/Flightcontroller_PWM_CopterRocks_Working/Libraries/CMSIS/Include\cmsis_gcc.h ****   \param [in]  value  Value to store
 639:C:/Workspaces/DAVE-4.3/WS_2016_09_02/Flightcontroller_PWM_CopterRocks_Working/Libraries/CMSIS/Include\cmsis_gcc.h ****   \param [in]    ptr  Pointer to location
 640:C:/Workspaces/DAVE-4.3/WS_2016_09_02/Flightcontroller_PWM_CopterRocks_Working/Libraries/CMSIS/Include\cmsis_gcc.h ****   \return          0  Function succeeded
 641:C:/Workspaces/DAVE-4.3/WS_2016_09_02/Flightcontroller_PWM_CopterRocks_Working/Libraries/CMSIS/Include\cmsis_gcc.h ****   \return          1  Function failed
 642:C:/Workspaces/DAVE-4.3/WS_2016_09_02/Flightcontroller_PWM_CopterRocks_Working/Libraries/CMSIS/Include\cmsis_gcc.h ****  */
 643:C:/Workspaces/DAVE-4.3/WS_2016_09_02/Flightcontroller_PWM_CopterRocks_Working/Libraries/CMSIS/Include\cmsis_gcc.h **** __attribute__((always_inline)) __STATIC_INLINE uint32_t __STREXH(uint16_t value, volatile uint16_t 
 644:C:/Workspaces/DAVE-4.3/WS_2016_09_02/Flightcontroller_PWM_CopterRocks_Working/Libraries/CMSIS/Include\cmsis_gcc.h **** {
 645:C:/Workspaces/DAVE-4.3/WS_2016_09_02/Flightcontroller_PWM_CopterRocks_Working/Libraries/CMSIS/Include\cmsis_gcc.h ****    uint32_t result;
 646:C:/Workspaces/DAVE-4.3/WS_2016_09_02/Flightcontroller_PWM_CopterRocks_Working/Libraries/CMSIS/Include\cmsis_gcc.h **** 
 647:C:/Workspaces/DAVE-4.3/WS_2016_09_02/Flightcontroller_PWM_CopterRocks_Working/Libraries/CMSIS/Include\cmsis_gcc.h ****    __ASM volatile ("strexh %0, %2, %1" : "=&r" (result), "=Q" (*addr) : "r" ((uint32_t)value) );
 648:C:/Workspaces/DAVE-4.3/WS_2016_09_02/Flightcontroller_PWM_CopterRocks_Working/Libraries/CMSIS/Include\cmsis_gcc.h ****    return(result);
 649:C:/Workspaces/DAVE-4.3/WS_2016_09_02/Flightcontroller_PWM_CopterRocks_Working/Libraries/CMSIS/Include\cmsis_gcc.h **** }
 650:C:/Workspaces/DAVE-4.3/WS_2016_09_02/Flightcontroller_PWM_CopterRocks_Working/Libraries/CMSIS/Include\cmsis_gcc.h **** 
 651:C:/Workspaces/DAVE-4.3/WS_2016_09_02/Flightcontroller_PWM_CopterRocks_Working/Libraries/CMSIS/Include\cmsis_gcc.h **** 
 652:C:/Workspaces/DAVE-4.3/WS_2016_09_02/Flightcontroller_PWM_CopterRocks_Working/Libraries/CMSIS/Include\cmsis_gcc.h **** /**
 653:C:/Workspaces/DAVE-4.3/WS_2016_09_02/Flightcontroller_PWM_CopterRocks_Working/Libraries/CMSIS/Include\cmsis_gcc.h ****   \brief   STR Exclusive (32 bit)
 654:C:/Workspaces/DAVE-4.3/WS_2016_09_02/Flightcontroller_PWM_CopterRocks_Working/Libraries/CMSIS/Include\cmsis_gcc.h ****   \details Executes a exclusive STR instruction for 32 bit values.
 655:C:/Workspaces/DAVE-4.3/WS_2016_09_02/Flightcontroller_PWM_CopterRocks_Working/Libraries/CMSIS/Include\cmsis_gcc.h ****   \param [in]  value  Value to store
 656:C:/Workspaces/DAVE-4.3/WS_2016_09_02/Flightcontroller_PWM_CopterRocks_Working/Libraries/CMSIS/Include\cmsis_gcc.h ****   \param [in]    ptr  Pointer to location
 657:C:/Workspaces/DAVE-4.3/WS_2016_09_02/Flightcontroller_PWM_CopterRocks_Working/Libraries/CMSIS/Include\cmsis_gcc.h ****   \return          0  Function succeeded
 658:C:/Workspaces/DAVE-4.3/WS_2016_09_02/Flightcontroller_PWM_CopterRocks_Working/Libraries/CMSIS/Include\cmsis_gcc.h ****   \return          1  Function failed
 659:C:/Workspaces/DAVE-4.3/WS_2016_09_02/Flightcontroller_PWM_CopterRocks_Working/Libraries/CMSIS/Include\cmsis_gcc.h ****  */
 660:C:/Workspaces/DAVE-4.3/WS_2016_09_02/Flightcontroller_PWM_CopterRocks_Working/Libraries/CMSIS/Include\cmsis_gcc.h **** __attribute__((always_inline)) __STATIC_INLINE uint32_t __STREXW(uint32_t value, volatile uint32_t 
 661:C:/Workspaces/DAVE-4.3/WS_2016_09_02/Flightcontroller_PWM_CopterRocks_Working/Libraries/CMSIS/Include\cmsis_gcc.h **** {
 662:C:/Workspaces/DAVE-4.3/WS_2016_09_02/Flightcontroller_PWM_CopterRocks_Working/Libraries/CMSIS/Include\cmsis_gcc.h ****    uint32_t result;
 663:C:/Workspaces/DAVE-4.3/WS_2016_09_02/Flightcontroller_PWM_CopterRocks_Working/Libraries/CMSIS/Include\cmsis_gcc.h **** 
 664:C:/Workspaces/DAVE-4.3/WS_2016_09_02/Flightcontroller_PWM_CopterRocks_Working/Libraries/CMSIS/Include\cmsis_gcc.h ****    __ASM volatile ("strex %0, %2, %1" : "=&r" (result), "=Q" (*addr) : "r" (value) );
 665:C:/Workspaces/DAVE-4.3/WS_2016_09_02/Flightcontroller_PWM_CopterRocks_Working/Libraries/CMSIS/Include\cmsis_gcc.h ****    return(result);
 666:C:/Workspaces/DAVE-4.3/WS_2016_09_02/Flightcontroller_PWM_CopterRocks_Working/Libraries/CMSIS/Include\cmsis_gcc.h **** }
 667:C:/Workspaces/DAVE-4.3/WS_2016_09_02/Flightcontroller_PWM_CopterRocks_Working/Libraries/CMSIS/Include\cmsis_gcc.h **** 
 668:C:/Workspaces/DAVE-4.3/WS_2016_09_02/Flightcontroller_PWM_CopterRocks_Working/Libraries/CMSIS/Include\cmsis_gcc.h **** 
 669:C:/Workspaces/DAVE-4.3/WS_2016_09_02/Flightcontroller_PWM_CopterRocks_Working/Libraries/CMSIS/Include\cmsis_gcc.h **** /**
 670:C:/Workspaces/DAVE-4.3/WS_2016_09_02/Flightcontroller_PWM_CopterRocks_Working/Libraries/CMSIS/Include\cmsis_gcc.h ****   \brief   Remove the exclusive lock
 671:C:/Workspaces/DAVE-4.3/WS_2016_09_02/Flightcontroller_PWM_CopterRocks_Working/Libraries/CMSIS/Include\cmsis_gcc.h ****   \details Removes the exclusive lock which is created by LDREX.
 672:C:/Workspaces/DAVE-4.3/WS_2016_09_02/Flightcontroller_PWM_CopterRocks_Working/Libraries/CMSIS/Include\cmsis_gcc.h ****  */
 673:C:/Workspaces/DAVE-4.3/WS_2016_09_02/Flightcontroller_PWM_CopterRocks_Working/Libraries/CMSIS/Include\cmsis_gcc.h **** __attribute__((always_inline)) __STATIC_INLINE void __CLREX(void)
 674:C:/Workspaces/DAVE-4.3/WS_2016_09_02/Flightcontroller_PWM_CopterRocks_Working/Libraries/CMSIS/Include\cmsis_gcc.h **** {
 675:C:/Workspaces/DAVE-4.3/WS_2016_09_02/Flightcontroller_PWM_CopterRocks_Working/Libraries/CMSIS/Include\cmsis_gcc.h ****   __ASM volatile ("clrex" ::: "memory");
 676:C:/Workspaces/DAVE-4.3/WS_2016_09_02/Flightcontroller_PWM_CopterRocks_Working/Libraries/CMSIS/Include\cmsis_gcc.h **** }
 677:C:/Workspaces/DAVE-4.3/WS_2016_09_02/Flightcontroller_PWM_CopterRocks_Working/Libraries/CMSIS/Include\cmsis_gcc.h **** 
 678:C:/Workspaces/DAVE-4.3/WS_2016_09_02/Flightcontroller_PWM_CopterRocks_Working/Libraries/CMSIS/Include\cmsis_gcc.h **** 
 679:C:/Workspaces/DAVE-4.3/WS_2016_09_02/Flightcontroller_PWM_CopterRocks_Working/Libraries/CMSIS/Include\cmsis_gcc.h **** /**
 680:C:/Workspaces/DAVE-4.3/WS_2016_09_02/Flightcontroller_PWM_CopterRocks_Working/Libraries/CMSIS/Include\cmsis_gcc.h ****   \brief   Signed Saturate
 681:C:/Workspaces/DAVE-4.3/WS_2016_09_02/Flightcontroller_PWM_CopterRocks_Working/Libraries/CMSIS/Include\cmsis_gcc.h ****   \details Saturates a signed value.
 682:C:/Workspaces/DAVE-4.3/WS_2016_09_02/Flightcontroller_PWM_CopterRocks_Working/Libraries/CMSIS/Include\cmsis_gcc.h ****   \param [in]  value  Value to be saturated
 683:C:/Workspaces/DAVE-4.3/WS_2016_09_02/Flightcontroller_PWM_CopterRocks_Working/Libraries/CMSIS/Include\cmsis_gcc.h ****   \param [in]    sat  Bit position to saturate to (1..32)
 684:C:/Workspaces/DAVE-4.3/WS_2016_09_02/Flightcontroller_PWM_CopterRocks_Working/Libraries/CMSIS/Include\cmsis_gcc.h ****   \return             Saturated value
 685:C:/Workspaces/DAVE-4.3/WS_2016_09_02/Flightcontroller_PWM_CopterRocks_Working/Libraries/CMSIS/Include\cmsis_gcc.h ****  */
 686:C:/Workspaces/DAVE-4.3/WS_2016_09_02/Flightcontroller_PWM_CopterRocks_Working/Libraries/CMSIS/Include\cmsis_gcc.h **** #define __SSAT(ARG1,ARG2) \
 687:C:/Workspaces/DAVE-4.3/WS_2016_09_02/Flightcontroller_PWM_CopterRocks_Working/Libraries/CMSIS/Include\cmsis_gcc.h **** ({                          \
 688:C:/Workspaces/DAVE-4.3/WS_2016_09_02/Flightcontroller_PWM_CopterRocks_Working/Libraries/CMSIS/Include\cmsis_gcc.h ****   uint32_t __RES, __ARG1 = (ARG1); \
 689:C:/Workspaces/DAVE-4.3/WS_2016_09_02/Flightcontroller_PWM_CopterRocks_Working/Libraries/CMSIS/Include\cmsis_gcc.h ****   __ASM ("ssat %0, %1, %2" : "=r" (__RES) :  "I" (ARG2), "r" (__ARG1) ); \
 690:C:/Workspaces/DAVE-4.3/WS_2016_09_02/Flightcontroller_PWM_CopterRocks_Working/Libraries/CMSIS/Include\cmsis_gcc.h ****   __RES; \
 691:C:/Workspaces/DAVE-4.3/WS_2016_09_02/Flightcontroller_PWM_CopterRocks_Working/Libraries/CMSIS/Include\cmsis_gcc.h ****  })
 692:C:/Workspaces/DAVE-4.3/WS_2016_09_02/Flightcontroller_PWM_CopterRocks_Working/Libraries/CMSIS/Include\cmsis_gcc.h **** 
 693:C:/Workspaces/DAVE-4.3/WS_2016_09_02/Flightcontroller_PWM_CopterRocks_Working/Libraries/CMSIS/Include\cmsis_gcc.h **** 
 694:C:/Workspaces/DAVE-4.3/WS_2016_09_02/Flightcontroller_PWM_CopterRocks_Working/Libraries/CMSIS/Include\cmsis_gcc.h **** /**
 695:C:/Workspaces/DAVE-4.3/WS_2016_09_02/Flightcontroller_PWM_CopterRocks_Working/Libraries/CMSIS/Include\cmsis_gcc.h ****   \brief   Unsigned Saturate
 696:C:/Workspaces/DAVE-4.3/WS_2016_09_02/Flightcontroller_PWM_CopterRocks_Working/Libraries/CMSIS/Include\cmsis_gcc.h ****   \details Saturates an unsigned value.
 697:C:/Workspaces/DAVE-4.3/WS_2016_09_02/Flightcontroller_PWM_CopterRocks_Working/Libraries/CMSIS/Include\cmsis_gcc.h ****   \param [in]  value  Value to be saturated
 698:C:/Workspaces/DAVE-4.3/WS_2016_09_02/Flightcontroller_PWM_CopterRocks_Working/Libraries/CMSIS/Include\cmsis_gcc.h ****   \param [in]    sat  Bit position to saturate to (0..31)
 699:C:/Workspaces/DAVE-4.3/WS_2016_09_02/Flightcontroller_PWM_CopterRocks_Working/Libraries/CMSIS/Include\cmsis_gcc.h ****   \return             Saturated value
 700:C:/Workspaces/DAVE-4.3/WS_2016_09_02/Flightcontroller_PWM_CopterRocks_Working/Libraries/CMSIS/Include\cmsis_gcc.h ****  */
 701:C:/Workspaces/DAVE-4.3/WS_2016_09_02/Flightcontroller_PWM_CopterRocks_Working/Libraries/CMSIS/Include\cmsis_gcc.h **** #define __USAT(ARG1,ARG2) \
 702:C:/Workspaces/DAVE-4.3/WS_2016_09_02/Flightcontroller_PWM_CopterRocks_Working/Libraries/CMSIS/Include\cmsis_gcc.h **** ({                          \
 703:C:/Workspaces/DAVE-4.3/WS_2016_09_02/Flightcontroller_PWM_CopterRocks_Working/Libraries/CMSIS/Include\cmsis_gcc.h ****   uint32_t __RES, __ARG1 = (ARG1); \
 704:C:/Workspaces/DAVE-4.3/WS_2016_09_02/Flightcontroller_PWM_CopterRocks_Working/Libraries/CMSIS/Include\cmsis_gcc.h ****   __ASM ("usat %0, %1, %2" : "=r" (__RES) :  "I" (ARG2), "r" (__ARG1) ); \
 705:C:/Workspaces/DAVE-4.3/WS_2016_09_02/Flightcontroller_PWM_CopterRocks_Working/Libraries/CMSIS/Include\cmsis_gcc.h ****   __RES; \
 706:C:/Workspaces/DAVE-4.3/WS_2016_09_02/Flightcontroller_PWM_CopterRocks_Working/Libraries/CMSIS/Include\cmsis_gcc.h ****  })
 707:C:/Workspaces/DAVE-4.3/WS_2016_09_02/Flightcontroller_PWM_CopterRocks_Working/Libraries/CMSIS/Include\cmsis_gcc.h **** 
 708:C:/Workspaces/DAVE-4.3/WS_2016_09_02/Flightcontroller_PWM_CopterRocks_Working/Libraries/CMSIS/Include\cmsis_gcc.h **** 
 709:C:/Workspaces/DAVE-4.3/WS_2016_09_02/Flightcontroller_PWM_CopterRocks_Working/Libraries/CMSIS/Include\cmsis_gcc.h **** /**
 710:C:/Workspaces/DAVE-4.3/WS_2016_09_02/Flightcontroller_PWM_CopterRocks_Working/Libraries/CMSIS/Include\cmsis_gcc.h ****   \brief   Rotate Right with Extend (32 bit)
 711:C:/Workspaces/DAVE-4.3/WS_2016_09_02/Flightcontroller_PWM_CopterRocks_Working/Libraries/CMSIS/Include\cmsis_gcc.h ****   \details Moves each bit of a bitstring right by one bit.
 712:C:/Workspaces/DAVE-4.3/WS_2016_09_02/Flightcontroller_PWM_CopterRocks_Working/Libraries/CMSIS/Include\cmsis_gcc.h ****            The carry input is shifted in at the left end of the bitstring.
 713:C:/Workspaces/DAVE-4.3/WS_2016_09_02/Flightcontroller_PWM_CopterRocks_Working/Libraries/CMSIS/Include\cmsis_gcc.h ****   \param [in]    value  Value to rotate
 714:C:/Workspaces/DAVE-4.3/WS_2016_09_02/Flightcontroller_PWM_CopterRocks_Working/Libraries/CMSIS/Include\cmsis_gcc.h ****   \return               Rotated value
 715:C:/Workspaces/DAVE-4.3/WS_2016_09_02/Flightcontroller_PWM_CopterRocks_Working/Libraries/CMSIS/Include\cmsis_gcc.h ****  */
 716:C:/Workspaces/DAVE-4.3/WS_2016_09_02/Flightcontroller_PWM_CopterRocks_Working/Libraries/CMSIS/Include\cmsis_gcc.h **** __attribute__((always_inline)) __STATIC_INLINE uint32_t __RRX(uint32_t value)
 717:C:/Workspaces/DAVE-4.3/WS_2016_09_02/Flightcontroller_PWM_CopterRocks_Working/Libraries/CMSIS/Include\cmsis_gcc.h **** {
 718:C:/Workspaces/DAVE-4.3/WS_2016_09_02/Flightcontroller_PWM_CopterRocks_Working/Libraries/CMSIS/Include\cmsis_gcc.h ****   uint32_t result;
 719:C:/Workspaces/DAVE-4.3/WS_2016_09_02/Flightcontroller_PWM_CopterRocks_Working/Libraries/CMSIS/Include\cmsis_gcc.h **** 
 720:C:/Workspaces/DAVE-4.3/WS_2016_09_02/Flightcontroller_PWM_CopterRocks_Working/Libraries/CMSIS/Include\cmsis_gcc.h ****   __ASM volatile ("rrx %0, %1" : __CMSIS_GCC_OUT_REG (result) : __CMSIS_GCC_USE_REG (value) );
 721:C:/Workspaces/DAVE-4.3/WS_2016_09_02/Flightcontroller_PWM_CopterRocks_Working/Libraries/CMSIS/Include\cmsis_gcc.h ****   return(result);
 722:C:/Workspaces/DAVE-4.3/WS_2016_09_02/Flightcontroller_PWM_CopterRocks_Working/Libraries/CMSIS/Include\cmsis_gcc.h **** }
 723:C:/Workspaces/DAVE-4.3/WS_2016_09_02/Flightcontroller_PWM_CopterRocks_Working/Libraries/CMSIS/Include\cmsis_gcc.h **** 
 724:C:/Workspaces/DAVE-4.3/WS_2016_09_02/Flightcontroller_PWM_CopterRocks_Working/Libraries/CMSIS/Include\cmsis_gcc.h **** 
 725:C:/Workspaces/DAVE-4.3/WS_2016_09_02/Flightcontroller_PWM_CopterRocks_Working/Libraries/CMSIS/Include\cmsis_gcc.h **** /**
 726:C:/Workspaces/DAVE-4.3/WS_2016_09_02/Flightcontroller_PWM_CopterRocks_Working/Libraries/CMSIS/Include\cmsis_gcc.h ****   \brief   LDRT Unprivileged (8 bit)
 727:C:/Workspaces/DAVE-4.3/WS_2016_09_02/Flightcontroller_PWM_CopterRocks_Working/Libraries/CMSIS/Include\cmsis_gcc.h ****   \details Executes a Unprivileged LDRT instruction for 8 bit value.
 728:C:/Workspaces/DAVE-4.3/WS_2016_09_02/Flightcontroller_PWM_CopterRocks_Working/Libraries/CMSIS/Include\cmsis_gcc.h ****   \param [in]    ptr  Pointer to data
 729:C:/Workspaces/DAVE-4.3/WS_2016_09_02/Flightcontroller_PWM_CopterRocks_Working/Libraries/CMSIS/Include\cmsis_gcc.h ****   \return             value of type uint8_t at (*ptr)
 730:C:/Workspaces/DAVE-4.3/WS_2016_09_02/Flightcontroller_PWM_CopterRocks_Working/Libraries/CMSIS/Include\cmsis_gcc.h ****  */
 731:C:/Workspaces/DAVE-4.3/WS_2016_09_02/Flightcontroller_PWM_CopterRocks_Working/Libraries/CMSIS/Include\cmsis_gcc.h **** __attribute__((always_inline)) __STATIC_INLINE uint8_t __LDRBT(volatile uint8_t *addr)
 732:C:/Workspaces/DAVE-4.3/WS_2016_09_02/Flightcontroller_PWM_CopterRocks_Working/Libraries/CMSIS/Include\cmsis_gcc.h **** {
 733:C:/Workspaces/DAVE-4.3/WS_2016_09_02/Flightcontroller_PWM_CopterRocks_Working/Libraries/CMSIS/Include\cmsis_gcc.h ****     uint32_t result;
 734:C:/Workspaces/DAVE-4.3/WS_2016_09_02/Flightcontroller_PWM_CopterRocks_Working/Libraries/CMSIS/Include\cmsis_gcc.h **** 
 735:C:/Workspaces/DAVE-4.3/WS_2016_09_02/Flightcontroller_PWM_CopterRocks_Working/Libraries/CMSIS/Include\cmsis_gcc.h **** #if (__GNUC__ > 4) || (__GNUC__ == 4 && __GNUC_MINOR__ >= 8)
 736:C:/Workspaces/DAVE-4.3/WS_2016_09_02/Flightcontroller_PWM_CopterRocks_Working/Libraries/CMSIS/Include\cmsis_gcc.h ****    __ASM volatile ("ldrbt %0, %1" : "=r" (result) : "Q" (*addr) );
 737:C:/Workspaces/DAVE-4.3/WS_2016_09_02/Flightcontroller_PWM_CopterRocks_Working/Libraries/CMSIS/Include\cmsis_gcc.h **** #else
 738:C:/Workspaces/DAVE-4.3/WS_2016_09_02/Flightcontroller_PWM_CopterRocks_Working/Libraries/CMSIS/Include\cmsis_gcc.h ****     /* Prior to GCC 4.8, "Q" will be expanded to [rx, #0] which is not
 739:C:/Workspaces/DAVE-4.3/WS_2016_09_02/Flightcontroller_PWM_CopterRocks_Working/Libraries/CMSIS/Include\cmsis_gcc.h ****        accepted by assembler. So has to use following less efficient pattern.
 740:C:/Workspaces/DAVE-4.3/WS_2016_09_02/Flightcontroller_PWM_CopterRocks_Working/Libraries/CMSIS/Include\cmsis_gcc.h ****     */
 741:C:/Workspaces/DAVE-4.3/WS_2016_09_02/Flightcontroller_PWM_CopterRocks_Working/Libraries/CMSIS/Include\cmsis_gcc.h ****    __ASM volatile ("ldrbt %0, [%1]" : "=r" (result) : "r" (addr) : "memory" );
 742:C:/Workspaces/DAVE-4.3/WS_2016_09_02/Flightcontroller_PWM_CopterRocks_Working/Libraries/CMSIS/Include\cmsis_gcc.h **** #endif
 743:C:/Workspaces/DAVE-4.3/WS_2016_09_02/Flightcontroller_PWM_CopterRocks_Working/Libraries/CMSIS/Include\cmsis_gcc.h ****    return ((uint8_t) result);    /* Add explicit type cast here */
 744:C:/Workspaces/DAVE-4.3/WS_2016_09_02/Flightcontroller_PWM_CopterRocks_Working/Libraries/CMSIS/Include\cmsis_gcc.h **** }
 745:C:/Workspaces/DAVE-4.3/WS_2016_09_02/Flightcontroller_PWM_CopterRocks_Working/Libraries/CMSIS/Include\cmsis_gcc.h **** 
 746:C:/Workspaces/DAVE-4.3/WS_2016_09_02/Flightcontroller_PWM_CopterRocks_Working/Libraries/CMSIS/Include\cmsis_gcc.h **** 
 747:C:/Workspaces/DAVE-4.3/WS_2016_09_02/Flightcontroller_PWM_CopterRocks_Working/Libraries/CMSIS/Include\cmsis_gcc.h **** /**
 748:C:/Workspaces/DAVE-4.3/WS_2016_09_02/Flightcontroller_PWM_CopterRocks_Working/Libraries/CMSIS/Include\cmsis_gcc.h ****   \brief   LDRT Unprivileged (16 bit)
 749:C:/Workspaces/DAVE-4.3/WS_2016_09_02/Flightcontroller_PWM_CopterRocks_Working/Libraries/CMSIS/Include\cmsis_gcc.h ****   \details Executes a Unprivileged LDRT instruction for 16 bit values.
 750:C:/Workspaces/DAVE-4.3/WS_2016_09_02/Flightcontroller_PWM_CopterRocks_Working/Libraries/CMSIS/Include\cmsis_gcc.h ****   \param [in]    ptr  Pointer to data
 751:C:/Workspaces/DAVE-4.3/WS_2016_09_02/Flightcontroller_PWM_CopterRocks_Working/Libraries/CMSIS/Include\cmsis_gcc.h ****   \return        value of type uint16_t at (*ptr)
 752:C:/Workspaces/DAVE-4.3/WS_2016_09_02/Flightcontroller_PWM_CopterRocks_Working/Libraries/CMSIS/Include\cmsis_gcc.h ****  */
 753:C:/Workspaces/DAVE-4.3/WS_2016_09_02/Flightcontroller_PWM_CopterRocks_Working/Libraries/CMSIS/Include\cmsis_gcc.h **** __attribute__((always_inline)) __STATIC_INLINE uint16_t __LDRHT(volatile uint16_t *addr)
 754:C:/Workspaces/DAVE-4.3/WS_2016_09_02/Flightcontroller_PWM_CopterRocks_Working/Libraries/CMSIS/Include\cmsis_gcc.h **** {
 755:C:/Workspaces/DAVE-4.3/WS_2016_09_02/Flightcontroller_PWM_CopterRocks_Working/Libraries/CMSIS/Include\cmsis_gcc.h ****     uint32_t result;
 756:C:/Workspaces/DAVE-4.3/WS_2016_09_02/Flightcontroller_PWM_CopterRocks_Working/Libraries/CMSIS/Include\cmsis_gcc.h **** 
 757:C:/Workspaces/DAVE-4.3/WS_2016_09_02/Flightcontroller_PWM_CopterRocks_Working/Libraries/CMSIS/Include\cmsis_gcc.h **** #if (__GNUC__ > 4) || (__GNUC__ == 4 && __GNUC_MINOR__ >= 8)
 758:C:/Workspaces/DAVE-4.3/WS_2016_09_02/Flightcontroller_PWM_CopterRocks_Working/Libraries/CMSIS/Include\cmsis_gcc.h ****    __ASM volatile ("ldrht %0, %1" : "=r" (result) : "Q" (*addr) );
 759:C:/Workspaces/DAVE-4.3/WS_2016_09_02/Flightcontroller_PWM_CopterRocks_Working/Libraries/CMSIS/Include\cmsis_gcc.h **** #else
 760:C:/Workspaces/DAVE-4.3/WS_2016_09_02/Flightcontroller_PWM_CopterRocks_Working/Libraries/CMSIS/Include\cmsis_gcc.h ****     /* Prior to GCC 4.8, "Q" will be expanded to [rx, #0] which is not
 761:C:/Workspaces/DAVE-4.3/WS_2016_09_02/Flightcontroller_PWM_CopterRocks_Working/Libraries/CMSIS/Include\cmsis_gcc.h ****        accepted by assembler. So has to use following less efficient pattern.
 762:C:/Workspaces/DAVE-4.3/WS_2016_09_02/Flightcontroller_PWM_CopterRocks_Working/Libraries/CMSIS/Include\cmsis_gcc.h ****     */
 763:C:/Workspaces/DAVE-4.3/WS_2016_09_02/Flightcontroller_PWM_CopterRocks_Working/Libraries/CMSIS/Include\cmsis_gcc.h ****    __ASM volatile ("ldrht %0, [%1]" : "=r" (result) : "r" (addr) : "memory" );
 764:C:/Workspaces/DAVE-4.3/WS_2016_09_02/Flightcontroller_PWM_CopterRocks_Working/Libraries/CMSIS/Include\cmsis_gcc.h **** #endif
 765:C:/Workspaces/DAVE-4.3/WS_2016_09_02/Flightcontroller_PWM_CopterRocks_Working/Libraries/CMSIS/Include\cmsis_gcc.h ****    return ((uint16_t) result);    /* Add explicit type cast here */
 766:C:/Workspaces/DAVE-4.3/WS_2016_09_02/Flightcontroller_PWM_CopterRocks_Working/Libraries/CMSIS/Include\cmsis_gcc.h **** }
 767:C:/Workspaces/DAVE-4.3/WS_2016_09_02/Flightcontroller_PWM_CopterRocks_Working/Libraries/CMSIS/Include\cmsis_gcc.h **** 
 768:C:/Workspaces/DAVE-4.3/WS_2016_09_02/Flightcontroller_PWM_CopterRocks_Working/Libraries/CMSIS/Include\cmsis_gcc.h **** 
 769:C:/Workspaces/DAVE-4.3/WS_2016_09_02/Flightcontroller_PWM_CopterRocks_Working/Libraries/CMSIS/Include\cmsis_gcc.h **** /**
 770:C:/Workspaces/DAVE-4.3/WS_2016_09_02/Flightcontroller_PWM_CopterRocks_Working/Libraries/CMSIS/Include\cmsis_gcc.h ****   \brief   LDRT Unprivileged (32 bit)
 771:C:/Workspaces/DAVE-4.3/WS_2016_09_02/Flightcontroller_PWM_CopterRocks_Working/Libraries/CMSIS/Include\cmsis_gcc.h ****   \details Executes a Unprivileged LDRT instruction for 32 bit values.
 772:C:/Workspaces/DAVE-4.3/WS_2016_09_02/Flightcontroller_PWM_CopterRocks_Working/Libraries/CMSIS/Include\cmsis_gcc.h ****   \param [in]    ptr  Pointer to data
 773:C:/Workspaces/DAVE-4.3/WS_2016_09_02/Flightcontroller_PWM_CopterRocks_Working/Libraries/CMSIS/Include\cmsis_gcc.h ****   \return        value of type uint32_t at (*ptr)
 774:C:/Workspaces/DAVE-4.3/WS_2016_09_02/Flightcontroller_PWM_CopterRocks_Working/Libraries/CMSIS/Include\cmsis_gcc.h ****  */
 775:C:/Workspaces/DAVE-4.3/WS_2016_09_02/Flightcontroller_PWM_CopterRocks_Working/Libraries/CMSIS/Include\cmsis_gcc.h **** __attribute__((always_inline)) __STATIC_INLINE uint32_t __LDRT(volatile uint32_t *addr)
 776:C:/Workspaces/DAVE-4.3/WS_2016_09_02/Flightcontroller_PWM_CopterRocks_Working/Libraries/CMSIS/Include\cmsis_gcc.h **** {
 777:C:/Workspaces/DAVE-4.3/WS_2016_09_02/Flightcontroller_PWM_CopterRocks_Working/Libraries/CMSIS/Include\cmsis_gcc.h ****     uint32_t result;
 778:C:/Workspaces/DAVE-4.3/WS_2016_09_02/Flightcontroller_PWM_CopterRocks_Working/Libraries/CMSIS/Include\cmsis_gcc.h **** 
 779:C:/Workspaces/DAVE-4.3/WS_2016_09_02/Flightcontroller_PWM_CopterRocks_Working/Libraries/CMSIS/Include\cmsis_gcc.h ****    __ASM volatile ("ldrt %0, %1" : "=r" (result) : "Q" (*addr) );
 780:C:/Workspaces/DAVE-4.3/WS_2016_09_02/Flightcontroller_PWM_CopterRocks_Working/Libraries/CMSIS/Include\cmsis_gcc.h ****    return(result);
 781:C:/Workspaces/DAVE-4.3/WS_2016_09_02/Flightcontroller_PWM_CopterRocks_Working/Libraries/CMSIS/Include\cmsis_gcc.h **** }
 782:C:/Workspaces/DAVE-4.3/WS_2016_09_02/Flightcontroller_PWM_CopterRocks_Working/Libraries/CMSIS/Include\cmsis_gcc.h **** 
 783:C:/Workspaces/DAVE-4.3/WS_2016_09_02/Flightcontroller_PWM_CopterRocks_Working/Libraries/CMSIS/Include\cmsis_gcc.h **** 
 784:C:/Workspaces/DAVE-4.3/WS_2016_09_02/Flightcontroller_PWM_CopterRocks_Working/Libraries/CMSIS/Include\cmsis_gcc.h **** /**
 785:C:/Workspaces/DAVE-4.3/WS_2016_09_02/Flightcontroller_PWM_CopterRocks_Working/Libraries/CMSIS/Include\cmsis_gcc.h ****   \brief   STRT Unprivileged (8 bit)
 786:C:/Workspaces/DAVE-4.3/WS_2016_09_02/Flightcontroller_PWM_CopterRocks_Working/Libraries/CMSIS/Include\cmsis_gcc.h ****   \details Executes a Unprivileged STRT instruction for 8 bit values.
 787:C:/Workspaces/DAVE-4.3/WS_2016_09_02/Flightcontroller_PWM_CopterRocks_Working/Libraries/CMSIS/Include\cmsis_gcc.h ****   \param [in]  value  Value to store
 788:C:/Workspaces/DAVE-4.3/WS_2016_09_02/Flightcontroller_PWM_CopterRocks_Working/Libraries/CMSIS/Include\cmsis_gcc.h ****   \param [in]    ptr  Pointer to location
 789:C:/Workspaces/DAVE-4.3/WS_2016_09_02/Flightcontroller_PWM_CopterRocks_Working/Libraries/CMSIS/Include\cmsis_gcc.h ****  */
 790:C:/Workspaces/DAVE-4.3/WS_2016_09_02/Flightcontroller_PWM_CopterRocks_Working/Libraries/CMSIS/Include\cmsis_gcc.h **** __attribute__((always_inline)) __STATIC_INLINE void __STRBT(uint8_t value, volatile uint8_t *addr)
 791:C:/Workspaces/DAVE-4.3/WS_2016_09_02/Flightcontroller_PWM_CopterRocks_Working/Libraries/CMSIS/Include\cmsis_gcc.h **** {
 792:C:/Workspaces/DAVE-4.3/WS_2016_09_02/Flightcontroller_PWM_CopterRocks_Working/Libraries/CMSIS/Include\cmsis_gcc.h ****    __ASM volatile ("strbt %1, %0" : "=Q" (*addr) : "r" ((uint32_t)value) );
 793:C:/Workspaces/DAVE-4.3/WS_2016_09_02/Flightcontroller_PWM_CopterRocks_Working/Libraries/CMSIS/Include\cmsis_gcc.h **** }
 794:C:/Workspaces/DAVE-4.3/WS_2016_09_02/Flightcontroller_PWM_CopterRocks_Working/Libraries/CMSIS/Include\cmsis_gcc.h **** 
 795:C:/Workspaces/DAVE-4.3/WS_2016_09_02/Flightcontroller_PWM_CopterRocks_Working/Libraries/CMSIS/Include\cmsis_gcc.h **** 
 796:C:/Workspaces/DAVE-4.3/WS_2016_09_02/Flightcontroller_PWM_CopterRocks_Working/Libraries/CMSIS/Include\cmsis_gcc.h **** /**
 797:C:/Workspaces/DAVE-4.3/WS_2016_09_02/Flightcontroller_PWM_CopterRocks_Working/Libraries/CMSIS/Include\cmsis_gcc.h ****   \brief   STRT Unprivileged (16 bit)
 798:C:/Workspaces/DAVE-4.3/WS_2016_09_02/Flightcontroller_PWM_CopterRocks_Working/Libraries/CMSIS/Include\cmsis_gcc.h ****   \details Executes a Unprivileged STRT instruction for 16 bit values.
 799:C:/Workspaces/DAVE-4.3/WS_2016_09_02/Flightcontroller_PWM_CopterRocks_Working/Libraries/CMSIS/Include\cmsis_gcc.h ****   \param [in]  value  Value to store
 800:C:/Workspaces/DAVE-4.3/WS_2016_09_02/Flightcontroller_PWM_CopterRocks_Working/Libraries/CMSIS/Include\cmsis_gcc.h ****   \param [in]    ptr  Pointer to location
 801:C:/Workspaces/DAVE-4.3/WS_2016_09_02/Flightcontroller_PWM_CopterRocks_Working/Libraries/CMSIS/Include\cmsis_gcc.h ****  */
 802:C:/Workspaces/DAVE-4.3/WS_2016_09_02/Flightcontroller_PWM_CopterRocks_Working/Libraries/CMSIS/Include\cmsis_gcc.h **** __attribute__((always_inline)) __STATIC_INLINE void __STRHT(uint16_t value, volatile uint16_t *addr
 803:C:/Workspaces/DAVE-4.3/WS_2016_09_02/Flightcontroller_PWM_CopterRocks_Working/Libraries/CMSIS/Include\cmsis_gcc.h **** {
 804:C:/Workspaces/DAVE-4.3/WS_2016_09_02/Flightcontroller_PWM_CopterRocks_Working/Libraries/CMSIS/Include\cmsis_gcc.h ****    __ASM volatile ("strht %1, %0" : "=Q" (*addr) : "r" ((uint32_t)value) );
 805:C:/Workspaces/DAVE-4.3/WS_2016_09_02/Flightcontroller_PWM_CopterRocks_Working/Libraries/CMSIS/Include\cmsis_gcc.h **** }
 806:C:/Workspaces/DAVE-4.3/WS_2016_09_02/Flightcontroller_PWM_CopterRocks_Working/Libraries/CMSIS/Include\cmsis_gcc.h **** 
 807:C:/Workspaces/DAVE-4.3/WS_2016_09_02/Flightcontroller_PWM_CopterRocks_Working/Libraries/CMSIS/Include\cmsis_gcc.h **** 
 808:C:/Workspaces/DAVE-4.3/WS_2016_09_02/Flightcontroller_PWM_CopterRocks_Working/Libraries/CMSIS/Include\cmsis_gcc.h **** /**
 809:C:/Workspaces/DAVE-4.3/WS_2016_09_02/Flightcontroller_PWM_CopterRocks_Working/Libraries/CMSIS/Include\cmsis_gcc.h ****   \brief   STRT Unprivileged (32 bit)
 810:C:/Workspaces/DAVE-4.3/WS_2016_09_02/Flightcontroller_PWM_CopterRocks_Working/Libraries/CMSIS/Include\cmsis_gcc.h ****   \details Executes a Unprivileged STRT instruction for 32 bit values.
 811:C:/Workspaces/DAVE-4.3/WS_2016_09_02/Flightcontroller_PWM_CopterRocks_Working/Libraries/CMSIS/Include\cmsis_gcc.h ****   \param [in]  value  Value to store
 812:C:/Workspaces/DAVE-4.3/WS_2016_09_02/Flightcontroller_PWM_CopterRocks_Working/Libraries/CMSIS/Include\cmsis_gcc.h ****   \param [in]    ptr  Pointer to location
 813:C:/Workspaces/DAVE-4.3/WS_2016_09_02/Flightcontroller_PWM_CopterRocks_Working/Libraries/CMSIS/Include\cmsis_gcc.h ****  */
 814:C:/Workspaces/DAVE-4.3/WS_2016_09_02/Flightcontroller_PWM_CopterRocks_Working/Libraries/CMSIS/Include\cmsis_gcc.h **** __attribute__((always_inline)) __STATIC_INLINE void __STRT(uint32_t value, volatile uint32_t *addr)
 815:C:/Workspaces/DAVE-4.3/WS_2016_09_02/Flightcontroller_PWM_CopterRocks_Working/Libraries/CMSIS/Include\cmsis_gcc.h **** {
 816:C:/Workspaces/DAVE-4.3/WS_2016_09_02/Flightcontroller_PWM_CopterRocks_Working/Libraries/CMSIS/Include\cmsis_gcc.h ****    __ASM volatile ("strt %1, %0" : "=Q" (*addr) : "r" (value) );
 817:C:/Workspaces/DAVE-4.3/WS_2016_09_02/Flightcontroller_PWM_CopterRocks_Working/Libraries/CMSIS/Include\cmsis_gcc.h **** }
 818:C:/Workspaces/DAVE-4.3/WS_2016_09_02/Flightcontroller_PWM_CopterRocks_Working/Libraries/CMSIS/Include\cmsis_gcc.h **** 
 819:C:/Workspaces/DAVE-4.3/WS_2016_09_02/Flightcontroller_PWM_CopterRocks_Working/Libraries/CMSIS/Include\cmsis_gcc.h **** #endif /* (__CORTEX_M >= 0x03U) || (__CORTEX_SC >= 300U) */
 820:C:/Workspaces/DAVE-4.3/WS_2016_09_02/Flightcontroller_PWM_CopterRocks_Working/Libraries/CMSIS/Include\cmsis_gcc.h **** 
 821:C:/Workspaces/DAVE-4.3/WS_2016_09_02/Flightcontroller_PWM_CopterRocks_Working/Libraries/CMSIS/Include\cmsis_gcc.h **** /*@}*/ /* end of group CMSIS_Core_InstructionInterface */
 822:C:/Workspaces/DAVE-4.3/WS_2016_09_02/Flightcontroller_PWM_CopterRocks_Working/Libraries/CMSIS/Include\cmsis_gcc.h **** 
 823:C:/Workspaces/DAVE-4.3/WS_2016_09_02/Flightcontroller_PWM_CopterRocks_Working/Libraries/CMSIS/Include\cmsis_gcc.h **** 
 824:C:/Workspaces/DAVE-4.3/WS_2016_09_02/Flightcontroller_PWM_CopterRocks_Working/Libraries/CMSIS/Include\cmsis_gcc.h **** /* ###################  Compiler specific Intrinsics  ########################### */
 825:C:/Workspaces/DAVE-4.3/WS_2016_09_02/Flightcontroller_PWM_CopterRocks_Working/Libraries/CMSIS/Include\cmsis_gcc.h **** /** \defgroup CMSIS_SIMD_intrinsics CMSIS SIMD Intrinsics
 826:C:/Workspaces/DAVE-4.3/WS_2016_09_02/Flightcontroller_PWM_CopterRocks_Working/Libraries/CMSIS/Include\cmsis_gcc.h ****   Access to dedicated SIMD instructions
 827:C:/Workspaces/DAVE-4.3/WS_2016_09_02/Flightcontroller_PWM_CopterRocks_Working/Libraries/CMSIS/Include\cmsis_gcc.h ****   @{
 828:C:/Workspaces/DAVE-4.3/WS_2016_09_02/Flightcontroller_PWM_CopterRocks_Working/Libraries/CMSIS/Include\cmsis_gcc.h **** */
 829:C:/Workspaces/DAVE-4.3/WS_2016_09_02/Flightcontroller_PWM_CopterRocks_Working/Libraries/CMSIS/Include\cmsis_gcc.h **** 
 830:C:/Workspaces/DAVE-4.3/WS_2016_09_02/Flightcontroller_PWM_CopterRocks_Working/Libraries/CMSIS/Include\cmsis_gcc.h **** #if (__CORTEX_M >= 0x04U)  /* only for Cortex-M4 and above */
 831:C:/Workspaces/DAVE-4.3/WS_2016_09_02/Flightcontroller_PWM_CopterRocks_Working/Libraries/CMSIS/Include\cmsis_gcc.h **** 
 832:C:/Workspaces/DAVE-4.3/WS_2016_09_02/Flightcontroller_PWM_CopterRocks_Working/Libraries/CMSIS/Include\cmsis_gcc.h **** __attribute__( ( always_inline ) ) __STATIC_INLINE uint32_t __SADD8(uint32_t op1, uint32_t op2)
 833:C:/Workspaces/DAVE-4.3/WS_2016_09_02/Flightcontroller_PWM_CopterRocks_Working/Libraries/CMSIS/Include\cmsis_gcc.h **** {
 834:C:/Workspaces/DAVE-4.3/WS_2016_09_02/Flightcontroller_PWM_CopterRocks_Working/Libraries/CMSIS/Include\cmsis_gcc.h ****   uint32_t result;
 835:C:/Workspaces/DAVE-4.3/WS_2016_09_02/Flightcontroller_PWM_CopterRocks_Working/Libraries/CMSIS/Include\cmsis_gcc.h **** 
 836:C:/Workspaces/DAVE-4.3/WS_2016_09_02/Flightcontroller_PWM_CopterRocks_Working/Libraries/CMSIS/Include\cmsis_gcc.h ****   __ASM volatile ("sadd8 %0, %1, %2" : "=r" (result) : "r" (op1), "r" (op2) );
 837:C:/Workspaces/DAVE-4.3/WS_2016_09_02/Flightcontroller_PWM_CopterRocks_Working/Libraries/CMSIS/Include\cmsis_gcc.h ****   return(result);
 838:C:/Workspaces/DAVE-4.3/WS_2016_09_02/Flightcontroller_PWM_CopterRocks_Working/Libraries/CMSIS/Include\cmsis_gcc.h **** }
 839:C:/Workspaces/DAVE-4.3/WS_2016_09_02/Flightcontroller_PWM_CopterRocks_Working/Libraries/CMSIS/Include\cmsis_gcc.h **** 
 840:C:/Workspaces/DAVE-4.3/WS_2016_09_02/Flightcontroller_PWM_CopterRocks_Working/Libraries/CMSIS/Include\cmsis_gcc.h **** __attribute__( ( always_inline ) ) __STATIC_INLINE uint32_t __QADD8(uint32_t op1, uint32_t op2)
 841:C:/Workspaces/DAVE-4.3/WS_2016_09_02/Flightcontroller_PWM_CopterRocks_Working/Libraries/CMSIS/Include\cmsis_gcc.h **** {
 842:C:/Workspaces/DAVE-4.3/WS_2016_09_02/Flightcontroller_PWM_CopterRocks_Working/Libraries/CMSIS/Include\cmsis_gcc.h ****   uint32_t result;
 843:C:/Workspaces/DAVE-4.3/WS_2016_09_02/Flightcontroller_PWM_CopterRocks_Working/Libraries/CMSIS/Include\cmsis_gcc.h **** 
 844:C:/Workspaces/DAVE-4.3/WS_2016_09_02/Flightcontroller_PWM_CopterRocks_Working/Libraries/CMSIS/Include\cmsis_gcc.h ****   __ASM volatile ("qadd8 %0, %1, %2" : "=r" (result) : "r" (op1), "r" (op2) );
 845:C:/Workspaces/DAVE-4.3/WS_2016_09_02/Flightcontroller_PWM_CopterRocks_Working/Libraries/CMSIS/Include\cmsis_gcc.h ****   return(result);
 846:C:/Workspaces/DAVE-4.3/WS_2016_09_02/Flightcontroller_PWM_CopterRocks_Working/Libraries/CMSIS/Include\cmsis_gcc.h **** }
 847:C:/Workspaces/DAVE-4.3/WS_2016_09_02/Flightcontroller_PWM_CopterRocks_Working/Libraries/CMSIS/Include\cmsis_gcc.h **** 
 848:C:/Workspaces/DAVE-4.3/WS_2016_09_02/Flightcontroller_PWM_CopterRocks_Working/Libraries/CMSIS/Include\cmsis_gcc.h **** __attribute__( ( always_inline ) ) __STATIC_INLINE uint32_t __SHADD8(uint32_t op1, uint32_t op2)
 849:C:/Workspaces/DAVE-4.3/WS_2016_09_02/Flightcontroller_PWM_CopterRocks_Working/Libraries/CMSIS/Include\cmsis_gcc.h **** {
 850:C:/Workspaces/DAVE-4.3/WS_2016_09_02/Flightcontroller_PWM_CopterRocks_Working/Libraries/CMSIS/Include\cmsis_gcc.h ****   uint32_t result;
 851:C:/Workspaces/DAVE-4.3/WS_2016_09_02/Flightcontroller_PWM_CopterRocks_Working/Libraries/CMSIS/Include\cmsis_gcc.h **** 
 852:C:/Workspaces/DAVE-4.3/WS_2016_09_02/Flightcontroller_PWM_CopterRocks_Working/Libraries/CMSIS/Include\cmsis_gcc.h ****   __ASM volatile ("shadd8 %0, %1, %2" : "=r" (result) : "r" (op1), "r" (op2) );
 853:C:/Workspaces/DAVE-4.3/WS_2016_09_02/Flightcontroller_PWM_CopterRocks_Working/Libraries/CMSIS/Include\cmsis_gcc.h ****   return(result);
 854:C:/Workspaces/DAVE-4.3/WS_2016_09_02/Flightcontroller_PWM_CopterRocks_Working/Libraries/CMSIS/Include\cmsis_gcc.h **** }
 855:C:/Workspaces/DAVE-4.3/WS_2016_09_02/Flightcontroller_PWM_CopterRocks_Working/Libraries/CMSIS/Include\cmsis_gcc.h **** 
 856:C:/Workspaces/DAVE-4.3/WS_2016_09_02/Flightcontroller_PWM_CopterRocks_Working/Libraries/CMSIS/Include\cmsis_gcc.h **** __attribute__( ( always_inline ) ) __STATIC_INLINE uint32_t __UADD8(uint32_t op1, uint32_t op2)
 857:C:/Workspaces/DAVE-4.3/WS_2016_09_02/Flightcontroller_PWM_CopterRocks_Working/Libraries/CMSIS/Include\cmsis_gcc.h **** {
 858:C:/Workspaces/DAVE-4.3/WS_2016_09_02/Flightcontroller_PWM_CopterRocks_Working/Libraries/CMSIS/Include\cmsis_gcc.h ****   uint32_t result;
 859:C:/Workspaces/DAVE-4.3/WS_2016_09_02/Flightcontroller_PWM_CopterRocks_Working/Libraries/CMSIS/Include\cmsis_gcc.h **** 
 860:C:/Workspaces/DAVE-4.3/WS_2016_09_02/Flightcontroller_PWM_CopterRocks_Working/Libraries/CMSIS/Include\cmsis_gcc.h ****   __ASM volatile ("uadd8 %0, %1, %2" : "=r" (result) : "r" (op1), "r" (op2) );
 861:C:/Workspaces/DAVE-4.3/WS_2016_09_02/Flightcontroller_PWM_CopterRocks_Working/Libraries/CMSIS/Include\cmsis_gcc.h ****   return(result);
 862:C:/Workspaces/DAVE-4.3/WS_2016_09_02/Flightcontroller_PWM_CopterRocks_Working/Libraries/CMSIS/Include\cmsis_gcc.h **** }
 863:C:/Workspaces/DAVE-4.3/WS_2016_09_02/Flightcontroller_PWM_CopterRocks_Working/Libraries/CMSIS/Include\cmsis_gcc.h **** 
 864:C:/Workspaces/DAVE-4.3/WS_2016_09_02/Flightcontroller_PWM_CopterRocks_Working/Libraries/CMSIS/Include\cmsis_gcc.h **** __attribute__( ( always_inline ) ) __STATIC_INLINE uint32_t __UQADD8(uint32_t op1, uint32_t op2)
 865:C:/Workspaces/DAVE-4.3/WS_2016_09_02/Flightcontroller_PWM_CopterRocks_Working/Libraries/CMSIS/Include\cmsis_gcc.h **** {
 866:C:/Workspaces/DAVE-4.3/WS_2016_09_02/Flightcontroller_PWM_CopterRocks_Working/Libraries/CMSIS/Include\cmsis_gcc.h ****   uint32_t result;
 867:C:/Workspaces/DAVE-4.3/WS_2016_09_02/Flightcontroller_PWM_CopterRocks_Working/Libraries/CMSIS/Include\cmsis_gcc.h **** 
 868:C:/Workspaces/DAVE-4.3/WS_2016_09_02/Flightcontroller_PWM_CopterRocks_Working/Libraries/CMSIS/Include\cmsis_gcc.h ****   __ASM volatile ("uqadd8 %0, %1, %2" : "=r" (result) : "r" (op1), "r" (op2) );
 869:C:/Workspaces/DAVE-4.3/WS_2016_09_02/Flightcontroller_PWM_CopterRocks_Working/Libraries/CMSIS/Include\cmsis_gcc.h ****   return(result);
 870:C:/Workspaces/DAVE-4.3/WS_2016_09_02/Flightcontroller_PWM_CopterRocks_Working/Libraries/CMSIS/Include\cmsis_gcc.h **** }
 871:C:/Workspaces/DAVE-4.3/WS_2016_09_02/Flightcontroller_PWM_CopterRocks_Working/Libraries/CMSIS/Include\cmsis_gcc.h **** 
 872:C:/Workspaces/DAVE-4.3/WS_2016_09_02/Flightcontroller_PWM_CopterRocks_Working/Libraries/CMSIS/Include\cmsis_gcc.h **** __attribute__( ( always_inline ) ) __STATIC_INLINE uint32_t __UHADD8(uint32_t op1, uint32_t op2)
 873:C:/Workspaces/DAVE-4.3/WS_2016_09_02/Flightcontroller_PWM_CopterRocks_Working/Libraries/CMSIS/Include\cmsis_gcc.h **** {
 874:C:/Workspaces/DAVE-4.3/WS_2016_09_02/Flightcontroller_PWM_CopterRocks_Working/Libraries/CMSIS/Include\cmsis_gcc.h ****   uint32_t result;
 875:C:/Workspaces/DAVE-4.3/WS_2016_09_02/Flightcontroller_PWM_CopterRocks_Working/Libraries/CMSIS/Include\cmsis_gcc.h **** 
 876:C:/Workspaces/DAVE-4.3/WS_2016_09_02/Flightcontroller_PWM_CopterRocks_Working/Libraries/CMSIS/Include\cmsis_gcc.h ****   __ASM volatile ("uhadd8 %0, %1, %2" : "=r" (result) : "r" (op1), "r" (op2) );
 877:C:/Workspaces/DAVE-4.3/WS_2016_09_02/Flightcontroller_PWM_CopterRocks_Working/Libraries/CMSIS/Include\cmsis_gcc.h ****   return(result);
 878:C:/Workspaces/DAVE-4.3/WS_2016_09_02/Flightcontroller_PWM_CopterRocks_Working/Libraries/CMSIS/Include\cmsis_gcc.h **** }
 879:C:/Workspaces/DAVE-4.3/WS_2016_09_02/Flightcontroller_PWM_CopterRocks_Working/Libraries/CMSIS/Include\cmsis_gcc.h **** 
 880:C:/Workspaces/DAVE-4.3/WS_2016_09_02/Flightcontroller_PWM_CopterRocks_Working/Libraries/CMSIS/Include\cmsis_gcc.h **** 
 881:C:/Workspaces/DAVE-4.3/WS_2016_09_02/Flightcontroller_PWM_CopterRocks_Working/Libraries/CMSIS/Include\cmsis_gcc.h **** __attribute__( ( always_inline ) ) __STATIC_INLINE uint32_t __SSUB8(uint32_t op1, uint32_t op2)
 882:C:/Workspaces/DAVE-4.3/WS_2016_09_02/Flightcontroller_PWM_CopterRocks_Working/Libraries/CMSIS/Include\cmsis_gcc.h **** {
 883:C:/Workspaces/DAVE-4.3/WS_2016_09_02/Flightcontroller_PWM_CopterRocks_Working/Libraries/CMSIS/Include\cmsis_gcc.h ****   uint32_t result;
 884:C:/Workspaces/DAVE-4.3/WS_2016_09_02/Flightcontroller_PWM_CopterRocks_Working/Libraries/CMSIS/Include\cmsis_gcc.h **** 
 885:C:/Workspaces/DAVE-4.3/WS_2016_09_02/Flightcontroller_PWM_CopterRocks_Working/Libraries/CMSIS/Include\cmsis_gcc.h ****   __ASM volatile ("ssub8 %0, %1, %2" : "=r" (result) : "r" (op1), "r" (op2) );
 886:C:/Workspaces/DAVE-4.3/WS_2016_09_02/Flightcontroller_PWM_CopterRocks_Working/Libraries/CMSIS/Include\cmsis_gcc.h ****   return(result);
 887:C:/Workspaces/DAVE-4.3/WS_2016_09_02/Flightcontroller_PWM_CopterRocks_Working/Libraries/CMSIS/Include\cmsis_gcc.h **** }
 888:C:/Workspaces/DAVE-4.3/WS_2016_09_02/Flightcontroller_PWM_CopterRocks_Working/Libraries/CMSIS/Include\cmsis_gcc.h **** 
 889:C:/Workspaces/DAVE-4.3/WS_2016_09_02/Flightcontroller_PWM_CopterRocks_Working/Libraries/CMSIS/Include\cmsis_gcc.h **** __attribute__( ( always_inline ) ) __STATIC_INLINE uint32_t __QSUB8(uint32_t op1, uint32_t op2)
 890:C:/Workspaces/DAVE-4.3/WS_2016_09_02/Flightcontroller_PWM_CopterRocks_Working/Libraries/CMSIS/Include\cmsis_gcc.h **** {
 891:C:/Workspaces/DAVE-4.3/WS_2016_09_02/Flightcontroller_PWM_CopterRocks_Working/Libraries/CMSIS/Include\cmsis_gcc.h ****   uint32_t result;
 892:C:/Workspaces/DAVE-4.3/WS_2016_09_02/Flightcontroller_PWM_CopterRocks_Working/Libraries/CMSIS/Include\cmsis_gcc.h **** 
 893:C:/Workspaces/DAVE-4.3/WS_2016_09_02/Flightcontroller_PWM_CopterRocks_Working/Libraries/CMSIS/Include\cmsis_gcc.h ****   __ASM volatile ("qsub8 %0, %1, %2" : "=r" (result) : "r" (op1), "r" (op2) );
 894:C:/Workspaces/DAVE-4.3/WS_2016_09_02/Flightcontroller_PWM_CopterRocks_Working/Libraries/CMSIS/Include\cmsis_gcc.h ****   return(result);
 895:C:/Workspaces/DAVE-4.3/WS_2016_09_02/Flightcontroller_PWM_CopterRocks_Working/Libraries/CMSIS/Include\cmsis_gcc.h **** }
 896:C:/Workspaces/DAVE-4.3/WS_2016_09_02/Flightcontroller_PWM_CopterRocks_Working/Libraries/CMSIS/Include\cmsis_gcc.h **** 
 897:C:/Workspaces/DAVE-4.3/WS_2016_09_02/Flightcontroller_PWM_CopterRocks_Working/Libraries/CMSIS/Include\cmsis_gcc.h **** __attribute__( ( always_inline ) ) __STATIC_INLINE uint32_t __SHSUB8(uint32_t op1, uint32_t op2)
 898:C:/Workspaces/DAVE-4.3/WS_2016_09_02/Flightcontroller_PWM_CopterRocks_Working/Libraries/CMSIS/Include\cmsis_gcc.h **** {
 899:C:/Workspaces/DAVE-4.3/WS_2016_09_02/Flightcontroller_PWM_CopterRocks_Working/Libraries/CMSIS/Include\cmsis_gcc.h ****   uint32_t result;
 900:C:/Workspaces/DAVE-4.3/WS_2016_09_02/Flightcontroller_PWM_CopterRocks_Working/Libraries/CMSIS/Include\cmsis_gcc.h **** 
 901:C:/Workspaces/DAVE-4.3/WS_2016_09_02/Flightcontroller_PWM_CopterRocks_Working/Libraries/CMSIS/Include\cmsis_gcc.h ****   __ASM volatile ("shsub8 %0, %1, %2" : "=r" (result) : "r" (op1), "r" (op2) );
 902:C:/Workspaces/DAVE-4.3/WS_2016_09_02/Flightcontroller_PWM_CopterRocks_Working/Libraries/CMSIS/Include\cmsis_gcc.h ****   return(result);
 903:C:/Workspaces/DAVE-4.3/WS_2016_09_02/Flightcontroller_PWM_CopterRocks_Working/Libraries/CMSIS/Include\cmsis_gcc.h **** }
 904:C:/Workspaces/DAVE-4.3/WS_2016_09_02/Flightcontroller_PWM_CopterRocks_Working/Libraries/CMSIS/Include\cmsis_gcc.h **** 
 905:C:/Workspaces/DAVE-4.3/WS_2016_09_02/Flightcontroller_PWM_CopterRocks_Working/Libraries/CMSIS/Include\cmsis_gcc.h **** __attribute__( ( always_inline ) ) __STATIC_INLINE uint32_t __USUB8(uint32_t op1, uint32_t op2)
 906:C:/Workspaces/DAVE-4.3/WS_2016_09_02/Flightcontroller_PWM_CopterRocks_Working/Libraries/CMSIS/Include\cmsis_gcc.h **** {
 907:C:/Workspaces/DAVE-4.3/WS_2016_09_02/Flightcontroller_PWM_CopterRocks_Working/Libraries/CMSIS/Include\cmsis_gcc.h ****   uint32_t result;
 908:C:/Workspaces/DAVE-4.3/WS_2016_09_02/Flightcontroller_PWM_CopterRocks_Working/Libraries/CMSIS/Include\cmsis_gcc.h **** 
 909:C:/Workspaces/DAVE-4.3/WS_2016_09_02/Flightcontroller_PWM_CopterRocks_Working/Libraries/CMSIS/Include\cmsis_gcc.h ****   __ASM volatile ("usub8 %0, %1, %2" : "=r" (result) : "r" (op1), "r" (op2) );
 910:C:/Workspaces/DAVE-4.3/WS_2016_09_02/Flightcontroller_PWM_CopterRocks_Working/Libraries/CMSIS/Include\cmsis_gcc.h ****   return(result);
 911:C:/Workspaces/DAVE-4.3/WS_2016_09_02/Flightcontroller_PWM_CopterRocks_Working/Libraries/CMSIS/Include\cmsis_gcc.h **** }
 912:C:/Workspaces/DAVE-4.3/WS_2016_09_02/Flightcontroller_PWM_CopterRocks_Working/Libraries/CMSIS/Include\cmsis_gcc.h **** 
 913:C:/Workspaces/DAVE-4.3/WS_2016_09_02/Flightcontroller_PWM_CopterRocks_Working/Libraries/CMSIS/Include\cmsis_gcc.h **** __attribute__( ( always_inline ) ) __STATIC_INLINE uint32_t __UQSUB8(uint32_t op1, uint32_t op2)
 914:C:/Workspaces/DAVE-4.3/WS_2016_09_02/Flightcontroller_PWM_CopterRocks_Working/Libraries/CMSIS/Include\cmsis_gcc.h **** {
 915:C:/Workspaces/DAVE-4.3/WS_2016_09_02/Flightcontroller_PWM_CopterRocks_Working/Libraries/CMSIS/Include\cmsis_gcc.h ****   uint32_t result;
 916:C:/Workspaces/DAVE-4.3/WS_2016_09_02/Flightcontroller_PWM_CopterRocks_Working/Libraries/CMSIS/Include\cmsis_gcc.h **** 
 917:C:/Workspaces/DAVE-4.3/WS_2016_09_02/Flightcontroller_PWM_CopterRocks_Working/Libraries/CMSIS/Include\cmsis_gcc.h ****   __ASM volatile ("uqsub8 %0, %1, %2" : "=r" (result) : "r" (op1), "r" (op2) );
 918:C:/Workspaces/DAVE-4.3/WS_2016_09_02/Flightcontroller_PWM_CopterRocks_Working/Libraries/CMSIS/Include\cmsis_gcc.h ****   return(result);
 919:C:/Workspaces/DAVE-4.3/WS_2016_09_02/Flightcontroller_PWM_CopterRocks_Working/Libraries/CMSIS/Include\cmsis_gcc.h **** }
 920:C:/Workspaces/DAVE-4.3/WS_2016_09_02/Flightcontroller_PWM_CopterRocks_Working/Libraries/CMSIS/Include\cmsis_gcc.h **** 
 921:C:/Workspaces/DAVE-4.3/WS_2016_09_02/Flightcontroller_PWM_CopterRocks_Working/Libraries/CMSIS/Include\cmsis_gcc.h **** __attribute__( ( always_inline ) ) __STATIC_INLINE uint32_t __UHSUB8(uint32_t op1, uint32_t op2)
 922:C:/Workspaces/DAVE-4.3/WS_2016_09_02/Flightcontroller_PWM_CopterRocks_Working/Libraries/CMSIS/Include\cmsis_gcc.h **** {
 923:C:/Workspaces/DAVE-4.3/WS_2016_09_02/Flightcontroller_PWM_CopterRocks_Working/Libraries/CMSIS/Include\cmsis_gcc.h ****   uint32_t result;
 924:C:/Workspaces/DAVE-4.3/WS_2016_09_02/Flightcontroller_PWM_CopterRocks_Working/Libraries/CMSIS/Include\cmsis_gcc.h **** 
 925:C:/Workspaces/DAVE-4.3/WS_2016_09_02/Flightcontroller_PWM_CopterRocks_Working/Libraries/CMSIS/Include\cmsis_gcc.h ****   __ASM volatile ("uhsub8 %0, %1, %2" : "=r" (result) : "r" (op1), "r" (op2) );
 926:C:/Workspaces/DAVE-4.3/WS_2016_09_02/Flightcontroller_PWM_CopterRocks_Working/Libraries/CMSIS/Include\cmsis_gcc.h ****   return(result);
 927:C:/Workspaces/DAVE-4.3/WS_2016_09_02/Flightcontroller_PWM_CopterRocks_Working/Libraries/CMSIS/Include\cmsis_gcc.h **** }
 928:C:/Workspaces/DAVE-4.3/WS_2016_09_02/Flightcontroller_PWM_CopterRocks_Working/Libraries/CMSIS/Include\cmsis_gcc.h **** 
 929:C:/Workspaces/DAVE-4.3/WS_2016_09_02/Flightcontroller_PWM_CopterRocks_Working/Libraries/CMSIS/Include\cmsis_gcc.h **** 
 930:C:/Workspaces/DAVE-4.3/WS_2016_09_02/Flightcontroller_PWM_CopterRocks_Working/Libraries/CMSIS/Include\cmsis_gcc.h **** __attribute__( ( always_inline ) ) __STATIC_INLINE uint32_t __SADD16(uint32_t op1, uint32_t op2)
 931:C:/Workspaces/DAVE-4.3/WS_2016_09_02/Flightcontroller_PWM_CopterRocks_Working/Libraries/CMSIS/Include\cmsis_gcc.h **** {
 932:C:/Workspaces/DAVE-4.3/WS_2016_09_02/Flightcontroller_PWM_CopterRocks_Working/Libraries/CMSIS/Include\cmsis_gcc.h ****   uint32_t result;
 933:C:/Workspaces/DAVE-4.3/WS_2016_09_02/Flightcontroller_PWM_CopterRocks_Working/Libraries/CMSIS/Include\cmsis_gcc.h **** 
 934:C:/Workspaces/DAVE-4.3/WS_2016_09_02/Flightcontroller_PWM_CopterRocks_Working/Libraries/CMSIS/Include\cmsis_gcc.h ****   __ASM volatile ("sadd16 %0, %1, %2" : "=r" (result) : "r" (op1), "r" (op2) );
 935:C:/Workspaces/DAVE-4.3/WS_2016_09_02/Flightcontroller_PWM_CopterRocks_Working/Libraries/CMSIS/Include\cmsis_gcc.h ****   return(result);
 936:C:/Workspaces/DAVE-4.3/WS_2016_09_02/Flightcontroller_PWM_CopterRocks_Working/Libraries/CMSIS/Include\cmsis_gcc.h **** }
 937:C:/Workspaces/DAVE-4.3/WS_2016_09_02/Flightcontroller_PWM_CopterRocks_Working/Libraries/CMSIS/Include\cmsis_gcc.h **** 
 938:C:/Workspaces/DAVE-4.3/WS_2016_09_02/Flightcontroller_PWM_CopterRocks_Working/Libraries/CMSIS/Include\cmsis_gcc.h **** __attribute__( ( always_inline ) ) __STATIC_INLINE uint32_t __QADD16(uint32_t op1, uint32_t op2)
 939:C:/Workspaces/DAVE-4.3/WS_2016_09_02/Flightcontroller_PWM_CopterRocks_Working/Libraries/CMSIS/Include\cmsis_gcc.h **** {
 940:C:/Workspaces/DAVE-4.3/WS_2016_09_02/Flightcontroller_PWM_CopterRocks_Working/Libraries/CMSIS/Include\cmsis_gcc.h ****   uint32_t result;
 941:C:/Workspaces/DAVE-4.3/WS_2016_09_02/Flightcontroller_PWM_CopterRocks_Working/Libraries/CMSIS/Include\cmsis_gcc.h **** 
 942:C:/Workspaces/DAVE-4.3/WS_2016_09_02/Flightcontroller_PWM_CopterRocks_Working/Libraries/CMSIS/Include\cmsis_gcc.h ****   __ASM volatile ("qadd16 %0, %1, %2" : "=r" (result) : "r" (op1), "r" (op2) );
 943:C:/Workspaces/DAVE-4.3/WS_2016_09_02/Flightcontroller_PWM_CopterRocks_Working/Libraries/CMSIS/Include\cmsis_gcc.h ****   return(result);
 944:C:/Workspaces/DAVE-4.3/WS_2016_09_02/Flightcontroller_PWM_CopterRocks_Working/Libraries/CMSIS/Include\cmsis_gcc.h **** }
 945:C:/Workspaces/DAVE-4.3/WS_2016_09_02/Flightcontroller_PWM_CopterRocks_Working/Libraries/CMSIS/Include\cmsis_gcc.h **** 
 946:C:/Workspaces/DAVE-4.3/WS_2016_09_02/Flightcontroller_PWM_CopterRocks_Working/Libraries/CMSIS/Include\cmsis_gcc.h **** __attribute__( ( always_inline ) ) __STATIC_INLINE uint32_t __SHADD16(uint32_t op1, uint32_t op2)
 947:C:/Workspaces/DAVE-4.3/WS_2016_09_02/Flightcontroller_PWM_CopterRocks_Working/Libraries/CMSIS/Include\cmsis_gcc.h **** {
 948:C:/Workspaces/DAVE-4.3/WS_2016_09_02/Flightcontroller_PWM_CopterRocks_Working/Libraries/CMSIS/Include\cmsis_gcc.h ****   uint32_t result;
 949:C:/Workspaces/DAVE-4.3/WS_2016_09_02/Flightcontroller_PWM_CopterRocks_Working/Libraries/CMSIS/Include\cmsis_gcc.h **** 
 950:C:/Workspaces/DAVE-4.3/WS_2016_09_02/Flightcontroller_PWM_CopterRocks_Working/Libraries/CMSIS/Include\cmsis_gcc.h ****   __ASM volatile ("shadd16 %0, %1, %2" : "=r" (result) : "r" (op1), "r" (op2) );
 951:C:/Workspaces/DAVE-4.3/WS_2016_09_02/Flightcontroller_PWM_CopterRocks_Working/Libraries/CMSIS/Include\cmsis_gcc.h ****   return(result);
 952:C:/Workspaces/DAVE-4.3/WS_2016_09_02/Flightcontroller_PWM_CopterRocks_Working/Libraries/CMSIS/Include\cmsis_gcc.h **** }
 953:C:/Workspaces/DAVE-4.3/WS_2016_09_02/Flightcontroller_PWM_CopterRocks_Working/Libraries/CMSIS/Include\cmsis_gcc.h **** 
 954:C:/Workspaces/DAVE-4.3/WS_2016_09_02/Flightcontroller_PWM_CopterRocks_Working/Libraries/CMSIS/Include\cmsis_gcc.h **** __attribute__( ( always_inline ) ) __STATIC_INLINE uint32_t __UADD16(uint32_t op1, uint32_t op2)
 955:C:/Workspaces/DAVE-4.3/WS_2016_09_02/Flightcontroller_PWM_CopterRocks_Working/Libraries/CMSIS/Include\cmsis_gcc.h **** {
 956:C:/Workspaces/DAVE-4.3/WS_2016_09_02/Flightcontroller_PWM_CopterRocks_Working/Libraries/CMSIS/Include\cmsis_gcc.h ****   uint32_t result;
 957:C:/Workspaces/DAVE-4.3/WS_2016_09_02/Flightcontroller_PWM_CopterRocks_Working/Libraries/CMSIS/Include\cmsis_gcc.h **** 
 958:C:/Workspaces/DAVE-4.3/WS_2016_09_02/Flightcontroller_PWM_CopterRocks_Working/Libraries/CMSIS/Include\cmsis_gcc.h ****   __ASM volatile ("uadd16 %0, %1, %2" : "=r" (result) : "r" (op1), "r" (op2) );
 959:C:/Workspaces/DAVE-4.3/WS_2016_09_02/Flightcontroller_PWM_CopterRocks_Working/Libraries/CMSIS/Include\cmsis_gcc.h ****   return(result);
 960:C:/Workspaces/DAVE-4.3/WS_2016_09_02/Flightcontroller_PWM_CopterRocks_Working/Libraries/CMSIS/Include\cmsis_gcc.h **** }
 961:C:/Workspaces/DAVE-4.3/WS_2016_09_02/Flightcontroller_PWM_CopterRocks_Working/Libraries/CMSIS/Include\cmsis_gcc.h **** 
 962:C:/Workspaces/DAVE-4.3/WS_2016_09_02/Flightcontroller_PWM_CopterRocks_Working/Libraries/CMSIS/Include\cmsis_gcc.h **** __attribute__( ( always_inline ) ) __STATIC_INLINE uint32_t __UQADD16(uint32_t op1, uint32_t op2)
 963:C:/Workspaces/DAVE-4.3/WS_2016_09_02/Flightcontroller_PWM_CopterRocks_Working/Libraries/CMSIS/Include\cmsis_gcc.h **** {
 964:C:/Workspaces/DAVE-4.3/WS_2016_09_02/Flightcontroller_PWM_CopterRocks_Working/Libraries/CMSIS/Include\cmsis_gcc.h ****   uint32_t result;
 965:C:/Workspaces/DAVE-4.3/WS_2016_09_02/Flightcontroller_PWM_CopterRocks_Working/Libraries/CMSIS/Include\cmsis_gcc.h **** 
 966:C:/Workspaces/DAVE-4.3/WS_2016_09_02/Flightcontroller_PWM_CopterRocks_Working/Libraries/CMSIS/Include\cmsis_gcc.h ****   __ASM volatile ("uqadd16 %0, %1, %2" : "=r" (result) : "r" (op1), "r" (op2) );
 967:C:/Workspaces/DAVE-4.3/WS_2016_09_02/Flightcontroller_PWM_CopterRocks_Working/Libraries/CMSIS/Include\cmsis_gcc.h ****   return(result);
 968:C:/Workspaces/DAVE-4.3/WS_2016_09_02/Flightcontroller_PWM_CopterRocks_Working/Libraries/CMSIS/Include\cmsis_gcc.h **** }
 969:C:/Workspaces/DAVE-4.3/WS_2016_09_02/Flightcontroller_PWM_CopterRocks_Working/Libraries/CMSIS/Include\cmsis_gcc.h **** 
 970:C:/Workspaces/DAVE-4.3/WS_2016_09_02/Flightcontroller_PWM_CopterRocks_Working/Libraries/CMSIS/Include\cmsis_gcc.h **** __attribute__( ( always_inline ) ) __STATIC_INLINE uint32_t __UHADD16(uint32_t op1, uint32_t op2)
 971:C:/Workspaces/DAVE-4.3/WS_2016_09_02/Flightcontroller_PWM_CopterRocks_Working/Libraries/CMSIS/Include\cmsis_gcc.h **** {
 972:C:/Workspaces/DAVE-4.3/WS_2016_09_02/Flightcontroller_PWM_CopterRocks_Working/Libraries/CMSIS/Include\cmsis_gcc.h ****   uint32_t result;
 973:C:/Workspaces/DAVE-4.3/WS_2016_09_02/Flightcontroller_PWM_CopterRocks_Working/Libraries/CMSIS/Include\cmsis_gcc.h **** 
 974:C:/Workspaces/DAVE-4.3/WS_2016_09_02/Flightcontroller_PWM_CopterRocks_Working/Libraries/CMSIS/Include\cmsis_gcc.h ****   __ASM volatile ("uhadd16 %0, %1, %2" : "=r" (result) : "r" (op1), "r" (op2) );
 975:C:/Workspaces/DAVE-4.3/WS_2016_09_02/Flightcontroller_PWM_CopterRocks_Working/Libraries/CMSIS/Include\cmsis_gcc.h ****   return(result);
 976:C:/Workspaces/DAVE-4.3/WS_2016_09_02/Flightcontroller_PWM_CopterRocks_Working/Libraries/CMSIS/Include\cmsis_gcc.h **** }
 977:C:/Workspaces/DAVE-4.3/WS_2016_09_02/Flightcontroller_PWM_CopterRocks_Working/Libraries/CMSIS/Include\cmsis_gcc.h **** 
 978:C:/Workspaces/DAVE-4.3/WS_2016_09_02/Flightcontroller_PWM_CopterRocks_Working/Libraries/CMSIS/Include\cmsis_gcc.h **** __attribute__( ( always_inline ) ) __STATIC_INLINE uint32_t __SSUB16(uint32_t op1, uint32_t op2)
 979:C:/Workspaces/DAVE-4.3/WS_2016_09_02/Flightcontroller_PWM_CopterRocks_Working/Libraries/CMSIS/Include\cmsis_gcc.h **** {
 980:C:/Workspaces/DAVE-4.3/WS_2016_09_02/Flightcontroller_PWM_CopterRocks_Working/Libraries/CMSIS/Include\cmsis_gcc.h ****   uint32_t result;
 981:C:/Workspaces/DAVE-4.3/WS_2016_09_02/Flightcontroller_PWM_CopterRocks_Working/Libraries/CMSIS/Include\cmsis_gcc.h **** 
 982:C:/Workspaces/DAVE-4.3/WS_2016_09_02/Flightcontroller_PWM_CopterRocks_Working/Libraries/CMSIS/Include\cmsis_gcc.h ****   __ASM volatile ("ssub16 %0, %1, %2" : "=r" (result) : "r" (op1), "r" (op2) );
 983:C:/Workspaces/DAVE-4.3/WS_2016_09_02/Flightcontroller_PWM_CopterRocks_Working/Libraries/CMSIS/Include\cmsis_gcc.h ****   return(result);
 984:C:/Workspaces/DAVE-4.3/WS_2016_09_02/Flightcontroller_PWM_CopterRocks_Working/Libraries/CMSIS/Include\cmsis_gcc.h **** }
 985:C:/Workspaces/DAVE-4.3/WS_2016_09_02/Flightcontroller_PWM_CopterRocks_Working/Libraries/CMSIS/Include\cmsis_gcc.h **** 
 986:C:/Workspaces/DAVE-4.3/WS_2016_09_02/Flightcontroller_PWM_CopterRocks_Working/Libraries/CMSIS/Include\cmsis_gcc.h **** __attribute__( ( always_inline ) ) __STATIC_INLINE uint32_t __QSUB16(uint32_t op1, uint32_t op2)
 987:C:/Workspaces/DAVE-4.3/WS_2016_09_02/Flightcontroller_PWM_CopterRocks_Working/Libraries/CMSIS/Include\cmsis_gcc.h **** {
 988:C:/Workspaces/DAVE-4.3/WS_2016_09_02/Flightcontroller_PWM_CopterRocks_Working/Libraries/CMSIS/Include\cmsis_gcc.h ****   uint32_t result;
 989:C:/Workspaces/DAVE-4.3/WS_2016_09_02/Flightcontroller_PWM_CopterRocks_Working/Libraries/CMSIS/Include\cmsis_gcc.h **** 
 990:C:/Workspaces/DAVE-4.3/WS_2016_09_02/Flightcontroller_PWM_CopterRocks_Working/Libraries/CMSIS/Include\cmsis_gcc.h ****   __ASM volatile ("qsub16 %0, %1, %2" : "=r" (result) : "r" (op1), "r" (op2) );
 991:C:/Workspaces/DAVE-4.3/WS_2016_09_02/Flightcontroller_PWM_CopterRocks_Working/Libraries/CMSIS/Include\cmsis_gcc.h ****   return(result);
 992:C:/Workspaces/DAVE-4.3/WS_2016_09_02/Flightcontroller_PWM_CopterRocks_Working/Libraries/CMSIS/Include\cmsis_gcc.h **** }
 993:C:/Workspaces/DAVE-4.3/WS_2016_09_02/Flightcontroller_PWM_CopterRocks_Working/Libraries/CMSIS/Include\cmsis_gcc.h **** 
 994:C:/Workspaces/DAVE-4.3/WS_2016_09_02/Flightcontroller_PWM_CopterRocks_Working/Libraries/CMSIS/Include\cmsis_gcc.h **** __attribute__( ( always_inline ) ) __STATIC_INLINE uint32_t __SHSUB16(uint32_t op1, uint32_t op2)
 995:C:/Workspaces/DAVE-4.3/WS_2016_09_02/Flightcontroller_PWM_CopterRocks_Working/Libraries/CMSIS/Include\cmsis_gcc.h **** {
 996:C:/Workspaces/DAVE-4.3/WS_2016_09_02/Flightcontroller_PWM_CopterRocks_Working/Libraries/CMSIS/Include\cmsis_gcc.h ****   uint32_t result;
 997:C:/Workspaces/DAVE-4.3/WS_2016_09_02/Flightcontroller_PWM_CopterRocks_Working/Libraries/CMSIS/Include\cmsis_gcc.h **** 
 998:C:/Workspaces/DAVE-4.3/WS_2016_09_02/Flightcontroller_PWM_CopterRocks_Working/Libraries/CMSIS/Include\cmsis_gcc.h ****   __ASM volatile ("shsub16 %0, %1, %2" : "=r" (result) : "r" (op1), "r" (op2) );
 999:C:/Workspaces/DAVE-4.3/WS_2016_09_02/Flightcontroller_PWM_CopterRocks_Working/Libraries/CMSIS/Include\cmsis_gcc.h ****   return(result);
1000:C:/Workspaces/DAVE-4.3/WS_2016_09_02/Flightcontroller_PWM_CopterRocks_Working/Libraries/CMSIS/Include\cmsis_gcc.h **** }
1001:C:/Workspaces/DAVE-4.3/WS_2016_09_02/Flightcontroller_PWM_CopterRocks_Working/Libraries/CMSIS/Include\cmsis_gcc.h **** 
1002:C:/Workspaces/DAVE-4.3/WS_2016_09_02/Flightcontroller_PWM_CopterRocks_Working/Libraries/CMSIS/Include\cmsis_gcc.h **** __attribute__( ( always_inline ) ) __STATIC_INLINE uint32_t __USUB16(uint32_t op1, uint32_t op2)
1003:C:/Workspaces/DAVE-4.3/WS_2016_09_02/Flightcontroller_PWM_CopterRocks_Working/Libraries/CMSIS/Include\cmsis_gcc.h **** {
1004:C:/Workspaces/DAVE-4.3/WS_2016_09_02/Flightcontroller_PWM_CopterRocks_Working/Libraries/CMSIS/Include\cmsis_gcc.h ****   uint32_t result;
1005:C:/Workspaces/DAVE-4.3/WS_2016_09_02/Flightcontroller_PWM_CopterRocks_Working/Libraries/CMSIS/Include\cmsis_gcc.h **** 
1006:C:/Workspaces/DAVE-4.3/WS_2016_09_02/Flightcontroller_PWM_CopterRocks_Working/Libraries/CMSIS/Include\cmsis_gcc.h ****   __ASM volatile ("usub16 %0, %1, %2" : "=r" (result) : "r" (op1), "r" (op2) );
1007:C:/Workspaces/DAVE-4.3/WS_2016_09_02/Flightcontroller_PWM_CopterRocks_Working/Libraries/CMSIS/Include\cmsis_gcc.h ****   return(result);
1008:C:/Workspaces/DAVE-4.3/WS_2016_09_02/Flightcontroller_PWM_CopterRocks_Working/Libraries/CMSIS/Include\cmsis_gcc.h **** }
1009:C:/Workspaces/DAVE-4.3/WS_2016_09_02/Flightcontroller_PWM_CopterRocks_Working/Libraries/CMSIS/Include\cmsis_gcc.h **** 
1010:C:/Workspaces/DAVE-4.3/WS_2016_09_02/Flightcontroller_PWM_CopterRocks_Working/Libraries/CMSIS/Include\cmsis_gcc.h **** __attribute__( ( always_inline ) ) __STATIC_INLINE uint32_t __UQSUB16(uint32_t op1, uint32_t op2)
1011:C:/Workspaces/DAVE-4.3/WS_2016_09_02/Flightcontroller_PWM_CopterRocks_Working/Libraries/CMSIS/Include\cmsis_gcc.h **** {
1012:C:/Workspaces/DAVE-4.3/WS_2016_09_02/Flightcontroller_PWM_CopterRocks_Working/Libraries/CMSIS/Include\cmsis_gcc.h ****   uint32_t result;
1013:C:/Workspaces/DAVE-4.3/WS_2016_09_02/Flightcontroller_PWM_CopterRocks_Working/Libraries/CMSIS/Include\cmsis_gcc.h **** 
1014:C:/Workspaces/DAVE-4.3/WS_2016_09_02/Flightcontroller_PWM_CopterRocks_Working/Libraries/CMSIS/Include\cmsis_gcc.h ****   __ASM volatile ("uqsub16 %0, %1, %2" : "=r" (result) : "r" (op1), "r" (op2) );
1015:C:/Workspaces/DAVE-4.3/WS_2016_09_02/Flightcontroller_PWM_CopterRocks_Working/Libraries/CMSIS/Include\cmsis_gcc.h ****   return(result);
1016:C:/Workspaces/DAVE-4.3/WS_2016_09_02/Flightcontroller_PWM_CopterRocks_Working/Libraries/CMSIS/Include\cmsis_gcc.h **** }
1017:C:/Workspaces/DAVE-4.3/WS_2016_09_02/Flightcontroller_PWM_CopterRocks_Working/Libraries/CMSIS/Include\cmsis_gcc.h **** 
1018:C:/Workspaces/DAVE-4.3/WS_2016_09_02/Flightcontroller_PWM_CopterRocks_Working/Libraries/CMSIS/Include\cmsis_gcc.h **** __attribute__( ( always_inline ) ) __STATIC_INLINE uint32_t __UHSUB16(uint32_t op1, uint32_t op2)
1019:C:/Workspaces/DAVE-4.3/WS_2016_09_02/Flightcontroller_PWM_CopterRocks_Working/Libraries/CMSIS/Include\cmsis_gcc.h **** {
1020:C:/Workspaces/DAVE-4.3/WS_2016_09_02/Flightcontroller_PWM_CopterRocks_Working/Libraries/CMSIS/Include\cmsis_gcc.h ****   uint32_t result;
1021:C:/Workspaces/DAVE-4.3/WS_2016_09_02/Flightcontroller_PWM_CopterRocks_Working/Libraries/CMSIS/Include\cmsis_gcc.h **** 
1022:C:/Workspaces/DAVE-4.3/WS_2016_09_02/Flightcontroller_PWM_CopterRocks_Working/Libraries/CMSIS/Include\cmsis_gcc.h ****   __ASM volatile ("uhsub16 %0, %1, %2" : "=r" (result) : "r" (op1), "r" (op2) );
1023:C:/Workspaces/DAVE-4.3/WS_2016_09_02/Flightcontroller_PWM_CopterRocks_Working/Libraries/CMSIS/Include\cmsis_gcc.h ****   return(result);
1024:C:/Workspaces/DAVE-4.3/WS_2016_09_02/Flightcontroller_PWM_CopterRocks_Working/Libraries/CMSIS/Include\cmsis_gcc.h **** }
1025:C:/Workspaces/DAVE-4.3/WS_2016_09_02/Flightcontroller_PWM_CopterRocks_Working/Libraries/CMSIS/Include\cmsis_gcc.h **** 
1026:C:/Workspaces/DAVE-4.3/WS_2016_09_02/Flightcontroller_PWM_CopterRocks_Working/Libraries/CMSIS/Include\cmsis_gcc.h **** __attribute__( ( always_inline ) ) __STATIC_INLINE uint32_t __SASX(uint32_t op1, uint32_t op2)
1027:C:/Workspaces/DAVE-4.3/WS_2016_09_02/Flightcontroller_PWM_CopterRocks_Working/Libraries/CMSIS/Include\cmsis_gcc.h **** {
1028:C:/Workspaces/DAVE-4.3/WS_2016_09_02/Flightcontroller_PWM_CopterRocks_Working/Libraries/CMSIS/Include\cmsis_gcc.h ****   uint32_t result;
1029:C:/Workspaces/DAVE-4.3/WS_2016_09_02/Flightcontroller_PWM_CopterRocks_Working/Libraries/CMSIS/Include\cmsis_gcc.h **** 
1030:C:/Workspaces/DAVE-4.3/WS_2016_09_02/Flightcontroller_PWM_CopterRocks_Working/Libraries/CMSIS/Include\cmsis_gcc.h ****   __ASM volatile ("sasx %0, %1, %2" : "=r" (result) : "r" (op1), "r" (op2) );
1031:C:/Workspaces/DAVE-4.3/WS_2016_09_02/Flightcontroller_PWM_CopterRocks_Working/Libraries/CMSIS/Include\cmsis_gcc.h ****   return(result);
1032:C:/Workspaces/DAVE-4.3/WS_2016_09_02/Flightcontroller_PWM_CopterRocks_Working/Libraries/CMSIS/Include\cmsis_gcc.h **** }
1033:C:/Workspaces/DAVE-4.3/WS_2016_09_02/Flightcontroller_PWM_CopterRocks_Working/Libraries/CMSIS/Include\cmsis_gcc.h **** 
1034:C:/Workspaces/DAVE-4.3/WS_2016_09_02/Flightcontroller_PWM_CopterRocks_Working/Libraries/CMSIS/Include\cmsis_gcc.h **** __attribute__( ( always_inline ) ) __STATIC_INLINE uint32_t __QASX(uint32_t op1, uint32_t op2)
1035:C:/Workspaces/DAVE-4.3/WS_2016_09_02/Flightcontroller_PWM_CopterRocks_Working/Libraries/CMSIS/Include\cmsis_gcc.h **** {
1036:C:/Workspaces/DAVE-4.3/WS_2016_09_02/Flightcontroller_PWM_CopterRocks_Working/Libraries/CMSIS/Include\cmsis_gcc.h ****   uint32_t result;
1037:C:/Workspaces/DAVE-4.3/WS_2016_09_02/Flightcontroller_PWM_CopterRocks_Working/Libraries/CMSIS/Include\cmsis_gcc.h **** 
1038:C:/Workspaces/DAVE-4.3/WS_2016_09_02/Flightcontroller_PWM_CopterRocks_Working/Libraries/CMSIS/Include\cmsis_gcc.h ****   __ASM volatile ("qasx %0, %1, %2" : "=r" (result) : "r" (op1), "r" (op2) );
1039:C:/Workspaces/DAVE-4.3/WS_2016_09_02/Flightcontroller_PWM_CopterRocks_Working/Libraries/CMSIS/Include\cmsis_gcc.h ****   return(result);
1040:C:/Workspaces/DAVE-4.3/WS_2016_09_02/Flightcontroller_PWM_CopterRocks_Working/Libraries/CMSIS/Include\cmsis_gcc.h **** }
1041:C:/Workspaces/DAVE-4.3/WS_2016_09_02/Flightcontroller_PWM_CopterRocks_Working/Libraries/CMSIS/Include\cmsis_gcc.h **** 
1042:C:/Workspaces/DAVE-4.3/WS_2016_09_02/Flightcontroller_PWM_CopterRocks_Working/Libraries/CMSIS/Include\cmsis_gcc.h **** __attribute__( ( always_inline ) ) __STATIC_INLINE uint32_t __SHASX(uint32_t op1, uint32_t op2)
1043:C:/Workspaces/DAVE-4.3/WS_2016_09_02/Flightcontroller_PWM_CopterRocks_Working/Libraries/CMSIS/Include\cmsis_gcc.h **** {
1044:C:/Workspaces/DAVE-4.3/WS_2016_09_02/Flightcontroller_PWM_CopterRocks_Working/Libraries/CMSIS/Include\cmsis_gcc.h ****   uint32_t result;
1045:C:/Workspaces/DAVE-4.3/WS_2016_09_02/Flightcontroller_PWM_CopterRocks_Working/Libraries/CMSIS/Include\cmsis_gcc.h **** 
1046:C:/Workspaces/DAVE-4.3/WS_2016_09_02/Flightcontroller_PWM_CopterRocks_Working/Libraries/CMSIS/Include\cmsis_gcc.h ****   __ASM volatile ("shasx %0, %1, %2" : "=r" (result) : "r" (op1), "r" (op2) );
1047:C:/Workspaces/DAVE-4.3/WS_2016_09_02/Flightcontroller_PWM_CopterRocks_Working/Libraries/CMSIS/Include\cmsis_gcc.h ****   return(result);
1048:C:/Workspaces/DAVE-4.3/WS_2016_09_02/Flightcontroller_PWM_CopterRocks_Working/Libraries/CMSIS/Include\cmsis_gcc.h **** }
1049:C:/Workspaces/DAVE-4.3/WS_2016_09_02/Flightcontroller_PWM_CopterRocks_Working/Libraries/CMSIS/Include\cmsis_gcc.h **** 
1050:C:/Workspaces/DAVE-4.3/WS_2016_09_02/Flightcontroller_PWM_CopterRocks_Working/Libraries/CMSIS/Include\cmsis_gcc.h **** __attribute__( ( always_inline ) ) __STATIC_INLINE uint32_t __UASX(uint32_t op1, uint32_t op2)
1051:C:/Workspaces/DAVE-4.3/WS_2016_09_02/Flightcontroller_PWM_CopterRocks_Working/Libraries/CMSIS/Include\cmsis_gcc.h **** {
1052:C:/Workspaces/DAVE-4.3/WS_2016_09_02/Flightcontroller_PWM_CopterRocks_Working/Libraries/CMSIS/Include\cmsis_gcc.h ****   uint32_t result;
1053:C:/Workspaces/DAVE-4.3/WS_2016_09_02/Flightcontroller_PWM_CopterRocks_Working/Libraries/CMSIS/Include\cmsis_gcc.h **** 
1054:C:/Workspaces/DAVE-4.3/WS_2016_09_02/Flightcontroller_PWM_CopterRocks_Working/Libraries/CMSIS/Include\cmsis_gcc.h ****   __ASM volatile ("uasx %0, %1, %2" : "=r" (result) : "r" (op1), "r" (op2) );
1055:C:/Workspaces/DAVE-4.3/WS_2016_09_02/Flightcontroller_PWM_CopterRocks_Working/Libraries/CMSIS/Include\cmsis_gcc.h ****   return(result);
1056:C:/Workspaces/DAVE-4.3/WS_2016_09_02/Flightcontroller_PWM_CopterRocks_Working/Libraries/CMSIS/Include\cmsis_gcc.h **** }
1057:C:/Workspaces/DAVE-4.3/WS_2016_09_02/Flightcontroller_PWM_CopterRocks_Working/Libraries/CMSIS/Include\cmsis_gcc.h **** 
1058:C:/Workspaces/DAVE-4.3/WS_2016_09_02/Flightcontroller_PWM_CopterRocks_Working/Libraries/CMSIS/Include\cmsis_gcc.h **** __attribute__( ( always_inline ) ) __STATIC_INLINE uint32_t __UQASX(uint32_t op1, uint32_t op2)
1059:C:/Workspaces/DAVE-4.3/WS_2016_09_02/Flightcontroller_PWM_CopterRocks_Working/Libraries/CMSIS/Include\cmsis_gcc.h **** {
1060:C:/Workspaces/DAVE-4.3/WS_2016_09_02/Flightcontroller_PWM_CopterRocks_Working/Libraries/CMSIS/Include\cmsis_gcc.h ****   uint32_t result;
1061:C:/Workspaces/DAVE-4.3/WS_2016_09_02/Flightcontroller_PWM_CopterRocks_Working/Libraries/CMSIS/Include\cmsis_gcc.h **** 
1062:C:/Workspaces/DAVE-4.3/WS_2016_09_02/Flightcontroller_PWM_CopterRocks_Working/Libraries/CMSIS/Include\cmsis_gcc.h ****   __ASM volatile ("uqasx %0, %1, %2" : "=r" (result) : "r" (op1), "r" (op2) );
1063:C:/Workspaces/DAVE-4.3/WS_2016_09_02/Flightcontroller_PWM_CopterRocks_Working/Libraries/CMSIS/Include\cmsis_gcc.h ****   return(result);
1064:C:/Workspaces/DAVE-4.3/WS_2016_09_02/Flightcontroller_PWM_CopterRocks_Working/Libraries/CMSIS/Include\cmsis_gcc.h **** }
1065:C:/Workspaces/DAVE-4.3/WS_2016_09_02/Flightcontroller_PWM_CopterRocks_Working/Libraries/CMSIS/Include\cmsis_gcc.h **** 
1066:C:/Workspaces/DAVE-4.3/WS_2016_09_02/Flightcontroller_PWM_CopterRocks_Working/Libraries/CMSIS/Include\cmsis_gcc.h **** __attribute__( ( always_inline ) ) __STATIC_INLINE uint32_t __UHASX(uint32_t op1, uint32_t op2)
1067:C:/Workspaces/DAVE-4.3/WS_2016_09_02/Flightcontroller_PWM_CopterRocks_Working/Libraries/CMSIS/Include\cmsis_gcc.h **** {
1068:C:/Workspaces/DAVE-4.3/WS_2016_09_02/Flightcontroller_PWM_CopterRocks_Working/Libraries/CMSIS/Include\cmsis_gcc.h ****   uint32_t result;
1069:C:/Workspaces/DAVE-4.3/WS_2016_09_02/Flightcontroller_PWM_CopterRocks_Working/Libraries/CMSIS/Include\cmsis_gcc.h **** 
1070:C:/Workspaces/DAVE-4.3/WS_2016_09_02/Flightcontroller_PWM_CopterRocks_Working/Libraries/CMSIS/Include\cmsis_gcc.h ****   __ASM volatile ("uhasx %0, %1, %2" : "=r" (result) : "r" (op1), "r" (op2) );
1071:C:/Workspaces/DAVE-4.3/WS_2016_09_02/Flightcontroller_PWM_CopterRocks_Working/Libraries/CMSIS/Include\cmsis_gcc.h ****   return(result);
1072:C:/Workspaces/DAVE-4.3/WS_2016_09_02/Flightcontroller_PWM_CopterRocks_Working/Libraries/CMSIS/Include\cmsis_gcc.h **** }
1073:C:/Workspaces/DAVE-4.3/WS_2016_09_02/Flightcontroller_PWM_CopterRocks_Working/Libraries/CMSIS/Include\cmsis_gcc.h **** 
1074:C:/Workspaces/DAVE-4.3/WS_2016_09_02/Flightcontroller_PWM_CopterRocks_Working/Libraries/CMSIS/Include\cmsis_gcc.h **** __attribute__( ( always_inline ) ) __STATIC_INLINE uint32_t __SSAX(uint32_t op1, uint32_t op2)
1075:C:/Workspaces/DAVE-4.3/WS_2016_09_02/Flightcontroller_PWM_CopterRocks_Working/Libraries/CMSIS/Include\cmsis_gcc.h **** {
1076:C:/Workspaces/DAVE-4.3/WS_2016_09_02/Flightcontroller_PWM_CopterRocks_Working/Libraries/CMSIS/Include\cmsis_gcc.h ****   uint32_t result;
1077:C:/Workspaces/DAVE-4.3/WS_2016_09_02/Flightcontroller_PWM_CopterRocks_Working/Libraries/CMSIS/Include\cmsis_gcc.h **** 
1078:C:/Workspaces/DAVE-4.3/WS_2016_09_02/Flightcontroller_PWM_CopterRocks_Working/Libraries/CMSIS/Include\cmsis_gcc.h ****   __ASM volatile ("ssax %0, %1, %2" : "=r" (result) : "r" (op1), "r" (op2) );
1079:C:/Workspaces/DAVE-4.3/WS_2016_09_02/Flightcontroller_PWM_CopterRocks_Working/Libraries/CMSIS/Include\cmsis_gcc.h ****   return(result);
1080:C:/Workspaces/DAVE-4.3/WS_2016_09_02/Flightcontroller_PWM_CopterRocks_Working/Libraries/CMSIS/Include\cmsis_gcc.h **** }
1081:C:/Workspaces/DAVE-4.3/WS_2016_09_02/Flightcontroller_PWM_CopterRocks_Working/Libraries/CMSIS/Include\cmsis_gcc.h **** 
1082:C:/Workspaces/DAVE-4.3/WS_2016_09_02/Flightcontroller_PWM_CopterRocks_Working/Libraries/CMSIS/Include\cmsis_gcc.h **** __attribute__( ( always_inline ) ) __STATIC_INLINE uint32_t __QSAX(uint32_t op1, uint32_t op2)
1083:C:/Workspaces/DAVE-4.3/WS_2016_09_02/Flightcontroller_PWM_CopterRocks_Working/Libraries/CMSIS/Include\cmsis_gcc.h **** {
1084:C:/Workspaces/DAVE-4.3/WS_2016_09_02/Flightcontroller_PWM_CopterRocks_Working/Libraries/CMSIS/Include\cmsis_gcc.h ****   uint32_t result;
1085:C:/Workspaces/DAVE-4.3/WS_2016_09_02/Flightcontroller_PWM_CopterRocks_Working/Libraries/CMSIS/Include\cmsis_gcc.h **** 
1086:C:/Workspaces/DAVE-4.3/WS_2016_09_02/Flightcontroller_PWM_CopterRocks_Working/Libraries/CMSIS/Include\cmsis_gcc.h ****   __ASM volatile ("qsax %0, %1, %2" : "=r" (result) : "r" (op1), "r" (op2) );
1087:C:/Workspaces/DAVE-4.3/WS_2016_09_02/Flightcontroller_PWM_CopterRocks_Working/Libraries/CMSIS/Include\cmsis_gcc.h ****   return(result);
1088:C:/Workspaces/DAVE-4.3/WS_2016_09_02/Flightcontroller_PWM_CopterRocks_Working/Libraries/CMSIS/Include\cmsis_gcc.h **** }
1089:C:/Workspaces/DAVE-4.3/WS_2016_09_02/Flightcontroller_PWM_CopterRocks_Working/Libraries/CMSIS/Include\cmsis_gcc.h **** 
1090:C:/Workspaces/DAVE-4.3/WS_2016_09_02/Flightcontroller_PWM_CopterRocks_Working/Libraries/CMSIS/Include\cmsis_gcc.h **** __attribute__( ( always_inline ) ) __STATIC_INLINE uint32_t __SHSAX(uint32_t op1, uint32_t op2)
1091:C:/Workspaces/DAVE-4.3/WS_2016_09_02/Flightcontroller_PWM_CopterRocks_Working/Libraries/CMSIS/Include\cmsis_gcc.h **** {
1092:C:/Workspaces/DAVE-4.3/WS_2016_09_02/Flightcontroller_PWM_CopterRocks_Working/Libraries/CMSIS/Include\cmsis_gcc.h ****   uint32_t result;
1093:C:/Workspaces/DAVE-4.3/WS_2016_09_02/Flightcontroller_PWM_CopterRocks_Working/Libraries/CMSIS/Include\cmsis_gcc.h **** 
1094:C:/Workspaces/DAVE-4.3/WS_2016_09_02/Flightcontroller_PWM_CopterRocks_Working/Libraries/CMSIS/Include\cmsis_gcc.h ****   __ASM volatile ("shsax %0, %1, %2" : "=r" (result) : "r" (op1), "r" (op2) );
1095:C:/Workspaces/DAVE-4.3/WS_2016_09_02/Flightcontroller_PWM_CopterRocks_Working/Libraries/CMSIS/Include\cmsis_gcc.h ****   return(result);
1096:C:/Workspaces/DAVE-4.3/WS_2016_09_02/Flightcontroller_PWM_CopterRocks_Working/Libraries/CMSIS/Include\cmsis_gcc.h **** }
1097:C:/Workspaces/DAVE-4.3/WS_2016_09_02/Flightcontroller_PWM_CopterRocks_Working/Libraries/CMSIS/Include\cmsis_gcc.h **** 
1098:C:/Workspaces/DAVE-4.3/WS_2016_09_02/Flightcontroller_PWM_CopterRocks_Working/Libraries/CMSIS/Include\cmsis_gcc.h **** __attribute__( ( always_inline ) ) __STATIC_INLINE uint32_t __USAX(uint32_t op1, uint32_t op2)
1099:C:/Workspaces/DAVE-4.3/WS_2016_09_02/Flightcontroller_PWM_CopterRocks_Working/Libraries/CMSIS/Include\cmsis_gcc.h **** {
1100:C:/Workspaces/DAVE-4.3/WS_2016_09_02/Flightcontroller_PWM_CopterRocks_Working/Libraries/CMSIS/Include\cmsis_gcc.h ****   uint32_t result;
1101:C:/Workspaces/DAVE-4.3/WS_2016_09_02/Flightcontroller_PWM_CopterRocks_Working/Libraries/CMSIS/Include\cmsis_gcc.h **** 
1102:C:/Workspaces/DAVE-4.3/WS_2016_09_02/Flightcontroller_PWM_CopterRocks_Working/Libraries/CMSIS/Include\cmsis_gcc.h ****   __ASM volatile ("usax %0, %1, %2" : "=r" (result) : "r" (op1), "r" (op2) );
1103:C:/Workspaces/DAVE-4.3/WS_2016_09_02/Flightcontroller_PWM_CopterRocks_Working/Libraries/CMSIS/Include\cmsis_gcc.h ****   return(result);
1104:C:/Workspaces/DAVE-4.3/WS_2016_09_02/Flightcontroller_PWM_CopterRocks_Working/Libraries/CMSIS/Include\cmsis_gcc.h **** }
1105:C:/Workspaces/DAVE-4.3/WS_2016_09_02/Flightcontroller_PWM_CopterRocks_Working/Libraries/CMSIS/Include\cmsis_gcc.h **** 
1106:C:/Workspaces/DAVE-4.3/WS_2016_09_02/Flightcontroller_PWM_CopterRocks_Working/Libraries/CMSIS/Include\cmsis_gcc.h **** __attribute__( ( always_inline ) ) __STATIC_INLINE uint32_t __UQSAX(uint32_t op1, uint32_t op2)
1107:C:/Workspaces/DAVE-4.3/WS_2016_09_02/Flightcontroller_PWM_CopterRocks_Working/Libraries/CMSIS/Include\cmsis_gcc.h **** {
1108:C:/Workspaces/DAVE-4.3/WS_2016_09_02/Flightcontroller_PWM_CopterRocks_Working/Libraries/CMSIS/Include\cmsis_gcc.h ****   uint32_t result;
1109:C:/Workspaces/DAVE-4.3/WS_2016_09_02/Flightcontroller_PWM_CopterRocks_Working/Libraries/CMSIS/Include\cmsis_gcc.h **** 
1110:C:/Workspaces/DAVE-4.3/WS_2016_09_02/Flightcontroller_PWM_CopterRocks_Working/Libraries/CMSIS/Include\cmsis_gcc.h ****   __ASM volatile ("uqsax %0, %1, %2" : "=r" (result) : "r" (op1), "r" (op2) );
1111:C:/Workspaces/DAVE-4.3/WS_2016_09_02/Flightcontroller_PWM_CopterRocks_Working/Libraries/CMSIS/Include\cmsis_gcc.h ****   return(result);
1112:C:/Workspaces/DAVE-4.3/WS_2016_09_02/Flightcontroller_PWM_CopterRocks_Working/Libraries/CMSIS/Include\cmsis_gcc.h **** }
1113:C:/Workspaces/DAVE-4.3/WS_2016_09_02/Flightcontroller_PWM_CopterRocks_Working/Libraries/CMSIS/Include\cmsis_gcc.h **** 
1114:C:/Workspaces/DAVE-4.3/WS_2016_09_02/Flightcontroller_PWM_CopterRocks_Working/Libraries/CMSIS/Include\cmsis_gcc.h **** __attribute__( ( always_inline ) ) __STATIC_INLINE uint32_t __UHSAX(uint32_t op1, uint32_t op2)
1115:C:/Workspaces/DAVE-4.3/WS_2016_09_02/Flightcontroller_PWM_CopterRocks_Working/Libraries/CMSIS/Include\cmsis_gcc.h **** {
1116:C:/Workspaces/DAVE-4.3/WS_2016_09_02/Flightcontroller_PWM_CopterRocks_Working/Libraries/CMSIS/Include\cmsis_gcc.h ****   uint32_t result;
1117:C:/Workspaces/DAVE-4.3/WS_2016_09_02/Flightcontroller_PWM_CopterRocks_Working/Libraries/CMSIS/Include\cmsis_gcc.h **** 
1118:C:/Workspaces/DAVE-4.3/WS_2016_09_02/Flightcontroller_PWM_CopterRocks_Working/Libraries/CMSIS/Include\cmsis_gcc.h ****   __ASM volatile ("uhsax %0, %1, %2" : "=r" (result) : "r" (op1), "r" (op2) );
1119:C:/Workspaces/DAVE-4.3/WS_2016_09_02/Flightcontroller_PWM_CopterRocks_Working/Libraries/CMSIS/Include\cmsis_gcc.h ****   return(result);
1120:C:/Workspaces/DAVE-4.3/WS_2016_09_02/Flightcontroller_PWM_CopterRocks_Working/Libraries/CMSIS/Include\cmsis_gcc.h **** }
1121:C:/Workspaces/DAVE-4.3/WS_2016_09_02/Flightcontroller_PWM_CopterRocks_Working/Libraries/CMSIS/Include\cmsis_gcc.h **** 
1122:C:/Workspaces/DAVE-4.3/WS_2016_09_02/Flightcontroller_PWM_CopterRocks_Working/Libraries/CMSIS/Include\cmsis_gcc.h **** __attribute__( ( always_inline ) ) __STATIC_INLINE uint32_t __USAD8(uint32_t op1, uint32_t op2)
1123:C:/Workspaces/DAVE-4.3/WS_2016_09_02/Flightcontroller_PWM_CopterRocks_Working/Libraries/CMSIS/Include\cmsis_gcc.h **** {
1124:C:/Workspaces/DAVE-4.3/WS_2016_09_02/Flightcontroller_PWM_CopterRocks_Working/Libraries/CMSIS/Include\cmsis_gcc.h ****   uint32_t result;
1125:C:/Workspaces/DAVE-4.3/WS_2016_09_02/Flightcontroller_PWM_CopterRocks_Working/Libraries/CMSIS/Include\cmsis_gcc.h **** 
1126:C:/Workspaces/DAVE-4.3/WS_2016_09_02/Flightcontroller_PWM_CopterRocks_Working/Libraries/CMSIS/Include\cmsis_gcc.h ****   __ASM volatile ("usad8 %0, %1, %2" : "=r" (result) : "r" (op1), "r" (op2) );
1127:C:/Workspaces/DAVE-4.3/WS_2016_09_02/Flightcontroller_PWM_CopterRocks_Working/Libraries/CMSIS/Include\cmsis_gcc.h ****   return(result);
1128:C:/Workspaces/DAVE-4.3/WS_2016_09_02/Flightcontroller_PWM_CopterRocks_Working/Libraries/CMSIS/Include\cmsis_gcc.h **** }
1129:C:/Workspaces/DAVE-4.3/WS_2016_09_02/Flightcontroller_PWM_CopterRocks_Working/Libraries/CMSIS/Include\cmsis_gcc.h **** 
1130:C:/Workspaces/DAVE-4.3/WS_2016_09_02/Flightcontroller_PWM_CopterRocks_Working/Libraries/CMSIS/Include\cmsis_gcc.h **** __attribute__( ( always_inline ) ) __STATIC_INLINE uint32_t __USADA8(uint32_t op1, uint32_t op2, ui
1131:C:/Workspaces/DAVE-4.3/WS_2016_09_02/Flightcontroller_PWM_CopterRocks_Working/Libraries/CMSIS/Include\cmsis_gcc.h **** {
1132:C:/Workspaces/DAVE-4.3/WS_2016_09_02/Flightcontroller_PWM_CopterRocks_Working/Libraries/CMSIS/Include\cmsis_gcc.h ****   uint32_t result;
1133:C:/Workspaces/DAVE-4.3/WS_2016_09_02/Flightcontroller_PWM_CopterRocks_Working/Libraries/CMSIS/Include\cmsis_gcc.h **** 
1134:C:/Workspaces/DAVE-4.3/WS_2016_09_02/Flightcontroller_PWM_CopterRocks_Working/Libraries/CMSIS/Include\cmsis_gcc.h ****   __ASM volatile ("usada8 %0, %1, %2, %3" : "=r" (result) : "r" (op1), "r" (op2), "r" (op3) );
1135:C:/Workspaces/DAVE-4.3/WS_2016_09_02/Flightcontroller_PWM_CopterRocks_Working/Libraries/CMSIS/Include\cmsis_gcc.h ****   return(result);
1136:C:/Workspaces/DAVE-4.3/WS_2016_09_02/Flightcontroller_PWM_CopterRocks_Working/Libraries/CMSIS/Include\cmsis_gcc.h **** }
1137:C:/Workspaces/DAVE-4.3/WS_2016_09_02/Flightcontroller_PWM_CopterRocks_Working/Libraries/CMSIS/Include\cmsis_gcc.h **** 
1138:C:/Workspaces/DAVE-4.3/WS_2016_09_02/Flightcontroller_PWM_CopterRocks_Working/Libraries/CMSIS/Include\cmsis_gcc.h **** #define __SSAT16(ARG1,ARG2) \
1139:C:/Workspaces/DAVE-4.3/WS_2016_09_02/Flightcontroller_PWM_CopterRocks_Working/Libraries/CMSIS/Include\cmsis_gcc.h **** ({                          \
1140:C:/Workspaces/DAVE-4.3/WS_2016_09_02/Flightcontroller_PWM_CopterRocks_Working/Libraries/CMSIS/Include\cmsis_gcc.h ****   int32_t __RES, __ARG1 = (ARG1); \
1141:C:/Workspaces/DAVE-4.3/WS_2016_09_02/Flightcontroller_PWM_CopterRocks_Working/Libraries/CMSIS/Include\cmsis_gcc.h ****   __ASM ("ssat16 %0, %1, %2" : "=r" (__RES) :  "I" (ARG2), "r" (__ARG1) ); \
1142:C:/Workspaces/DAVE-4.3/WS_2016_09_02/Flightcontroller_PWM_CopterRocks_Working/Libraries/CMSIS/Include\cmsis_gcc.h ****   __RES; \
1143:C:/Workspaces/DAVE-4.3/WS_2016_09_02/Flightcontroller_PWM_CopterRocks_Working/Libraries/CMSIS/Include\cmsis_gcc.h ****  })
1144:C:/Workspaces/DAVE-4.3/WS_2016_09_02/Flightcontroller_PWM_CopterRocks_Working/Libraries/CMSIS/Include\cmsis_gcc.h **** 
1145:C:/Workspaces/DAVE-4.3/WS_2016_09_02/Flightcontroller_PWM_CopterRocks_Working/Libraries/CMSIS/Include\cmsis_gcc.h **** #define __USAT16(ARG1,ARG2) \
1146:C:/Workspaces/DAVE-4.3/WS_2016_09_02/Flightcontroller_PWM_CopterRocks_Working/Libraries/CMSIS/Include\cmsis_gcc.h **** ({                          \
1147:C:/Workspaces/DAVE-4.3/WS_2016_09_02/Flightcontroller_PWM_CopterRocks_Working/Libraries/CMSIS/Include\cmsis_gcc.h ****   uint32_t __RES, __ARG1 = (ARG1); \
1148:C:/Workspaces/DAVE-4.3/WS_2016_09_02/Flightcontroller_PWM_CopterRocks_Working/Libraries/CMSIS/Include\cmsis_gcc.h ****   __ASM ("usat16 %0, %1, %2" : "=r" (__RES) :  "I" (ARG2), "r" (__ARG1) ); \
1149:C:/Workspaces/DAVE-4.3/WS_2016_09_02/Flightcontroller_PWM_CopterRocks_Working/Libraries/CMSIS/Include\cmsis_gcc.h ****   __RES; \
1150:C:/Workspaces/DAVE-4.3/WS_2016_09_02/Flightcontroller_PWM_CopterRocks_Working/Libraries/CMSIS/Include\cmsis_gcc.h ****  })
1151:C:/Workspaces/DAVE-4.3/WS_2016_09_02/Flightcontroller_PWM_CopterRocks_Working/Libraries/CMSIS/Include\cmsis_gcc.h **** 
1152:C:/Workspaces/DAVE-4.3/WS_2016_09_02/Flightcontroller_PWM_CopterRocks_Working/Libraries/CMSIS/Include\cmsis_gcc.h **** __attribute__( ( always_inline ) ) __STATIC_INLINE uint32_t __UXTB16(uint32_t op1)
1153:C:/Workspaces/DAVE-4.3/WS_2016_09_02/Flightcontroller_PWM_CopterRocks_Working/Libraries/CMSIS/Include\cmsis_gcc.h **** {
1154:C:/Workspaces/DAVE-4.3/WS_2016_09_02/Flightcontroller_PWM_CopterRocks_Working/Libraries/CMSIS/Include\cmsis_gcc.h ****   uint32_t result;
1155:C:/Workspaces/DAVE-4.3/WS_2016_09_02/Flightcontroller_PWM_CopterRocks_Working/Libraries/CMSIS/Include\cmsis_gcc.h **** 
1156:C:/Workspaces/DAVE-4.3/WS_2016_09_02/Flightcontroller_PWM_CopterRocks_Working/Libraries/CMSIS/Include\cmsis_gcc.h ****   __ASM volatile ("uxtb16 %0, %1" : "=r" (result) : "r" (op1));
1157:C:/Workspaces/DAVE-4.3/WS_2016_09_02/Flightcontroller_PWM_CopterRocks_Working/Libraries/CMSIS/Include\cmsis_gcc.h ****   return(result);
1158:C:/Workspaces/DAVE-4.3/WS_2016_09_02/Flightcontroller_PWM_CopterRocks_Working/Libraries/CMSIS/Include\cmsis_gcc.h **** }
1159:C:/Workspaces/DAVE-4.3/WS_2016_09_02/Flightcontroller_PWM_CopterRocks_Working/Libraries/CMSIS/Include\cmsis_gcc.h **** 
1160:C:/Workspaces/DAVE-4.3/WS_2016_09_02/Flightcontroller_PWM_CopterRocks_Working/Libraries/CMSIS/Include\cmsis_gcc.h **** __attribute__( ( always_inline ) ) __STATIC_INLINE uint32_t __UXTAB16(uint32_t op1, uint32_t op2)
1161:C:/Workspaces/DAVE-4.3/WS_2016_09_02/Flightcontroller_PWM_CopterRocks_Working/Libraries/CMSIS/Include\cmsis_gcc.h **** {
1162:C:/Workspaces/DAVE-4.3/WS_2016_09_02/Flightcontroller_PWM_CopterRocks_Working/Libraries/CMSIS/Include\cmsis_gcc.h ****   uint32_t result;
1163:C:/Workspaces/DAVE-4.3/WS_2016_09_02/Flightcontroller_PWM_CopterRocks_Working/Libraries/CMSIS/Include\cmsis_gcc.h **** 
1164:C:/Workspaces/DAVE-4.3/WS_2016_09_02/Flightcontroller_PWM_CopterRocks_Working/Libraries/CMSIS/Include\cmsis_gcc.h ****   __ASM volatile ("uxtab16 %0, %1, %2" : "=r" (result) : "r" (op1), "r" (op2) );
1165:C:/Workspaces/DAVE-4.3/WS_2016_09_02/Flightcontroller_PWM_CopterRocks_Working/Libraries/CMSIS/Include\cmsis_gcc.h ****   return(result);
1166:C:/Workspaces/DAVE-4.3/WS_2016_09_02/Flightcontroller_PWM_CopterRocks_Working/Libraries/CMSIS/Include\cmsis_gcc.h **** }
1167:C:/Workspaces/DAVE-4.3/WS_2016_09_02/Flightcontroller_PWM_CopterRocks_Working/Libraries/CMSIS/Include\cmsis_gcc.h **** 
1168:C:/Workspaces/DAVE-4.3/WS_2016_09_02/Flightcontroller_PWM_CopterRocks_Working/Libraries/CMSIS/Include\cmsis_gcc.h **** __attribute__( ( always_inline ) ) __STATIC_INLINE uint32_t __SXTB16(uint32_t op1)
1169:C:/Workspaces/DAVE-4.3/WS_2016_09_02/Flightcontroller_PWM_CopterRocks_Working/Libraries/CMSIS/Include\cmsis_gcc.h **** {
1170:C:/Workspaces/DAVE-4.3/WS_2016_09_02/Flightcontroller_PWM_CopterRocks_Working/Libraries/CMSIS/Include\cmsis_gcc.h ****   uint32_t result;
1171:C:/Workspaces/DAVE-4.3/WS_2016_09_02/Flightcontroller_PWM_CopterRocks_Working/Libraries/CMSIS/Include\cmsis_gcc.h **** 
1172:C:/Workspaces/DAVE-4.3/WS_2016_09_02/Flightcontroller_PWM_CopterRocks_Working/Libraries/CMSIS/Include\cmsis_gcc.h ****   __ASM volatile ("sxtb16 %0, %1" : "=r" (result) : "r" (op1));
1173:C:/Workspaces/DAVE-4.3/WS_2016_09_02/Flightcontroller_PWM_CopterRocks_Working/Libraries/CMSIS/Include\cmsis_gcc.h ****   return(result);
1174:C:/Workspaces/DAVE-4.3/WS_2016_09_02/Flightcontroller_PWM_CopterRocks_Working/Libraries/CMSIS/Include\cmsis_gcc.h **** }
1175:C:/Workspaces/DAVE-4.3/WS_2016_09_02/Flightcontroller_PWM_CopterRocks_Working/Libraries/CMSIS/Include\cmsis_gcc.h **** 
1176:C:/Workspaces/DAVE-4.3/WS_2016_09_02/Flightcontroller_PWM_CopterRocks_Working/Libraries/CMSIS/Include\cmsis_gcc.h **** __attribute__( ( always_inline ) ) __STATIC_INLINE uint32_t __SXTAB16(uint32_t op1, uint32_t op2)
1177:C:/Workspaces/DAVE-4.3/WS_2016_09_02/Flightcontroller_PWM_CopterRocks_Working/Libraries/CMSIS/Include\cmsis_gcc.h **** {
1178:C:/Workspaces/DAVE-4.3/WS_2016_09_02/Flightcontroller_PWM_CopterRocks_Working/Libraries/CMSIS/Include\cmsis_gcc.h ****   uint32_t result;
1179:C:/Workspaces/DAVE-4.3/WS_2016_09_02/Flightcontroller_PWM_CopterRocks_Working/Libraries/CMSIS/Include\cmsis_gcc.h **** 
1180:C:/Workspaces/DAVE-4.3/WS_2016_09_02/Flightcontroller_PWM_CopterRocks_Working/Libraries/CMSIS/Include\cmsis_gcc.h ****   __ASM volatile ("sxtab16 %0, %1, %2" : "=r" (result) : "r" (op1), "r" (op2) );
1181:C:/Workspaces/DAVE-4.3/WS_2016_09_02/Flightcontroller_PWM_CopterRocks_Working/Libraries/CMSIS/Include\cmsis_gcc.h ****   return(result);
1182:C:/Workspaces/DAVE-4.3/WS_2016_09_02/Flightcontroller_PWM_CopterRocks_Working/Libraries/CMSIS/Include\cmsis_gcc.h **** }
1183:C:/Workspaces/DAVE-4.3/WS_2016_09_02/Flightcontroller_PWM_CopterRocks_Working/Libraries/CMSIS/Include\cmsis_gcc.h **** 
1184:C:/Workspaces/DAVE-4.3/WS_2016_09_02/Flightcontroller_PWM_CopterRocks_Working/Libraries/CMSIS/Include\cmsis_gcc.h **** __attribute__( ( always_inline ) ) __STATIC_INLINE uint32_t __SMUAD  (uint32_t op1, uint32_t op2)
1185:C:/Workspaces/DAVE-4.3/WS_2016_09_02/Flightcontroller_PWM_CopterRocks_Working/Libraries/CMSIS/Include\cmsis_gcc.h **** {
1186:C:/Workspaces/DAVE-4.3/WS_2016_09_02/Flightcontroller_PWM_CopterRocks_Working/Libraries/CMSIS/Include\cmsis_gcc.h ****   uint32_t result;
1187:C:/Workspaces/DAVE-4.3/WS_2016_09_02/Flightcontroller_PWM_CopterRocks_Working/Libraries/CMSIS/Include\cmsis_gcc.h **** 
1188:C:/Workspaces/DAVE-4.3/WS_2016_09_02/Flightcontroller_PWM_CopterRocks_Working/Libraries/CMSIS/Include\cmsis_gcc.h ****   __ASM volatile ("smuad %0, %1, %2" : "=r" (result) : "r" (op1), "r" (op2) );
1189:C:/Workspaces/DAVE-4.3/WS_2016_09_02/Flightcontroller_PWM_CopterRocks_Working/Libraries/CMSIS/Include\cmsis_gcc.h ****   return(result);
1190:C:/Workspaces/DAVE-4.3/WS_2016_09_02/Flightcontroller_PWM_CopterRocks_Working/Libraries/CMSIS/Include\cmsis_gcc.h **** }
1191:C:/Workspaces/DAVE-4.3/WS_2016_09_02/Flightcontroller_PWM_CopterRocks_Working/Libraries/CMSIS/Include\cmsis_gcc.h **** 
1192:C:/Workspaces/DAVE-4.3/WS_2016_09_02/Flightcontroller_PWM_CopterRocks_Working/Libraries/CMSIS/Include\cmsis_gcc.h **** __attribute__( ( always_inline ) ) __STATIC_INLINE uint32_t __SMUADX (uint32_t op1, uint32_t op2)
1193:C:/Workspaces/DAVE-4.3/WS_2016_09_02/Flightcontroller_PWM_CopterRocks_Working/Libraries/CMSIS/Include\cmsis_gcc.h **** {
1194:C:/Workspaces/DAVE-4.3/WS_2016_09_02/Flightcontroller_PWM_CopterRocks_Working/Libraries/CMSIS/Include\cmsis_gcc.h ****   uint32_t result;
1195:C:/Workspaces/DAVE-4.3/WS_2016_09_02/Flightcontroller_PWM_CopterRocks_Working/Libraries/CMSIS/Include\cmsis_gcc.h **** 
1196:C:/Workspaces/DAVE-4.3/WS_2016_09_02/Flightcontroller_PWM_CopterRocks_Working/Libraries/CMSIS/Include\cmsis_gcc.h ****   __ASM volatile ("smuadx %0, %1, %2" : "=r" (result) : "r" (op1), "r" (op2) );
1197:C:/Workspaces/DAVE-4.3/WS_2016_09_02/Flightcontroller_PWM_CopterRocks_Working/Libraries/CMSIS/Include\cmsis_gcc.h ****   return(result);
1198:C:/Workspaces/DAVE-4.3/WS_2016_09_02/Flightcontroller_PWM_CopterRocks_Working/Libraries/CMSIS/Include\cmsis_gcc.h **** }
1199:C:/Workspaces/DAVE-4.3/WS_2016_09_02/Flightcontroller_PWM_CopterRocks_Working/Libraries/CMSIS/Include\cmsis_gcc.h **** 
1200:C:/Workspaces/DAVE-4.3/WS_2016_09_02/Flightcontroller_PWM_CopterRocks_Working/Libraries/CMSIS/Include\cmsis_gcc.h **** __attribute__( ( always_inline ) ) __STATIC_INLINE uint32_t __SMLAD (uint32_t op1, uint32_t op2, ui
1201:C:/Workspaces/DAVE-4.3/WS_2016_09_02/Flightcontroller_PWM_CopterRocks_Working/Libraries/CMSIS/Include\cmsis_gcc.h **** {
1202:C:/Workspaces/DAVE-4.3/WS_2016_09_02/Flightcontroller_PWM_CopterRocks_Working/Libraries/CMSIS/Include\cmsis_gcc.h ****   uint32_t result;
1203:C:/Workspaces/DAVE-4.3/WS_2016_09_02/Flightcontroller_PWM_CopterRocks_Working/Libraries/CMSIS/Include\cmsis_gcc.h **** 
1204:C:/Workspaces/DAVE-4.3/WS_2016_09_02/Flightcontroller_PWM_CopterRocks_Working/Libraries/CMSIS/Include\cmsis_gcc.h ****   __ASM volatile ("smlad %0, %1, %2, %3" : "=r" (result) : "r" (op1), "r" (op2), "r" (op3) );
 206              	 .loc 2 1204 0
 207 0170 D7F8F831 	 ldr r3,[r7,#504]
 208 0174 D7F8F421 	 ldr r2,[r7,#500]
 209 0178 D7F8F011 	 ldr r1,[r7,#496]
 210              	
 211 017c 23FB0213 	 smlad r3,r3,r2,r1
 212              	
 213              	 .thumb
 214 0180 C7F8EC31 	 str r3,[r7,#492]
1205:C:/Workspaces/DAVE-4.3/WS_2016_09_02/Flightcontroller_PWM_CopterRocks_Working/Libraries/CMSIS/Include\cmsis_gcc.h ****   return(result);
 215              	 .loc 2 1205 0
 216 0184 D7F8EC31 	 ldr r3,[r7,#492]
 217              	.LBE63:
 218              	.LBE62:
 219              	 .loc 1 206 0
 220 0188 C7F84832 	 str r3,[r7,#584]
 207:../Dave/Generated/CMSIS_DSP/FilteringFunctions/arm_correlate_fast_q15.c ****       /* x[3] * y[srcBLen - 1] , x[2] * y[srcBLen - 2] */
 208:../Dave/Generated/CMSIS_DSP/FilteringFunctions/arm_correlate_fast_q15.c ****       sum = __SMLAD(*__SIMD32(px)++, *__SIMD32(py)++, sum);
 221              	 .loc 1 208 0
 222 018c 07F11802 	 add r2,r7,#24
 223 0190 1368     	 ldr r3,[r2]
 224 0192 191D     	 adds r1,r3,#4
 225 0194 1160     	 str r1,[r2]
 226 0196 1B68     	 ldr r3,[r3]
 227 0198 1846     	 mov r0,r3
 228 019a 07F11402 	 add r2,r7,#20
 229 019e 1368     	 ldr r3,[r2]
 230 01a0 191D     	 adds r1,r3,#4
 231 01a2 1160     	 str r1,[r2]
 232 01a4 1B68     	 ldr r3,[r3]
 233 01a6 1A46     	 mov r2,r3
 234 01a8 D7F84832 	 ldr r3,[r7,#584]
 235 01ac C7F8E801 	 str r0,[r7,#488]
 236 01b0 C7F8E421 	 str r2,[r7,#484]
 237 01b4 C7F8E031 	 str r3,[r7,#480]
 238              	.LBB64:
 239              	.LBB65:
1204:C:/Workspaces/DAVE-4.3/WS_2016_09_02/Flightcontroller_PWM_CopterRocks_Working/Libraries/CMSIS/Include\cmsis_gcc.h ****   return(result);
 240              	 .loc 2 1204 0
 241 01b8 D7F8E831 	 ldr r3,[r7,#488]
 242 01bc D7F8E421 	 ldr r2,[r7,#484]
 243 01c0 D7F8E011 	 ldr r1,[r7,#480]
 244              	
 245 01c4 23FB0213 	 smlad r3,r3,r2,r1
 246              	
 247              	 .thumb
 248 01c8 C7F8DC31 	 str r3,[r7,#476]
 249              	 .loc 2 1205 0
 250 01cc D7F8DC31 	 ldr r3,[r7,#476]
 251              	.LBE65:
 252              	.LBE64:
 253              	 .loc 1 208 0
 254 01d0 C7F84832 	 str r3,[r7,#584]
 209:../Dave/Generated/CMSIS_DSP/FilteringFunctions/arm_correlate_fast_q15.c **** 
 210:../Dave/Generated/CMSIS_DSP/FilteringFunctions/arm_correlate_fast_q15.c ****       /* Decrement the loop counter */
 211:../Dave/Generated/CMSIS_DSP/FilteringFunctions/arm_correlate_fast_q15.c ****       k--;
 255              	 .loc 1 211 0
 256 01d4 D7F82832 	 ldr r3,[r7,#552]
 257 01d8 013B     	 subs r3,r3,#1
 258 01da C7F82832 	 str r3,[r7,#552]
 259              	.L5:
 203:../Dave/Generated/CMSIS_DSP/FilteringFunctions/arm_correlate_fast_q15.c ****     {
 260              	 .loc 1 203 0
 261 01de D7F82832 	 ldr r3,[r7,#552]
 262 01e2 002B     	 cmp r3,#0
 263 01e4 AED1     	 bne .L8
 212:../Dave/Generated/CMSIS_DSP/FilteringFunctions/arm_correlate_fast_q15.c ****     }
 213:../Dave/Generated/CMSIS_DSP/FilteringFunctions/arm_correlate_fast_q15.c **** 
 214:../Dave/Generated/CMSIS_DSP/FilteringFunctions/arm_correlate_fast_q15.c ****     /* If the count is not a multiple of 4, compute any remaining MACs here.   
 215:../Dave/Generated/CMSIS_DSP/FilteringFunctions/arm_correlate_fast_q15.c ****      ** No loop unrolling is used. */
 216:../Dave/Generated/CMSIS_DSP/FilteringFunctions/arm_correlate_fast_q15.c ****     k = count % 0x4u;
 264              	 .loc 1 216 0
 265 01e6 D7F82432 	 ldr r3,[r7,#548]
 266 01ea 03F00303 	 and r3,r3,#3
 267 01ee C7F82832 	 str r3,[r7,#552]
 217:../Dave/Generated/CMSIS_DSP/FilteringFunctions/arm_correlate_fast_q15.c **** 
 218:../Dave/Generated/CMSIS_DSP/FilteringFunctions/arm_correlate_fast_q15.c ****     while(k > 0u)
 268              	 .loc 1 218 0
 269 01f2 2CE0     	 b .L9
 270              	.L11:
 219:../Dave/Generated/CMSIS_DSP/FilteringFunctions/arm_correlate_fast_q15.c ****     {
 220:../Dave/Generated/CMSIS_DSP/FilteringFunctions/arm_correlate_fast_q15.c ****       /* Perform the multiply-accumulates */
 221:../Dave/Generated/CMSIS_DSP/FilteringFunctions/arm_correlate_fast_q15.c ****       /* x[0] * y[srcBLen - 1] */
 222:../Dave/Generated/CMSIS_DSP/FilteringFunctions/arm_correlate_fast_q15.c ****       sum = __SMLAD(*px++, *py++, sum);
 271              	 .loc 1 222 0
 272 01f4 07F11803 	 add r3,r7,#24
 273 01f8 1B68     	 ldr r3,[r3]
 274 01fa 991C     	 adds r1,r3,#2
 275 01fc 07F11802 	 add r2,r7,#24
 276 0200 1160     	 str r1,[r2]
 277 0202 1B88     	 ldrh r3,[r3]
 278 0204 19B2     	 sxth r1,r3
 279 0206 07F11403 	 add r3,r7,#20
 280 020a 1B68     	 ldr r3,[r3]
 281 020c 981C     	 adds r0,r3,#2
 282 020e 07F11402 	 add r2,r7,#20
 283 0212 1060     	 str r0,[r2]
 284 0214 1B88     	 ldrh r3,[r3]
 285 0216 1AB2     	 sxth r2,r3
 286 0218 D7F84832 	 ldr r3,[r7,#584]
 287 021c C7F8D811 	 str r1,[r7,#472]
 288 0220 C7F8D421 	 str r2,[r7,#468]
 289 0224 C7F8D031 	 str r3,[r7,#464]
 290              	.LBB66:
 291              	.LBB67:
1204:C:/Workspaces/DAVE-4.3/WS_2016_09_02/Flightcontroller_PWM_CopterRocks_Working/Libraries/CMSIS/Include\cmsis_gcc.h ****   return(result);
 292              	 .loc 2 1204 0
 293 0228 D7F8D831 	 ldr r3,[r7,#472]
 294 022c D7F8D421 	 ldr r2,[r7,#468]
 295 0230 D7F8D011 	 ldr r1,[r7,#464]
 296              	
 297 0234 23FB0213 	 smlad r3,r3,r2,r1
 298              	
 299              	 .thumb
 300 0238 C7F8CC31 	 str r3,[r7,#460]
 301              	 .loc 2 1205 0
 302 023c D7F8CC31 	 ldr r3,[r7,#460]
 303              	.LBE67:
 304              	.LBE66:
 305              	 .loc 1 222 0
 306 0240 C7F84832 	 str r3,[r7,#584]
 223:../Dave/Generated/CMSIS_DSP/FilteringFunctions/arm_correlate_fast_q15.c **** 
 224:../Dave/Generated/CMSIS_DSP/FilteringFunctions/arm_correlate_fast_q15.c ****       /* Decrement the loop counter */
 225:../Dave/Generated/CMSIS_DSP/FilteringFunctions/arm_correlate_fast_q15.c ****       k--;
 307              	 .loc 1 225 0
 308 0244 D7F82832 	 ldr r3,[r7,#552]
 309 0248 013B     	 subs r3,r3,#1
 310 024a C7F82832 	 str r3,[r7,#552]
 311              	.L9:
 218:../Dave/Generated/CMSIS_DSP/FilteringFunctions/arm_correlate_fast_q15.c ****     {
 312              	 .loc 1 218 0
 313 024e D7F82832 	 ldr r3,[r7,#552]
 314 0252 002B     	 cmp r3,#0
 315 0254 CED1     	 bne .L11
 226:../Dave/Generated/CMSIS_DSP/FilteringFunctions/arm_correlate_fast_q15.c ****     }
 227:../Dave/Generated/CMSIS_DSP/FilteringFunctions/arm_correlate_fast_q15.c **** 
 228:../Dave/Generated/CMSIS_DSP/FilteringFunctions/arm_correlate_fast_q15.c ****     /* Store the result in the accumulator in the destination buffer. */
 229:../Dave/Generated/CMSIS_DSP/FilteringFunctions/arm_correlate_fast_q15.c ****     *pOut = (q15_t) (sum >> 15);
 316              	 .loc 1 229 0
 317 0256 D7F84832 	 ldr r3,[r7,#584]
 318 025a DB13     	 asrs r3,r3,#15
 319 025c 9AB2     	 uxth r2,r3
 320 025e D7F84C32 	 ldr r3,[r7,#588]
 321 0262 1A80     	 strh r2,[r3]
 230:../Dave/Generated/CMSIS_DSP/FilteringFunctions/arm_correlate_fast_q15.c ****     /* Destination pointer is updated according to the address modifier, inc */
 231:../Dave/Generated/CMSIS_DSP/FilteringFunctions/arm_correlate_fast_q15.c ****     pOut += inc;
 322              	 .loc 1 231 0
 323 0264 D7F81432 	 ldr r3,[r7,#532]
 324 0268 5B00     	 lsls r3,r3,#1
 325 026a D7F84C22 	 ldr r2,[r7,#588]
 326 026e 1344     	 add r3,r3,r2
 327 0270 C7F84C32 	 str r3,[r7,#588]
 232:../Dave/Generated/CMSIS_DSP/FilteringFunctions/arm_correlate_fast_q15.c **** 
 233:../Dave/Generated/CMSIS_DSP/FilteringFunctions/arm_correlate_fast_q15.c ****     /* Update the inputA and inputB pointers for next MAC calculation */
 234:../Dave/Generated/CMSIS_DSP/FilteringFunctions/arm_correlate_fast_q15.c ****     py = pSrc1 - count;
 328              	 .loc 1 234 0
 329 0274 D7F82432 	 ldr r3,[r7,#548]
 330 0278 5B00     	 lsls r3,r3,#1
 331 027a 5B42     	 negs r3,r3
 332 027c D7F83422 	 ldr r2,[r7,#564]
 333 0280 1A44     	 add r2,r2,r3
 334 0282 07F11403 	 add r3,r7,#20
 335 0286 1A60     	 str r2,[r3]
 235:../Dave/Generated/CMSIS_DSP/FilteringFunctions/arm_correlate_fast_q15.c ****     px = pIn1;
 336              	 .loc 1 235 0
 337 0288 07F11803 	 add r3,r7,#24
 338 028c D7F85422 	 ldr r2,[r7,#596]
 339 0290 1A60     	 str r2,[r3]
 236:../Dave/Generated/CMSIS_DSP/FilteringFunctions/arm_correlate_fast_q15.c **** 
 237:../Dave/Generated/CMSIS_DSP/FilteringFunctions/arm_correlate_fast_q15.c ****     /* Increment the MAC count */
 238:../Dave/Generated/CMSIS_DSP/FilteringFunctions/arm_correlate_fast_q15.c ****     count++;
 340              	 .loc 1 238 0
 341 0292 D7F82432 	 ldr r3,[r7,#548]
 342 0296 0133     	 adds r3,r3,#1
 343 0298 C7F82432 	 str r3,[r7,#548]
 239:../Dave/Generated/CMSIS_DSP/FilteringFunctions/arm_correlate_fast_q15.c **** 
 240:../Dave/Generated/CMSIS_DSP/FilteringFunctions/arm_correlate_fast_q15.c ****     /* Decrement the loop counter */
 241:../Dave/Generated/CMSIS_DSP/FilteringFunctions/arm_correlate_fast_q15.c ****     blockSize1--;
 344              	 .loc 1 241 0
 345 029c D7F81C32 	 ldr r3,[r7,#540]
 346 02a0 013B     	 subs r3,r3,#1
 347 02a2 C7F81C32 	 str r3,[r7,#540]
 348              	.L4:
 193:../Dave/Generated/CMSIS_DSP/FilteringFunctions/arm_correlate_fast_q15.c ****   {
 349              	 .loc 1 193 0
 350 02a6 D7F81C32 	 ldr r3,[r7,#540]
 351 02aa 002B     	 cmp r3,#0
 352 02ac 7FF441AF 	 bne .L12
 242:../Dave/Generated/CMSIS_DSP/FilteringFunctions/arm_correlate_fast_q15.c ****   }
 243:../Dave/Generated/CMSIS_DSP/FilteringFunctions/arm_correlate_fast_q15.c **** 
 244:../Dave/Generated/CMSIS_DSP/FilteringFunctions/arm_correlate_fast_q15.c ****   /* --------------------------   
 245:../Dave/Generated/CMSIS_DSP/FilteringFunctions/arm_correlate_fast_q15.c ****    * Initializations of stage2   
 246:../Dave/Generated/CMSIS_DSP/FilteringFunctions/arm_correlate_fast_q15.c ****    * ------------------------*/
 247:../Dave/Generated/CMSIS_DSP/FilteringFunctions/arm_correlate_fast_q15.c **** 
 248:../Dave/Generated/CMSIS_DSP/FilteringFunctions/arm_correlate_fast_q15.c ****   /* sum = x[0] * y[0] + x[1] * y[1] +...+ x[srcBLen-1] * y[srcBLen-1]   
 249:../Dave/Generated/CMSIS_DSP/FilteringFunctions/arm_correlate_fast_q15.c ****    * sum = x[1] * y[0] + x[2] * y[1] +...+ x[srcBLen] * y[srcBLen-1]   
 250:../Dave/Generated/CMSIS_DSP/FilteringFunctions/arm_correlate_fast_q15.c ****    * ....   
 251:../Dave/Generated/CMSIS_DSP/FilteringFunctions/arm_correlate_fast_q15.c ****    * sum = x[srcALen-srcBLen-2] * y[0] + x[srcALen-srcBLen-1] * y[1] +...+ x[srcALen-1] * y[srcBLen
 252:../Dave/Generated/CMSIS_DSP/FilteringFunctions/arm_correlate_fast_q15.c ****    */
 253:../Dave/Generated/CMSIS_DSP/FilteringFunctions/arm_correlate_fast_q15.c **** 
 254:../Dave/Generated/CMSIS_DSP/FilteringFunctions/arm_correlate_fast_q15.c ****   /* Working pointer of inputA */
 255:../Dave/Generated/CMSIS_DSP/FilteringFunctions/arm_correlate_fast_q15.c ****   px = pIn1;
 353              	 .loc 1 255 0
 354 02b0 07F11803 	 add r3,r7,#24
 355 02b4 D7F85422 	 ldr r2,[r7,#596]
 356 02b8 1A60     	 str r2,[r3]
 256:../Dave/Generated/CMSIS_DSP/FilteringFunctions/arm_correlate_fast_q15.c **** 
 257:../Dave/Generated/CMSIS_DSP/FilteringFunctions/arm_correlate_fast_q15.c ****   /* Working pointer of inputB */
 258:../Dave/Generated/CMSIS_DSP/FilteringFunctions/arm_correlate_fast_q15.c ****   py = pIn2;
 357              	 .loc 1 258 0
 358 02ba 07F11403 	 add r3,r7,#20
 359 02be D7F85022 	 ldr r2,[r7,#592]
 360 02c2 1A60     	 str r2,[r3]
 259:../Dave/Generated/CMSIS_DSP/FilteringFunctions/arm_correlate_fast_q15.c **** 
 260:../Dave/Generated/CMSIS_DSP/FilteringFunctions/arm_correlate_fast_q15.c ****   /* count is index by which the pointer pIn1 to be incremented */
 261:../Dave/Generated/CMSIS_DSP/FilteringFunctions/arm_correlate_fast_q15.c ****   count = 0u;
 361              	 .loc 1 261 0
 362 02c4 0023     	 movs r3,#0
 363 02c6 C7F82432 	 str r3,[r7,#548]
 262:../Dave/Generated/CMSIS_DSP/FilteringFunctions/arm_correlate_fast_q15.c **** 
 263:../Dave/Generated/CMSIS_DSP/FilteringFunctions/arm_correlate_fast_q15.c ****   /* -------------------   
 264:../Dave/Generated/CMSIS_DSP/FilteringFunctions/arm_correlate_fast_q15.c ****    * Stage2 process   
 265:../Dave/Generated/CMSIS_DSP/FilteringFunctions/arm_correlate_fast_q15.c ****    * ------------------*/
 266:../Dave/Generated/CMSIS_DSP/FilteringFunctions/arm_correlate_fast_q15.c **** 
 267:../Dave/Generated/CMSIS_DSP/FilteringFunctions/arm_correlate_fast_q15.c ****   /* Stage2 depends on srcBLen as in this stage srcBLen number of MACS are performed.   
 268:../Dave/Generated/CMSIS_DSP/FilteringFunctions/arm_correlate_fast_q15.c ****    * So, to loop unroll over blockSize2,   
 269:../Dave/Generated/CMSIS_DSP/FilteringFunctions/arm_correlate_fast_q15.c ****    * srcBLen should be greater than or equal to 4, to loop unroll the srcBLen loop */
 270:../Dave/Generated/CMSIS_DSP/FilteringFunctions/arm_correlate_fast_q15.c ****   if(srcBLen >= 4u)
 364              	 .loc 1 270 0
 365 02ca 3B46     	 mov r3,r7
 366 02cc 1B68     	 ldr r3,[r3]
 367 02ce 032B     	 cmp r3,#3
 368 02d0 40F20285 	 bls .L13
 271:../Dave/Generated/CMSIS_DSP/FilteringFunctions/arm_correlate_fast_q15.c ****   {
 272:../Dave/Generated/CMSIS_DSP/FilteringFunctions/arm_correlate_fast_q15.c ****     /* Loop unroll over blockSize2, by 4 */
 273:../Dave/Generated/CMSIS_DSP/FilteringFunctions/arm_correlate_fast_q15.c ****     blkCnt = blockSize2 >> 2u;
 369              	 .loc 1 273 0
 370 02d4 D7F80832 	 ldr r3,[r7,#520]
 371 02d8 9B08     	 lsrs r3,r3,#2
 372 02da C7F82032 	 str r3,[r7,#544]
 274:../Dave/Generated/CMSIS_DSP/FilteringFunctions/arm_correlate_fast_q15.c **** 
 275:../Dave/Generated/CMSIS_DSP/FilteringFunctions/arm_correlate_fast_q15.c ****     while(blkCnt > 0u)
 373              	 .loc 1 275 0
 374 02de 00F023BC 	 b .L14
 375              	.L43:
 276:../Dave/Generated/CMSIS_DSP/FilteringFunctions/arm_correlate_fast_q15.c ****     {
 277:../Dave/Generated/CMSIS_DSP/FilteringFunctions/arm_correlate_fast_q15.c ****       /* Set all accumulators to zero */
 278:../Dave/Generated/CMSIS_DSP/FilteringFunctions/arm_correlate_fast_q15.c ****       acc0 = 0;
 376              	 .loc 1 278 0
 377 02e2 0023     	 movs r3,#0
 378 02e4 C7F84432 	 str r3,[r7,#580]
 279:../Dave/Generated/CMSIS_DSP/FilteringFunctions/arm_correlate_fast_q15.c ****       acc1 = 0;
 379              	 .loc 1 279 0
 380 02e8 0023     	 movs r3,#0
 381 02ea C7F84032 	 str r3,[r7,#576]
 280:../Dave/Generated/CMSIS_DSP/FilteringFunctions/arm_correlate_fast_q15.c ****       acc2 = 0;
 382              	 .loc 1 280 0
 383 02ee 0023     	 movs r3,#0
 384 02f0 C7F83C32 	 str r3,[r7,#572]
 281:../Dave/Generated/CMSIS_DSP/FilteringFunctions/arm_correlate_fast_q15.c ****       acc3 = 0;
 385              	 .loc 1 281 0
 386 02f4 0023     	 movs r3,#0
 387 02f6 C7F83832 	 str r3,[r7,#568]
 282:../Dave/Generated/CMSIS_DSP/FilteringFunctions/arm_correlate_fast_q15.c **** 
 283:../Dave/Generated/CMSIS_DSP/FilteringFunctions/arm_correlate_fast_q15.c ****       /* read x[0], x[1] samples */
 284:../Dave/Generated/CMSIS_DSP/FilteringFunctions/arm_correlate_fast_q15.c ****       x0 = *__SIMD32(px);
 388              	 .loc 1 284 0
 389 02fa 07F11803 	 add r3,r7,#24
 390 02fe 1B68     	 ldr r3,[r3]
 391 0300 1B68     	 ldr r3,[r3]
 392 0302 C7F83032 	 str r3,[r7,#560]
 285:../Dave/Generated/CMSIS_DSP/FilteringFunctions/arm_correlate_fast_q15.c ****       /* read x[1], x[2] samples */
 286:../Dave/Generated/CMSIS_DSP/FilteringFunctions/arm_correlate_fast_q15.c ****       x1 = _SIMD32_OFFSET(px + 1);
 393              	 .loc 1 286 0
 394 0306 07F11803 	 add r3,r7,#24
 395 030a 1B68     	 ldr r3,[r3]
 396 030c D3F80230 	 ldr r3,[r3,#2]
 397 0310 C7F82C32 	 str r3,[r7,#556]
 287:../Dave/Generated/CMSIS_DSP/FilteringFunctions/arm_correlate_fast_q15.c **** 	  px += 2u;
 398              	 .loc 1 287 0
 399 0314 07F11803 	 add r3,r7,#24
 400 0318 1B68     	 ldr r3,[r3]
 401 031a 1A1D     	 adds r2,r3,#4
 402 031c 07F11803 	 add r3,r7,#24
 403 0320 1A60     	 str r2,[r3]
 288:../Dave/Generated/CMSIS_DSP/FilteringFunctions/arm_correlate_fast_q15.c **** 
 289:../Dave/Generated/CMSIS_DSP/FilteringFunctions/arm_correlate_fast_q15.c ****       /* Apply loop unrolling and compute 4 MACs simultaneously. */
 290:../Dave/Generated/CMSIS_DSP/FilteringFunctions/arm_correlate_fast_q15.c ****       k = srcBLen >> 2u;
 404              	 .loc 1 290 0
 405 0322 3B46     	 mov r3,r7
 406 0324 1B68     	 ldr r3,[r3]
 407 0326 9B08     	 lsrs r3,r3,#2
 408 0328 C7F82832 	 str r3,[r7,#552]
 409              	.L23:
 291:../Dave/Generated/CMSIS_DSP/FilteringFunctions/arm_correlate_fast_q15.c **** 
 292:../Dave/Generated/CMSIS_DSP/FilteringFunctions/arm_correlate_fast_q15.c ****       /* First part of the processing with loop unrolling.  Compute 4 MACs at a time.   
 293:../Dave/Generated/CMSIS_DSP/FilteringFunctions/arm_correlate_fast_q15.c ****        ** a second loop below computes MACs for the remaining 1 to 3 samples. */
 294:../Dave/Generated/CMSIS_DSP/FilteringFunctions/arm_correlate_fast_q15.c ****       do
 295:../Dave/Generated/CMSIS_DSP/FilteringFunctions/arm_correlate_fast_q15.c ****       {
 296:../Dave/Generated/CMSIS_DSP/FilteringFunctions/arm_correlate_fast_q15.c ****         /* Read the first two inputB samples using SIMD:   
 297:../Dave/Generated/CMSIS_DSP/FilteringFunctions/arm_correlate_fast_q15.c ****          * y[0] and y[1] */
 298:../Dave/Generated/CMSIS_DSP/FilteringFunctions/arm_correlate_fast_q15.c ****         c0 = *__SIMD32(py)++;
 410              	 .loc 1 298 0 discriminator 1
 411 032c 07F11402 	 add r2,r7,#20
 412 0330 1368     	 ldr r3,[r2]
 413 0332 191D     	 adds r1,r3,#4
 414 0334 1160     	 str r1,[r2]
 415 0336 1B68     	 ldr r3,[r3]
 416 0338 C7F80432 	 str r3,[r7,#516]
 299:../Dave/Generated/CMSIS_DSP/FilteringFunctions/arm_correlate_fast_q15.c **** 
 300:../Dave/Generated/CMSIS_DSP/FilteringFunctions/arm_correlate_fast_q15.c ****         /* acc0 +=  x[0] * y[0] + x[1] * y[1] */
 301:../Dave/Generated/CMSIS_DSP/FilteringFunctions/arm_correlate_fast_q15.c ****         acc0 = __SMLAD(x0, c0, acc0);
 417              	 .loc 1 301 0 discriminator 1
 418 033c D7F83012 	 ldr r1,[r7,#560]
 419 0340 D7F80422 	 ldr r2,[r7,#516]
 420 0344 D7F84432 	 ldr r3,[r7,#580]
 421 0348 C7F8C811 	 str r1,[r7,#456]
 422 034c C7F8C421 	 str r2,[r7,#452]
 423 0350 C7F8C031 	 str r3,[r7,#448]
 424              	.LBB68:
 425              	.LBB69:
1204:C:/Workspaces/DAVE-4.3/WS_2016_09_02/Flightcontroller_PWM_CopterRocks_Working/Libraries/CMSIS/Include\cmsis_gcc.h ****   return(result);
 426              	 .loc 2 1204 0 discriminator 1
 427 0354 D7F8C831 	 ldr r3,[r7,#456]
 428 0358 D7F8C421 	 ldr r2,[r7,#452]
 429 035c D7F8C011 	 ldr r1,[r7,#448]
 430              	
 431 0360 23FB0213 	 smlad r3,r3,r2,r1
 432              	
 433              	 .thumb
 434 0364 C7F8BC31 	 str r3,[r7,#444]
 435              	 .loc 2 1205 0 discriminator 1
 436 0368 D7F8BC31 	 ldr r3,[r7,#444]
 437              	.LBE69:
 438              	.LBE68:
 439              	 .loc 1 301 0 discriminator 1
 440 036c C7F84432 	 str r3,[r7,#580]
 302:../Dave/Generated/CMSIS_DSP/FilteringFunctions/arm_correlate_fast_q15.c **** 
 303:../Dave/Generated/CMSIS_DSP/FilteringFunctions/arm_correlate_fast_q15.c ****         /* acc1 +=  x[1] * y[0] + x[2] * y[1] */
 304:../Dave/Generated/CMSIS_DSP/FilteringFunctions/arm_correlate_fast_q15.c ****         acc1 = __SMLAD(x1, c0, acc1);
 441              	 .loc 1 304 0 discriminator 1
 442 0370 D7F82C12 	 ldr r1,[r7,#556]
 443 0374 D7F80422 	 ldr r2,[r7,#516]
 444 0378 D7F84032 	 ldr r3,[r7,#576]
 445 037c C7F8B811 	 str r1,[r7,#440]
 446 0380 C7F8B421 	 str r2,[r7,#436]
 447 0384 C7F8B031 	 str r3,[r7,#432]
 448              	.LBB70:
 449              	.LBB71:
1204:C:/Workspaces/DAVE-4.3/WS_2016_09_02/Flightcontroller_PWM_CopterRocks_Working/Libraries/CMSIS/Include\cmsis_gcc.h ****   return(result);
 450              	 .loc 2 1204 0 discriminator 1
 451 0388 D7F8B831 	 ldr r3,[r7,#440]
 452 038c D7F8B421 	 ldr r2,[r7,#436]
 453 0390 D7F8B011 	 ldr r1,[r7,#432]
 454              	
 455 0394 23FB0213 	 smlad r3,r3,r2,r1
 456              	
 457              	 .thumb
 458 0398 C7F8AC31 	 str r3,[r7,#428]
 459              	 .loc 2 1205 0 discriminator 1
 460 039c D7F8AC31 	 ldr r3,[r7,#428]
 461              	.LBE71:
 462              	.LBE70:
 463              	 .loc 1 304 0 discriminator 1
 464 03a0 C7F84032 	 str r3,[r7,#576]
 305:../Dave/Generated/CMSIS_DSP/FilteringFunctions/arm_correlate_fast_q15.c **** 
 306:../Dave/Generated/CMSIS_DSP/FilteringFunctions/arm_correlate_fast_q15.c ****         /* Read x[2], x[3] */
 307:../Dave/Generated/CMSIS_DSP/FilteringFunctions/arm_correlate_fast_q15.c ****         x2 = *__SIMD32(px);
 465              	 .loc 1 307 0 discriminator 1
 466 03a4 07F11803 	 add r3,r7,#24
 467 03a8 1B68     	 ldr r3,[r3]
 468 03aa 1B68     	 ldr r3,[r3]
 469 03ac C7F80032 	 str r3,[r7,#512]
 308:../Dave/Generated/CMSIS_DSP/FilteringFunctions/arm_correlate_fast_q15.c **** 
 309:../Dave/Generated/CMSIS_DSP/FilteringFunctions/arm_correlate_fast_q15.c ****         /* Read x[3], x[4] */
 310:../Dave/Generated/CMSIS_DSP/FilteringFunctions/arm_correlate_fast_q15.c ****         x3 = _SIMD32_OFFSET(px + 1);
 470              	 .loc 1 310 0 discriminator 1
 471 03b0 07F11803 	 add r3,r7,#24
 472 03b4 1B68     	 ldr r3,[r3]
 473 03b6 D3F80230 	 ldr r3,[r3,#2]
 474 03ba C7F8FC31 	 str r3,[r7,#508]
 311:../Dave/Generated/CMSIS_DSP/FilteringFunctions/arm_correlate_fast_q15.c **** 
 312:../Dave/Generated/CMSIS_DSP/FilteringFunctions/arm_correlate_fast_q15.c ****         /* acc2 +=  x[2] * y[0] + x[3] * y[1] */
 313:../Dave/Generated/CMSIS_DSP/FilteringFunctions/arm_correlate_fast_q15.c ****         acc2 = __SMLAD(x2, c0, acc2);
 475              	 .loc 1 313 0 discriminator 1
 476 03be D7F80012 	 ldr r1,[r7,#512]
 477 03c2 D7F80422 	 ldr r2,[r7,#516]
 478 03c6 D7F83C32 	 ldr r3,[r7,#572]
 479 03ca C7F8A811 	 str r1,[r7,#424]
 480 03ce C7F8A421 	 str r2,[r7,#420]
 481 03d2 C7F8A031 	 str r3,[r7,#416]
 482              	.LBB72:
 483              	.LBB73:
1204:C:/Workspaces/DAVE-4.3/WS_2016_09_02/Flightcontroller_PWM_CopterRocks_Working/Libraries/CMSIS/Include\cmsis_gcc.h ****   return(result);
 484              	 .loc 2 1204 0 discriminator 1
 485 03d6 D7F8A831 	 ldr r3,[r7,#424]
 486 03da D7F8A421 	 ldr r2,[r7,#420]
 487 03de D7F8A011 	 ldr r1,[r7,#416]
 488              	
 489 03e2 23FB0213 	 smlad r3,r3,r2,r1
 490              	
 491              	 .thumb
 492 03e6 C7F89C31 	 str r3,[r7,#412]
 493              	 .loc 2 1205 0 discriminator 1
 494 03ea D7F89C31 	 ldr r3,[r7,#412]
 495              	.LBE73:
 496              	.LBE72:
 497              	 .loc 1 313 0 discriminator 1
 498 03ee C7F83C32 	 str r3,[r7,#572]
 314:../Dave/Generated/CMSIS_DSP/FilteringFunctions/arm_correlate_fast_q15.c **** 
 315:../Dave/Generated/CMSIS_DSP/FilteringFunctions/arm_correlate_fast_q15.c ****         /* acc3 +=  x[3] * y[0] + x[4] * y[1] */
 316:../Dave/Generated/CMSIS_DSP/FilteringFunctions/arm_correlate_fast_q15.c ****         acc3 = __SMLAD(x3, c0, acc3);
 499              	 .loc 1 316 0 discriminator 1
 500 03f2 D7F8FC11 	 ldr r1,[r7,#508]
 501 03f6 D7F80422 	 ldr r2,[r7,#516]
 502 03fa D7F83832 	 ldr r3,[r7,#568]
 503 03fe C7F89811 	 str r1,[r7,#408]
 504 0402 C7F89421 	 str r2,[r7,#404]
 505 0406 C7F89031 	 str r3,[r7,#400]
 506              	.LBB74:
 507              	.LBB75:
1204:C:/Workspaces/DAVE-4.3/WS_2016_09_02/Flightcontroller_PWM_CopterRocks_Working/Libraries/CMSIS/Include\cmsis_gcc.h ****   return(result);
 508              	 .loc 2 1204 0 discriminator 1
 509 040a D7F89831 	 ldr r3,[r7,#408]
 510 040e D7F89421 	 ldr r2,[r7,#404]
 511 0412 D7F89011 	 ldr r1,[r7,#400]
 512              	
 513 0416 23FB0213 	 smlad r3,r3,r2,r1
 514              	
 515              	 .thumb
 516 041a C7F88C31 	 str r3,[r7,#396]
 517              	 .loc 2 1205 0 discriminator 1
 518 041e D7F88C31 	 ldr r3,[r7,#396]
 519              	.LBE75:
 520              	.LBE74:
 521              	 .loc 1 316 0 discriminator 1
 522 0422 C7F83832 	 str r3,[r7,#568]
 317:../Dave/Generated/CMSIS_DSP/FilteringFunctions/arm_correlate_fast_q15.c **** 
 318:../Dave/Generated/CMSIS_DSP/FilteringFunctions/arm_correlate_fast_q15.c ****         /* Read y[2] and y[3] */
 319:../Dave/Generated/CMSIS_DSP/FilteringFunctions/arm_correlate_fast_q15.c ****         c0 = *__SIMD32(py)++;
 523              	 .loc 1 319 0 discriminator 1
 524 0426 07F11402 	 add r2,r7,#20
 525 042a 1368     	 ldr r3,[r2]
 526 042c 191D     	 adds r1,r3,#4
 527 042e 1160     	 str r1,[r2]
 528 0430 1B68     	 ldr r3,[r3]
 529 0432 C7F80432 	 str r3,[r7,#516]
 320:../Dave/Generated/CMSIS_DSP/FilteringFunctions/arm_correlate_fast_q15.c **** 
 321:../Dave/Generated/CMSIS_DSP/FilteringFunctions/arm_correlate_fast_q15.c ****         /* acc0 +=  x[2] * y[2] + x[3] * y[3] */
 322:../Dave/Generated/CMSIS_DSP/FilteringFunctions/arm_correlate_fast_q15.c ****         acc0 = __SMLAD(x2, c0, acc0);
 530              	 .loc 1 322 0 discriminator 1
 531 0436 D7F80012 	 ldr r1,[r7,#512]
 532 043a D7F80422 	 ldr r2,[r7,#516]
 533 043e D7F84432 	 ldr r3,[r7,#580]
 534 0442 C7F88811 	 str r1,[r7,#392]
 535 0446 C7F88421 	 str r2,[r7,#388]
 536 044a C7F88031 	 str r3,[r7,#384]
 537              	.LBB76:
 538              	.LBB77:
1204:C:/Workspaces/DAVE-4.3/WS_2016_09_02/Flightcontroller_PWM_CopterRocks_Working/Libraries/CMSIS/Include\cmsis_gcc.h ****   return(result);
 539              	 .loc 2 1204 0 discriminator 1
 540 044e D7F88831 	 ldr r3,[r7,#392]
 541 0452 D7F88421 	 ldr r2,[r7,#388]
 542 0456 D7F88011 	 ldr r1,[r7,#384]
 543              	
 544 045a 23FB0213 	 smlad r3,r3,r2,r1
 545              	
 546              	 .thumb
 547 045e C7F87C31 	 str r3,[r7,#380]
 548              	 .loc 2 1205 0 discriminator 1
 549 0462 D7F87C31 	 ldr r3,[r7,#380]
 550              	.LBE77:
 551              	.LBE76:
 552              	 .loc 1 322 0 discriminator 1
 553 0466 C7F84432 	 str r3,[r7,#580]
 323:../Dave/Generated/CMSIS_DSP/FilteringFunctions/arm_correlate_fast_q15.c **** 
 324:../Dave/Generated/CMSIS_DSP/FilteringFunctions/arm_correlate_fast_q15.c ****         /* acc1 +=  x[3] * y[2] + x[4] * y[3] */
 325:../Dave/Generated/CMSIS_DSP/FilteringFunctions/arm_correlate_fast_q15.c ****         acc1 = __SMLAD(x3, c0, acc1);
 554              	 .loc 1 325 0 discriminator 1
 555 046a D7F8FC11 	 ldr r1,[r7,#508]
 556 046e D7F80422 	 ldr r2,[r7,#516]
 557 0472 D7F84032 	 ldr r3,[r7,#576]
 558 0476 C7F87811 	 str r1,[r7,#376]
 559 047a C7F87421 	 str r2,[r7,#372]
 560 047e C7F87031 	 str r3,[r7,#368]
 561              	.LBB78:
 562              	.LBB79:
1204:C:/Workspaces/DAVE-4.3/WS_2016_09_02/Flightcontroller_PWM_CopterRocks_Working/Libraries/CMSIS/Include\cmsis_gcc.h ****   return(result);
 563              	 .loc 2 1204 0 discriminator 1
 564 0482 D7F87831 	 ldr r3,[r7,#376]
 565 0486 D7F87421 	 ldr r2,[r7,#372]
 566 048a D7F87011 	 ldr r1,[r7,#368]
 567              	
 568 048e 23FB0213 	 smlad r3,r3,r2,r1
 569              	
 570              	 .thumb
 571 0492 C7F86C31 	 str r3,[r7,#364]
 572              	 .loc 2 1205 0 discriminator 1
 573 0496 D7F86C31 	 ldr r3,[r7,#364]
 574              	.LBE79:
 575              	.LBE78:
 576              	 .loc 1 325 0 discriminator 1
 577 049a C7F84032 	 str r3,[r7,#576]
 326:../Dave/Generated/CMSIS_DSP/FilteringFunctions/arm_correlate_fast_q15.c **** 
 327:../Dave/Generated/CMSIS_DSP/FilteringFunctions/arm_correlate_fast_q15.c ****         /* Read x[4], x[5] */
 328:../Dave/Generated/CMSIS_DSP/FilteringFunctions/arm_correlate_fast_q15.c ****         x0 = _SIMD32_OFFSET(px + 2);
 578              	 .loc 1 328 0 discriminator 1
 579 049e 07F11803 	 add r3,r7,#24
 580 04a2 1B68     	 ldr r3,[r3]
 581 04a4 5B68     	 ldr r3,[r3,#4]
 582 04a6 C7F83032 	 str r3,[r7,#560]
 329:../Dave/Generated/CMSIS_DSP/FilteringFunctions/arm_correlate_fast_q15.c **** 
 330:../Dave/Generated/CMSIS_DSP/FilteringFunctions/arm_correlate_fast_q15.c ****         /* Read x[5], x[6] */
 331:../Dave/Generated/CMSIS_DSP/FilteringFunctions/arm_correlate_fast_q15.c ****         x1 = _SIMD32_OFFSET(px + 3);
 583              	 .loc 1 331 0 discriminator 1
 584 04aa 07F11803 	 add r3,r7,#24
 585 04ae 1B68     	 ldr r3,[r3]
 586 04b0 D3F80630 	 ldr r3,[r3,#6]
 587 04b4 C7F82C32 	 str r3,[r7,#556]
 332:../Dave/Generated/CMSIS_DSP/FilteringFunctions/arm_correlate_fast_q15.c **** 		px += 4u;
 588              	 .loc 1 332 0 discriminator 1
 589 04b8 07F11803 	 add r3,r7,#24
 590 04bc 1B68     	 ldr r3,[r3]
 591 04be 03F10802 	 add r2,r3,#8
 592 04c2 07F11803 	 add r3,r7,#24
 593 04c6 1A60     	 str r2,[r3]
 333:../Dave/Generated/CMSIS_DSP/FilteringFunctions/arm_correlate_fast_q15.c **** 
 334:../Dave/Generated/CMSIS_DSP/FilteringFunctions/arm_correlate_fast_q15.c ****         /* acc2 +=  x[4] * y[2] + x[5] * y[3] */
 335:../Dave/Generated/CMSIS_DSP/FilteringFunctions/arm_correlate_fast_q15.c ****         acc2 = __SMLAD(x0, c0, acc2);
 594              	 .loc 1 335 0 discriminator 1
 595 04c8 D7F83012 	 ldr r1,[r7,#560]
 596 04cc D7F80422 	 ldr r2,[r7,#516]
 597 04d0 D7F83C32 	 ldr r3,[r7,#572]
 598 04d4 C7F86811 	 str r1,[r7,#360]
 599 04d8 C7F86421 	 str r2,[r7,#356]
 600 04dc C7F86031 	 str r3,[r7,#352]
 601              	.LBB80:
 602              	.LBB81:
1204:C:/Workspaces/DAVE-4.3/WS_2016_09_02/Flightcontroller_PWM_CopterRocks_Working/Libraries/CMSIS/Include\cmsis_gcc.h ****   return(result);
 603              	 .loc 2 1204 0 discriminator 1
 604 04e0 D7F86831 	 ldr r3,[r7,#360]
 605 04e4 D7F86421 	 ldr r2,[r7,#356]
 606 04e8 D7F86011 	 ldr r1,[r7,#352]
 607              	
 608 04ec 23FB0213 	 smlad r3,r3,r2,r1
 609              	
 610              	 .thumb
 611 04f0 C7F85C31 	 str r3,[r7,#348]
 612              	 .loc 2 1205 0 discriminator 1
 613 04f4 D7F85C31 	 ldr r3,[r7,#348]
 614              	.LBE81:
 615              	.LBE80:
 616              	 .loc 1 335 0 discriminator 1
 617 04f8 C7F83C32 	 str r3,[r7,#572]
 336:../Dave/Generated/CMSIS_DSP/FilteringFunctions/arm_correlate_fast_q15.c **** 
 337:../Dave/Generated/CMSIS_DSP/FilteringFunctions/arm_correlate_fast_q15.c ****         /* acc3 +=  x[5] * y[2] + x[6] * y[3] */
 338:../Dave/Generated/CMSIS_DSP/FilteringFunctions/arm_correlate_fast_q15.c ****         acc3 = __SMLAD(x1, c0, acc3);
 618              	 .loc 1 338 0 discriminator 1
 619 04fc D7F82C02 	 ldr r0,[r7,#556]
 620 0500 D7F80412 	 ldr r1,[r7,#516]
 621 0504 D7F83822 	 ldr r2,[r7,#568]
 622 0508 07F5AC73 	 add r3,r7,#344
 623 050c 1860     	 str r0,[r3]
 624 050e 07F5AA73 	 add r3,r7,#340
 625 0512 1960     	 str r1,[r3]
 626 0514 07F5A873 	 add r3,r7,#336
 627 0518 1A60     	 str r2,[r3]
 628              	.LBB82:
 629              	.LBB83:
1204:C:/Workspaces/DAVE-4.3/WS_2016_09_02/Flightcontroller_PWM_CopterRocks_Working/Libraries/CMSIS/Include\cmsis_gcc.h ****   return(result);
 630              	 .loc 2 1204 0 discriminator 1
 631 051a 07F5AC73 	 add r3,r7,#344
 632 051e 1B68     	 ldr r3,[r3]
 633 0520 07F5AA72 	 add r2,r7,#340
 634 0524 1268     	 ldr r2,[r2]
 635 0526 07F5A871 	 add r1,r7,#336
 636 052a 0968     	 ldr r1,[r1]
 637              	
 638 052c 23FB0212 	 smlad r2,r3,r2,r1
 639              	
 640              	 .thumb
 641 0530 07F5A673 	 add r3,r7,#332
 642 0534 1A60     	 str r2,[r3]
 643              	 .loc 2 1205 0 discriminator 1
 644 0536 07F5A673 	 add r3,r7,#332
 645 053a 1B68     	 ldr r3,[r3]
 646              	.LBE83:
 647              	.LBE82:
 648              	 .loc 1 338 0 discriminator 1
 649 053c C7F83832 	 str r3,[r7,#568]
 339:../Dave/Generated/CMSIS_DSP/FilteringFunctions/arm_correlate_fast_q15.c **** 
 340:../Dave/Generated/CMSIS_DSP/FilteringFunctions/arm_correlate_fast_q15.c ****       } while(--k);
 650              	 .loc 1 340 0 discriminator 1
 651 0540 D7F82832 	 ldr r3,[r7,#552]
 652 0544 013B     	 subs r3,r3,#1
 653 0546 C7F82832 	 str r3,[r7,#552]
 654 054a D7F82832 	 ldr r3,[r7,#552]
 655 054e 002B     	 cmp r3,#0
 656 0550 7FF4ECAE 	 bne .L23
 341:../Dave/Generated/CMSIS_DSP/FilteringFunctions/arm_correlate_fast_q15.c **** 
 342:../Dave/Generated/CMSIS_DSP/FilteringFunctions/arm_correlate_fast_q15.c ****       /* For the next MAC operations, SIMD is not used   
 343:../Dave/Generated/CMSIS_DSP/FilteringFunctions/arm_correlate_fast_q15.c ****        * So, the 16 bit pointer if inputB, py is updated */
 344:../Dave/Generated/CMSIS_DSP/FilteringFunctions/arm_correlate_fast_q15.c **** 
 345:../Dave/Generated/CMSIS_DSP/FilteringFunctions/arm_correlate_fast_q15.c ****       /* If the srcBLen is not a multiple of 4, compute any remaining MACs here.   
 346:../Dave/Generated/CMSIS_DSP/FilteringFunctions/arm_correlate_fast_q15.c ****        ** No loop unrolling is used. */
 347:../Dave/Generated/CMSIS_DSP/FilteringFunctions/arm_correlate_fast_q15.c ****       k = srcBLen % 0x4u;
 657              	 .loc 1 347 0
 658 0554 3B46     	 mov r3,r7
 659 0556 1B68     	 ldr r3,[r3]
 660 0558 03F00303 	 and r3,r3,#3
 661 055c C7F82832 	 str r3,[r7,#552]
 348:../Dave/Generated/CMSIS_DSP/FilteringFunctions/arm_correlate_fast_q15.c **** 
 349:../Dave/Generated/CMSIS_DSP/FilteringFunctions/arm_correlate_fast_q15.c ****       if(k == 1u)
 662              	 .loc 1 349 0
 663 0560 D7F82832 	 ldr r3,[r7,#552]
 664 0564 012B     	 cmp r3,#1
