   1              	 .syntax unified
   2              	 .cpu cortex-m4
   3              	 .eabi_attribute 27,3
   4              	 .fpu fpv4-sp-d16
   5              	 .eabi_attribute 20,1
   6              	 .eabi_attribute 21,1
   7              	 .eabi_attribute 23,3
   8              	 .eabi_attribute 24,1
   9              	 .eabi_attribute 25,1
  10              	 .eabi_attribute 26,1
  11              	 .eabi_attribute 30,6
  12              	 .eabi_attribute 34,1
  13              	 .eabi_attribute 18,4
  14              	 .thumb
  15              	 .file "arm_mean_f32.c"
  16              	 .text
  17              	.Ltext0:
  18              	 .cfi_sections .debug_frame
  19              	 .section .text.arm_mean_f32,"ax",%progbits
  20              	 .align 2
  21              	 .global arm_mean_f32
  22              	 .thumb
  23              	 .thumb_func
  25              	arm_mean_f32:
  26              	.LFB139:
  27              	 .file 1 "../Dave/Generated/CMSIS_DSP/StatisticsFunctions/arm_mean_f32.c"
   1:../Dave/Generated/CMSIS_DSP/StatisticsFunctions/arm_mean_f32.c **** /* ----------------------------------------------------------------------    
   2:../Dave/Generated/CMSIS_DSP/StatisticsFunctions/arm_mean_f32.c **** * Copyright (C) 2010-2014 ARM Limited. All rights reserved.    
   3:../Dave/Generated/CMSIS_DSP/StatisticsFunctions/arm_mean_f32.c **** *    
   4:../Dave/Generated/CMSIS_DSP/StatisticsFunctions/arm_mean_f32.c **** * $Date:        12. March 2014
   5:../Dave/Generated/CMSIS_DSP/StatisticsFunctions/arm_mean_f32.c **** * $Revision: 	V1.4.4  
   6:../Dave/Generated/CMSIS_DSP/StatisticsFunctions/arm_mean_f32.c **** *    
   7:../Dave/Generated/CMSIS_DSP/StatisticsFunctions/arm_mean_f32.c **** * Project: 	    CMSIS DSP Library    
   8:../Dave/Generated/CMSIS_DSP/StatisticsFunctions/arm_mean_f32.c **** * Title:		arm_mean_f32.c    
   9:../Dave/Generated/CMSIS_DSP/StatisticsFunctions/arm_mean_f32.c **** *    
  10:../Dave/Generated/CMSIS_DSP/StatisticsFunctions/arm_mean_f32.c **** * Description:	Mean value of a floating-point vector.   
  11:../Dave/Generated/CMSIS_DSP/StatisticsFunctions/arm_mean_f32.c **** *    
  12:../Dave/Generated/CMSIS_DSP/StatisticsFunctions/arm_mean_f32.c **** * Target Processor: Cortex-M4/Cortex-M3/Cortex-M0
  13:../Dave/Generated/CMSIS_DSP/StatisticsFunctions/arm_mean_f32.c **** *  
  14:../Dave/Generated/CMSIS_DSP/StatisticsFunctions/arm_mean_f32.c **** * Redistribution and use in source and binary forms, with or without 
  15:../Dave/Generated/CMSIS_DSP/StatisticsFunctions/arm_mean_f32.c **** * modification, are permitted provided that the following conditions
  16:../Dave/Generated/CMSIS_DSP/StatisticsFunctions/arm_mean_f32.c **** * are met:
  17:../Dave/Generated/CMSIS_DSP/StatisticsFunctions/arm_mean_f32.c **** *   - Redistributions of source code must retain the above copyright
  18:../Dave/Generated/CMSIS_DSP/StatisticsFunctions/arm_mean_f32.c **** *     notice, this list of conditions and the following disclaimer.
  19:../Dave/Generated/CMSIS_DSP/StatisticsFunctions/arm_mean_f32.c **** *   - Redistributions in binary form must reproduce the above copyright
  20:../Dave/Generated/CMSIS_DSP/StatisticsFunctions/arm_mean_f32.c **** *     notice, this list of conditions and the following disclaimer in
  21:../Dave/Generated/CMSIS_DSP/StatisticsFunctions/arm_mean_f32.c **** *     the documentation and/or other materials provided with the 
  22:../Dave/Generated/CMSIS_DSP/StatisticsFunctions/arm_mean_f32.c **** *     distribution.
  23:../Dave/Generated/CMSIS_DSP/StatisticsFunctions/arm_mean_f32.c **** *   - Neither the name of ARM LIMITED nor the names of its contributors
  24:../Dave/Generated/CMSIS_DSP/StatisticsFunctions/arm_mean_f32.c **** *     may be used to endorse or promote products derived from this
  25:../Dave/Generated/CMSIS_DSP/StatisticsFunctions/arm_mean_f32.c **** *     software without specific prior written permission.
  26:../Dave/Generated/CMSIS_DSP/StatisticsFunctions/arm_mean_f32.c **** *
  27:../Dave/Generated/CMSIS_DSP/StatisticsFunctions/arm_mean_f32.c **** * THIS SOFTWARE IS PROVIDED BY THE COPYRIGHT HOLDERS AND CONTRIBUTORS
  28:../Dave/Generated/CMSIS_DSP/StatisticsFunctions/arm_mean_f32.c **** * "AS IS" AND ANY EXPRESS OR IMPLIED WARRANTIES, INCLUDING, BUT NOT
  29:../Dave/Generated/CMSIS_DSP/StatisticsFunctions/arm_mean_f32.c **** * LIMITED TO, THE IMPLIED WARRANTIES OF MERCHANTABILITY AND FITNESS
  30:../Dave/Generated/CMSIS_DSP/StatisticsFunctions/arm_mean_f32.c **** * FOR A PARTICULAR PURPOSE ARE DISCLAIMED. IN NO EVENT SHALL THE 
  31:../Dave/Generated/CMSIS_DSP/StatisticsFunctions/arm_mean_f32.c **** * COPYRIGHT OWNER OR CONTRIBUTORS BE LIABLE FOR ANY DIRECT, INDIRECT,
  32:../Dave/Generated/CMSIS_DSP/StatisticsFunctions/arm_mean_f32.c **** * INCIDENTAL, SPECIAL, EXEMPLARY, OR CONSEQUENTIAL DAMAGES (INCLUDING,
  33:../Dave/Generated/CMSIS_DSP/StatisticsFunctions/arm_mean_f32.c **** * BUT NOT LIMITED TO, PROCUREMENT OF SUBSTITUTE GOODS OR SERVICES;
  34:../Dave/Generated/CMSIS_DSP/StatisticsFunctions/arm_mean_f32.c **** * LOSS OF USE, DATA, OR PROFITS; OR BUSINESS INTERRUPTION) HOWEVER
  35:../Dave/Generated/CMSIS_DSP/StatisticsFunctions/arm_mean_f32.c **** * CAUSED AND ON ANY THEORY OF LIABILITY, WHETHER IN CONTRACT, STRICT
  36:../Dave/Generated/CMSIS_DSP/StatisticsFunctions/arm_mean_f32.c **** * LIABILITY, OR TORT (INCLUDING NEGLIGENCE OR OTHERWISE) ARISING IN
  37:../Dave/Generated/CMSIS_DSP/StatisticsFunctions/arm_mean_f32.c **** * ANY WAY OUT OF THE USE OF THIS SOFTWARE, EVEN IF ADVISED OF THE
  38:../Dave/Generated/CMSIS_DSP/StatisticsFunctions/arm_mean_f32.c **** * POSSIBILITY OF SUCH DAMAGE.    
  39:../Dave/Generated/CMSIS_DSP/StatisticsFunctions/arm_mean_f32.c **** * ---------------------------------------------------------------------------- */
  40:../Dave/Generated/CMSIS_DSP/StatisticsFunctions/arm_mean_f32.c **** 
  41:../Dave/Generated/CMSIS_DSP/StatisticsFunctions/arm_mean_f32.c **** #include "CMSIS_DSP/cmsis_dsp.h"
  42:../Dave/Generated/CMSIS_DSP/StatisticsFunctions/arm_mean_f32.c **** 
  43:../Dave/Generated/CMSIS_DSP/StatisticsFunctions/arm_mean_f32.c **** /**    
  44:../Dave/Generated/CMSIS_DSP/StatisticsFunctions/arm_mean_f32.c ****  * @ingroup groupStats    
  45:../Dave/Generated/CMSIS_DSP/StatisticsFunctions/arm_mean_f32.c ****  */
  46:../Dave/Generated/CMSIS_DSP/StatisticsFunctions/arm_mean_f32.c **** 
  47:../Dave/Generated/CMSIS_DSP/StatisticsFunctions/arm_mean_f32.c **** /**    
  48:../Dave/Generated/CMSIS_DSP/StatisticsFunctions/arm_mean_f32.c ****  * @defgroup mean Mean    
  49:../Dave/Generated/CMSIS_DSP/StatisticsFunctions/arm_mean_f32.c ****  *    
  50:../Dave/Generated/CMSIS_DSP/StatisticsFunctions/arm_mean_f32.c ****  * Calculates the mean of the input vector. Mean is defined as the average of the elements in the v
  51:../Dave/Generated/CMSIS_DSP/StatisticsFunctions/arm_mean_f32.c ****  * The underlying algorithm is used:    
  52:../Dave/Generated/CMSIS_DSP/StatisticsFunctions/arm_mean_f32.c ****  *    
  53:../Dave/Generated/CMSIS_DSP/StatisticsFunctions/arm_mean_f32.c ****  * <pre>    
  54:../Dave/Generated/CMSIS_DSP/StatisticsFunctions/arm_mean_f32.c ****  * 	Result = (pSrc[0] + pSrc[1] + pSrc[2] + ... + pSrc[blockSize-1]) / blockSize;    
  55:../Dave/Generated/CMSIS_DSP/StatisticsFunctions/arm_mean_f32.c ****  * </pre>    
  56:../Dave/Generated/CMSIS_DSP/StatisticsFunctions/arm_mean_f32.c ****  *    
  57:../Dave/Generated/CMSIS_DSP/StatisticsFunctions/arm_mean_f32.c ****  * There are separate functions for floating-point, Q31, Q15, and Q7 data types.    
  58:../Dave/Generated/CMSIS_DSP/StatisticsFunctions/arm_mean_f32.c ****  */
  59:../Dave/Generated/CMSIS_DSP/StatisticsFunctions/arm_mean_f32.c **** 
  60:../Dave/Generated/CMSIS_DSP/StatisticsFunctions/arm_mean_f32.c **** /**    
  61:../Dave/Generated/CMSIS_DSP/StatisticsFunctions/arm_mean_f32.c ****  * @addtogroup mean    
  62:../Dave/Generated/CMSIS_DSP/StatisticsFunctions/arm_mean_f32.c ****  * @{    
  63:../Dave/Generated/CMSIS_DSP/StatisticsFunctions/arm_mean_f32.c ****  */
  64:../Dave/Generated/CMSIS_DSP/StatisticsFunctions/arm_mean_f32.c **** 
  65:../Dave/Generated/CMSIS_DSP/StatisticsFunctions/arm_mean_f32.c **** 
  66:../Dave/Generated/CMSIS_DSP/StatisticsFunctions/arm_mean_f32.c **** /**    
  67:../Dave/Generated/CMSIS_DSP/StatisticsFunctions/arm_mean_f32.c ****  * @brief Mean value of a floating-point vector.    
  68:../Dave/Generated/CMSIS_DSP/StatisticsFunctions/arm_mean_f32.c ****  * @param[in]       *pSrc points to the input vector    
  69:../Dave/Generated/CMSIS_DSP/StatisticsFunctions/arm_mean_f32.c ****  * @param[in]       blockSize length of the input vector    
  70:../Dave/Generated/CMSIS_DSP/StatisticsFunctions/arm_mean_f32.c ****  * @param[out]      *pResult mean value returned here    
  71:../Dave/Generated/CMSIS_DSP/StatisticsFunctions/arm_mean_f32.c ****  * @return none.    
  72:../Dave/Generated/CMSIS_DSP/StatisticsFunctions/arm_mean_f32.c ****  */
  73:../Dave/Generated/CMSIS_DSP/StatisticsFunctions/arm_mean_f32.c **** 
  74:../Dave/Generated/CMSIS_DSP/StatisticsFunctions/arm_mean_f32.c **** 
  75:../Dave/Generated/CMSIS_DSP/StatisticsFunctions/arm_mean_f32.c **** void arm_mean_f32(
  76:../Dave/Generated/CMSIS_DSP/StatisticsFunctions/arm_mean_f32.c ****   float32_t * pSrc,
  77:../Dave/Generated/CMSIS_DSP/StatisticsFunctions/arm_mean_f32.c ****   uint32_t blockSize,
  78:../Dave/Generated/CMSIS_DSP/StatisticsFunctions/arm_mean_f32.c ****   float32_t * pResult)
  79:../Dave/Generated/CMSIS_DSP/StatisticsFunctions/arm_mean_f32.c **** {
  28              	 .loc 1 79 0
  29              	 .cfi_startproc
  30              	 
  31              	 
  32              	 
  33 0000 80B4     	 push {r7}
  34              	.LCFI0:
  35              	 .cfi_def_cfa_offset 4
  36              	 .cfi_offset 7,-4
  37 0002 8BB0     	 sub sp,sp,#44
  38              	.LCFI1:
  39              	 .cfi_def_cfa_offset 48
  40 0004 00AF     	 add r7,sp,#0
  41              	.LCFI2:
  42              	 .cfi_def_cfa_register 7
  43 0006 F860     	 str r0,[r7,#12]
  44 0008 B960     	 str r1,[r7,#8]
  45 000a 7A60     	 str r2,[r7,#4]
  80:../Dave/Generated/CMSIS_DSP/StatisticsFunctions/arm_mean_f32.c ****   float32_t sum = 0.0f;                          /* Temporary result storage */
  46              	 .loc 1 80 0
  47 000c 4FF00003 	 mov r3,#0
  48 0010 7B62     	 str r3,[r7,#36]
  81:../Dave/Generated/CMSIS_DSP/StatisticsFunctions/arm_mean_f32.c ****   uint32_t blkCnt;                               /* loop counter */
  82:../Dave/Generated/CMSIS_DSP/StatisticsFunctions/arm_mean_f32.c **** 
  83:../Dave/Generated/CMSIS_DSP/StatisticsFunctions/arm_mean_f32.c **** #ifndef ARM_MATH_CM0_FAMILY
  84:../Dave/Generated/CMSIS_DSP/StatisticsFunctions/arm_mean_f32.c **** 
  85:../Dave/Generated/CMSIS_DSP/StatisticsFunctions/arm_mean_f32.c ****   /* Run the below code for Cortex-M4 and Cortex-M3 */
  86:../Dave/Generated/CMSIS_DSP/StatisticsFunctions/arm_mean_f32.c ****   float32_t in1, in2, in3, in4;
  87:../Dave/Generated/CMSIS_DSP/StatisticsFunctions/arm_mean_f32.c **** 
  88:../Dave/Generated/CMSIS_DSP/StatisticsFunctions/arm_mean_f32.c ****   /*loop Unrolling */
  89:../Dave/Generated/CMSIS_DSP/StatisticsFunctions/arm_mean_f32.c ****   blkCnt = blockSize >> 2u;
  49              	 .loc 1 89 0
  50 0012 BB68     	 ldr r3,[r7,#8]
  51 0014 9B08     	 lsrs r3,r3,#2
  52 0016 3B62     	 str r3,[r7,#32]
  90:../Dave/Generated/CMSIS_DSP/StatisticsFunctions/arm_mean_f32.c **** 
  91:../Dave/Generated/CMSIS_DSP/StatisticsFunctions/arm_mean_f32.c ****   /* First part of the processing with loop unrolling.  Compute 4 outputs at a time.    
  92:../Dave/Generated/CMSIS_DSP/StatisticsFunctions/arm_mean_f32.c ****    ** a second loop below computes the remaining 1 to 3 samples. */
  93:../Dave/Generated/CMSIS_DSP/StatisticsFunctions/arm_mean_f32.c ****   while(blkCnt > 0u)
  53              	 .loc 1 93 0
  54 0018 36E0     	 b .L2
  55              	.L3:
  94:../Dave/Generated/CMSIS_DSP/StatisticsFunctions/arm_mean_f32.c ****   {
  95:../Dave/Generated/CMSIS_DSP/StatisticsFunctions/arm_mean_f32.c ****     /* C = (A[0] + A[1] + A[2] + ... + A[blockSize-1]) */
  96:../Dave/Generated/CMSIS_DSP/StatisticsFunctions/arm_mean_f32.c ****     in1 = *pSrc++;
  56              	 .loc 1 96 0
  57 001a FB68     	 ldr r3,[r7,#12]
  58 001c 1A1D     	 adds r2,r3,#4
  59 001e FA60     	 str r2,[r7,#12]
  60 0020 1B68     	 ldr r3,[r3]
  61 0022 FB61     	 str r3,[r7,#28]
  97:../Dave/Generated/CMSIS_DSP/StatisticsFunctions/arm_mean_f32.c ****     in2 = *pSrc++;
  62              	 .loc 1 97 0
  63 0024 FB68     	 ldr r3,[r7,#12]
  64 0026 1A1D     	 adds r2,r3,#4
  65 0028 FA60     	 str r2,[r7,#12]
  66 002a 1B68     	 ldr r3,[r3]
  67 002c BB61     	 str r3,[r7,#24]
  98:../Dave/Generated/CMSIS_DSP/StatisticsFunctions/arm_mean_f32.c ****     in3 = *pSrc++;
  68              	 .loc 1 98 0
  69 002e FB68     	 ldr r3,[r7,#12]
  70 0030 1A1D     	 adds r2,r3,#4
  71 0032 FA60     	 str r2,[r7,#12]
  72 0034 1B68     	 ldr r3,[r3]
  73 0036 7B61     	 str r3,[r7,#20]
  99:../Dave/Generated/CMSIS_DSP/StatisticsFunctions/arm_mean_f32.c ****     in4 = *pSrc++;
  74              	 .loc 1 99 0
  75 0038 FB68     	 ldr r3,[r7,#12]
  76 003a 1A1D     	 adds r2,r3,#4
  77 003c FA60     	 str r2,[r7,#12]
  78 003e 1B68     	 ldr r3,[r3]
  79 0040 3B61     	 str r3,[r7,#16]
 100:../Dave/Generated/CMSIS_DSP/StatisticsFunctions/arm_mean_f32.c **** 
 101:../Dave/Generated/CMSIS_DSP/StatisticsFunctions/arm_mean_f32.c ****     sum += in1;
  80              	 .loc 1 101 0
  81 0042 97ED097A 	 flds s14,[r7,#36]
  82 0046 D7ED077A 	 flds s15,[r7,#28]
  83 004a 77EE277A 	 fadds s15,s14,s15
  84 004e C7ED097A 	 fsts s15,[r7,#36]
 102:../Dave/Generated/CMSIS_DSP/StatisticsFunctions/arm_mean_f32.c ****     sum += in2;
  85              	 .loc 1 102 0
  86 0052 97ED097A 	 flds s14,[r7,#36]
  87 0056 D7ED067A 	 flds s15,[r7,#24]
  88 005a 77EE277A 	 fadds s15,s14,s15
  89 005e C7ED097A 	 fsts s15,[r7,#36]
 103:../Dave/Generated/CMSIS_DSP/StatisticsFunctions/arm_mean_f32.c ****     sum += in3;
  90              	 .loc 1 103 0
  91 0062 97ED097A 	 flds s14,[r7,#36]
  92 0066 D7ED057A 	 flds s15,[r7,#20]
  93 006a 77EE277A 	 fadds s15,s14,s15
  94 006e C7ED097A 	 fsts s15,[r7,#36]
 104:../Dave/Generated/CMSIS_DSP/StatisticsFunctions/arm_mean_f32.c ****     sum += in4;
  95              	 .loc 1 104 0
  96 0072 97ED097A 	 flds s14,[r7,#36]
  97 0076 D7ED047A 	 flds s15,[r7,#16]
  98 007a 77EE277A 	 fadds s15,s14,s15
  99 007e C7ED097A 	 fsts s15,[r7,#36]
 105:../Dave/Generated/CMSIS_DSP/StatisticsFunctions/arm_mean_f32.c **** 
 106:../Dave/Generated/CMSIS_DSP/StatisticsFunctions/arm_mean_f32.c ****     /* Decrement the loop counter */
 107:../Dave/Generated/CMSIS_DSP/StatisticsFunctions/arm_mean_f32.c ****     blkCnt--;
 100              	 .loc 1 107 0
 101 0082 3B6A     	 ldr r3,[r7,#32]
 102 0084 013B     	 subs r3,r3,#1
 103 0086 3B62     	 str r3,[r7,#32]
 104              	.L2:
  93:../Dave/Generated/CMSIS_DSP/StatisticsFunctions/arm_mean_f32.c ****   {
 105              	 .loc 1 93 0
 106 0088 3B6A     	 ldr r3,[r7,#32]
 107 008a 002B     	 cmp r3,#0
 108 008c C5D1     	 bne .L3
 108:../Dave/Generated/CMSIS_DSP/StatisticsFunctions/arm_mean_f32.c ****   }
 109:../Dave/Generated/CMSIS_DSP/StatisticsFunctions/arm_mean_f32.c **** 
 110:../Dave/Generated/CMSIS_DSP/StatisticsFunctions/arm_mean_f32.c ****   /* If the blockSize is not a multiple of 4, compute any remaining output samples here.    
 111:../Dave/Generated/CMSIS_DSP/StatisticsFunctions/arm_mean_f32.c ****    ** No loop unrolling is used. */
 112:../Dave/Generated/CMSIS_DSP/StatisticsFunctions/arm_mean_f32.c ****   blkCnt = blockSize % 0x4u;
 109              	 .loc 1 112 0
 110 008e BB68     	 ldr r3,[r7,#8]
 111 0090 03F00303 	 and r3,r3,#3
 112 0094 3B62     	 str r3,[r7,#32]
 113:../Dave/Generated/CMSIS_DSP/StatisticsFunctions/arm_mean_f32.c **** 
 114:../Dave/Generated/CMSIS_DSP/StatisticsFunctions/arm_mean_f32.c **** #else
 115:../Dave/Generated/CMSIS_DSP/StatisticsFunctions/arm_mean_f32.c **** 
 116:../Dave/Generated/CMSIS_DSP/StatisticsFunctions/arm_mean_f32.c ****   /* Run the below code for Cortex-M0 */
 117:../Dave/Generated/CMSIS_DSP/StatisticsFunctions/arm_mean_f32.c **** 
 118:../Dave/Generated/CMSIS_DSP/StatisticsFunctions/arm_mean_f32.c ****   /* Loop over blockSize number of values */
 119:../Dave/Generated/CMSIS_DSP/StatisticsFunctions/arm_mean_f32.c ****   blkCnt = blockSize;
 120:../Dave/Generated/CMSIS_DSP/StatisticsFunctions/arm_mean_f32.c **** 
 121:../Dave/Generated/CMSIS_DSP/StatisticsFunctions/arm_mean_f32.c **** #endif /* #ifndef ARM_MATH_CM0_FAMILY */
 122:../Dave/Generated/CMSIS_DSP/StatisticsFunctions/arm_mean_f32.c **** 
 123:../Dave/Generated/CMSIS_DSP/StatisticsFunctions/arm_mean_f32.c ****   while(blkCnt > 0u)
 113              	 .loc 1 123 0
 114 0096 0DE0     	 b .L4
 115              	.L5:
 124:../Dave/Generated/CMSIS_DSP/StatisticsFunctions/arm_mean_f32.c ****   {
 125:../Dave/Generated/CMSIS_DSP/StatisticsFunctions/arm_mean_f32.c ****     /* C = (A[0] + A[1] + A[2] + ... + A[blockSize-1]) */
 126:../Dave/Generated/CMSIS_DSP/StatisticsFunctions/arm_mean_f32.c ****     sum += *pSrc++;
 116              	 .loc 1 126 0
 117 0098 FB68     	 ldr r3,[r7,#12]
 118 009a 1A1D     	 adds r2,r3,#4
 119 009c FA60     	 str r2,[r7,#12]
 120 009e D3ED007A 	 flds s15,[r3]
 121 00a2 97ED097A 	 flds s14,[r7,#36]
 122 00a6 77EE277A 	 fadds s15,s14,s15
 123 00aa C7ED097A 	 fsts s15,[r7,#36]
 127:../Dave/Generated/CMSIS_DSP/StatisticsFunctions/arm_mean_f32.c **** 
 128:../Dave/Generated/CMSIS_DSP/StatisticsFunctions/arm_mean_f32.c ****     /* Decrement the loop counter */
 129:../Dave/Generated/CMSIS_DSP/StatisticsFunctions/arm_mean_f32.c ****     blkCnt--;
 124              	 .loc 1 129 0
 125 00ae 3B6A     	 ldr r3,[r7,#32]
 126 00b0 013B     	 subs r3,r3,#1
 127 00b2 3B62     	 str r3,[r7,#32]
 128              	.L4:
 123:../Dave/Generated/CMSIS_DSP/StatisticsFunctions/arm_mean_f32.c ****   {
 129              	 .loc 1 123 0
 130 00b4 3B6A     	 ldr r3,[r7,#32]
 131 00b6 002B     	 cmp r3,#0
 132 00b8 EED1     	 bne .L5
 130:../Dave/Generated/CMSIS_DSP/StatisticsFunctions/arm_mean_f32.c ****   }
 131:../Dave/Generated/CMSIS_DSP/StatisticsFunctions/arm_mean_f32.c **** 
 132:../Dave/Generated/CMSIS_DSP/StatisticsFunctions/arm_mean_f32.c ****   /* C = (A[0] + A[1] + A[2] + ... + A[blockSize-1]) / blockSize  */
 133:../Dave/Generated/CMSIS_DSP/StatisticsFunctions/arm_mean_f32.c ****   /* Store the result to the destination */
 134:../Dave/Generated/CMSIS_DSP/StatisticsFunctions/arm_mean_f32.c ****   *pResult = sum / (float32_t) blockSize;
 133              	 .loc 1 134 0
 134 00ba BB68     	 ldr r3,[r7,#8]
 135 00bc 07EE903A 	 fmsr s15,r3
 136 00c0 F8EE677A 	 fuitos s15,s15
 137 00c4 97ED097A 	 flds s14,[r7,#36]
 138 00c8 C7EE277A 	 fdivs s15,s14,s15
 139 00cc 7B68     	 ldr r3,[r7,#4]
 140 00ce C3ED007A 	 fsts s15,[r3]
 135:../Dave/Generated/CMSIS_DSP/StatisticsFunctions/arm_mean_f32.c **** }
 141              	 .loc 1 135 0
 142 00d2 2C37     	 adds r7,r7,#44
 143              	.LCFI3:
 144              	 .cfi_def_cfa_offset 4
 145 00d4 BD46     	 mov sp,r7
 146              	.LCFI4:
 147              	 .cfi_def_cfa_register 13
 148              	 
 149 00d6 5DF8047B 	 ldr r7,[sp],#4
 150              	.LCFI5:
 151              	 .cfi_restore 7
 152              	 .cfi_def_cfa_offset 0
 153 00da 7047     	 bx lr
 154              	 .cfi_endproc
 155              	.LFE139:
 157              	 .text
 158              	.Letext0:
 159              	 .file 2 "c:\\davev4\\dave-4.3.2\\eclipse\\arm-gcc-49\\arm-none-eabi\\include\\machine\\_default_types.h"
 160              	 .file 3 "c:\\davev4\\dave-4.3.2\\eclipse\\arm-gcc-49\\arm-none-eabi\\include\\stdint.h"
 161              	 .file 4 "C:/Workspaces/DAVE-4.3/WS_2016_09_02/Flightcontroller_PWM_CopterRocks_Working/Dave/Generated/CMSIS_DSP/arm_math.h"