   1              	 .syntax unified
   2              	 .cpu cortex-m4
   3              	 .eabi_attribute 27,3
   4              	 .fpu fpv4-sp-d16
   5              	 .eabi_attribute 20,1
   6              	 .eabi_attribute 21,1
   7              	 .eabi_attribute 23,3
   8              	 .eabi_attribute 24,1
   9              	 .eabi_attribute 25,1
  10              	 .eabi_attribute 26,1
  11              	 .eabi_attribute 30,6
  12              	 .eabi_attribute 34,1
  13              	 .eabi_attribute 18,4
  14              	 .thumb
  15              	 .file "arm_min_q31.c"
  16              	 .text
  17              	.Ltext0:
  18              	 .cfi_sections .debug_frame
  19              	 .section .text.arm_min_q31,"ax",%progbits
  20              	 .align 2
  21              	 .global arm_min_q31
  22              	 .thumb
  23              	 .thumb_func
  25              	arm_min_q31:
  26              	.LFB139:
  27              	 .file 1 "../Dave/Generated/CMSIS_DSP/StatisticsFunctions/arm_min_q31.c"
   1:../Dave/Generated/CMSIS_DSP/StatisticsFunctions/arm_min_q31.c **** /* ----------------------------------------------------------------------    
   2:../Dave/Generated/CMSIS_DSP/StatisticsFunctions/arm_min_q31.c **** * Copyright (C) 2010-2014 ARM Limited. All rights reserved.    
   3:../Dave/Generated/CMSIS_DSP/StatisticsFunctions/arm_min_q31.c **** *    
   4:../Dave/Generated/CMSIS_DSP/StatisticsFunctions/arm_min_q31.c **** * $Date:        12. March 2014
   5:../Dave/Generated/CMSIS_DSP/StatisticsFunctions/arm_min_q31.c **** * $Revision: 	V1.4.4  
   6:../Dave/Generated/CMSIS_DSP/StatisticsFunctions/arm_min_q31.c **** *    
   7:../Dave/Generated/CMSIS_DSP/StatisticsFunctions/arm_min_q31.c **** * Project: 	    CMSIS DSP Library    
   8:../Dave/Generated/CMSIS_DSP/StatisticsFunctions/arm_min_q31.c **** * Title:		arm_min_q31.c    
   9:../Dave/Generated/CMSIS_DSP/StatisticsFunctions/arm_min_q31.c **** *    
  10:../Dave/Generated/CMSIS_DSP/StatisticsFunctions/arm_min_q31.c **** * Description:	Minimum value of a Q31 vector.    
  11:../Dave/Generated/CMSIS_DSP/StatisticsFunctions/arm_min_q31.c **** *    
  12:../Dave/Generated/CMSIS_DSP/StatisticsFunctions/arm_min_q31.c **** * Target Processor: Cortex-M4/Cortex-M3/Cortex-M0
  13:../Dave/Generated/CMSIS_DSP/StatisticsFunctions/arm_min_q31.c **** *  
  14:../Dave/Generated/CMSIS_DSP/StatisticsFunctions/arm_min_q31.c **** * Redistribution and use in source and binary forms, with or without 
  15:../Dave/Generated/CMSIS_DSP/StatisticsFunctions/arm_min_q31.c **** * modification, are permitted provided that the following conditions
  16:../Dave/Generated/CMSIS_DSP/StatisticsFunctions/arm_min_q31.c **** * are met:
  17:../Dave/Generated/CMSIS_DSP/StatisticsFunctions/arm_min_q31.c **** *   - Redistributions of source code must retain the above copyright
  18:../Dave/Generated/CMSIS_DSP/StatisticsFunctions/arm_min_q31.c **** *     notice, this list of conditions and the following disclaimer.
  19:../Dave/Generated/CMSIS_DSP/StatisticsFunctions/arm_min_q31.c **** *   - Redistributions in binary form must reproduce the above copyright
  20:../Dave/Generated/CMSIS_DSP/StatisticsFunctions/arm_min_q31.c **** *     notice, this list of conditions and the following disclaimer in
  21:../Dave/Generated/CMSIS_DSP/StatisticsFunctions/arm_min_q31.c **** *     the documentation and/or other materials provided with the 
  22:../Dave/Generated/CMSIS_DSP/StatisticsFunctions/arm_min_q31.c **** *     distribution.
  23:../Dave/Generated/CMSIS_DSP/StatisticsFunctions/arm_min_q31.c **** *   - Neither the name of ARM LIMITED nor the names of its contributors
  24:../Dave/Generated/CMSIS_DSP/StatisticsFunctions/arm_min_q31.c **** *     may be used to endorse or promote products derived from this
  25:../Dave/Generated/CMSIS_DSP/StatisticsFunctions/arm_min_q31.c **** *     software without specific prior written permission.
  26:../Dave/Generated/CMSIS_DSP/StatisticsFunctions/arm_min_q31.c **** *
  27:../Dave/Generated/CMSIS_DSP/StatisticsFunctions/arm_min_q31.c **** * THIS SOFTWARE IS PROVIDED BY THE COPYRIGHT HOLDERS AND CONTRIBUTORS
  28:../Dave/Generated/CMSIS_DSP/StatisticsFunctions/arm_min_q31.c **** * "AS IS" AND ANY EXPRESS OR IMPLIED WARRANTIES, INCLUDING, BUT NOT
  29:../Dave/Generated/CMSIS_DSP/StatisticsFunctions/arm_min_q31.c **** * LIMITED TO, THE IMPLIED WARRANTIES OF MERCHANTABILITY AND FITNESS
  30:../Dave/Generated/CMSIS_DSP/StatisticsFunctions/arm_min_q31.c **** * FOR A PARTICULAR PURPOSE ARE DISCLAIMED. IN NO EVENT SHALL THE 
  31:../Dave/Generated/CMSIS_DSP/StatisticsFunctions/arm_min_q31.c **** * COPYRIGHT OWNER OR CONTRIBUTORS BE LIABLE FOR ANY DIRECT, INDIRECT,
  32:../Dave/Generated/CMSIS_DSP/StatisticsFunctions/arm_min_q31.c **** * INCIDENTAL, SPECIAL, EXEMPLARY, OR CONSEQUENTIAL DAMAGES (INCLUDING,
  33:../Dave/Generated/CMSIS_DSP/StatisticsFunctions/arm_min_q31.c **** * BUT NOT LIMITED TO, PROCUREMENT OF SUBSTITUTE GOODS OR SERVICES;
  34:../Dave/Generated/CMSIS_DSP/StatisticsFunctions/arm_min_q31.c **** * LOSS OF USE, DATA, OR PROFITS; OR BUSINESS INTERRUPTION) HOWEVER
  35:../Dave/Generated/CMSIS_DSP/StatisticsFunctions/arm_min_q31.c **** * CAUSED AND ON ANY THEORY OF LIABILITY, WHETHER IN CONTRACT, STRICT
  36:../Dave/Generated/CMSIS_DSP/StatisticsFunctions/arm_min_q31.c **** * LIABILITY, OR TORT (INCLUDING NEGLIGENCE OR OTHERWISE) ARISING IN
  37:../Dave/Generated/CMSIS_DSP/StatisticsFunctions/arm_min_q31.c **** * ANY WAY OUT OF THE USE OF THIS SOFTWARE, EVEN IF ADVISED OF THE
  38:../Dave/Generated/CMSIS_DSP/StatisticsFunctions/arm_min_q31.c **** * POSSIBILITY OF SUCH DAMAGE.    
  39:../Dave/Generated/CMSIS_DSP/StatisticsFunctions/arm_min_q31.c **** * ---------------------------------------------------------------------------- */
  40:../Dave/Generated/CMSIS_DSP/StatisticsFunctions/arm_min_q31.c **** 
  41:../Dave/Generated/CMSIS_DSP/StatisticsFunctions/arm_min_q31.c **** #include "CMSIS_DSP/cmsis_dsp.h"
  42:../Dave/Generated/CMSIS_DSP/StatisticsFunctions/arm_min_q31.c **** 
  43:../Dave/Generated/CMSIS_DSP/StatisticsFunctions/arm_min_q31.c **** /**    
  44:../Dave/Generated/CMSIS_DSP/StatisticsFunctions/arm_min_q31.c ****  * @ingroup groupStats    
  45:../Dave/Generated/CMSIS_DSP/StatisticsFunctions/arm_min_q31.c ****  */
  46:../Dave/Generated/CMSIS_DSP/StatisticsFunctions/arm_min_q31.c **** 
  47:../Dave/Generated/CMSIS_DSP/StatisticsFunctions/arm_min_q31.c **** 
  48:../Dave/Generated/CMSIS_DSP/StatisticsFunctions/arm_min_q31.c **** /**    
  49:../Dave/Generated/CMSIS_DSP/StatisticsFunctions/arm_min_q31.c ****  * @addtogroup Min    
  50:../Dave/Generated/CMSIS_DSP/StatisticsFunctions/arm_min_q31.c ****  * @{    
  51:../Dave/Generated/CMSIS_DSP/StatisticsFunctions/arm_min_q31.c ****  */
  52:../Dave/Generated/CMSIS_DSP/StatisticsFunctions/arm_min_q31.c **** 
  53:../Dave/Generated/CMSIS_DSP/StatisticsFunctions/arm_min_q31.c **** 
  54:../Dave/Generated/CMSIS_DSP/StatisticsFunctions/arm_min_q31.c **** /**    
  55:../Dave/Generated/CMSIS_DSP/StatisticsFunctions/arm_min_q31.c ****  * @brief Minimum value of a Q31 vector.    
  56:../Dave/Generated/CMSIS_DSP/StatisticsFunctions/arm_min_q31.c ****  * @param[in]       *pSrc points to the input vector    
  57:../Dave/Generated/CMSIS_DSP/StatisticsFunctions/arm_min_q31.c ****  * @param[in]       blockSize length of the input vector    
  58:../Dave/Generated/CMSIS_DSP/StatisticsFunctions/arm_min_q31.c ****  * @param[out]      *pResult minimum value returned here    
  59:../Dave/Generated/CMSIS_DSP/StatisticsFunctions/arm_min_q31.c ****  * @param[out]      *pIndex index of minimum value returned here    
  60:../Dave/Generated/CMSIS_DSP/StatisticsFunctions/arm_min_q31.c ****  * @return none.    
  61:../Dave/Generated/CMSIS_DSP/StatisticsFunctions/arm_min_q31.c ****  *    
  62:../Dave/Generated/CMSIS_DSP/StatisticsFunctions/arm_min_q31.c ****  */
  63:../Dave/Generated/CMSIS_DSP/StatisticsFunctions/arm_min_q31.c **** 
  64:../Dave/Generated/CMSIS_DSP/StatisticsFunctions/arm_min_q31.c **** void arm_min_q31(
  65:../Dave/Generated/CMSIS_DSP/StatisticsFunctions/arm_min_q31.c ****   q31_t * pSrc,
  66:../Dave/Generated/CMSIS_DSP/StatisticsFunctions/arm_min_q31.c ****   uint32_t blockSize,
  67:../Dave/Generated/CMSIS_DSP/StatisticsFunctions/arm_min_q31.c ****   q31_t * pResult,
  68:../Dave/Generated/CMSIS_DSP/StatisticsFunctions/arm_min_q31.c ****   uint32_t * pIndex)
  69:../Dave/Generated/CMSIS_DSP/StatisticsFunctions/arm_min_q31.c **** {
  28              	 .loc 1 69 0
  29              	 .cfi_startproc
  30              	 
  31              	 
  32              	 
  33 0000 80B4     	 push {r7}
  34              	.LCFI0:
  35              	 .cfi_def_cfa_offset 4
  36              	 .cfi_offset 7,-4
  37 0002 8BB0     	 sub sp,sp,#44
  38              	.LCFI1:
  39              	 .cfi_def_cfa_offset 48
  40 0004 00AF     	 add r7,sp,#0
  41              	.LCFI2:
  42              	 .cfi_def_cfa_register 7
  43 0006 F860     	 str r0,[r7,#12]
  44 0008 B960     	 str r1,[r7,#8]
  45 000a 7A60     	 str r2,[r7,#4]
  46 000c 3B60     	 str r3,[r7]
  70:../Dave/Generated/CMSIS_DSP/StatisticsFunctions/arm_min_q31.c **** #ifndef ARM_MATH_CM0_FAMILY
  71:../Dave/Generated/CMSIS_DSP/StatisticsFunctions/arm_min_q31.c **** 
  72:../Dave/Generated/CMSIS_DSP/StatisticsFunctions/arm_min_q31.c ****   /* Run the below code for Cortex-M4 and Cortex-M3 */
  73:../Dave/Generated/CMSIS_DSP/StatisticsFunctions/arm_min_q31.c ****   q31_t minVal1, minVal2, out;                   /* Temporary variables to store the output value. 
  74:../Dave/Generated/CMSIS_DSP/StatisticsFunctions/arm_min_q31.c ****   uint32_t blkCnt, outIndex, count;              /* loop counter */
  75:../Dave/Generated/CMSIS_DSP/StatisticsFunctions/arm_min_q31.c **** 
  76:../Dave/Generated/CMSIS_DSP/StatisticsFunctions/arm_min_q31.c ****   /* Initialise the count value. */
  77:../Dave/Generated/CMSIS_DSP/StatisticsFunctions/arm_min_q31.c ****   count = 0u;
  47              	 .loc 1 77 0
  48 000e 0023     	 movs r3,#0
  49 0010 BB61     	 str r3,[r7,#24]
  78:../Dave/Generated/CMSIS_DSP/StatisticsFunctions/arm_min_q31.c ****   /* Initialise the index value to zero. */
  79:../Dave/Generated/CMSIS_DSP/StatisticsFunctions/arm_min_q31.c ****   outIndex = 0u;
  50              	 .loc 1 79 0
  51 0012 0023     	 movs r3,#0
  52 0014 FB61     	 str r3,[r7,#28]
  80:../Dave/Generated/CMSIS_DSP/StatisticsFunctions/arm_min_q31.c ****   /* Load first input value that act as reference value for comparision */
  81:../Dave/Generated/CMSIS_DSP/StatisticsFunctions/arm_min_q31.c ****   out = *pSrc++;
  53              	 .loc 1 81 0
  54 0016 FB68     	 ldr r3,[r7,#12]
  55 0018 1A1D     	 adds r2,r3,#4
  56 001a FA60     	 str r2,[r7,#12]
  57 001c 1B68     	 ldr r3,[r3]
  58 001e 7B62     	 str r3,[r7,#36]
  82:../Dave/Generated/CMSIS_DSP/StatisticsFunctions/arm_min_q31.c **** 
  83:../Dave/Generated/CMSIS_DSP/StatisticsFunctions/arm_min_q31.c **** 
  84:../Dave/Generated/CMSIS_DSP/StatisticsFunctions/arm_min_q31.c ****   /* Loop unrolling */
  85:../Dave/Generated/CMSIS_DSP/StatisticsFunctions/arm_min_q31.c ****   blkCnt = (blockSize - 1u) >> 2u;
  59              	 .loc 1 85 0
  60 0020 BB68     	 ldr r3,[r7,#8]
  61 0022 013B     	 subs r3,r3,#1
  62 0024 9B08     	 lsrs r3,r3,#2
  63 0026 3B62     	 str r3,[r7,#32]
  86:../Dave/Generated/CMSIS_DSP/StatisticsFunctions/arm_min_q31.c **** 
  87:../Dave/Generated/CMSIS_DSP/StatisticsFunctions/arm_min_q31.c ****   while(blkCnt > 0)
  64              	 .loc 1 87 0
  65 0028 3DE0     	 b .L2
  66              	.L7:
  88:../Dave/Generated/CMSIS_DSP/StatisticsFunctions/arm_min_q31.c ****   {
  89:../Dave/Generated/CMSIS_DSP/StatisticsFunctions/arm_min_q31.c ****     /* Initialize minVal to the next consecutive values one by one */
  90:../Dave/Generated/CMSIS_DSP/StatisticsFunctions/arm_min_q31.c ****     minVal1 = *pSrc++;
  67              	 .loc 1 90 0
  68 002a FB68     	 ldr r3,[r7,#12]
  69 002c 1A1D     	 adds r2,r3,#4
  70 002e FA60     	 str r2,[r7,#12]
  71 0030 1B68     	 ldr r3,[r3]
  72 0032 7B61     	 str r3,[r7,#20]
  91:../Dave/Generated/CMSIS_DSP/StatisticsFunctions/arm_min_q31.c ****     minVal2 = *pSrc++;
  73              	 .loc 1 91 0
  74 0034 FB68     	 ldr r3,[r7,#12]
  75 0036 1A1D     	 adds r2,r3,#4
  76 0038 FA60     	 str r2,[r7,#12]
  77 003a 1B68     	 ldr r3,[r3]
  78 003c 3B61     	 str r3,[r7,#16]
  92:../Dave/Generated/CMSIS_DSP/StatisticsFunctions/arm_min_q31.c **** 
  93:../Dave/Generated/CMSIS_DSP/StatisticsFunctions/arm_min_q31.c ****     /* compare for the minimum value */
  94:../Dave/Generated/CMSIS_DSP/StatisticsFunctions/arm_min_q31.c ****     if(out > minVal1)
  79              	 .loc 1 94 0
  80 003e 7A6A     	 ldr r2,[r7,#36]
  81 0040 7B69     	 ldr r3,[r7,#20]
  82 0042 9A42     	 cmp r2,r3
  83 0044 04DD     	 ble .L3
  95:../Dave/Generated/CMSIS_DSP/StatisticsFunctions/arm_min_q31.c ****     {
  96:../Dave/Generated/CMSIS_DSP/StatisticsFunctions/arm_min_q31.c ****       /* Update the minimum value and its index */
  97:../Dave/Generated/CMSIS_DSP/StatisticsFunctions/arm_min_q31.c ****       out = minVal1;
  84              	 .loc 1 97 0
  85 0046 7B69     	 ldr r3,[r7,#20]
  86 0048 7B62     	 str r3,[r7,#36]
  98:../Dave/Generated/CMSIS_DSP/StatisticsFunctions/arm_min_q31.c ****       outIndex = count + 1u;
  87              	 .loc 1 98 0
  88 004a BB69     	 ldr r3,[r7,#24]
  89 004c 0133     	 adds r3,r3,#1
  90 004e FB61     	 str r3,[r7,#28]
  91              	.L3:
  99:../Dave/Generated/CMSIS_DSP/StatisticsFunctions/arm_min_q31.c ****     }
 100:../Dave/Generated/CMSIS_DSP/StatisticsFunctions/arm_min_q31.c **** 
 101:../Dave/Generated/CMSIS_DSP/StatisticsFunctions/arm_min_q31.c ****     minVal1 = *pSrc++;
  92              	 .loc 1 101 0
  93 0050 FB68     	 ldr r3,[r7,#12]
  94 0052 1A1D     	 adds r2,r3,#4
  95 0054 FA60     	 str r2,[r7,#12]
  96 0056 1B68     	 ldr r3,[r3]
  97 0058 7B61     	 str r3,[r7,#20]
 102:../Dave/Generated/CMSIS_DSP/StatisticsFunctions/arm_min_q31.c **** 
 103:../Dave/Generated/CMSIS_DSP/StatisticsFunctions/arm_min_q31.c ****     /* compare for the minimum value */
 104:../Dave/Generated/CMSIS_DSP/StatisticsFunctions/arm_min_q31.c ****     if(out > minVal2)
  98              	 .loc 1 104 0
  99 005a 7A6A     	 ldr r2,[r7,#36]
 100 005c 3B69     	 ldr r3,[r7,#16]
 101 005e 9A42     	 cmp r2,r3
 102 0060 04DD     	 ble .L4
 105:../Dave/Generated/CMSIS_DSP/StatisticsFunctions/arm_min_q31.c ****     {
 106:../Dave/Generated/CMSIS_DSP/StatisticsFunctions/arm_min_q31.c ****       /* Update the minimum value and its index */
 107:../Dave/Generated/CMSIS_DSP/StatisticsFunctions/arm_min_q31.c ****       out = minVal2;
 103              	 .loc 1 107 0
 104 0062 3B69     	 ldr r3,[r7,#16]
 105 0064 7B62     	 str r3,[r7,#36]
 108:../Dave/Generated/CMSIS_DSP/StatisticsFunctions/arm_min_q31.c ****       outIndex = count + 2u;
 106              	 .loc 1 108 0
 107 0066 BB69     	 ldr r3,[r7,#24]
 108 0068 0233     	 adds r3,r3,#2
 109 006a FB61     	 str r3,[r7,#28]
 110              	.L4:
 109:../Dave/Generated/CMSIS_DSP/StatisticsFunctions/arm_min_q31.c ****     }
 110:../Dave/Generated/CMSIS_DSP/StatisticsFunctions/arm_min_q31.c **** 
 111:../Dave/Generated/CMSIS_DSP/StatisticsFunctions/arm_min_q31.c ****     minVal2 = *pSrc++;
 111              	 .loc 1 111 0
 112 006c FB68     	 ldr r3,[r7,#12]
 113 006e 1A1D     	 adds r2,r3,#4
 114 0070 FA60     	 str r2,[r7,#12]
 115 0072 1B68     	 ldr r3,[r3]
 116 0074 3B61     	 str r3,[r7,#16]
 112:../Dave/Generated/CMSIS_DSP/StatisticsFunctions/arm_min_q31.c **** 
 113:../Dave/Generated/CMSIS_DSP/StatisticsFunctions/arm_min_q31.c ****     /* compare for the minimum value */
 114:../Dave/Generated/CMSIS_DSP/StatisticsFunctions/arm_min_q31.c ****     if(out > minVal1)
 117              	 .loc 1 114 0
 118 0076 7A6A     	 ldr r2,[r7,#36]
 119 0078 7B69     	 ldr r3,[r7,#20]
 120 007a 9A42     	 cmp r2,r3
 121 007c 04DD     	 ble .L5
 115:../Dave/Generated/CMSIS_DSP/StatisticsFunctions/arm_min_q31.c ****     {
 116:../Dave/Generated/CMSIS_DSP/StatisticsFunctions/arm_min_q31.c ****       /* Update the minimum value and its index */
 117:../Dave/Generated/CMSIS_DSP/StatisticsFunctions/arm_min_q31.c ****       out = minVal1;
 122              	 .loc 1 117 0
 123 007e 7B69     	 ldr r3,[r7,#20]
 124 0080 7B62     	 str r3,[r7,#36]
 118:../Dave/Generated/CMSIS_DSP/StatisticsFunctions/arm_min_q31.c ****       outIndex = count + 3u;
 125              	 .loc 1 118 0
 126 0082 BB69     	 ldr r3,[r7,#24]
 127 0084 0333     	 adds r3,r3,#3
 128 0086 FB61     	 str r3,[r7,#28]
 129              	.L5:
 119:../Dave/Generated/CMSIS_DSP/StatisticsFunctions/arm_min_q31.c ****     }
 120:../Dave/Generated/CMSIS_DSP/StatisticsFunctions/arm_min_q31.c **** 
 121:../Dave/Generated/CMSIS_DSP/StatisticsFunctions/arm_min_q31.c ****     /* compare for the minimum value */
 122:../Dave/Generated/CMSIS_DSP/StatisticsFunctions/arm_min_q31.c ****     if(out > minVal2)
 130              	 .loc 1 122 0
 131 0088 7A6A     	 ldr r2,[r7,#36]
 132 008a 3B69     	 ldr r3,[r7,#16]
 133 008c 9A42     	 cmp r2,r3
 134 008e 04DD     	 ble .L6
 123:../Dave/Generated/CMSIS_DSP/StatisticsFunctions/arm_min_q31.c ****     {
 124:../Dave/Generated/CMSIS_DSP/StatisticsFunctions/arm_min_q31.c ****       /* Update the minimum value and its index */
 125:../Dave/Generated/CMSIS_DSP/StatisticsFunctions/arm_min_q31.c ****       out = minVal2;
 135              	 .loc 1 125 0
 136 0090 3B69     	 ldr r3,[r7,#16]
 137 0092 7B62     	 str r3,[r7,#36]
 126:../Dave/Generated/CMSIS_DSP/StatisticsFunctions/arm_min_q31.c ****       outIndex = count + 4u;
 138              	 .loc 1 126 0
 139 0094 BB69     	 ldr r3,[r7,#24]
 140 0096 0433     	 adds r3,r3,#4
 141 0098 FB61     	 str r3,[r7,#28]
 142              	.L6:
 127:../Dave/Generated/CMSIS_DSP/StatisticsFunctions/arm_min_q31.c ****     }
 128:../Dave/Generated/CMSIS_DSP/StatisticsFunctions/arm_min_q31.c **** 
 129:../Dave/Generated/CMSIS_DSP/StatisticsFunctions/arm_min_q31.c ****     count += 4u;
 143              	 .loc 1 129 0
 144 009a BB69     	 ldr r3,[r7,#24]
 145 009c 0433     	 adds r3,r3,#4
 146 009e BB61     	 str r3,[r7,#24]
 130:../Dave/Generated/CMSIS_DSP/StatisticsFunctions/arm_min_q31.c **** 
 131:../Dave/Generated/CMSIS_DSP/StatisticsFunctions/arm_min_q31.c ****     blkCnt--;
 147              	 .loc 1 131 0
 148 00a0 3B6A     	 ldr r3,[r7,#32]
 149 00a2 013B     	 subs r3,r3,#1
 150 00a4 3B62     	 str r3,[r7,#32]
 151              	.L2:
  87:../Dave/Generated/CMSIS_DSP/StatisticsFunctions/arm_min_q31.c ****   {
 152              	 .loc 1 87 0
 153 00a6 3B6A     	 ldr r3,[r7,#32]
 154 00a8 002B     	 cmp r3,#0
 155 00aa BED1     	 bne .L7
 132:../Dave/Generated/CMSIS_DSP/StatisticsFunctions/arm_min_q31.c ****   }
 133:../Dave/Generated/CMSIS_DSP/StatisticsFunctions/arm_min_q31.c **** 
 134:../Dave/Generated/CMSIS_DSP/StatisticsFunctions/arm_min_q31.c ****   /* if (blockSize - 1u ) is not multiple of 4 */
 135:../Dave/Generated/CMSIS_DSP/StatisticsFunctions/arm_min_q31.c ****   blkCnt = (blockSize - 1u) % 4u;
 156              	 .loc 1 135 0
 157 00ac BB68     	 ldr r3,[r7,#8]
 158 00ae 013B     	 subs r3,r3,#1
 159 00b0 03F00303 	 and r3,r3,#3
 160 00b4 3B62     	 str r3,[r7,#32]
 136:../Dave/Generated/CMSIS_DSP/StatisticsFunctions/arm_min_q31.c **** 
 137:../Dave/Generated/CMSIS_DSP/StatisticsFunctions/arm_min_q31.c **** #else
 138:../Dave/Generated/CMSIS_DSP/StatisticsFunctions/arm_min_q31.c **** 
 139:../Dave/Generated/CMSIS_DSP/StatisticsFunctions/arm_min_q31.c ****   /* Run the below code for Cortex-M0 */
 140:../Dave/Generated/CMSIS_DSP/StatisticsFunctions/arm_min_q31.c ****   q31_t minVal1, out;                            /* Temporary variables to store the output value. 
 141:../Dave/Generated/CMSIS_DSP/StatisticsFunctions/arm_min_q31.c ****   uint32_t blkCnt, outIndex;                     /* loop counter */
 142:../Dave/Generated/CMSIS_DSP/StatisticsFunctions/arm_min_q31.c **** 
 143:../Dave/Generated/CMSIS_DSP/StatisticsFunctions/arm_min_q31.c ****   blkCnt = (blockSize - 1u);
 144:../Dave/Generated/CMSIS_DSP/StatisticsFunctions/arm_min_q31.c **** 
 145:../Dave/Generated/CMSIS_DSP/StatisticsFunctions/arm_min_q31.c ****   /* Initialise the index value to zero. */
 146:../Dave/Generated/CMSIS_DSP/StatisticsFunctions/arm_min_q31.c ****   outIndex = 0u;
 147:../Dave/Generated/CMSIS_DSP/StatisticsFunctions/arm_min_q31.c ****   /* Load first input value that act as reference value for comparision */
 148:../Dave/Generated/CMSIS_DSP/StatisticsFunctions/arm_min_q31.c ****   out = *pSrc++;
 149:../Dave/Generated/CMSIS_DSP/StatisticsFunctions/arm_min_q31.c **** 
 150:../Dave/Generated/CMSIS_DSP/StatisticsFunctions/arm_min_q31.c **** #endif //      #ifndef ARM_MATH_CM0_FAMILY
 151:../Dave/Generated/CMSIS_DSP/StatisticsFunctions/arm_min_q31.c **** 
 152:../Dave/Generated/CMSIS_DSP/StatisticsFunctions/arm_min_q31.c ****   while(blkCnt > 0)
 161              	 .loc 1 152 0
 162 00b6 11E0     	 b .L8
 163              	.L10:
 153:../Dave/Generated/CMSIS_DSP/StatisticsFunctions/arm_min_q31.c ****   {
 154:../Dave/Generated/CMSIS_DSP/StatisticsFunctions/arm_min_q31.c ****     /* Initialize minVal to the next consecutive values one by one */
 155:../Dave/Generated/CMSIS_DSP/StatisticsFunctions/arm_min_q31.c ****     minVal1 = *pSrc++;
 164              	 .loc 1 155 0
 165 00b8 FB68     	 ldr r3,[r7,#12]
 166 00ba 1A1D     	 adds r2,r3,#4
 167 00bc FA60     	 str r2,[r7,#12]
 168 00be 1B68     	 ldr r3,[r3]
 169 00c0 7B61     	 str r3,[r7,#20]
 156:../Dave/Generated/CMSIS_DSP/StatisticsFunctions/arm_min_q31.c **** 
 157:../Dave/Generated/CMSIS_DSP/StatisticsFunctions/arm_min_q31.c ****     /* compare for the minimum value */
 158:../Dave/Generated/CMSIS_DSP/StatisticsFunctions/arm_min_q31.c ****     if(out > minVal1)
 170              	 .loc 1 158 0
 171 00c2 7A6A     	 ldr r2,[r7,#36]
 172 00c4 7B69     	 ldr r3,[r7,#20]
 173 00c6 9A42     	 cmp r2,r3
 174 00c8 05DD     	 ble .L9
 159:../Dave/Generated/CMSIS_DSP/StatisticsFunctions/arm_min_q31.c ****     {
 160:../Dave/Generated/CMSIS_DSP/StatisticsFunctions/arm_min_q31.c ****       /* Update the minimum value and it's index */
 161:../Dave/Generated/CMSIS_DSP/StatisticsFunctions/arm_min_q31.c ****       out = minVal1;
 175              	 .loc 1 161 0
 176 00ca 7B69     	 ldr r3,[r7,#20]
 177 00cc 7B62     	 str r3,[r7,#36]
 162:../Dave/Generated/CMSIS_DSP/StatisticsFunctions/arm_min_q31.c ****       outIndex = blockSize - blkCnt;
 178              	 .loc 1 162 0
 179 00ce BA68     	 ldr r2,[r7,#8]
 180 00d0 3B6A     	 ldr r3,[r7,#32]
 181 00d2 D31A     	 subs r3,r2,r3
 182 00d4 FB61     	 str r3,[r7,#28]
 183              	.L9:
 163:../Dave/Generated/CMSIS_DSP/StatisticsFunctions/arm_min_q31.c ****     }
 164:../Dave/Generated/CMSIS_DSP/StatisticsFunctions/arm_min_q31.c **** 
 165:../Dave/Generated/CMSIS_DSP/StatisticsFunctions/arm_min_q31.c ****     blkCnt--;
 184              	 .loc 1 165 0
 185 00d6 3B6A     	 ldr r3,[r7,#32]
 186 00d8 013B     	 subs r3,r3,#1
 187 00da 3B62     	 str r3,[r7,#32]
 188              	.L8:
 152:../Dave/Generated/CMSIS_DSP/StatisticsFunctions/arm_min_q31.c ****   {
 189              	 .loc 1 152 0
 190 00dc 3B6A     	 ldr r3,[r7,#32]
 191 00de 002B     	 cmp r3,#0
 192 00e0 EAD1     	 bne .L10
 166:../Dave/Generated/CMSIS_DSP/StatisticsFunctions/arm_min_q31.c **** 
 167:../Dave/Generated/CMSIS_DSP/StatisticsFunctions/arm_min_q31.c ****   }
 168:../Dave/Generated/CMSIS_DSP/StatisticsFunctions/arm_min_q31.c **** 
 169:../Dave/Generated/CMSIS_DSP/StatisticsFunctions/arm_min_q31.c ****   /* Store the minimum value and its index into destination pointers */
 170:../Dave/Generated/CMSIS_DSP/StatisticsFunctions/arm_min_q31.c ****   *pResult = out;
 193              	 .loc 1 170 0
 194 00e2 7B68     	 ldr r3,[r7,#4]
 195 00e4 7A6A     	 ldr r2,[r7,#36]
 196 00e6 1A60     	 str r2,[r3]
 171:../Dave/Generated/CMSIS_DSP/StatisticsFunctions/arm_min_q31.c ****   *pIndex = outIndex;
 197              	 .loc 1 171 0
 198 00e8 3B68     	 ldr r3,[r7]
 199 00ea FA69     	 ldr r2,[r7,#28]
 200 00ec 1A60     	 str r2,[r3]
 172:../Dave/Generated/CMSIS_DSP/StatisticsFunctions/arm_min_q31.c **** }
 201              	 .loc 1 172 0
 202 00ee 2C37     	 adds r7,r7,#44
 203              	.LCFI3:
 204              	 .cfi_def_cfa_offset 4
 205 00f0 BD46     	 mov sp,r7
 206              	.LCFI4:
 207              	 .cfi_def_cfa_register 13
 208              	 
 209 00f2 5DF8047B 	 ldr r7,[sp],#4
 210              	.LCFI5:
 211              	 .cfi_restore 7
 212              	 .cfi_def_cfa_offset 0
 213 00f6 7047     	 bx lr
 214              	 .cfi_endproc
 215              	.LFE139:
 217              	 .text
 218              	.Letext0:
 219              	 .file 2 "c:\\davev4\\dave-4.3.2\\eclipse\\arm-gcc-49\\arm-none-eabi\\include\\machine\\_default_types.h"
 220              	 .file 3 "c:\\davev4\\dave-4.3.2\\eclipse\\arm-gcc-49\\arm-none-eabi\\include\\stdint.h"
 221              	 .file 4 "C:/Workspaces/DAVE-4.3/WS_2016_09_02/Flightcontroller_PWM_CopterRocks_Working/Dave/Generated/CMSIS_DSP/arm_math.h"