   1              	 .syntax unified
   2              	 .cpu cortex-m4
   3              	 .eabi_attribute 27,3
   4              	 .fpu fpv4-sp-d16
   5              	 .eabi_attribute 20,1
   6              	 .eabi_attribute 21,1
   7              	 .eabi_attribute 23,3
   8              	 .eabi_attribute 24,1
   9              	 .eabi_attribute 25,1
  10              	 .eabi_attribute 26,1
  11              	 .eabi_attribute 30,6
  12              	 .eabi_attribute 34,1
  13              	 .eabi_attribute 18,4
  14              	 .thumb
  15              	 .file "cdc_class_device.c"
  16              	 .text
  17              	.Ltext0:
  18              	 .cfi_sections .debug_frame
  19              	 .section .text.Endpoint_SelectEndpoint,"ax",%progbits
  20              	 .align 2
  21              	 .thumb
  22              	 .thumb_func
  24              	Endpoint_SelectEndpoint:
  25              	.LFB162:
  26              	 .file 1 "../Dave/Generated/USBD_VCOM/class_driver/device/../../../USBD/usb/core/./xmc4000/usbd_endpoint_xmc4000.h"
   1:../Dave/Generated/USBD_VCOM/class_driver/device/../../../USBD/usb/core/./xmc4000/usbd_endpoint_xmc4000.h **** /**
   2:../Dave/Generated/USBD_VCOM/class_driver/device/../../../USBD/usb/core/./xmc4000/usbd_endpoint_xmc4000.h ****  * @file usbd_endpoint_xmc4000.h
   3:../Dave/Generated/USBD_VCOM/class_driver/device/../../../USBD/usb/core/./xmc4000/usbd_endpoint_xmc4000.h ****  * @date 2015-06-20 
   4:../Dave/Generated/USBD_VCOM/class_driver/device/../../../USBD/usb/core/./xmc4000/usbd_endpoint_xmc4000.h ****  * NOTE:
   5:../Dave/Generated/USBD_VCOM/class_driver/device/../../../USBD/usb/core/./xmc4000/usbd_endpoint_xmc4000.h ****  * This file is generated by DAVE. Any manual modification done to this file will be lost when the 
   6:../Dave/Generated/USBD_VCOM/class_driver/device/../../../USBD/usb/core/./xmc4000/usbd_endpoint_xmc4000.h ****  *
   7:../Dave/Generated/USBD_VCOM/class_driver/device/../../../USBD/usb/core/./xmc4000/usbd_endpoint_xmc4000.h ****  * @cond
   8:../Dave/Generated/USBD_VCOM/class_driver/device/../../../USBD/usb/core/./xmc4000/usbd_endpoint_xmc4000.h ****  **************************************************************************************************
   9:../Dave/Generated/USBD_VCOM/class_driver/device/../../../USBD/usb/core/./xmc4000/usbd_endpoint_xmc4000.h ****  * The USB core driver for XMC4000 family of controllers. It does the USB protocol handling.
  10:../Dave/Generated/USBD_VCOM/class_driver/device/../../../USBD/usb/core/./xmc4000/usbd_endpoint_xmc4000.h ****  *
  11:../Dave/Generated/USBD_VCOM/class_driver/device/../../../USBD/usb/core/./xmc4000/usbd_endpoint_xmc4000.h ****  * Copyright (c) 2015, Infineon Technologies AG
  12:../Dave/Generated/USBD_VCOM/class_driver/device/../../../USBD/usb/core/./xmc4000/usbd_endpoint_xmc4000.h ****  * All rights reserved.                        
  13:../Dave/Generated/USBD_VCOM/class_driver/device/../../../USBD/usb/core/./xmc4000/usbd_endpoint_xmc4000.h ****  *                                             
  14:../Dave/Generated/USBD_VCOM/class_driver/device/../../../USBD/usb/core/./xmc4000/usbd_endpoint_xmc4000.h ****  * Redistribution and use in source and binary forms, with or without modification,are permitted pr
  15:../Dave/Generated/USBD_VCOM/class_driver/device/../../../USBD/usb/core/./xmc4000/usbd_endpoint_xmc4000.h ****  * following conditions are met:   
  16:../Dave/Generated/USBD_VCOM/class_driver/device/../../../USBD/usb/core/./xmc4000/usbd_endpoint_xmc4000.h ****  *                                                                              
  17:../Dave/Generated/USBD_VCOM/class_driver/device/../../../USBD/usb/core/./xmc4000/usbd_endpoint_xmc4000.h ****  *   Redistributions of source code must retain the above copyright notice, this list of conditions
  18:../Dave/Generated/USBD_VCOM/class_driver/device/../../../USBD/usb/core/./xmc4000/usbd_endpoint_xmc4000.h ****  *   disclaimer.                        
  19:../Dave/Generated/USBD_VCOM/class_driver/device/../../../USBD/usb/core/./xmc4000/usbd_endpoint_xmc4000.h ****  * 
  20:../Dave/Generated/USBD_VCOM/class_driver/device/../../../USBD/usb/core/./xmc4000/usbd_endpoint_xmc4000.h ****  *   Redistributions in binary form must reproduce the above copyright notice, this list of conditi
  21:../Dave/Generated/USBD_VCOM/class_driver/device/../../../USBD/usb/core/./xmc4000/usbd_endpoint_xmc4000.h ****  *   following disclaimer in the documentation and/or other materials provided with the distributio
  22:../Dave/Generated/USBD_VCOM/class_driver/device/../../../USBD/usb/core/./xmc4000/usbd_endpoint_xmc4000.h ****  *                         
  23:../Dave/Generated/USBD_VCOM/class_driver/device/../../../USBD/usb/core/./xmc4000/usbd_endpoint_xmc4000.h ****  *   Neither the name of the copyright holders nor the names of its contributors may be used to end
  24:../Dave/Generated/USBD_VCOM/class_driver/device/../../../USBD/usb/core/./xmc4000/usbd_endpoint_xmc4000.h ****  *   products derived from this software without specific prior written permission. 
  25:../Dave/Generated/USBD_VCOM/class_driver/device/../../../USBD/usb/core/./xmc4000/usbd_endpoint_xmc4000.h ****  *                                             
  26:../Dave/Generated/USBD_VCOM/class_driver/device/../../../USBD/usb/core/./xmc4000/usbd_endpoint_xmc4000.h ****  * THIS SOFTWARE IS PROVIDED BY THE COPYRIGHT HOLDERS AND CONTRIBUTORS "AS IS" AND ANY EXPRESS OR I
  27:../Dave/Generated/USBD_VCOM/class_driver/device/../../../USBD/usb/core/./xmc4000/usbd_endpoint_xmc4000.h ****  * INCLUDING, BUT NOT LIMITED TO, THE IMPLIED WARRANTIES OF MERCHANTABILITY AND FITNESS FOR A PARTI
  28:../Dave/Generated/USBD_VCOM/class_driver/device/../../../USBD/usb/core/./xmc4000/usbd_endpoint_xmc4000.h ****  * DISCLAIMED. IN NO EVENT SHALL THE COPYRIGHT HOLDER OR CONTRIBUTORS BE LIABLE  FOR ANY DIRECT, IN
  29:../Dave/Generated/USBD_VCOM/class_driver/device/../../../USBD/usb/core/./xmc4000/usbd_endpoint_xmc4000.h ****  * SPECIAL, EXEMPLARY, OR CONSEQUENTIAL DAMAGES (INCLUDING, BUT NOT LIMITED TO, PROCUREMENT OF SUBS
  30:../Dave/Generated/USBD_VCOM/class_driver/device/../../../USBD/usb/core/./xmc4000/usbd_endpoint_xmc4000.h ****  * SERVICES; LOSS OF USE, DATA, OR PROFITS; OR BUSINESS INTERRUPTION) HOWEVER CAUSED AND ON ANY THE
  31:../Dave/Generated/USBD_VCOM/class_driver/device/../../../USBD/usb/core/./xmc4000/usbd_endpoint_xmc4000.h ****  * WHETHER IN CONTRACT, STRICT LIABILITY,OR TORT (INCLUDING NEGLIGENCE OR OTHERWISE) ARISING IN ANY
  32:../Dave/Generated/USBD_VCOM/class_driver/device/../../../USBD/usb/core/./xmc4000/usbd_endpoint_xmc4000.h ****  * USE OF THIS SOFTWARE, EVEN IF ADVISED OF THE POSSIBILITY OF SUCH DAMAGE.    
  33:../Dave/Generated/USBD_VCOM/class_driver/device/../../../USBD/usb/core/./xmc4000/usbd_endpoint_xmc4000.h ****  *                                                                              
  34:../Dave/Generated/USBD_VCOM/class_driver/device/../../../USBD/usb/core/./xmc4000/usbd_endpoint_xmc4000.h ****  * To improve the quality of the software, users are encouraged to share modifications, enhancement
  35:../Dave/Generated/USBD_VCOM/class_driver/device/../../../USBD/usb/core/./xmc4000/usbd_endpoint_xmc4000.h ****  * with Infineon Technologies AG (dave@infineon.com).        
  36:../Dave/Generated/USBD_VCOM/class_driver/device/../../../USBD/usb/core/./xmc4000/usbd_endpoint_xmc4000.h ****  **************************************************************************************************
  37:../Dave/Generated/USBD_VCOM/class_driver/device/../../../USBD/usb/core/./xmc4000/usbd_endpoint_xmc4000.h ****  *
  38:../Dave/Generated/USBD_VCOM/class_driver/device/../../../USBD/usb/core/./xmc4000/usbd_endpoint_xmc4000.h ****  * Change History
  39:../Dave/Generated/USBD_VCOM/class_driver/device/../../../USBD/usb/core/./xmc4000/usbd_endpoint_xmc4000.h ****  * --------------
  40:../Dave/Generated/USBD_VCOM/class_driver/device/../../../USBD/usb/core/./xmc4000/usbd_endpoint_xmc4000.h ****  *
  41:../Dave/Generated/USBD_VCOM/class_driver/device/../../../USBD/usb/core/./xmc4000/usbd_endpoint_xmc4000.h ****  * 2015-02-16:
  42:../Dave/Generated/USBD_VCOM/class_driver/device/../../../USBD/usb/core/./xmc4000/usbd_endpoint_xmc4000.h ****  *     - Initial version.      
  43:../Dave/Generated/USBD_VCOM/class_driver/device/../../../USBD/usb/core/./xmc4000/usbd_endpoint_xmc4000.h ****  * 2015-06-20:
  44:../Dave/Generated/USBD_VCOM/class_driver/device/../../../USBD/usb/core/./xmc4000/usbd_endpoint_xmc4000.h ****  *     - Updated the file header.
  45:../Dave/Generated/USBD_VCOM/class_driver/device/../../../USBD/usb/core/./xmc4000/usbd_endpoint_xmc4000.h ****  *     
  46:../Dave/Generated/USBD_VCOM/class_driver/device/../../../USBD/usb/core/./xmc4000/usbd_endpoint_xmc4000.h ****  * @endcond 
  47:../Dave/Generated/USBD_VCOM/class_driver/device/../../../USBD/usb/core/./xmc4000/usbd_endpoint_xmc4000.h ****  *
  48:../Dave/Generated/USBD_VCOM/class_driver/device/../../../USBD/usb/core/./xmc4000/usbd_endpoint_xmc4000.h ****  */
  49:../Dave/Generated/USBD_VCOM/class_driver/device/../../../USBD/usb/core/./xmc4000/usbd_endpoint_xmc4000.h **** /*
  50:../Dave/Generated/USBD_VCOM/class_driver/device/../../../USBD/usb/core/./xmc4000/usbd_endpoint_xmc4000.h ****   Copyright 2014  Dean Camera (dean [at] fourwalledcubicle [dot] com)
  51:../Dave/Generated/USBD_VCOM/class_driver/device/../../../USBD/usb/core/./xmc4000/usbd_endpoint_xmc4000.h **** 
  52:../Dave/Generated/USBD_VCOM/class_driver/device/../../../USBD/usb/core/./xmc4000/usbd_endpoint_xmc4000.h ****   Permission to use, copy, modify, distribute, and sell this
  53:../Dave/Generated/USBD_VCOM/class_driver/device/../../../USBD/usb/core/./xmc4000/usbd_endpoint_xmc4000.h ****   software and its documentation for any purpose is hereby granted
  54:../Dave/Generated/USBD_VCOM/class_driver/device/../../../USBD/usb/core/./xmc4000/usbd_endpoint_xmc4000.h ****   without fee, provided that the above copyright notice appear in
  55:../Dave/Generated/USBD_VCOM/class_driver/device/../../../USBD/usb/core/./xmc4000/usbd_endpoint_xmc4000.h ****   all copies and that both that the copyright notice and this
  56:../Dave/Generated/USBD_VCOM/class_driver/device/../../../USBD/usb/core/./xmc4000/usbd_endpoint_xmc4000.h ****   permission notice and warranty disclaimer appear in supporting
  57:../Dave/Generated/USBD_VCOM/class_driver/device/../../../USBD/usb/core/./xmc4000/usbd_endpoint_xmc4000.h ****   documentation, and that the name of the author not be used in
  58:../Dave/Generated/USBD_VCOM/class_driver/device/../../../USBD/usb/core/./xmc4000/usbd_endpoint_xmc4000.h ****   advertising or publicity pertaining to distribution of the
  59:../Dave/Generated/USBD_VCOM/class_driver/device/../../../USBD/usb/core/./xmc4000/usbd_endpoint_xmc4000.h ****   software without specific, written prior permission.
  60:../Dave/Generated/USBD_VCOM/class_driver/device/../../../USBD/usb/core/./xmc4000/usbd_endpoint_xmc4000.h **** 
  61:../Dave/Generated/USBD_VCOM/class_driver/device/../../../USBD/usb/core/./xmc4000/usbd_endpoint_xmc4000.h ****   The author disclaims all warranties with regard to this
  62:../Dave/Generated/USBD_VCOM/class_driver/device/../../../USBD/usb/core/./xmc4000/usbd_endpoint_xmc4000.h ****   software, including all implied warranties of merchantability
  63:../Dave/Generated/USBD_VCOM/class_driver/device/../../../USBD/usb/core/./xmc4000/usbd_endpoint_xmc4000.h ****   and fitness.  In no event shall the author be liable for any
  64:../Dave/Generated/USBD_VCOM/class_driver/device/../../../USBD/usb/core/./xmc4000/usbd_endpoint_xmc4000.h ****   special, indirect or consequential damages or any damages
  65:../Dave/Generated/USBD_VCOM/class_driver/device/../../../USBD/usb/core/./xmc4000/usbd_endpoint_xmc4000.h ****   whatsoever resulting from loss of use, data or profits, whether
  66:../Dave/Generated/USBD_VCOM/class_driver/device/../../../USBD/usb/core/./xmc4000/usbd_endpoint_xmc4000.h ****   in an action of contract, negligence or other tortious action,
  67:../Dave/Generated/USBD_VCOM/class_driver/device/../../../USBD/usb/core/./xmc4000/usbd_endpoint_xmc4000.h ****   arising out of or in connection with the use or performance of
  68:../Dave/Generated/USBD_VCOM/class_driver/device/../../../USBD/usb/core/./xmc4000/usbd_endpoint_xmc4000.h ****   this software.
  69:../Dave/Generated/USBD_VCOM/class_driver/device/../../../USBD/usb/core/./xmc4000/usbd_endpoint_xmc4000.h **** */
  70:../Dave/Generated/USBD_VCOM/class_driver/device/../../../USBD/usb/core/./xmc4000/usbd_endpoint_xmc4000.h **** 
  71:../Dave/Generated/USBD_VCOM/class_driver/device/../../../USBD/usb/core/./xmc4000/usbd_endpoint_xmc4000.h **** 
  72:../Dave/Generated/USBD_VCOM/class_driver/device/../../../USBD/usb/core/./xmc4000/usbd_endpoint_xmc4000.h **** #ifndef USBD_ENDPOINT_XMC4000_H
  73:../Dave/Generated/USBD_VCOM/class_driver/device/../../../USBD/usb/core/./xmc4000/usbd_endpoint_xmc4000.h **** #define USBD_ENDPOINT_XMC4000_H
  74:../Dave/Generated/USBD_VCOM/class_driver/device/../../../USBD/usb/core/./xmc4000/usbd_endpoint_xmc4000.h **** 
  75:../Dave/Generated/USBD_VCOM/class_driver/device/../../../USBD/usb/core/./xmc4000/usbd_endpoint_xmc4000.h **** #include "../../common/common.h"
  76:../Dave/Generated/USBD_VCOM/class_driver/device/../../../USBD/usb/core/./xmc4000/usbd_endpoint_xmc4000.h **** #include "../endpoint.h"
  77:../Dave/Generated/USBD_VCOM/class_driver/device/../../../USBD/usb/core/./xmc4000/usbd_endpoint_xmc4000.h **** #include "../usb_controller.h"
  78:../Dave/Generated/USBD_VCOM/class_driver/device/../../../USBD/usb/core/./xmc4000/usbd_endpoint_xmc4000.h **** #include "../../../usbd.h" /* IXF */
  79:../Dave/Generated/USBD_VCOM/class_driver/device/../../../USBD/usb/core/./xmc4000/usbd_endpoint_xmc4000.h **** 
  80:../Dave/Generated/USBD_VCOM/class_driver/device/../../../USBD/usb/core/./xmc4000/usbd_endpoint_xmc4000.h **** 
  81:../Dave/Generated/USBD_VCOM/class_driver/device/../../../USBD/usb/core/./xmc4000/usbd_endpoint_xmc4000.h **** /* Enable C linkage for C++ Compilers: */
  82:../Dave/Generated/USBD_VCOM/class_driver/device/../../../USBD/usb/core/./xmc4000/usbd_endpoint_xmc4000.h **** #if defined(__cplusplus)
  83:../Dave/Generated/USBD_VCOM/class_driver/device/../../../USBD/usb/core/./xmc4000/usbd_endpoint_xmc4000.h **** 	extern "C" {
  84:../Dave/Generated/USBD_VCOM/class_driver/device/../../../USBD/usb/core/./xmc4000/usbd_endpoint_xmc4000.h **** #endif
  85:../Dave/Generated/USBD_VCOM/class_driver/device/../../../USBD/usb/core/./xmc4000/usbd_endpoint_xmc4000.h **** 	/**
  86:../Dave/Generated/USBD_VCOM/class_driver/device/../../../USBD/usb/core/./xmc4000/usbd_endpoint_xmc4000.h **** 	 * @ingroup USBD_enumerations
  87:../Dave/Generated/USBD_VCOM/class_driver/device/../../../USBD/usb/core/./xmc4000/usbd_endpoint_xmc4000.h **** 	 * @{
  88:../Dave/Generated/USBD_VCOM/class_driver/device/../../../USBD/usb/core/./xmc4000/usbd_endpoint_xmc4000.h **** 	 */
  89:../Dave/Generated/USBD_VCOM/class_driver/device/../../../USBD/usb/core/./xmc4000/usbd_endpoint_xmc4000.h **** 
  90:../Dave/Generated/USBD_VCOM/class_driver/device/../../../USBD/usb/core/./xmc4000/usbd_endpoint_xmc4000.h **** 	/** Enum for the possible error return codes of the
  91:../Dave/Generated/USBD_VCOM/class_driver/device/../../../USBD/usb/core/./xmc4000/usbd_endpoint_xmc4000.h **** 	 * \ref Endpoint_WaitUntilReady() function.
  92:../Dave/Generated/USBD_VCOM/class_driver/device/../../../USBD/usb/core/./xmc4000/usbd_endpoint_xmc4000.h **** 	*
  93:../Dave/Generated/USBD_VCOM/class_driver/device/../../../USBD/usb/core/./xmc4000/usbd_endpoint_xmc4000.h **** 	*/
  94:../Dave/Generated/USBD_VCOM/class_driver/device/../../../USBD/usb/core/./xmc4000/usbd_endpoint_xmc4000.h **** 	enum Endpoint_WaitUntilReady_ErrorCodes_t
  95:../Dave/Generated/USBD_VCOM/class_driver/device/../../../USBD/usb/core/./xmc4000/usbd_endpoint_xmc4000.h **** 	{
  96:../Dave/Generated/USBD_VCOM/class_driver/device/../../../USBD/usb/core/./xmc4000/usbd_endpoint_xmc4000.h **** 		ENDPOINT_READYWAIT_NoError                 = 0, /**< Endpoint is ready for next packet, no error.
  97:../Dave/Generated/USBD_VCOM/class_driver/device/../../../USBD/usb/core/./xmc4000/usbd_endpoint_xmc4000.h **** 		ENDPOINT_READYWAIT_EndpointStalled         = 1, /**< The endpoint was stalled during the stream
  98:../Dave/Generated/USBD_VCOM/class_driver/device/../../../USBD/usb/core/./xmc4000/usbd_endpoint_xmc4000.h **** 														 *   transfer by the host or device.
  99:../Dave/Generated/USBD_VCOM/class_driver/device/../../../USBD/usb/core/./xmc4000/usbd_endpoint_xmc4000.h **** 														 */
 100:../Dave/Generated/USBD_VCOM/class_driver/device/../../../USBD/usb/core/./xmc4000/usbd_endpoint_xmc4000.h **** 		ENDPOINT_READYWAIT_DeviceDisconnected      = 2,	/**< Device was disconnected from the host while
 101:../Dave/Generated/USBD_VCOM/class_driver/device/../../../USBD/usb/core/./xmc4000/usbd_endpoint_xmc4000.h **** 														 *   waiting for the endpoint to become ready.
 102:../Dave/Generated/USBD_VCOM/class_driver/device/../../../USBD/usb/core/./xmc4000/usbd_endpoint_xmc4000.h **** 														 */
 103:../Dave/Generated/USBD_VCOM/class_driver/device/../../../USBD/usb/core/./xmc4000/usbd_endpoint_xmc4000.h **** 		ENDPOINT_READYWAIT_BusSuspended            = 3, /**< The USB bus has been suspended by the host a
 104:../Dave/Generated/USBD_VCOM/class_driver/device/../../../USBD/usb/core/./xmc4000/usbd_endpoint_xmc4000.h **** 														 *   no USB endpoint traffic can occur until the bus
 105:../Dave/Generated/USBD_VCOM/class_driver/device/../../../USBD/usb/core/./xmc4000/usbd_endpoint_xmc4000.h **** 														 *   has resumed.
 106:../Dave/Generated/USBD_VCOM/class_driver/device/../../../USBD/usb/core/./xmc4000/usbd_endpoint_xmc4000.h **** 														 */
 107:../Dave/Generated/USBD_VCOM/class_driver/device/../../../USBD/usb/core/./xmc4000/usbd_endpoint_xmc4000.h **** 		ENDPOINT_READYWAIT_Timeout                 = 4, /**< The host failed to accept or send the next p
 108:../Dave/Generated/USBD_VCOM/class_driver/device/../../../USBD/usb/core/./xmc4000/usbd_endpoint_xmc4000.h **** 														 *   within the software timeout period set by the
 109:../Dave/Generated/USBD_VCOM/class_driver/device/../../../USBD/usb/core/./xmc4000/usbd_endpoint_xmc4000.h **** 														 *   \ref USB_STREAM_TIMEOUT_MS macro.
 110:../Dave/Generated/USBD_VCOM/class_driver/device/../../../USBD/usb/core/./xmc4000/usbd_endpoint_xmc4000.h **** 														 */
 111:../Dave/Generated/USBD_VCOM/class_driver/device/../../../USBD/usb/core/./xmc4000/usbd_endpoint_xmc4000.h **** 	};
 112:../Dave/Generated/USBD_VCOM/class_driver/device/../../../USBD/usb/core/./xmc4000/usbd_endpoint_xmc4000.h **** 	/**
 113:../Dave/Generated/USBD_VCOM/class_driver/device/../../../USBD/usb/core/./xmc4000/usbd_endpoint_xmc4000.h **** 	 * @}
 114:../Dave/Generated/USBD_VCOM/class_driver/device/../../../USBD/usb/core/./xmc4000/usbd_endpoint_xmc4000.h **** 	 */
 115:../Dave/Generated/USBD_VCOM/class_driver/device/../../../USBD/usb/core/./xmc4000/usbd_endpoint_xmc4000.h **** 
 116:../Dave/Generated/USBD_VCOM/class_driver/device/../../../USBD/usb/core/./xmc4000/usbd_endpoint_xmc4000.h **** 	/**
 117:../Dave/Generated/USBD_VCOM/class_driver/device/../../../USBD/usb/core/./xmc4000/usbd_endpoint_xmc4000.h **** 	 * @ingroup USBD_apidoc
 118:../Dave/Generated/USBD_VCOM/class_driver/device/../../../USBD/usb/core/./xmc4000/usbd_endpoint_xmc4000.h **** 	 * @{
 119:../Dave/Generated/USBD_VCOM/class_driver/device/../../../USBD/usb/core/./xmc4000/usbd_endpoint_xmc4000.h **** 	 */
 120:../Dave/Generated/USBD_VCOM/class_driver/device/../../../USBD/usb/core/./xmc4000/usbd_endpoint_xmc4000.h **** 	/** Get the endpoint address of the currently selected endpoint. This is
 121:../Dave/Generated/USBD_VCOM/class_driver/device/../../../USBD/usb/core/./xmc4000/usbd_endpoint_xmc4000.h **** 	 * typically used to save the currently selected endpoint so that it can be
 122:../Dave/Generated/USBD_VCOM/class_driver/device/../../../USBD/usb/core/./xmc4000/usbd_endpoint_xmc4000.h **** 	 * restored after another endpoint has been  manipulated.
 123:../Dave/Generated/USBD_VCOM/class_driver/device/../../../USBD/usb/core/./xmc4000/usbd_endpoint_xmc4000.h **** 	 *
 124:../Dave/Generated/USBD_VCOM/class_driver/device/../../../USBD/usb/core/./xmc4000/usbd_endpoint_xmc4000.h **** 	 *  \return Index of the currently selected endpoint.
 125:../Dave/Generated/USBD_VCOM/class_driver/device/../../../USBD/usb/core/./xmc4000/usbd_endpoint_xmc4000.h **** 	 */
 126:../Dave/Generated/USBD_VCOM/class_driver/device/../../../USBD/usb/core/./xmc4000/usbd_endpoint_xmc4000.h **** 	static inline uint8_t Endpoint_GetCurrentEndpoint(void);
 127:../Dave/Generated/USBD_VCOM/class_driver/device/../../../USBD/usb/core/./xmc4000/usbd_endpoint_xmc4000.h **** 	static inline uint8_t Endpoint_GetCurrentEndpoint(void)
 128:../Dave/Generated/USBD_VCOM/class_driver/device/../../../USBD/usb/core/./xmc4000/usbd_endpoint_xmc4000.h **** 	{
 129:../Dave/Generated/USBD_VCOM/class_driver/device/../../../USBD/usb/core/./xmc4000/usbd_endpoint_xmc4000.h **** 		return device.CurrentDirection | device.CurrentEndpoint;
 130:../Dave/Generated/USBD_VCOM/class_driver/device/../../../USBD/usb/core/./xmc4000/usbd_endpoint_xmc4000.h **** 	}
 131:../Dave/Generated/USBD_VCOM/class_driver/device/../../../USBD/usb/core/./xmc4000/usbd_endpoint_xmc4000.h **** 
 132:../Dave/Generated/USBD_VCOM/class_driver/device/../../../USBD/usb/core/./xmc4000/usbd_endpoint_xmc4000.h **** 	/** Selects the given endpoint address.
 133:../Dave/Generated/USBD_VCOM/class_driver/device/../../../USBD/usb/core/./xmc4000/usbd_endpoint_xmc4000.h **** 	 *
 134:../Dave/Generated/USBD_VCOM/class_driver/device/../../../USBD/usb/core/./xmc4000/usbd_endpoint_xmc4000.h **** 	 *  Any endpoint operations which do not require the endpoint address to be
 135:../Dave/Generated/USBD_VCOM/class_driver/device/../../../USBD/usb/core/./xmc4000/usbd_endpoint_xmc4000.h **** 	 *  indicated will operate on
 136:../Dave/Generated/USBD_VCOM/class_driver/device/../../../USBD/usb/core/./xmc4000/usbd_endpoint_xmc4000.h **** 	 *  the currently selected endpoint.
 137:../Dave/Generated/USBD_VCOM/class_driver/device/../../../USBD/usb/core/./xmc4000/usbd_endpoint_xmc4000.h **** 	 *
 138:../Dave/Generated/USBD_VCOM/class_driver/device/../../../USBD/usb/core/./xmc4000/usbd_endpoint_xmc4000.h **** 	 *  \param[in] Address Endpoint address to select.
 139:../Dave/Generated/USBD_VCOM/class_driver/device/../../../USBD/usb/core/./xmc4000/usbd_endpoint_xmc4000.h **** 	 */
 140:../Dave/Generated/USBD_VCOM/class_driver/device/../../../USBD/usb/core/./xmc4000/usbd_endpoint_xmc4000.h **** 	static inline void Endpoint_SelectEndpoint(const uint8_t Address);
 141:../Dave/Generated/USBD_VCOM/class_driver/device/../../../USBD/usb/core/./xmc4000/usbd_endpoint_xmc4000.h **** 	static inline void Endpoint_SelectEndpoint(const uint8_t Address)
 142:../Dave/Generated/USBD_VCOM/class_driver/device/../../../USBD/usb/core/./xmc4000/usbd_endpoint_xmc4000.h **** 	{
  27              	 .loc 1 142 0
  28              	 .cfi_startproc
  29              	 
  30              	 
  31              	 
  32 0000 80B4     	 push {r7}
  33              	.LCFI0:
  34              	 .cfi_def_cfa_offset 4
  35              	 .cfi_offset 7,-4
  36 0002 83B0     	 sub sp,sp,#12
  37              	.LCFI1:
  38              	 .cfi_def_cfa_offset 16
  39 0004 00AF     	 add r7,sp,#0
  40              	.LCFI2:
  41              	 .cfi_def_cfa_register 7
  42 0006 0346     	 mov r3,r0
  43 0008 FB71     	 strb r3,[r7,#7]
 143:../Dave/Generated/USBD_VCOM/class_driver/device/../../../USBD/usb/core/./xmc4000/usbd_endpoint_xmc4000.h **** 		device.CurrentEndpoint = Address & ENDPOINT_EPNUM_MASK;
  44              	 .loc 1 143 0
  45 000a FB79     	 ldrb r3,[r7,#7]
  46 000c 03F00F03 	 and r3,r3,#15
  47 0010 DAB2     	 uxtb r2,r3
  48 0012 074B     	 ldr r3,.L2
  49 0014 83F83C21 	 strb r2,[r3,#316]
 144:../Dave/Generated/USBD_VCOM/class_driver/device/../../../USBD/usb/core/./xmc4000/usbd_endpoint_xmc4000.h **** 		device.CurrentDirection = (Address & ENDPOINT_DIR_MASK);
  50              	 .loc 1 144 0
  51 0018 FB79     	 ldrb r3,[r7,#7]
  52 001a 23F07F03 	 bic r3,r3,#127
  53 001e DAB2     	 uxtb r2,r3
  54 0020 034B     	 ldr r3,.L2
  55 0022 83F83D21 	 strb r2,[r3,#317]
 145:../Dave/Generated/USBD_VCOM/class_driver/device/../../../USBD/usb/core/./xmc4000/usbd_endpoint_xmc4000.h **** 	}
  56              	 .loc 1 145 0
  57 0026 0C37     	 adds r7,r7,#12
  58              	.LCFI3:
  59              	 .cfi_def_cfa_offset 4
  60 0028 BD46     	 mov sp,r7
  61              	.LCFI4:
  62              	 .cfi_def_cfa_register 13
  63              	 
  64 002a 5DF8047B 	 ldr r7,[sp],#4
  65              	.LCFI5:
  66              	 .cfi_restore 7
  67              	 .cfi_def_cfa_offset 0
  68 002e 7047     	 bx lr
  69              	.L3:
  70              	 .align 2
  71              	.L2:
  72 0030 00000000 	 .word device
  73              	 .cfi_endproc
  74              	.LFE162:
  76              	 .section .text.Endpoint_IsSETUPReceived,"ax",%progbits
  77              	 .align 2
  78              	 .thumb
  79              	 .thumb_func
  81              	Endpoint_IsSETUPReceived:
  82              	.LFB163:
 146:../Dave/Generated/USBD_VCOM/class_driver/device/../../../USBD/usb/core/./xmc4000/usbd_endpoint_xmc4000.h **** 
 147:../Dave/Generated/USBD_VCOM/class_driver/device/../../../USBD/usb/core/./xmc4000/usbd_endpoint_xmc4000.h **** 	/** Determines if the current CONTROL type endpoint has received a SETUP
 148:../Dave/Generated/USBD_VCOM/class_driver/device/../../../USBD/usb/core/./xmc4000/usbd_endpoint_xmc4000.h **** 	 * packet.
 149:../Dave/Generated/USBD_VCOM/class_driver/device/../../../USBD/usb/core/./xmc4000/usbd_endpoint_xmc4000.h **** 	 *
 150:../Dave/Generated/USBD_VCOM/class_driver/device/../../../USBD/usb/core/./xmc4000/usbd_endpoint_xmc4000.h **** 	 *  \ingroup Group_EndpointPacketManagement_AVR8
 151:../Dave/Generated/USBD_VCOM/class_driver/device/../../../USBD/usb/core/./xmc4000/usbd_endpoint_xmc4000.h **** 	 *
 152:../Dave/Generated/USBD_VCOM/class_driver/device/../../../USBD/usb/core/./xmc4000/usbd_endpoint_xmc4000.h **** 	 *  \return Boolean \c true if the selected endpoint has received a SETUP
 153:../Dave/Generated/USBD_VCOM/class_driver/device/../../../USBD/usb/core/./xmc4000/usbd_endpoint_xmc4000.h **** 	 *  packet, \c false otherwise.
 154:../Dave/Generated/USBD_VCOM/class_driver/device/../../../USBD/usb/core/./xmc4000/usbd_endpoint_xmc4000.h **** 	 */
 155:../Dave/Generated/USBD_VCOM/class_driver/device/../../../USBD/usb/core/./xmc4000/usbd_endpoint_xmc4000.h **** 	static inline bool Endpoint_IsSETUPReceived(void);
 156:../Dave/Generated/USBD_VCOM/class_driver/device/../../../USBD/usb/core/./xmc4000/usbd_endpoint_xmc4000.h **** 	static inline bool Endpoint_IsSETUPReceived(void)
 157:../Dave/Generated/USBD_VCOM/class_driver/device/../../../USBD/usb/core/./xmc4000/usbd_endpoint_xmc4000.h **** 	{
  83              	 .loc 1 157 0
  84              	 .cfi_startproc
  85              	 
  86              	 
  87              	 
  88 0000 80B4     	 push {r7}
  89              	.LCFI6:
  90              	 .cfi_def_cfa_offset 4
  91              	 .cfi_offset 7,-4
  92 0002 00AF     	 add r7,sp,#0
  93              	.LCFI7:
  94              	 .cfi_def_cfa_register 7
 158:../Dave/Generated/USBD_VCOM/class_driver/device/../../../USBD/usb/core/./xmc4000/usbd_endpoint_xmc4000.h **** 		return device.IsSetupRecieved;
  95              	 .loc 1 158 0
  96 0004 084B     	 ldr r3,.L6
  97 0006 93F83E31 	 ldrb r3,[r3,#318]
  98 000a DBB2     	 uxtb r3,r3
  99 000c 5B08     	 lsrs r3,r3,#1
 100 000e 03F00103 	 and r3,r3,#1
 101 0012 DBB2     	 uxtb r3,r3
 102 0014 002B     	 cmp r3,#0
 103 0016 14BF     	 ite ne
 104 0018 0123     	 movne r3,#1
 105 001a 0023     	 moveq r3,#0
 106 001c DBB2     	 uxtb r3,r3
 159:../Dave/Generated/USBD_VCOM/class_driver/device/../../../USBD/usb/core/./xmc4000/usbd_endpoint_xmc4000.h **** 	}
 107              	 .loc 1 159 0
 108 001e 1846     	 mov r0,r3
 109 0020 BD46     	 mov sp,r7
 110              	.LCFI8:
 111              	 .cfi_def_cfa_register 13
 112              	 
 113 0022 5DF8047B 	 ldr r7,[sp],#4
 114              	.LCFI9:
 115              	 .cfi_restore 7
 116              	 .cfi_def_cfa_offset 0
 117 0026 7047     	 bx lr
 118              	.L7:
 119              	 .align 2
 120              	.L6:
 121 0028 00000000 	 .word device
 122              	 .cfi_endproc
 123              	.LFE163:
 125              	 .section .text.Endpoint_ClearSETUP,"ax",%progbits
 126              	 .align 2
 127              	 .thumb
 128              	 .thumb_func
 130              	Endpoint_ClearSETUP:
 131              	.LFB164:
 160:../Dave/Generated/USBD_VCOM/class_driver/device/../../../USBD/usb/core/./xmc4000/usbd_endpoint_xmc4000.h **** 
 161:../Dave/Generated/USBD_VCOM/class_driver/device/../../../USBD/usb/core/./xmc4000/usbd_endpoint_xmc4000.h **** 
 162:../Dave/Generated/USBD_VCOM/class_driver/device/../../../USBD/usb/core/./xmc4000/usbd_endpoint_xmc4000.h **** 	/** Clears a received SETUP packet on the currently selected CONTROL type
 163:../Dave/Generated/USBD_VCOM/class_driver/device/../../../USBD/usb/core/./xmc4000/usbd_endpoint_xmc4000.h **** 	 * endpoint, freeing up the
 164:../Dave/Generated/USBD_VCOM/class_driver/device/../../../USBD/usb/core/./xmc4000/usbd_endpoint_xmc4000.h **** 	 *  endpoint for the next packet.
 165:../Dave/Generated/USBD_VCOM/class_driver/device/../../../USBD/usb/core/./xmc4000/usbd_endpoint_xmc4000.h **** 	 *
 166:../Dave/Generated/USBD_VCOM/class_driver/device/../../../USBD/usb/core/./xmc4000/usbd_endpoint_xmc4000.h **** 	 *  \ingroup Group_EndpointPacketManagement_AVR8
 167:../Dave/Generated/USBD_VCOM/class_driver/device/../../../USBD/usb/core/./xmc4000/usbd_endpoint_xmc4000.h **** 	 *
 168:../Dave/Generated/USBD_VCOM/class_driver/device/../../../USBD/usb/core/./xmc4000/usbd_endpoint_xmc4000.h **** 	 *  \note This is not applicable for non CONTROL type endpoints.
 169:../Dave/Generated/USBD_VCOM/class_driver/device/../../../USBD/usb/core/./xmc4000/usbd_endpoint_xmc4000.h **** 	 */
 170:../Dave/Generated/USBD_VCOM/class_driver/device/../../../USBD/usb/core/./xmc4000/usbd_endpoint_xmc4000.h **** 	static inline void Endpoint_ClearSETUP(void);
 171:../Dave/Generated/USBD_VCOM/class_driver/device/../../../USBD/usb/core/./xmc4000/usbd_endpoint_xmc4000.h **** 	static inline void Endpoint_ClearSETUP(void)
 172:../Dave/Generated/USBD_VCOM/class_driver/device/../../../USBD/usb/core/./xmc4000/usbd_endpoint_xmc4000.h **** 	{
 132              	 .loc 1 172 0
 133              	 .cfi_startproc
 134              	 
 135              	 
 136              	 
 137 0000 80B4     	 push {r7}
 138              	.LCFI10:
 139              	 .cfi_def_cfa_offset 4
 140              	 .cfi_offset 7,-4
 141 0002 00AF     	 add r7,sp,#0
 142              	.LCFI11:
 143              	 .cfi_def_cfa_register 7
 173:../Dave/Generated/USBD_VCOM/class_driver/device/../../../USBD/usb/core/./xmc4000/usbd_endpoint_xmc4000.h **** 		device.IsSetupRecieved = 0;
 144              	 .loc 1 173 0
 145 0004 054B     	 ldr r3,.L9
 146 0006 93F83E21 	 ldrb r2,[r3,#318]
 147 000a 22F00202 	 bic r2,r2,#2
 148 000e 83F83E21 	 strb r2,[r3,#318]
 174:../Dave/Generated/USBD_VCOM/class_driver/device/../../../USBD/usb/core/./xmc4000/usbd_endpoint_xmc4000.h **** 	}
 149              	 .loc 1 174 0
 150 0012 BD46     	 mov sp,r7
 151              	.LCFI12:
 152              	 .cfi_def_cfa_register 13
 153              	 
 154 0014 5DF8047B 	 ldr r7,[sp],#4
 155              	.LCFI13:
 156              	 .cfi_restore 7
 157              	 .cfi_def_cfa_offset 0
 158 0018 7047     	 bx lr
 159              	.L10:
 160 001a 00BF     	 .align 2
 161              	.L9:
 162 001c 00000000 	 .word device
 163              	 .cfi_endproc
 164              	.LFE164:
 166              	 .section .text.Endpoint_ClearStatusStage,"ax",%progbits
 167              	 .align 2
 168              	 .thumb
 169              	 .thumb_func
 171              	Endpoint_ClearStatusStage:
 172              	.LFB165:
 175:../Dave/Generated/USBD_VCOM/class_driver/device/../../../USBD/usb/core/./xmc4000/usbd_endpoint_xmc4000.h **** 
 176:../Dave/Generated/USBD_VCOM/class_driver/device/../../../USBD/usb/core/./xmc4000/usbd_endpoint_xmc4000.h **** 	/** Nothing done in this function
 177:../Dave/Generated/USBD_VCOM/class_driver/device/../../../USBD/usb/core/./xmc4000/usbd_endpoint_xmc4000.h **** 	 *
 178:../Dave/Generated/USBD_VCOM/class_driver/device/../../../USBD/usb/core/./xmc4000/usbd_endpoint_xmc4000.h **** 	 */
 179:../Dave/Generated/USBD_VCOM/class_driver/device/../../../USBD/usb/core/./xmc4000/usbd_endpoint_xmc4000.h **** 	static inline void Endpoint_ClearStatusStage(void);
 180:../Dave/Generated/USBD_VCOM/class_driver/device/../../../USBD/usb/core/./xmc4000/usbd_endpoint_xmc4000.h **** 	static inline void Endpoint_ClearStatusStage(void)
 181:../Dave/Generated/USBD_VCOM/class_driver/device/../../../USBD/usb/core/./xmc4000/usbd_endpoint_xmc4000.h **** 	{
 173              	 .loc 1 181 0
 174              	 .cfi_startproc
 175              	 
 176              	 
 177              	 
 178 0000 80B4     	 push {r7}
 179              	.LCFI14:
 180              	 .cfi_def_cfa_offset 4
 181              	 .cfi_offset 7,-4
 182 0002 00AF     	 add r7,sp,#0
 183              	.LCFI15:
 184              	 .cfi_def_cfa_register 7
 182:../Dave/Generated/USBD_VCOM/class_driver/device/../../../USBD/usb/core/./xmc4000/usbd_endpoint_xmc4000.h **** 
 183:../Dave/Generated/USBD_VCOM/class_driver/device/../../../USBD/usb/core/./xmc4000/usbd_endpoint_xmc4000.h **** 	}
 185              	 .loc 1 183 0
 186 0004 BD46     	 mov sp,r7
 187              	.LCFI16:
 188              	 .cfi_def_cfa_register 13
 189              	 
 190 0006 5DF8047B 	 ldr r7,[sp],#4
 191              	.LCFI17:
 192              	 .cfi_restore 7
 193              	 .cfi_def_cfa_offset 0
 194 000a 7047     	 bx lr
 195              	 .cfi_endproc
 196              	.LFE165:
 198              	 .section .text.Endpoint_IsINReady,"ax",%progbits
 199              	 .align 2
 200              	 .thumb
 201              	 .thumb_func
 203              	Endpoint_IsINReady:
 204              	.LFB166:
 184:../Dave/Generated/USBD_VCOM/class_driver/device/../../../USBD/usb/core/./xmc4000/usbd_endpoint_xmc4000.h **** 
 185:../Dave/Generated/USBD_VCOM/class_driver/device/../../../USBD/usb/core/./xmc4000/usbd_endpoint_xmc4000.h **** 	/** Determines if the selected IN endpoint is ready for a new packet to be
 186:../Dave/Generated/USBD_VCOM/class_driver/device/../../../USBD/usb/core/./xmc4000/usbd_endpoint_xmc4000.h **** 	 * sent to the host.
 187:../Dave/Generated/USBD_VCOM/class_driver/device/../../../USBD/usb/core/./xmc4000/usbd_endpoint_xmc4000.h **** 	 *
 188:../Dave/Generated/USBD_VCOM/class_driver/device/../../../USBD/usb/core/./xmc4000/usbd_endpoint_xmc4000.h **** 	 *  \ingroup Group_EndpointPacketManagement_AVR8
 189:../Dave/Generated/USBD_VCOM/class_driver/device/../../../USBD/usb/core/./xmc4000/usbd_endpoint_xmc4000.h **** 	 *
 190:../Dave/Generated/USBD_VCOM/class_driver/device/../../../USBD/usb/core/./xmc4000/usbd_endpoint_xmc4000.h **** 	 *  \return Boolean \c true if the current endpoint is ready for an IN
 191:../Dave/Generated/USBD_VCOM/class_driver/device/../../../USBD/usb/core/./xmc4000/usbd_endpoint_xmc4000.h **** 	 *  packet, \c false otherwise.
 192:../Dave/Generated/USBD_VCOM/class_driver/device/../../../USBD/usb/core/./xmc4000/usbd_endpoint_xmc4000.h **** 	 */
 193:../Dave/Generated/USBD_VCOM/class_driver/device/../../../USBD/usb/core/./xmc4000/usbd_endpoint_xmc4000.h **** 	static inline bool Endpoint_IsINReady(void);
 194:../Dave/Generated/USBD_VCOM/class_driver/device/../../../USBD/usb/core/./xmc4000/usbd_endpoint_xmc4000.h **** 	static inline bool Endpoint_IsINReady(void)
 195:../Dave/Generated/USBD_VCOM/class_driver/device/../../../USBD/usb/core/./xmc4000/usbd_endpoint_xmc4000.h **** 	{
 205              	 .loc 1 195 0
 206              	 .cfi_startproc
 207              	 
 208              	 
 209              	 
 210 0000 80B4     	 push {r7}
 211              	.LCFI18:
 212              	 .cfi_def_cfa_offset 4
 213              	 .cfi_offset 7,-4
 214 0002 83B0     	 sub sp,sp,#12
 215              	.LCFI19:
 216              	 .cfi_def_cfa_offset 16
 217 0004 00AF     	 add r7,sp,#0
 218              	.LCFI20:
 219              	 .cfi_def_cfa_register 7
 196:../Dave/Generated/USBD_VCOM/class_driver/device/../../../USBD/usb/core/./xmc4000/usbd_endpoint_xmc4000.h **** 		USBD_Endpoint_t *ep = &device.Endpoints[device.CurrentEndpoint];
 220              	 .loc 1 196 0
 221 0006 134B     	 ldr r3,.L16
 222 0008 93F83C31 	 ldrb r3,[r3,#316]
 223 000c 1A46     	 mov r2,r3
 224 000e 2C23     	 movs r3,#44
 225 0010 03FB02F3 	 mul r3,r3,r2
 226 0014 0F4A     	 ldr r2,.L16
 227 0016 1344     	 add r3,r3,r2
 228 0018 0433     	 adds r3,r3,#4
 229 001a 7B60     	 str r3,[r7,#4]
 197:../Dave/Generated/USBD_VCOM/class_driver/device/../../../USBD/usb/core/./xmc4000/usbd_endpoint_xmc4000.h **** 		return ep->InInUse == 0 && ep->IsEnabled;
 230              	 .loc 1 197 0
 231 001c 7B68     	 ldr r3,[r7,#4]
 232 001e 5B68     	 ldr r3,[r3,#4]
 233 0020 1B09     	 lsrs r3,r3,#4
 234 0022 03F00103 	 and r3,r3,#1
 235 0026 DBB2     	 uxtb r3,r3
 236 0028 002B     	 cmp r3,#0
 237 002a 09D1     	 bne .L13
 238              	 .loc 1 197 0 is_stmt 0 discriminator 1
 239 002c 7B68     	 ldr r3,[r7,#4]
 240 002e 5B68     	 ldr r3,[r3,#4]
 241 0030 5B08     	 lsrs r3,r3,#1
 242 0032 03F00103 	 and r3,r3,#1
 243 0036 DBB2     	 uxtb r3,r3
 244 0038 002B     	 cmp r3,#0
 245 003a 01D0     	 beq .L13
 246              	 .loc 1 197 0 discriminator 3
 247 003c 0123     	 movs r3,#1
 248 003e 00E0     	 b .L14
 249              	.L13:
 250              	 .loc 1 197 0 discriminator 4
 251 0040 0023     	 movs r3,#0
 252              	.L14:
 253              	 .loc 1 197 0 discriminator 6
 254 0042 03F00103 	 and r3,r3,#1
 255 0046 DBB2     	 uxtb r3,r3
 198:../Dave/Generated/USBD_VCOM/class_driver/device/../../../USBD/usb/core/./xmc4000/usbd_endpoint_xmc4000.h **** 	}
 256              	 .loc 1 198 0 is_stmt 1 discriminator 6
 257 0048 1846     	 mov r0,r3
 258 004a 0C37     	 adds r7,r7,#12
 259              	.LCFI21:
 260              	 .cfi_def_cfa_offset 4
 261 004c BD46     	 mov sp,r7
 262              	.LCFI22:
 263              	 .cfi_def_cfa_register 13
 264              	 
 265 004e 5DF8047B 	 ldr r7,[sp],#4
 266              	.LCFI23:
 267              	 .cfi_restore 7
 268              	 .cfi_def_cfa_offset 0
 269 0052 7047     	 bx lr
 270              	.L17:
 271              	 .align 2
 272              	.L16:
 273 0054 00000000 	 .word device
 274              	 .cfi_endproc
 275              	.LFE166:
 277              	 .section .text.Endpoint_IsOUTReceived,"ax",%progbits
 278              	 .align 2
 279              	 .thumb
 280              	 .thumb_func
 282              	Endpoint_IsOUTReceived:
 283              	.LFB167:
 199:../Dave/Generated/USBD_VCOM/class_driver/device/../../../USBD/usb/core/./xmc4000/usbd_endpoint_xmc4000.h **** 
 200:../Dave/Generated/USBD_VCOM/class_driver/device/../../../USBD/usb/core/./xmc4000/usbd_endpoint_xmc4000.h **** 	/** Determines if the selected OUT endpoint has received new packet from the
 201:../Dave/Generated/USBD_VCOM/class_driver/device/../../../USBD/usb/core/./xmc4000/usbd_endpoint_xmc4000.h **** 	 *  host.
 202:../Dave/Generated/USBD_VCOM/class_driver/device/../../../USBD/usb/core/./xmc4000/usbd_endpoint_xmc4000.h **** 	 *
 203:../Dave/Generated/USBD_VCOM/class_driver/device/../../../USBD/usb/core/./xmc4000/usbd_endpoint_xmc4000.h **** 	 *  \ingroup Group_EndpointPacketManagement_AVR8
 204:../Dave/Generated/USBD_VCOM/class_driver/device/../../../USBD/usb/core/./xmc4000/usbd_endpoint_xmc4000.h **** 	 *
 205:../Dave/Generated/USBD_VCOM/class_driver/device/../../../USBD/usb/core/./xmc4000/usbd_endpoint_xmc4000.h **** 	 *  \return Boolean \c true if current endpoint is has received an OUT
 206:../Dave/Generated/USBD_VCOM/class_driver/device/../../../USBD/usb/core/./xmc4000/usbd_endpoint_xmc4000.h **** 	 *  packet, \c false otherwise.
 207:../Dave/Generated/USBD_VCOM/class_driver/device/../../../USBD/usb/core/./xmc4000/usbd_endpoint_xmc4000.h **** 	 */
 208:../Dave/Generated/USBD_VCOM/class_driver/device/../../../USBD/usb/core/./xmc4000/usbd_endpoint_xmc4000.h **** 	static inline bool Endpoint_IsOUTReceived(void);
 209:../Dave/Generated/USBD_VCOM/class_driver/device/../../../USBD/usb/core/./xmc4000/usbd_endpoint_xmc4000.h **** 	static inline bool Endpoint_IsOUTReceived(void)
 210:../Dave/Generated/USBD_VCOM/class_driver/device/../../../USBD/usb/core/./xmc4000/usbd_endpoint_xmc4000.h **** 	{
 284              	 .loc 1 210 0
 285              	 .cfi_startproc
 286              	 
 287              	 
 288              	 
 289 0000 80B4     	 push {r7}
 290              	.LCFI24:
 291              	 .cfi_def_cfa_offset 4
 292              	 .cfi_offset 7,-4
 293 0002 83B0     	 sub sp,sp,#12
 294              	.LCFI25:
 295              	 .cfi_def_cfa_offset 16
 296 0004 00AF     	 add r7,sp,#0
 297              	.LCFI26:
 298              	 .cfi_def_cfa_register 7
 211:../Dave/Generated/USBD_VCOM/class_driver/device/../../../USBD/usb/core/./xmc4000/usbd_endpoint_xmc4000.h **** 		USBD_Endpoint_t *ep = &device.Endpoints[device.CurrentEndpoint];
 299              	 .loc 1 211 0
 300 0006 0E4B     	 ldr r3,.L20
 301 0008 93F83C31 	 ldrb r3,[r3,#316]
 302 000c 1A46     	 mov r2,r3
 303 000e 2C23     	 movs r3,#44
 304 0010 03FB02F3 	 mul r3,r3,r2
 305 0014 0A4A     	 ldr r2,.L20
 306 0016 1344     	 add r3,r3,r2
 307 0018 0433     	 adds r3,r3,#4
 308 001a 7B60     	 str r3,[r7,#4]
 212:../Dave/Generated/USBD_VCOM/class_driver/device/../../../USBD/usb/core/./xmc4000/usbd_endpoint_xmc4000.h **** 		return ep->IsOutRecieved;
 309              	 .loc 1 212 0
 310 001c 7B68     	 ldr r3,[r7,#4]
 311 001e 5B68     	 ldr r3,[r3,#4]
 312 0020 5B09     	 lsrs r3,r3,#5
 313 0022 03F00103 	 and r3,r3,#1
 314 0026 DBB2     	 uxtb r3,r3
 315 0028 002B     	 cmp r3,#0
 316 002a 14BF     	 ite ne
 317 002c 0123     	 movne r3,#1
 318 002e 0023     	 moveq r3,#0
 319 0030 DBB2     	 uxtb r3,r3
 213:../Dave/Generated/USBD_VCOM/class_driver/device/../../../USBD/usb/core/./xmc4000/usbd_endpoint_xmc4000.h **** 	}
 320              	 .loc 1 213 0
 321 0032 1846     	 mov r0,r3
 322 0034 0C37     	 adds r7,r7,#12
 323              	.LCFI27:
 324              	 .cfi_def_cfa_offset 4
 325 0036 BD46     	 mov sp,r7
 326              	.LCFI28:
 327              	 .cfi_def_cfa_register 13
 328              	 
 329 0038 5DF8047B 	 ldr r7,[sp],#4
 330              	.LCFI29:
 331              	 .cfi_restore 7
 332              	 .cfi_def_cfa_offset 0
 333 003c 7047     	 bx lr
 334              	.L21:
 335 003e 00BF     	 .align 2
 336              	.L20:
 337 0040 00000000 	 .word device
 338              	 .cfi_endproc
 339              	.LFE167:
 341              	 .section .text.Endpoint_BytesInEndpoint,"ax",%progbits
 342              	 .align 2
 343              	 .thumb
 344              	 .thumb_func
 346              	Endpoint_BytesInEndpoint:
 347              	.LFB169:
 214:../Dave/Generated/USBD_VCOM/class_driver/device/../../../USBD/usb/core/./xmc4000/usbd_endpoint_xmc4000.h **** 
 215:../Dave/Generated/USBD_VCOM/class_driver/device/../../../USBD/usb/core/./xmc4000/usbd_endpoint_xmc4000.h **** 	/** Determines the currently selected endpoint's direction.
 216:../Dave/Generated/USBD_VCOM/class_driver/device/../../../USBD/usb/core/./xmc4000/usbd_endpoint_xmc4000.h **** 	 *
 217:../Dave/Generated/USBD_VCOM/class_driver/device/../../../USBD/usb/core/./xmc4000/usbd_endpoint_xmc4000.h **** 	 *  \return The currently selected endpoint's direction, as a
 218:../Dave/Generated/USBD_VCOM/class_driver/device/../../../USBD/usb/core/./xmc4000/usbd_endpoint_xmc4000.h **** 	 *  \c ENDPOINT_DIR_* mask.
 219:../Dave/Generated/USBD_VCOM/class_driver/device/../../../USBD/usb/core/./xmc4000/usbd_endpoint_xmc4000.h **** 	 */
 220:../Dave/Generated/USBD_VCOM/class_driver/device/../../../USBD/usb/core/./xmc4000/usbd_endpoint_xmc4000.h **** 	static inline uint8_t Endpoint_GetEndpointDirection(void);
 221:../Dave/Generated/USBD_VCOM/class_driver/device/../../../USBD/usb/core/./xmc4000/usbd_endpoint_xmc4000.h **** 	static inline uint8_t Endpoint_GetEndpointDirection(void)
 222:../Dave/Generated/USBD_VCOM/class_driver/device/../../../USBD/usb/core/./xmc4000/usbd_endpoint_xmc4000.h **** 	{
 223:../Dave/Generated/USBD_VCOM/class_driver/device/../../../USBD/usb/core/./xmc4000/usbd_endpoint_xmc4000.h **** 		USBD_Endpoint_t *ep = &device.Endpoints[device.CurrentEndpoint];
 224:../Dave/Generated/USBD_VCOM/class_driver/device/../../../USBD/usb/core/./xmc4000/usbd_endpoint_xmc4000.h **** 		return ep->Address & ENDPOINT_DIR_MASK;
 225:../Dave/Generated/USBD_VCOM/class_driver/device/../../../USBD/usb/core/./xmc4000/usbd_endpoint_xmc4000.h **** 	}
 226:../Dave/Generated/USBD_VCOM/class_driver/device/../../../USBD/usb/core/./xmc4000/usbd_endpoint_xmc4000.h **** 
 227:../Dave/Generated/USBD_VCOM/class_driver/device/../../../USBD/usb/core/./xmc4000/usbd_endpoint_xmc4000.h **** 	/** Indicates the number of bytes currently stored in the current endpoint's
 228:../Dave/Generated/USBD_VCOM/class_driver/device/../../../USBD/usb/core/./xmc4000/usbd_endpoint_xmc4000.h **** 	 *  selected bank.
 229:../Dave/Generated/USBD_VCOM/class_driver/device/../../../USBD/usb/core/./xmc4000/usbd_endpoint_xmc4000.h **** 	 *
 230:../Dave/Generated/USBD_VCOM/class_driver/device/../../../USBD/usb/core/./xmc4000/usbd_endpoint_xmc4000.h **** 	 *  \ingroup Group_EndpointRW_AVR8
 231:../Dave/Generated/USBD_VCOM/class_driver/device/../../../USBD/usb/core/./xmc4000/usbd_endpoint_xmc4000.h **** 	 *
 232:../Dave/Generated/USBD_VCOM/class_driver/device/../../../USBD/usb/core/./xmc4000/usbd_endpoint_xmc4000.h **** 	 *  \return Total number of bytes in the currently selected Endpoint's FIFO
 233:../Dave/Generated/USBD_VCOM/class_driver/device/../../../USBD/usb/core/./xmc4000/usbd_endpoint_xmc4000.h **** 	 *  buffer.
 234:../Dave/Generated/USBD_VCOM/class_driver/device/../../../USBD/usb/core/./xmc4000/usbd_endpoint_xmc4000.h **** 	 */
 235:../Dave/Generated/USBD_VCOM/class_driver/device/../../../USBD/usb/core/./xmc4000/usbd_endpoint_xmc4000.h **** 	static inline uint16_t Endpoint_BytesInEndpoint(void);
 236:../Dave/Generated/USBD_VCOM/class_driver/device/../../../USBD/usb/core/./xmc4000/usbd_endpoint_xmc4000.h **** 	static inline uint16_t Endpoint_BytesInEndpoint(void)
 237:../Dave/Generated/USBD_VCOM/class_driver/device/../../../USBD/usb/core/./xmc4000/usbd_endpoint_xmc4000.h **** 	{
 348              	 .loc 1 237 0
 349              	 .cfi_startproc
 350              	 
 351              	 
 352              	 
 353 0000 80B4     	 push {r7}
 354              	.LCFI30:
 355              	 .cfi_def_cfa_offset 4
 356              	 .cfi_offset 7,-4
 357 0002 83B0     	 sub sp,sp,#12
 358              	.LCFI31:
 359              	 .cfi_def_cfa_offset 16
 360 0004 00AF     	 add r7,sp,#0
 361              	.LCFI32:
 362              	 .cfi_def_cfa_register 7
 238:../Dave/Generated/USBD_VCOM/class_driver/device/../../../USBD/usb/core/./xmc4000/usbd_endpoint_xmc4000.h **** 		USBD_Endpoint_t *ep = &device.Endpoints[device.CurrentEndpoint];
 363              	 .loc 1 238 0
 364 0006 0F4B     	 ldr r3,.L25
 365 0008 93F83C31 	 ldrb r3,[r3,#316]
 366 000c 1A46     	 mov r2,r3
 367 000e 2C23     	 movs r3,#44
 368 0010 03FB02F3 	 mul r3,r3,r2
 369 0014 0B4A     	 ldr r2,.L25
 370 0016 1344     	 add r3,r3,r2
 371 0018 0433     	 adds r3,r3,#4
 372 001a 7B60     	 str r3,[r7,#4]
 239:../Dave/Generated/USBD_VCOM/class_driver/device/../../../USBD/usb/core/./xmc4000/usbd_endpoint_xmc4000.h **** 		if (ep->Direction)
 373              	 .loc 1 239 0
 374 001c 7B68     	 ldr r3,[r7,#4]
 375 001e 1B78     	 ldrb r3,[r3]
 376 0020 23F07F03 	 bic r3,r3,#127
 377 0024 DBB2     	 uxtb r3,r3
 378 0026 002B     	 cmp r3,#0
 379 0028 03D0     	 beq .L23
 240:../Dave/Generated/USBD_VCOM/class_driver/device/../../../USBD/usb/core/./xmc4000/usbd_endpoint_xmc4000.h **** 			return (uint16_t)(ep->InBytesAvailable);
 380              	 .loc 1 240 0
 381 002a 7B68     	 ldr r3,[r7,#4]
 382 002c 9B69     	 ldr r3,[r3,#24]
 383 002e 9BB2     	 uxth r3,r3
 384 0030 02E0     	 b .L24
 385              	.L23:
 241:../Dave/Generated/USBD_VCOM/class_driver/device/../../../USBD/usb/core/./xmc4000/usbd_endpoint_xmc4000.h **** 		else
 242:../Dave/Generated/USBD_VCOM/class_driver/device/../../../USBD/usb/core/./xmc4000/usbd_endpoint_xmc4000.h **** 			return (uint16_t)(ep->OutBytesAvailable);
 386              	 .loc 1 242 0
 387 0032 7B68     	 ldr r3,[r7,#4]
 388 0034 9B68     	 ldr r3,[r3,#8]
 389 0036 9BB2     	 uxth r3,r3
 390              	.L24:
 243:../Dave/Generated/USBD_VCOM/class_driver/device/../../../USBD/usb/core/./xmc4000/usbd_endpoint_xmc4000.h **** 	}
 391              	 .loc 1 243 0
 392 0038 1846     	 mov r0,r3
 393 003a 0C37     	 adds r7,r7,#12
 394              	.LCFI33:
 395              	 .cfi_def_cfa_offset 4
 396 003c BD46     	 mov sp,r7
 397              	.LCFI34:
 398              	 .cfi_def_cfa_register 13
 399              	 
 400 003e 5DF8047B 	 ldr r7,[sp],#4
 401              	.LCFI35:
 402              	 .cfi_restore 7
 403              	 .cfi_def_cfa_offset 0
 404 0042 7047     	 bx lr
 405              	.L26:
 406              	 .align 2
 407              	.L25:
 408 0044 00000000 	 .word device
 409              	 .cfi_endproc
 410              	.LFE169:
 412              	 .section .text.CDC_Device_ProcessControlRequest,"ax",%progbits
 413              	 .align 2
 414              	 .global CDC_Device_ProcessControlRequest
 415              	 .thumb
 416              	 .thumb_func
 418              	CDC_Device_ProcessControlRequest:
 419              	.LFB176:
 420              	 .file 2 "../Dave/Generated/USBD_VCOM/class_driver/device/cdc_class_device.c"
   1:../Dave/Generated/USBD_VCOM/class_driver/device/cdc_class_device.c **** /**
   2:../Dave/Generated/USBD_VCOM/class_driver/device/cdc_class_device.c ****  * @file cdc_class_device.c
   3:../Dave/Generated/USBD_VCOM/class_driver/device/cdc_class_device.c ****  * @date 2015-06-20 
   4:../Dave/Generated/USBD_VCOM/class_driver/device/cdc_class_device.c ****  *
   5:../Dave/Generated/USBD_VCOM/class_driver/device/cdc_class_device.c ****  * @cond
   6:../Dave/Generated/USBD_VCOM/class_driver/device/cdc_class_device.c ****  **************************************************************************************************
   7:../Dave/Generated/USBD_VCOM/class_driver/device/cdc_class_device.c ****  * The USB virtual COM port driver for XMC4000 family of controllers.
   8:../Dave/Generated/USBD_VCOM/class_driver/device/cdc_class_device.c ****  *
   9:../Dave/Generated/USBD_VCOM/class_driver/device/cdc_class_device.c ****  * Copyright (c) 2015, Infineon Technologies AG
  10:../Dave/Generated/USBD_VCOM/class_driver/device/cdc_class_device.c ****  * All rights reserved.                        
  11:../Dave/Generated/USBD_VCOM/class_driver/device/cdc_class_device.c ****  *                                             
  12:../Dave/Generated/USBD_VCOM/class_driver/device/cdc_class_device.c ****  * Redistribution and use in source and binary forms, with or without modification,are permitted pr
  13:../Dave/Generated/USBD_VCOM/class_driver/device/cdc_class_device.c ****  * following conditions are met:   
  14:../Dave/Generated/USBD_VCOM/class_driver/device/cdc_class_device.c ****  *                                                                              
  15:../Dave/Generated/USBD_VCOM/class_driver/device/cdc_class_device.c ****  *   Redistributions of source code must retain the above copyright notice, this list of conditions
  16:../Dave/Generated/USBD_VCOM/class_driver/device/cdc_class_device.c ****  *   disclaimer.                        
  17:../Dave/Generated/USBD_VCOM/class_driver/device/cdc_class_device.c ****  * 
  18:../Dave/Generated/USBD_VCOM/class_driver/device/cdc_class_device.c ****  *   Redistributions in binary form must reproduce the above copyright notice, this list of conditi
  19:../Dave/Generated/USBD_VCOM/class_driver/device/cdc_class_device.c ****  *   following disclaimer in the documentation and/or other materials provided with the distributio
  20:../Dave/Generated/USBD_VCOM/class_driver/device/cdc_class_device.c ****  *                         
  21:../Dave/Generated/USBD_VCOM/class_driver/device/cdc_class_device.c ****  *   Neither the name of the copyright holders nor the names of its contributors may be used to end
  22:../Dave/Generated/USBD_VCOM/class_driver/device/cdc_class_device.c ****  *   products derived from this software without specific prior written permission. 
  23:../Dave/Generated/USBD_VCOM/class_driver/device/cdc_class_device.c ****  *                                             
  24:../Dave/Generated/USBD_VCOM/class_driver/device/cdc_class_device.c ****  * THIS SOFTWARE IS PROVIDED BY THE COPYRIGHT HOLDERS AND CONTRIBUTORS "AS IS" AND ANY EXPRESS OR I
  25:../Dave/Generated/USBD_VCOM/class_driver/device/cdc_class_device.c ****  * INCLUDING, BUT NOT LIMITED TO, THE IMPLIED WARRANTIES OF MERCHANTABILITY AND FITNESS FOR A PARTI
  26:../Dave/Generated/USBD_VCOM/class_driver/device/cdc_class_device.c ****  * DISCLAIMED. IN NO EVENT SHALL THE COPYRIGHT HOLDER OR CONTRIBUTORS BE LIABLE  FOR ANY DIRECT, IN
  27:../Dave/Generated/USBD_VCOM/class_driver/device/cdc_class_device.c ****  * SPECIAL, EXEMPLARY, OR CONSEQUENTIAL DAMAGES (INCLUDING, BUT NOT LIMITED TO, PROCUREMENT OF SUBS
  28:../Dave/Generated/USBD_VCOM/class_driver/device/cdc_class_device.c ****  * SERVICES; LOSS OF USE, DATA, OR PROFITS; OR BUSINESS INTERRUPTION) HOWEVER CAUSED AND ON ANY THE
  29:../Dave/Generated/USBD_VCOM/class_driver/device/cdc_class_device.c ****  * WHETHER IN CONTRACT, STRICT LIABILITY,OR TORT (INCLUDING NEGLIGENCE OR OTHERWISE) ARISING IN ANY
  30:../Dave/Generated/USBD_VCOM/class_driver/device/cdc_class_device.c ****  * USE OF THIS SOFTWARE, EVEN IF ADVISED OF THE POSSIBILITY OF SUCH DAMAGE.    
  31:../Dave/Generated/USBD_VCOM/class_driver/device/cdc_class_device.c ****  *                                                                              
  32:../Dave/Generated/USBD_VCOM/class_driver/device/cdc_class_device.c ****  * To improve the quality of the software, users are encouraged to share modifications, enhancement
  33:../Dave/Generated/USBD_VCOM/class_driver/device/cdc_class_device.c ****  * with Infineon Technologies AG (dave@infineon.com).        
  34:../Dave/Generated/USBD_VCOM/class_driver/device/cdc_class_device.c ****  **************************************************************************************************
  35:../Dave/Generated/USBD_VCOM/class_driver/device/cdc_class_device.c ****  *
  36:../Dave/Generated/USBD_VCOM/class_driver/device/cdc_class_device.c ****  * Change History
  37:../Dave/Generated/USBD_VCOM/class_driver/device/cdc_class_device.c ****  * --------------
  38:../Dave/Generated/USBD_VCOM/class_driver/device/cdc_class_device.c ****  *
  39:../Dave/Generated/USBD_VCOM/class_driver/device/cdc_class_device.c ****  * 2015-02-16:
  40:../Dave/Generated/USBD_VCOM/class_driver/device/cdc_class_device.c ****  *     - Initial version.      
  41:../Dave/Generated/USBD_VCOM/class_driver/device/cdc_class_device.c ****  * 2015-06-20:
  42:../Dave/Generated/USBD_VCOM/class_driver/device/cdc_class_device.c ****  *     - Updated the file header.
  43:../Dave/Generated/USBD_VCOM/class_driver/device/cdc_class_device.c ****  *     
  44:../Dave/Generated/USBD_VCOM/class_driver/device/cdc_class_device.c ****  * @endcond 
  45:../Dave/Generated/USBD_VCOM/class_driver/device/cdc_class_device.c ****  *
  46:../Dave/Generated/USBD_VCOM/class_driver/device/cdc_class_device.c ****  */
  47:../Dave/Generated/USBD_VCOM/class_driver/device/cdc_class_device.c **** /*
  48:../Dave/Generated/USBD_VCOM/class_driver/device/cdc_class_device.c ****   Copyright 2014  Dean Camera (dean [at] fourwalledcubicle [dot] com)
  49:../Dave/Generated/USBD_VCOM/class_driver/device/cdc_class_device.c **** 
  50:../Dave/Generated/USBD_VCOM/class_driver/device/cdc_class_device.c ****   Permission to use, copy, modify, distribute, and sell this
  51:../Dave/Generated/USBD_VCOM/class_driver/device/cdc_class_device.c ****   software and its documentation for any purpose is hereby granted
  52:../Dave/Generated/USBD_VCOM/class_driver/device/cdc_class_device.c ****   without fee, provided that the above copyright notice appear in
  53:../Dave/Generated/USBD_VCOM/class_driver/device/cdc_class_device.c ****   all copies and that both that the copyright notice and this
  54:../Dave/Generated/USBD_VCOM/class_driver/device/cdc_class_device.c ****   permission notice and warranty disclaimer appear in supporting
  55:../Dave/Generated/USBD_VCOM/class_driver/device/cdc_class_device.c ****   documentation, and that the name of the author not be used in
  56:../Dave/Generated/USBD_VCOM/class_driver/device/cdc_class_device.c ****   advertising or publicity pertaining to distribution of the
  57:../Dave/Generated/USBD_VCOM/class_driver/device/cdc_class_device.c ****   software without specific, written prior permission.
  58:../Dave/Generated/USBD_VCOM/class_driver/device/cdc_class_device.c **** 
  59:../Dave/Generated/USBD_VCOM/class_driver/device/cdc_class_device.c ****   The author disclaims all warranties with regard to this
  60:../Dave/Generated/USBD_VCOM/class_driver/device/cdc_class_device.c ****   software, including all implied warranties of merchantability
  61:../Dave/Generated/USBD_VCOM/class_driver/device/cdc_class_device.c ****   and fitness.  In no event shall the author be liable for any
  62:../Dave/Generated/USBD_VCOM/class_driver/device/cdc_class_device.c ****   special, indirect or consequential damages or any damages
  63:../Dave/Generated/USBD_VCOM/class_driver/device/cdc_class_device.c ****   whatsoever resulting from loss of use, data or profits, whether
  64:../Dave/Generated/USBD_VCOM/class_driver/device/cdc_class_device.c ****   in an action of contract, negligence or other tortious action,
  65:../Dave/Generated/USBD_VCOM/class_driver/device/cdc_class_device.c ****   arising out of or in connection with the use or performance of
  66:../Dave/Generated/USBD_VCOM/class_driver/device/cdc_class_device.c ****   this software.
  67:../Dave/Generated/USBD_VCOM/class_driver/device/cdc_class_device.c **** */
  68:../Dave/Generated/USBD_VCOM/class_driver/device/cdc_class_device.c **** 
  69:../Dave/Generated/USBD_VCOM/class_driver/device/cdc_class_device.c **** 
  70:../Dave/Generated/USBD_VCOM/class_driver/device/cdc_class_device.c **** #define  __INCLUDE_FROM_USB_DRIVER
  71:../Dave/Generated/USBD_VCOM/class_driver/device/cdc_class_device.c **** 
  72:../Dave/Generated/USBD_VCOM/class_driver/device/cdc_class_device.c **** /**************************************************************************************************
  73:../Dave/Generated/USBD_VCOM/class_driver/device/cdc_class_device.c ****  * HEADER FILES                                                                                    
  74:../Dave/Generated/USBD_VCOM/class_driver/device/cdc_class_device.c ****  **************************************************************************************************
  75:../Dave/Generated/USBD_VCOM/class_driver/device/cdc_class_device.c **** #include  "../../../USBD/usb/core/usb_mode.h" /*IFX*/
  76:../Dave/Generated/USBD_VCOM/class_driver/device/cdc_class_device.c **** 
  77:../Dave/Generated/USBD_VCOM/class_driver/device/cdc_class_device.c **** #if defined(USB_CAN_BE_DEVICE)
  78:../Dave/Generated/USBD_VCOM/class_driver/device/cdc_class_device.c **** 
  79:../Dave/Generated/USBD_VCOM/class_driver/device/cdc_class_device.c **** #define  __INCLUDE_FROM_CDC_DRIVER
  80:../Dave/Generated/USBD_VCOM/class_driver/device/cdc_class_device.c **** #define  __INCLUDE_FROM_CDC_DEVICE_C
  81:../Dave/Generated/USBD_VCOM/class_driver/device/cdc_class_device.c **** #include "cdc_class_device.h"
  82:../Dave/Generated/USBD_VCOM/class_driver/device/cdc_class_device.c **** #include "../../usbd_vcom.h"
  83:../Dave/Generated/USBD_VCOM/class_driver/device/cdc_class_device.c **** 
  84:../Dave/Generated/USBD_VCOM/class_driver/device/cdc_class_device.c **** extern USB_CDCClass_event_CB_t cdc_class_events;
  85:../Dave/Generated/USBD_VCOM/class_driver/device/cdc_class_device.c **** 
  86:../Dave/Generated/USBD_VCOM/class_driver/device/cdc_class_device.c **** /**************************************************************************************************
  87:../Dave/Generated/USBD_VCOM/class_driver/device/cdc_class_device.c ****  * API IMPLEMENTATION
  88:../Dave/Generated/USBD_VCOM/class_driver/device/cdc_class_device.c ****  **************************************************************************************************
  89:../Dave/Generated/USBD_VCOM/class_driver/device/cdc_class_device.c **** void CDC_Device_ProcessControlRequest(
  90:../Dave/Generated/USBD_VCOM/class_driver/device/cdc_class_device.c **** 					USB_ClassInfo_CDC_Device_t* const CDCInterfaceInfo)
  91:../Dave/Generated/USBD_VCOM/class_driver/device/cdc_class_device.c **** {
 421              	 .loc 2 91 0
 422              	 .cfi_startproc
 423              	 
 424              	 
 425 0000 80B5     	 push {r7,lr}
 426              	.LCFI36:
 427              	 .cfi_def_cfa_offset 8
 428              	 .cfi_offset 7,-8
 429              	 .cfi_offset 14,-4
 430 0002 82B0     	 sub sp,sp,#8
 431              	.LCFI37:
 432              	 .cfi_def_cfa_offset 16
 433 0004 00AF     	 add r7,sp,#0
 434              	.LCFI38:
 435              	 .cfi_def_cfa_register 7
 436 0006 7860     	 str r0,[r7,#4]
  92:../Dave/Generated/USBD_VCOM/class_driver/device/cdc_class_device.c **** 	if ((Endpoint_IsSETUPReceived() != 0) && (USB_ControlRequest.wIndex ==
 437              	 .loc 2 92 0
 438 0008 FFF7FEFF 	 bl Endpoint_IsSETUPReceived
 439 000c 0346     	 mov r3,r0
 440 000e 002B     	 cmp r3,#0
 441 0010 00F0AE80 	 beq .L27
 442              	 .loc 2 92 0 is_stmt 0 discriminator 1
 443 0014 584B     	 ldr r3,.L41
 444 0016 9B88     	 ldrh r3,[r3,#4]
 445 0018 9AB2     	 uxth r2,r3
  93:../Dave/Generated/USBD_VCOM/class_driver/device/cdc_class_device.c **** 			CDCInterfaceInfo->Config.ControlInterfaceNumber))
 446              	 .loc 2 93 0 is_stmt 1 discriminator 1
 447 001a 7B68     	 ldr r3,[r7,#4]
 448 001c 9B7C     	 ldrb r3,[r3,#18]
  92:../Dave/Generated/USBD_VCOM/class_driver/device/cdc_class_device.c **** 	if ((Endpoint_IsSETUPReceived() != 0) && (USB_ControlRequest.wIndex ==
 449              	 .loc 2 92 0 discriminator 1
 450 001e 9BB2     	 uxth r3,r3
 451 0020 9A42     	 cmp r2,r3
 452 0022 40F0A580 	 bne .L27
  94:../Dave/Generated/USBD_VCOM/class_driver/device/cdc_class_device.c **** 	{
  95:../Dave/Generated/USBD_VCOM/class_driver/device/cdc_class_device.c **** 
  96:../Dave/Generated/USBD_VCOM/class_driver/device/cdc_class_device.c **** 		switch (USB_ControlRequest.bRequest)
 453              	 .loc 2 96 0
 454 0026 544B     	 ldr r3,.L41
 455 0028 5B78     	 ldrb r3,[r3,#1]
 456 002a DBB2     	 uxtb r3,r3
 457 002c 203B     	 subs r3,r3,#32
 458 002e 032B     	 cmp r3,#3
 459 0030 00F29E80 	 bhi .L27
 460 0034 01A2     	 adr r2,.L30
 461 0036 52F823F0 	 ldr pc,[r2,r3,lsl#2]
 462 003a 00BF     	 .p2align 2
 463              	.L30:
 464 003c A1000000 	 .word .L29+1
 465 0040 4D000000 	 .word .L31+1
 466 0044 13010000 	 .word .L32+1
 467 0048 43010000 	 .word .L33+1
 468              	 .p2align 1
 469              	.L31:
  97:../Dave/Generated/USBD_VCOM/class_driver/device/cdc_class_device.c **** 		{
  98:../Dave/Generated/USBD_VCOM/class_driver/device/cdc_class_device.c **** 			case CDC_REQ_GetLineEncoding:
  99:../Dave/Generated/USBD_VCOM/class_driver/device/cdc_class_device.c **** 				if ((REQDIR_DEVICETOHOST | REQTYPE_CLASS | REQREC_INTERFACE) == USB_ControlRequest.bmRequestTyp
 470              	 .loc 2 99 0
 471 004c 4A4B     	 ldr r3,.L41
 472 004e 1B78     	 ldrb r3,[r3]
 473 0050 DBB2     	 uxtb r3,r3
 474 0052 A12B     	 cmp r3,#161
 475 0054 23D1     	 bne .L34
 100:../Dave/Generated/USBD_VCOM/class_driver/device/cdc_class_device.c **** 				{
 101:../Dave/Generated/USBD_VCOM/class_driver/device/cdc_class_device.c **** 					Endpoint_ClearSETUP();
 476              	 .loc 2 101 0
 477 0056 FFF7FEFF 	 bl Endpoint_ClearSETUP
 102:../Dave/Generated/USBD_VCOM/class_driver/device/cdc_class_device.c **** 
 103:../Dave/Generated/USBD_VCOM/class_driver/device/cdc_class_device.c **** 					while (!(Endpoint_IsINReady()));
 478              	 .loc 2 103 0
 479 005a 00BF     	 nop
 480              	.L35:
 481              	 .loc 2 103 0 is_stmt 0 discriminator 1
 482 005c FFF7FEFF 	 bl Endpoint_IsINReady
 483 0060 0346     	 mov r3,r0
 484 0062 83F00103 	 eor r3,r3,#1
 485 0066 DBB2     	 uxtb r3,r3
 486 0068 002B     	 cmp r3,#0
 487 006a F7D1     	 bne .L35
 104:../Dave/Generated/USBD_VCOM/class_driver/device/cdc_class_device.c **** 
 105:../Dave/Generated/USBD_VCOM/class_driver/device/cdc_class_device.c **** 					Endpoint_Write_32_LE(CDCInterfaceInfo->State.LineEncoding.BaudRateBPS);
 488              	 .loc 2 105 0 is_stmt 1
 489 006c 7B68     	 ldr r3,[r7,#4]
 490 006e 9B69     	 ldr r3,[r3,#24]
 491 0070 1846     	 mov r0,r3
 492 0072 FFF7FEFF 	 bl Endpoint_Write_32_LE
 106:../Dave/Generated/USBD_VCOM/class_driver/device/cdc_class_device.c **** 					Endpoint_Write_8(CDCInterfaceInfo->State.LineEncoding.CharFormat);
 493              	 .loc 2 106 0
 494 0076 7B68     	 ldr r3,[r7,#4]
 495 0078 1B7F     	 ldrb r3,[r3,#28]
 496 007a 1846     	 mov r0,r3
 497 007c FFF7FEFF 	 bl Endpoint_Write_8
 107:../Dave/Generated/USBD_VCOM/class_driver/device/cdc_class_device.c **** 					Endpoint_Write_8(CDCInterfaceInfo->State.LineEncoding.ParityType);
 498              	 .loc 2 107 0
 499 0080 7B68     	 ldr r3,[r7,#4]
 500 0082 5B7F     	 ldrb r3,[r3,#29]
 501 0084 1846     	 mov r0,r3
 502 0086 FFF7FEFF 	 bl Endpoint_Write_8
 108:../Dave/Generated/USBD_VCOM/class_driver/device/cdc_class_device.c **** 					Endpoint_Write_8(CDCInterfaceInfo->State.LineEncoding.DataBits);
 503              	 .loc 2 108 0
 504 008a 7B68     	 ldr r3,[r7,#4]
 505 008c 9B7F     	 ldrb r3,[r3,#30]
 506 008e 1846     	 mov r0,r3
 507 0090 FFF7FEFF 	 bl Endpoint_Write_8
 109:../Dave/Generated/USBD_VCOM/class_driver/device/cdc_class_device.c **** 
 110:../Dave/Generated/USBD_VCOM/class_driver/device/cdc_class_device.c **** 					Endpoint_ClearIN();
 508              	 .loc 2 110 0
 509 0094 FFF7FEFF 	 bl Endpoint_ClearIN
 111:../Dave/Generated/USBD_VCOM/class_driver/device/cdc_class_device.c **** 					Endpoint_ClearStatusStage();
 510              	 .loc 2 111 0
 511 0098 FFF7FEFF 	 bl Endpoint_ClearStatusStage
 112:../Dave/Generated/USBD_VCOM/class_driver/device/cdc_class_device.c **** 				}
 113:../Dave/Generated/USBD_VCOM/class_driver/device/cdc_class_device.c **** 
 114:../Dave/Generated/USBD_VCOM/class_driver/device/cdc_class_device.c **** 				break;
 512              	 .loc 2 114 0
 513 009c 68E0     	 b .L27
 514              	.L34:
 515 009e 67E0     	 b .L27
 516              	.L29:
 115:../Dave/Generated/USBD_VCOM/class_driver/device/cdc_class_device.c **** 			case CDC_REQ_SetLineEncoding:
 116:../Dave/Generated/USBD_VCOM/class_driver/device/cdc_class_device.c **** 				if ((REQDIR_HOSTTODEVICE |REQTYPE_CLASS | REQREC_INTERFACE) == USB_ControlRequest.bmRequestType
 517              	 .loc 2 116 0
 518 00a0 354B     	 ldr r3,.L41
 519 00a2 1B78     	 ldrb r3,[r3]
 520 00a4 DBB2     	 uxtb r3,r3
 521 00a6 212B     	 cmp r3,#33
 522 00a8 32D1     	 bne .L36
 117:../Dave/Generated/USBD_VCOM/class_driver/device/cdc_class_device.c **** 				{
 118:../Dave/Generated/USBD_VCOM/class_driver/device/cdc_class_device.c **** 					Endpoint_ClearSETUP();
 523              	 .loc 2 118 0
 524 00aa FFF7FEFF 	 bl Endpoint_ClearSETUP
 119:../Dave/Generated/USBD_VCOM/class_driver/device/cdc_class_device.c **** 
 120:../Dave/Generated/USBD_VCOM/class_driver/device/cdc_class_device.c **** 					while (!(Endpoint_IsOUTReceived()))
 525              	 .loc 2 120 0
 526 00ae 05E0     	 b .L37
 527              	.L38:
 121:../Dave/Generated/USBD_VCOM/class_driver/device/cdc_class_device.c **** 					{
 122:../Dave/Generated/USBD_VCOM/class_driver/device/cdc_class_device.c **** 						if (USB_DeviceState == DEVICE_STATE_Unattached)
 528              	 .loc 2 122 0
 529 00b0 324B     	 ldr r3,.L41+4
 530 00b2 1B78     	 ldrb r3,[r3]
 531 00b4 DBB2     	 uxtb r3,r3
 532 00b6 002B     	 cmp r3,#0
 533 00b8 00D1     	 bne .L37
 123:../Dave/Generated/USBD_VCOM/class_driver/device/cdc_class_device.c **** 						  return;
 534              	 .loc 2 123 0
 535 00ba 59E0     	 b .L27
 536              	.L37:
 120:../Dave/Generated/USBD_VCOM/class_driver/device/cdc_class_device.c **** 					{
 537              	 .loc 2 120 0
 538 00bc FFF7FEFF 	 bl Endpoint_IsOUTReceived
 539 00c0 0346     	 mov r3,r0
 540 00c2 83F00103 	 eor r3,r3,#1
 541 00c6 DBB2     	 uxtb r3,r3
 542 00c8 002B     	 cmp r3,#0
 543 00ca F1D1     	 bne .L38
 124:../Dave/Generated/USBD_VCOM/class_driver/device/cdc_class_device.c **** 					}
 125:../Dave/Generated/USBD_VCOM/class_driver/device/cdc_class_device.c **** 
 126:../Dave/Generated/USBD_VCOM/class_driver/device/cdc_class_device.c **** 					CDCInterfaceInfo->State.LineEncoding.BaudRateBPS = Endpoint_Read_32_LE();
 544              	 .loc 2 126 0
 545 00cc FFF7FEFF 	 bl Endpoint_Read_32_LE
 546 00d0 0246     	 mov r2,r0
 547 00d2 7B68     	 ldr r3,[r7,#4]
 548 00d4 9A61     	 str r2,[r3,#24]
 127:../Dave/Generated/USBD_VCOM/class_driver/device/cdc_class_device.c **** 					CDCInterfaceInfo->State.LineEncoding.CharFormat  = Endpoint_Read_8();
 549              	 .loc 2 127 0
 550 00d6 FFF7FEFF 	 bl Endpoint_Read_8
 551 00da 0346     	 mov r3,r0
 552 00dc 1A46     	 mov r2,r3
 553 00de 7B68     	 ldr r3,[r7,#4]
 554 00e0 1A77     	 strb r2,[r3,#28]
 128:../Dave/Generated/USBD_VCOM/class_driver/device/cdc_class_device.c **** 					CDCInterfaceInfo->State.LineEncoding.ParityType  = Endpoint_Read_8();
 555              	 .loc 2 128 0
 556 00e2 FFF7FEFF 	 bl Endpoint_Read_8
 557 00e6 0346     	 mov r3,r0
 558 00e8 1A46     	 mov r2,r3
 559 00ea 7B68     	 ldr r3,[r7,#4]
 560 00ec 5A77     	 strb r2,[r3,#29]
 129:../Dave/Generated/USBD_VCOM/class_driver/device/cdc_class_device.c **** 					CDCInterfaceInfo->State.LineEncoding.DataBits    = Endpoint_Read_8();
 561              	 .loc 2 129 0
 562 00ee FFF7FEFF 	 bl Endpoint_Read_8
 563 00f2 0346     	 mov r3,r0
 564 00f4 1A46     	 mov r2,r3
 565 00f6 7B68     	 ldr r3,[r7,#4]
 566 00f8 9A77     	 strb r2,[r3,#30]
 130:../Dave/Generated/USBD_VCOM/class_driver/device/cdc_class_device.c **** 
 131:../Dave/Generated/USBD_VCOM/class_driver/device/cdc_class_device.c **** 					//Endpoint_ClearOUT();
 132:../Dave/Generated/USBD_VCOM/class_driver/device/cdc_class_device.c **** 					Endpoint_ClearStatusStage();
 567              	 .loc 2 132 0
 568 00fa FFF7FEFF 	 bl Endpoint_ClearStatusStage
 133:../Dave/Generated/USBD_VCOM/class_driver/device/cdc_class_device.c **** 
 134:../Dave/Generated/USBD_VCOM/class_driver/device/cdc_class_device.c **** 					if(0 != cdc_class_events.LineEncodingChanged)
 569              	 .loc 2 134 0
 570 00fe 204B     	 ldr r3,.L41+8
 571 0100 1B68     	 ldr r3,[r3]
 572 0102 002B     	 cmp r3,#0
 573 0104 04D0     	 beq .L36
 135:../Dave/Generated/USBD_VCOM/class_driver/device/cdc_class_device.c **** 					{
 136:../Dave/Generated/USBD_VCOM/class_driver/device/cdc_class_device.c **** 						cdc_class_events.LineEncodingChanged(CDCInterfaceInfo);
 574              	 .loc 2 136 0
 575 0106 1E4B     	 ldr r3,.L41+8
 576 0108 1B68     	 ldr r3,[r3]
 577 010a 7868     	 ldr r0,[r7,#4]
 578 010c 9847     	 blx r3
 137:../Dave/Generated/USBD_VCOM/class_driver/device/cdc_class_device.c **** 					}
 138:../Dave/Generated/USBD_VCOM/class_driver/device/cdc_class_device.c **** 
 139:../Dave/Generated/USBD_VCOM/class_driver/device/cdc_class_device.c **** 				}
 140:../Dave/Generated/USBD_VCOM/class_driver/device/cdc_class_device.c **** 
 141:../Dave/Generated/USBD_VCOM/class_driver/device/cdc_class_device.c **** 				break;
 579              	 .loc 2 141 0
 580 010e 2FE0     	 b .L27
 581              	.L36:
 582 0110 2EE0     	 b .L27
 583              	.L32:
 142:../Dave/Generated/USBD_VCOM/class_driver/device/cdc_class_device.c **** 			case CDC_REQ_SetControlLineState:
 143:../Dave/Generated/USBD_VCOM/class_driver/device/cdc_class_device.c **** 				if ((REQDIR_HOSTTODEVICE | REQTYPE_CLASS | REQREC_INTERFACE) == USB_ControlRequest.bmRequestTyp
 584              	 .loc 2 143 0
 585 0112 194B     	 ldr r3,.L41
 586 0114 1B78     	 ldrb r3,[r3]
 587 0116 DBB2     	 uxtb r3,r3
 588 0118 212B     	 cmp r3,#33
 589 011a 11D1     	 bne .L39
 144:../Dave/Generated/USBD_VCOM/class_driver/device/cdc_class_device.c **** 				{
 145:../Dave/Generated/USBD_VCOM/class_driver/device/cdc_class_device.c **** 					Endpoint_ClearSETUP();
 590              	 .loc 2 145 0
 591 011c FFF7FEFF 	 bl Endpoint_ClearSETUP
 146:../Dave/Generated/USBD_VCOM/class_driver/device/cdc_class_device.c **** 					Endpoint_ClearStatusStage();
 592              	 .loc 2 146 0
 593 0120 FFF7FEFF 	 bl Endpoint_ClearStatusStage
 147:../Dave/Generated/USBD_VCOM/class_driver/device/cdc_class_device.c **** 
 148:../Dave/Generated/USBD_VCOM/class_driver/device/cdc_class_device.c **** 					CDCInterfaceInfo->State.ControlLineStates.HostToDevice = USB_ControlRequest.wValue;
 594              	 .loc 2 148 0
 595 0124 144B     	 ldr r3,.L41
 596 0126 5B88     	 ldrh r3,[r3,#2]
 597 0128 9AB2     	 uxth r2,r3
 598 012a 7B68     	 ldr r3,[r7,#4]
 599 012c 9A82     	 strh r2,[r3,#20]
 149:../Dave/Generated/USBD_VCOM/class_driver/device/cdc_class_device.c **** 
 150:../Dave/Generated/USBD_VCOM/class_driver/device/cdc_class_device.c **** 					if(0 != cdc_class_events.ControLineStateChanged)
 600              	 .loc 2 150 0
 601 012e 144B     	 ldr r3,.L41+8
 602 0130 5B68     	 ldr r3,[r3,#4]
 603 0132 002B     	 cmp r3,#0
 604 0134 04D0     	 beq .L39
 151:../Dave/Generated/USBD_VCOM/class_driver/device/cdc_class_device.c **** 					{
 152:../Dave/Generated/USBD_VCOM/class_driver/device/cdc_class_device.c **** 						cdc_class_events.ControLineStateChanged(CDCInterfaceInfo);
 605              	 .loc 2 152 0
 606 0136 124B     	 ldr r3,.L41+8
 607 0138 5B68     	 ldr r3,[r3,#4]
 608 013a 7868     	 ldr r0,[r7,#4]
 609 013c 9847     	 blx r3
 153:../Dave/Generated/USBD_VCOM/class_driver/device/cdc_class_device.c **** 					}
 154:../Dave/Generated/USBD_VCOM/class_driver/device/cdc_class_device.c **** 
 155:../Dave/Generated/USBD_VCOM/class_driver/device/cdc_class_device.c **** 				}
 156:../Dave/Generated/USBD_VCOM/class_driver/device/cdc_class_device.c **** 
 157:../Dave/Generated/USBD_VCOM/class_driver/device/cdc_class_device.c **** 				break;
 610              	 .loc 2 157 0
 611 013e 17E0     	 b .L27
 612              	.L39:
 613 0140 16E0     	 b .L27
 614              	.L33:
 158:../Dave/Generated/USBD_VCOM/class_driver/device/cdc_class_device.c **** 			case CDC_REQ_SendBreak:
 159:../Dave/Generated/USBD_VCOM/class_driver/device/cdc_class_device.c **** 				if ((REQDIR_HOSTTODEVICE | REQTYPE_CLASS | REQREC_INTERFACE) == USB_ControlRequest.bmRequestTyp
 615              	 .loc 2 159 0
 616 0142 0D4B     	 ldr r3,.L41
 617 0144 1B78     	 ldrb r3,[r3]
 618 0146 DBB2     	 uxtb r3,r3
 619 0148 212B     	 cmp r3,#33
 620 014a 10D1     	 bne .L40
 160:../Dave/Generated/USBD_VCOM/class_driver/device/cdc_class_device.c **** 				{
 161:../Dave/Generated/USBD_VCOM/class_driver/device/cdc_class_device.c **** 					Endpoint_ClearSETUP();
 621              	 .loc 2 161 0
 622 014c FFF7FEFF 	 bl Endpoint_ClearSETUP
 162:../Dave/Generated/USBD_VCOM/class_driver/device/cdc_class_device.c **** 					Endpoint_ClearStatusStage();
 623              	 .loc 2 162 0
 624 0150 FFF7FEFF 	 bl Endpoint_ClearStatusStage
 163:../Dave/Generated/USBD_VCOM/class_driver/device/cdc_class_device.c **** 
 164:../Dave/Generated/USBD_VCOM/class_driver/device/cdc_class_device.c **** 					if(0 != cdc_class_events.Device_BreakSent)
 625              	 .loc 2 164 0
 626 0154 0A4B     	 ldr r3,.L41+8
 627 0156 9B68     	 ldr r3,[r3,#8]
 628 0158 002B     	 cmp r3,#0
 629 015a 08D0     	 beq .L40
 165:../Dave/Generated/USBD_VCOM/class_driver/device/cdc_class_device.c **** 					{
 166:../Dave/Generated/USBD_VCOM/class_driver/device/cdc_class_device.c **** 						cdc_class_events.Device_BreakSent(CDCInterfaceInfo,	(uint8_t)USB_ControlRequest.wValue);
 630              	 .loc 2 166 0
 631 015c 084B     	 ldr r3,.L41+8
 632 015e 9B68     	 ldr r3,[r3,#8]
 633 0160 054A     	 ldr r2,.L41
 634 0162 5288     	 ldrh r2,[r2,#2]
 635 0164 92B2     	 uxth r2,r2
 636 0166 D2B2     	 uxtb r2,r2
 637 0168 7868     	 ldr r0,[r7,#4]
 638 016a 1146     	 mov r1,r2
 639 016c 9847     	 blx r3
 640              	.L40:
 167:../Dave/Generated/USBD_VCOM/class_driver/device/cdc_class_device.c **** 					}
 168:../Dave/Generated/USBD_VCOM/class_driver/device/cdc_class_device.c **** 
 169:../Dave/Generated/USBD_VCOM/class_driver/device/cdc_class_device.c **** 				}
 170:../Dave/Generated/USBD_VCOM/class_driver/device/cdc_class_device.c **** 
 171:../Dave/Generated/USBD_VCOM/class_driver/device/cdc_class_device.c **** 				break;
 641              	 .loc 2 171 0
 642 016e 00BF     	 nop
 643              	.L27:
 172:../Dave/Generated/USBD_VCOM/class_driver/device/cdc_class_device.c **** 		}
 173:../Dave/Generated/USBD_VCOM/class_driver/device/cdc_class_device.c **** 	}
 174:../Dave/Generated/USBD_VCOM/class_driver/device/cdc_class_device.c **** }
 644              	 .loc 2 174 0
 645 0170 0837     	 adds r7,r7,#8
 646              	.LCFI39:
 647              	 .cfi_def_cfa_offset 8
 648 0172 BD46     	 mov sp,r7
 649              	.LCFI40:
 650              	 .cfi_def_cfa_register 13
 651              	 
 652 0174 80BD     	 pop {r7,pc}
 653              	.L42:
 654 0176 00BF     	 .align 2
 655              	.L41:
 656 0178 00000000 	 .word USB_ControlRequest
 657 017c 00000000 	 .word USB_DeviceState
 658 0180 00000000 	 .word cdc_class_events
 659              	 .cfi_endproc
 660              	.LFE176:
 662              	 .section .text.CDC_Device_ConfigureEndpoints,"ax",%progbits
 663              	 .align 2
 664              	 .global CDC_Device_ConfigureEndpoints
 665              	 .thumb
 666              	 .thumb_func
 668              	CDC_Device_ConfigureEndpoints:
 669              	.LFB177:
 175:../Dave/Generated/USBD_VCOM/class_driver/device/cdc_class_device.c **** 
 176:../Dave/Generated/USBD_VCOM/class_driver/device/cdc_class_device.c **** 
 177:../Dave/Generated/USBD_VCOM/class_driver/device/cdc_class_device.c **** 
 178:../Dave/Generated/USBD_VCOM/class_driver/device/cdc_class_device.c **** 
 179:../Dave/Generated/USBD_VCOM/class_driver/device/cdc_class_device.c **** bool CDC_Device_ConfigureEndpoints(USB_ClassInfo_CDC_Device_t* const CDCInterfaceInfo)
 180:../Dave/Generated/USBD_VCOM/class_driver/device/cdc_class_device.c **** {
 670              	 .loc 2 180 0
 671              	 .cfi_startproc
 672              	 
 673              	 
 674 0000 80B5     	 push {r7,lr}
 675              	.LCFI41:
 676              	 .cfi_def_cfa_offset 8
 677              	 .cfi_offset 7,-8
 678              	 .cfi_offset 14,-4
 679 0002 84B0     	 sub sp,sp,#16
 680              	.LCFI42:
 681              	 .cfi_def_cfa_offset 24
 682 0004 00AF     	 add r7,sp,#0
 683              	.LCFI43:
 684              	 .cfi_def_cfa_register 7
 685 0006 7860     	 str r0,[r7,#4]
 181:../Dave/Generated/USBD_VCOM/class_driver/device/cdc_class_device.c **** 	bool status = true;
 686              	 .loc 2 181 0
 687 0008 0123     	 movs r3,#1
 688 000a FB73     	 strb r3,[r7,#15]
 182:../Dave/Generated/USBD_VCOM/class_driver/device/cdc_class_device.c **** 	memset(&CDCInterfaceInfo->State, 0x00, sizeof(CDCInterfaceInfo->State));
 689              	 .loc 2 182 0
 690 000c 7B68     	 ldr r3,[r7,#4]
 691 000e 1433     	 adds r3,r3,#20
 692 0010 1846     	 mov r0,r3
 693 0012 0021     	 movs r1,#0
 694 0014 0C22     	 movs r2,#12
 695 0016 FFF7FEFF 	 bl memset
 183:../Dave/Generated/USBD_VCOM/class_driver/device/cdc_class_device.c **** 
 184:../Dave/Generated/USBD_VCOM/class_driver/device/cdc_class_device.c **** 	CDCInterfaceInfo->Config.DataINEndpoint.Type       = EP_TYPE_BULK;
 696              	 .loc 2 184 0
 697 001a 7B68     	 ldr r3,[r7,#4]
 698 001c 0222     	 movs r2,#2
 699 001e 1A71     	 strb r2,[r3,#4]
 185:../Dave/Generated/USBD_VCOM/class_driver/device/cdc_class_device.c **** 	CDCInterfaceInfo->Config.DataOUTEndpoint.Type      = EP_TYPE_BULK;
 700              	 .loc 2 185 0
 701 0020 7B68     	 ldr r3,[r7,#4]
 702 0022 0222     	 movs r2,#2
 703 0024 9A72     	 strb r2,[r3,#10]
 186:../Dave/Generated/USBD_VCOM/class_driver/device/cdc_class_device.c **** 	CDCInterfaceInfo->Config.NotificationEndpoint.Type = EP_TYPE_INTERRUPT;
 704              	 .loc 2 186 0
 705 0026 7B68     	 ldr r3,[r7,#4]
 706 0028 0322     	 movs r2,#3
 707 002a 1A74     	 strb r2,[r3,#16]
 187:../Dave/Generated/USBD_VCOM/class_driver/device/cdc_class_device.c **** 
 188:../Dave/Generated/USBD_VCOM/class_driver/device/cdc_class_device.c **** 	if (!(Endpoint_ConfigureEndpointTable(&CDCInterfaceInfo->Config.DataINEndpoint, 1)))
 708              	 .loc 2 188 0
 709 002c 7B68     	 ldr r3,[r7,#4]
 710 002e 1846     	 mov r0,r3
 711 0030 0121     	 movs r1,#1
 712 0032 FFF7FEFF 	 bl Endpoint_ConfigureEndpointTable
 713 0036 0346     	 mov r3,r0
 714 0038 83F00103 	 eor r3,r3,#1
 715 003c DBB2     	 uxtb r3,r3
 716 003e 002B     	 cmp r3,#0
 717 0040 01D0     	 beq .L44
 189:../Dave/Generated/USBD_VCOM/class_driver/device/cdc_class_device.c **** 	{
 190:../Dave/Generated/USBD_VCOM/class_driver/device/cdc_class_device.c **** 		status = false;
 718              	 .loc 2 190 0
 719 0042 0023     	 movs r3,#0
 720 0044 FB73     	 strb r3,[r7,#15]
 721              	.L44:
 191:../Dave/Generated/USBD_VCOM/class_driver/device/cdc_class_device.c **** 	}
 192:../Dave/Generated/USBD_VCOM/class_driver/device/cdc_class_device.c **** 
 193:../Dave/Generated/USBD_VCOM/class_driver/device/cdc_class_device.c **** 	if (!(Endpoint_ConfigureEndpointTable(
 194:../Dave/Generated/USBD_VCOM/class_driver/device/cdc_class_device.c **** 							&CDCInterfaceInfo->Config.DataOUTEndpoint, 1)))
 722              	 .loc 2 194 0
 723 0046 7B68     	 ldr r3,[r7,#4]
 724 0048 0633     	 adds r3,r3,#6
 193:../Dave/Generated/USBD_VCOM/class_driver/device/cdc_class_device.c **** 							&CDCInterfaceInfo->Config.DataOUTEndpoint, 1)))
 725              	 .loc 2 193 0
 726 004a 1846     	 mov r0,r3
 727 004c 0121     	 movs r1,#1
 728 004e FFF7FEFF 	 bl Endpoint_ConfigureEndpointTable
 729 0052 0346     	 mov r3,r0
 730 0054 83F00103 	 eor r3,r3,#1
 731 0058 DBB2     	 uxtb r3,r3
 732 005a 002B     	 cmp r3,#0
 733 005c 01D0     	 beq .L45
 195:../Dave/Generated/USBD_VCOM/class_driver/device/cdc_class_device.c **** 	{
 196:../Dave/Generated/USBD_VCOM/class_driver/device/cdc_class_device.c **** 		status = false;
 734              	 .loc 2 196 0
 735 005e 0023     	 movs r3,#0
 736 0060 FB73     	 strb r3,[r7,#15]
 737              	.L45:
 197:../Dave/Generated/USBD_VCOM/class_driver/device/cdc_class_device.c **** 	}
 198:../Dave/Generated/USBD_VCOM/class_driver/device/cdc_class_device.c **** 
 199:../Dave/Generated/USBD_VCOM/class_driver/device/cdc_class_device.c **** 	if (!(Endpoint_ConfigureEndpointTable(
 200:../Dave/Generated/USBD_VCOM/class_driver/device/cdc_class_device.c **** 						&CDCInterfaceInfo->Config.NotificationEndpoint, 1)))
 738              	 .loc 2 200 0
 739 0062 7B68     	 ldr r3,[r7,#4]
 740 0064 0C33     	 adds r3,r3,#12
 199:../Dave/Generated/USBD_VCOM/class_driver/device/cdc_class_device.c **** 						&CDCInterfaceInfo->Config.NotificationEndpoint, 1)))
 741              	 .loc 2 199 0
 742 0066 1846     	 mov r0,r3
 743 0068 0121     	 movs r1,#1
 744 006a FFF7FEFF 	 bl Endpoint_ConfigureEndpointTable
 745 006e 0346     	 mov r3,r0
 746 0070 83F00103 	 eor r3,r3,#1
 747 0074 DBB2     	 uxtb r3,r3
 748 0076 002B     	 cmp r3,#0
 749 0078 01D0     	 beq .L46
 201:../Dave/Generated/USBD_VCOM/class_driver/device/cdc_class_device.c **** 	{
 202:../Dave/Generated/USBD_VCOM/class_driver/device/cdc_class_device.c **** 		status = false;
 750              	 .loc 2 202 0
 751 007a 0023     	 movs r3,#0
 752 007c FB73     	 strb r3,[r7,#15]
 753              	.L46:
 203:../Dave/Generated/USBD_VCOM/class_driver/device/cdc_class_device.c **** 	}
 204:../Dave/Generated/USBD_VCOM/class_driver/device/cdc_class_device.c **** 
 205:../Dave/Generated/USBD_VCOM/class_driver/device/cdc_class_device.c **** 	return status;
 754              	 .loc 2 205 0
 755 007e FB7B     	 ldrb r3,[r7,#15]
 206:../Dave/Generated/USBD_VCOM/class_driver/device/cdc_class_device.c **** }
 756              	 .loc 2 206 0
 757 0080 1846     	 mov r0,r3
 758 0082 1037     	 adds r7,r7,#16
 759              	.LCFI44:
 760              	 .cfi_def_cfa_offset 8
 761 0084 BD46     	 mov sp,r7
 762              	.LCFI45:
 763              	 .cfi_def_cfa_register 13
 764              	 
 765 0086 80BD     	 pop {r7,pc}
 766              	 .cfi_endproc
 767              	.LFE177:
 769              	 .section .text.CDC_Device_USBTask,"ax",%progbits
 770              	 .align 2
 771              	 .global CDC_Device_USBTask
 772              	 .thumb
 773              	 .thumb_func
 775              	CDC_Device_USBTask:
 776              	.LFB178:
 207:../Dave/Generated/USBD_VCOM/class_driver/device/cdc_class_device.c **** 
 208:../Dave/Generated/USBD_VCOM/class_driver/device/cdc_class_device.c **** void CDC_Device_USBTask(USB_ClassInfo_CDC_Device_t* const CDCInterfaceInfo)
 209:../Dave/Generated/USBD_VCOM/class_driver/device/cdc_class_device.c **** {
 777              	 .loc 2 209 0
 778              	 .cfi_startproc
 779              	 
 780              	 
 781 0000 80B5     	 push {r7,lr}
 782              	.LCFI46:
 783              	 .cfi_def_cfa_offset 8
 784              	 .cfi_offset 7,-8
 785              	 .cfi_offset 14,-4
 786 0002 82B0     	 sub sp,sp,#8
 787              	.LCFI47:
 788              	 .cfi_def_cfa_offset 16
 789 0004 00AF     	 add r7,sp,#0
 790              	.LCFI48:
 791              	 .cfi_def_cfa_register 7
 792 0006 7860     	 str r0,[r7,#4]
 210:../Dave/Generated/USBD_VCOM/class_driver/device/cdc_class_device.c **** 	if ((USB_DeviceState == DEVICE_STATE_Configured) &&	(CDCInterfaceInfo->State.LineEncoding.BaudRate
 793              	 .loc 2 210 0
 794 0008 0C4B     	 ldr r3,.L50
 795 000a 1B78     	 ldrb r3,[r3]
 796 000c DBB2     	 uxtb r3,r3
 797 000e 042B     	 cmp r3,#4
 798 0010 10D1     	 bne .L48
 799              	 .loc 2 210 0 is_stmt 0 discriminator 1
 800 0012 7B68     	 ldr r3,[r7,#4]
 801 0014 9B69     	 ldr r3,[r3,#24]
 802 0016 002B     	 cmp r3,#0
 803 0018 0CD0     	 beq .L48
 211:../Dave/Generated/USBD_VCOM/class_driver/device/cdc_class_device.c **** 	{
 212:../Dave/Generated/USBD_VCOM/class_driver/device/cdc_class_device.c **** 		#if !defined(NO_CLASS_DRIVER_AUTOFLUSH)
 213:../Dave/Generated/USBD_VCOM/class_driver/device/cdc_class_device.c **** 		Endpoint_SelectEndpoint(CDCInterfaceInfo->Config.DataINEndpoint.Address);
 804              	 .loc 2 213 0 is_stmt 1
 805 001a 7B68     	 ldr r3,[r7,#4]
 806 001c 1B78     	 ldrb r3,[r3]
 807 001e 1846     	 mov r0,r3
 808 0020 FFF7FEFF 	 bl Endpoint_SelectEndpoint
 214:../Dave/Generated/USBD_VCOM/class_driver/device/cdc_class_device.c **** 
 215:../Dave/Generated/USBD_VCOM/class_driver/device/cdc_class_device.c **** 		if (Endpoint_IsINReady())
 809              	 .loc 2 215 0
 810 0024 FFF7FEFF 	 bl Endpoint_IsINReady
 811 0028 0346     	 mov r3,r0
 812 002a 002B     	 cmp r3,#0
 813 002c 02D0     	 beq .L48
 216:../Dave/Generated/USBD_VCOM/class_driver/device/cdc_class_device.c **** 		{
 217:../Dave/Generated/USBD_VCOM/class_driver/device/cdc_class_device.c **** 		  CDC_Device_Flush(CDCInterfaceInfo);
 814              	 .loc 2 217 0
 815 002e 7868     	 ldr r0,[r7,#4]
 816 0030 FFF7FEFF 	 bl CDC_Device_Flush
 817              	.L48:
 218:../Dave/Generated/USBD_VCOM/class_driver/device/cdc_class_device.c **** 		}
 219:../Dave/Generated/USBD_VCOM/class_driver/device/cdc_class_device.c **** 		#endif
 220:../Dave/Generated/USBD_VCOM/class_driver/device/cdc_class_device.c **** 	}
 221:../Dave/Generated/USBD_VCOM/class_driver/device/cdc_class_device.c **** }
 818              	 .loc 2 221 0
 819 0034 0837     	 adds r7,r7,#8
 820              	.LCFI49:
 821              	 .cfi_def_cfa_offset 8
 822 0036 BD46     	 mov sp,r7
 823              	.LCFI50:
 824              	 .cfi_def_cfa_register 13
 825              	 
 826 0038 80BD     	 pop {r7,pc}
 827              	.L51:
 828 003a 00BF     	 .align 2
 829              	.L50:
 830 003c 00000000 	 .word USB_DeviceState
 831              	 .cfi_endproc
 832              	.LFE178:
 834              	 .section .text.CDC_Device_SendString,"ax",%progbits
 835              	 .align 2
 836              	 .global CDC_Device_SendString
 837              	 .thumb
 838              	 .thumb_func
 840              	CDC_Device_SendString:
 841              	.LFB179:
 222:../Dave/Generated/USBD_VCOM/class_driver/device/cdc_class_device.c **** 
 223:../Dave/Generated/USBD_VCOM/class_driver/device/cdc_class_device.c **** uint8_t CDC_Device_SendString(USB_ClassInfo_CDC_Device_t* const CDCInterfaceInfo, const char* const
 224:../Dave/Generated/USBD_VCOM/class_driver/device/cdc_class_device.c **** {
 842              	 .loc 2 224 0
 843              	 .cfi_startproc
 844              	 
 845              	 
 846 0000 80B5     	 push {r7,lr}
 847              	.LCFI51:
 848              	 .cfi_def_cfa_offset 8
 849              	 .cfi_offset 7,-8
 850              	 .cfi_offset 14,-4
 851 0002 84B0     	 sub sp,sp,#16
 852              	.LCFI52:
 853              	 .cfi_def_cfa_offset 24
 854 0004 00AF     	 add r7,sp,#0
 855              	.LCFI53:
 856              	 .cfi_def_cfa_register 7
 857 0006 7860     	 str r0,[r7,#4]
 858 0008 3960     	 str r1,[r7]
 225:../Dave/Generated/USBD_VCOM/class_driver/device/cdc_class_device.c **** 	uint8_t status = 0;
 859              	 .loc 2 225 0
 860 000a 0023     	 movs r3,#0
 861 000c FB73     	 strb r3,[r7,#15]
 226:../Dave/Generated/USBD_VCOM/class_driver/device/cdc_class_device.c **** 	if ((USB_DeviceState == DEVICE_STATE_Configured) &&	(CDCInterfaceInfo->State.LineEncoding.BaudRate
 862              	 .loc 2 226 0
 863 000e 114B     	 ldr r3,.L56
 864 0010 1B78     	 ldrb r3,[r3]
 865 0012 DBB2     	 uxtb r3,r3
 866 0014 042B     	 cmp r3,#4
 867 0016 15D1     	 bne .L53
 868              	 .loc 2 226 0 is_stmt 0 discriminator 1
 869 0018 7B68     	 ldr r3,[r7,#4]
 870 001a 9B69     	 ldr r3,[r3,#24]
 871 001c 002B     	 cmp r3,#0
 872 001e 11D0     	 beq .L53
 227:../Dave/Generated/USBD_VCOM/class_driver/device/cdc_class_device.c **** 	{
 228:../Dave/Generated/USBD_VCOM/class_driver/device/cdc_class_device.c **** 
 229:../Dave/Generated/USBD_VCOM/class_driver/device/cdc_class_device.c **** 		Endpoint_SelectEndpoint(CDCInterfaceInfo->Config.DataINEndpoint.Address);
 873              	 .loc 2 229 0 is_stmt 1
 874 0020 7B68     	 ldr r3,[r7,#4]
 875 0022 1B78     	 ldrb r3,[r3]
 876 0024 1846     	 mov r0,r3
 877 0026 FFF7FEFF 	 bl Endpoint_SelectEndpoint
 230:../Dave/Generated/USBD_VCOM/class_driver/device/cdc_class_device.c **** 		status = Endpoint_Write_Stream_LE(String, strlen(String), NULL);
 878              	 .loc 2 230 0
 879 002a 3868     	 ldr r0,[r7]
 880 002c FFF7FEFF 	 bl strlen
 881 0030 0346     	 mov r3,r0
 882 0032 9BB2     	 uxth r3,r3
 883 0034 3868     	 ldr r0,[r7]
 884 0036 1946     	 mov r1,r3
 885 0038 0022     	 movs r2,#0
 886 003a FFF7FEFF 	 bl Endpoint_Write_Stream_LE
 887 003e 0346     	 mov r3,r0
 888 0040 FB73     	 strb r3,[r7,#15]
 889 0042 01E0     	 b .L54
 890              	.L53:
 231:../Dave/Generated/USBD_VCOM/class_driver/device/cdc_class_device.c **** 	}
 232:../Dave/Generated/USBD_VCOM/class_driver/device/cdc_class_device.c **** 	else
 233:../Dave/Generated/USBD_VCOM/class_driver/device/cdc_class_device.c **** 	{
 234:../Dave/Generated/USBD_VCOM/class_driver/device/cdc_class_device.c **** 		status = ENDPOINT_RWSTREAM_DeviceDisconnected;
 891              	 .loc 2 234 0
 892 0044 0223     	 movs r3,#2
 893 0046 FB73     	 strb r3,[r7,#15]
 894              	.L54:
 235:../Dave/Generated/USBD_VCOM/class_driver/device/cdc_class_device.c **** 	}
 236:../Dave/Generated/USBD_VCOM/class_driver/device/cdc_class_device.c **** 
 237:../Dave/Generated/USBD_VCOM/class_driver/device/cdc_class_device.c **** 	return status;
 895              	 .loc 2 237 0
 896 0048 FB7B     	 ldrb r3,[r7,#15]
 238:../Dave/Generated/USBD_VCOM/class_driver/device/cdc_class_device.c **** }
 897              	 .loc 2 238 0
 898 004a 1846     	 mov r0,r3
 899 004c 1037     	 adds r7,r7,#16
 900              	.LCFI54:
 901              	 .cfi_def_cfa_offset 8
 902 004e BD46     	 mov sp,r7
 903              	.LCFI55:
 904              	 .cfi_def_cfa_register 13
 905              	 
 906 0050 80BD     	 pop {r7,pc}
 907              	.L57:
 908 0052 00BF     	 .align 2
 909              	.L56:
 910 0054 00000000 	 .word USB_DeviceState
 911              	 .cfi_endproc
 912              	.LFE179:
 914              	 .section .text.CDC_Device_SendData,"ax",%progbits
 915              	 .align 2
 916              	 .global CDC_Device_SendData
 917              	 .thumb
 918              	 .thumb_func
 920              	CDC_Device_SendData:
 921              	.LFB180:
 239:../Dave/Generated/USBD_VCOM/class_driver/device/cdc_class_device.c **** 
 240:../Dave/Generated/USBD_VCOM/class_driver/device/cdc_class_device.c **** uint8_t CDC_Device_SendData(USB_ClassInfo_CDC_Device_t* const CDCInterfaceInfo,
 241:../Dave/Generated/USBD_VCOM/class_driver/device/cdc_class_device.c ****                             const void* const Buffer,
 242:../Dave/Generated/USBD_VCOM/class_driver/device/cdc_class_device.c ****                             const uint16_t Length)
 243:../Dave/Generated/USBD_VCOM/class_driver/device/cdc_class_device.c **** {
 922              	 .loc 2 243 0
 923              	 .cfi_startproc
 924              	 
 925              	 
 926 0000 80B5     	 push {r7,lr}
 927              	.LCFI56:
 928              	 .cfi_def_cfa_offset 8
 929              	 .cfi_offset 7,-8
 930              	 .cfi_offset 14,-4
 931 0002 86B0     	 sub sp,sp,#24
 932              	.LCFI57:
 933              	 .cfi_def_cfa_offset 32
 934 0004 00AF     	 add r7,sp,#0
 935              	.LCFI58:
 936              	 .cfi_def_cfa_register 7
 937 0006 F860     	 str r0,[r7,#12]
 938 0008 B960     	 str r1,[r7,#8]
 939 000a 1346     	 mov r3,r2
 940 000c FB80     	 strh r3,[r7,#6]
 244:../Dave/Generated/USBD_VCOM/class_driver/device/cdc_class_device.c **** 	uint8_t status = 0;
 941              	 .loc 2 244 0
 942 000e 0023     	 movs r3,#0
 943 0010 FB75     	 strb r3,[r7,#23]
 245:../Dave/Generated/USBD_VCOM/class_driver/device/cdc_class_device.c **** 	if ((USB_DeviceState == DEVICE_STATE_Configured) &&	(CDCInterfaceInfo->State.LineEncoding.BaudRate
 944              	 .loc 2 245 0
 945 0012 0F4B     	 ldr r3,.L62
 946 0014 1B78     	 ldrb r3,[r3]
 947 0016 DBB2     	 uxtb r3,r3
 948 0018 042B     	 cmp r3,#4
 949 001a 11D1     	 bne .L59
 950              	 .loc 2 245 0 is_stmt 0 discriminator 1
 951 001c FB68     	 ldr r3,[r7,#12]
 952 001e 9B69     	 ldr r3,[r3,#24]
 953 0020 002B     	 cmp r3,#0
 954 0022 0DD0     	 beq .L59
 246:../Dave/Generated/USBD_VCOM/class_driver/device/cdc_class_device.c **** 	{
 247:../Dave/Generated/USBD_VCOM/class_driver/device/cdc_class_device.c **** 
 248:../Dave/Generated/USBD_VCOM/class_driver/device/cdc_class_device.c **** 		Endpoint_SelectEndpoint(CDCInterfaceInfo->Config.DataINEndpoint.Address);
 955              	 .loc 2 248 0 is_stmt 1
 956 0024 FB68     	 ldr r3,[r7,#12]
 957 0026 1B78     	 ldrb r3,[r3]
 958 0028 1846     	 mov r0,r3
 959 002a FFF7FEFF 	 bl Endpoint_SelectEndpoint
 249:../Dave/Generated/USBD_VCOM/class_driver/device/cdc_class_device.c **** 		status = Endpoint_Write_Stream_LE(Buffer, Length, NULL);
 960              	 .loc 2 249 0
 961 002e FB88     	 ldrh r3,[r7,#6]
 962 0030 B868     	 ldr r0,[r7,#8]
 963 0032 1946     	 mov r1,r3
 964 0034 0022     	 movs r2,#0
 965 0036 FFF7FEFF 	 bl Endpoint_Write_Stream_LE
 966 003a 0346     	 mov r3,r0
 967 003c FB75     	 strb r3,[r7,#23]
 968 003e 01E0     	 b .L60
 969              	.L59:
 250:../Dave/Generated/USBD_VCOM/class_driver/device/cdc_class_device.c **** 	}
 251:../Dave/Generated/USBD_VCOM/class_driver/device/cdc_class_device.c **** 	else
 252:../Dave/Generated/USBD_VCOM/class_driver/device/cdc_class_device.c **** 	{
 253:../Dave/Generated/USBD_VCOM/class_driver/device/cdc_class_device.c **** 		status = ENDPOINT_RWSTREAM_DeviceDisconnected;
 970              	 .loc 2 253 0
 971 0040 0223     	 movs r3,#2
 972 0042 FB75     	 strb r3,[r7,#23]
 973              	.L60:
 254:../Dave/Generated/USBD_VCOM/class_driver/device/cdc_class_device.c **** 	}
 255:../Dave/Generated/USBD_VCOM/class_driver/device/cdc_class_device.c **** 	return status;
 974              	 .loc 2 255 0
 975 0044 FB7D     	 ldrb r3,[r7,#23]
 256:../Dave/Generated/USBD_VCOM/class_driver/device/cdc_class_device.c **** }
 976              	 .loc 2 256 0
 977 0046 1846     	 mov r0,r3
 978 0048 1837     	 adds r7,r7,#24
 979              	.LCFI59:
 980              	 .cfi_def_cfa_offset 8
 981 004a BD46     	 mov sp,r7
 982              	.LCFI60:
 983              	 .cfi_def_cfa_register 13
 984              	 
 985 004c 80BD     	 pop {r7,pc}
 986              	.L63:
 987 004e 00BF     	 .align 2
 988              	.L62:
 989 0050 00000000 	 .word USB_DeviceState
 990              	 .cfi_endproc
 991              	.LFE180:
 993              	 .section .text.CDC_Device_SendByte,"ax",%progbits
 994              	 .align 2
 995              	 .global CDC_Device_SendByte
 996              	 .thumb
 997              	 .thumb_func
 999              	CDC_Device_SendByte:
 1000              	.LFB181:
 257:../Dave/Generated/USBD_VCOM/class_driver/device/cdc_class_device.c **** 
 258:../Dave/Generated/USBD_VCOM/class_driver/device/cdc_class_device.c **** uint8_t CDC_Device_SendByte(USB_ClassInfo_CDC_Device_t* const CDCInterfaceInfo,
 259:../Dave/Generated/USBD_VCOM/class_driver/device/cdc_class_device.c ****                             const uint8_t Data)
 260:../Dave/Generated/USBD_VCOM/class_driver/device/cdc_class_device.c **** {
 1001              	 .loc 2 260 0
 1002              	 .cfi_startproc
 1003              	 
 1004              	 
 1005 0000 80B5     	 push {r7,lr}
 1006              	.LCFI61:
 1007              	 .cfi_def_cfa_offset 8
 1008              	 .cfi_offset 7,-8
 1009              	 .cfi_offset 14,-4
 1010 0002 84B0     	 sub sp,sp,#16
 1011              	.LCFI62:
 1012              	 .cfi_def_cfa_offset 24
 1013 0004 00AF     	 add r7,sp,#0
 1014              	.LCFI63:
 1015              	 .cfi_def_cfa_register 7
 1016 0006 7860     	 str r0,[r7,#4]
 1017 0008 0B46     	 mov r3,r1
 1018 000a FB70     	 strb r3,[r7,#3]
 261:../Dave/Generated/USBD_VCOM/class_driver/device/cdc_class_device.c **** 	uint8_t status = 0;
 1019              	 .loc 2 261 0
 1020 000c 0023     	 movs r3,#0
 1021 000e FB73     	 strb r3,[r7,#15]
 262:../Dave/Generated/USBD_VCOM/class_driver/device/cdc_class_device.c **** 	if ((USB_DeviceState == DEVICE_STATE_Configured) &&	(CDCInterfaceInfo->State.LineEncoding.BaudRate
 1022              	 .loc 2 262 0
 1023 0010 134B     	 ldr r3,.L70
 1024 0012 1B78     	 ldrb r3,[r3]
 1025 0014 DBB2     	 uxtb r3,r3
 1026 0016 042B     	 cmp r3,#4
 1027 0018 1BD1     	 bne .L65
 1028              	 .loc 2 262 0 is_stmt 0 discriminator 1
 1029 001a 7B68     	 ldr r3,[r7,#4]
 1030 001c 9B69     	 ldr r3,[r3,#24]
 1031 001e 002B     	 cmp r3,#0
 1032 0020 17D0     	 beq .L65
 263:../Dave/Generated/USBD_VCOM/class_driver/device/cdc_class_device.c **** 	{
 264:../Dave/Generated/USBD_VCOM/class_driver/device/cdc_class_device.c **** 
 265:../Dave/Generated/USBD_VCOM/class_driver/device/cdc_class_device.c **** 		Endpoint_SelectEndpoint(CDCInterfaceInfo->Config.DataINEndpoint.Address);
 1033              	 .loc 2 265 0 is_stmt 1
 1034 0022 7B68     	 ldr r3,[r7,#4]
 1035 0024 1B78     	 ldrb r3,[r3]
 1036 0026 1846     	 mov r0,r3
 1037 0028 FFF7FEFF 	 bl Endpoint_SelectEndpoint
 266:../Dave/Generated/USBD_VCOM/class_driver/device/cdc_class_device.c **** 
 267:../Dave/Generated/USBD_VCOM/class_driver/device/cdc_class_device.c **** 		if (Endpoint_IsReadWriteAllowed())
 1038              	 .loc 2 267 0
 1039 002c FFF7FEFF 	 bl Endpoint_IsReadWriteAllowed
 1040 0030 0346     	 mov r3,r0
 1041 0032 002B     	 cmp r3,#0
 1042 0034 06D0     	 beq .L66
 268:../Dave/Generated/USBD_VCOM/class_driver/device/cdc_class_device.c **** 		{
 269:../Dave/Generated/USBD_VCOM/class_driver/device/cdc_class_device.c **** 			Endpoint_Write_8(Data);
 1043              	 .loc 2 269 0
 1044 0036 FB78     	 ldrb r3,[r7,#3]
 1045 0038 1846     	 mov r0,r3
 1046 003a FFF7FEFF 	 bl Endpoint_Write_8
 270:../Dave/Generated/USBD_VCOM/class_driver/device/cdc_class_device.c **** 			status = ENDPOINT_READYWAIT_NoError;
 1047              	 .loc 2 270 0
 1048 003e 0023     	 movs r3,#0
 1049 0040 FB73     	 strb r3,[r7,#15]
 267:../Dave/Generated/USBD_VCOM/class_driver/device/cdc_class_device.c **** 		{
 1050              	 .loc 2 267 0
 1051 0042 08E0     	 b .L68
 1052              	.L66:
 271:../Dave/Generated/USBD_VCOM/class_driver/device/cdc_class_device.c **** 		}
 272:../Dave/Generated/USBD_VCOM/class_driver/device/cdc_class_device.c **** 		else
 273:../Dave/Generated/USBD_VCOM/class_driver/device/cdc_class_device.c **** 		{
 274:../Dave/Generated/USBD_VCOM/class_driver/device/cdc_class_device.c **** 			Endpoint_ClearIN();
 1053              	 .loc 2 274 0
 1054 0044 FFF7FEFF 	 bl Endpoint_ClearIN
 275:../Dave/Generated/USBD_VCOM/class_driver/device/cdc_class_device.c **** 			status = Endpoint_WaitUntilReady();
 1055              	 .loc 2 275 0
 1056 0048 FFF7FEFF 	 bl Endpoint_WaitUntilReady
 1057 004c 0346     	 mov r3,r0
 1058 004e FB73     	 strb r3,[r7,#15]
 267:../Dave/Generated/USBD_VCOM/class_driver/device/cdc_class_device.c **** 		{
 1059              	 .loc 2 267 0
 1060 0050 01E0     	 b .L68
 1061              	.L65:
 276:../Dave/Generated/USBD_VCOM/class_driver/device/cdc_class_device.c **** 		}
 277:../Dave/Generated/USBD_VCOM/class_driver/device/cdc_class_device.c **** 	}
 278:../Dave/Generated/USBD_VCOM/class_driver/device/cdc_class_device.c **** 	else
 279:../Dave/Generated/USBD_VCOM/class_driver/device/cdc_class_device.c **** 	{
 280:../Dave/Generated/USBD_VCOM/class_driver/device/cdc_class_device.c **** 		status = ENDPOINT_RWSTREAM_DeviceDisconnected;
 1062              	 .loc 2 280 0
 1063 0052 0223     	 movs r3,#2
 1064 0054 FB73     	 strb r3,[r7,#15]
 1065              	.L68:
 281:../Dave/Generated/USBD_VCOM/class_driver/device/cdc_class_device.c **** 	}
 282:../Dave/Generated/USBD_VCOM/class_driver/device/cdc_class_device.c **** 
 283:../Dave/Generated/USBD_VCOM/class_driver/device/cdc_class_device.c **** 	return status;
 1066              	 .loc 2 283 0
 1067 0056 FB7B     	 ldrb r3,[r7,#15]
 284:../Dave/Generated/USBD_VCOM/class_driver/device/cdc_class_device.c **** 
 285:../Dave/Generated/USBD_VCOM/class_driver/device/cdc_class_device.c **** }
 1068              	 .loc 2 285 0
 1069 0058 1846     	 mov r0,r3
 1070 005a 1037     	 adds r7,r7,#16
 1071              	.LCFI64:
 1072              	 .cfi_def_cfa_offset 8
 1073 005c BD46     	 mov sp,r7
 1074              	.LCFI65:
 1075              	 .cfi_def_cfa_register 13
 1076              	 
 1077 005e 80BD     	 pop {r7,pc}
 1078              	.L71:
 1079              	 .align 2
 1080              	.L70:
 1081 0060 00000000 	 .word USB_DeviceState
 1082              	 .cfi_endproc
 1083              	.LFE181:
 1085              	 .section .text.CDC_Device_Flush,"ax",%progbits
 1086              	 .align 2
 1087              	 .global CDC_Device_Flush
 1088              	 .thumb
 1089              	 .thumb_func
 1091              	CDC_Device_Flush:
 1092              	.LFB182:
 286:../Dave/Generated/USBD_VCOM/class_driver/device/cdc_class_device.c **** 
 287:../Dave/Generated/USBD_VCOM/class_driver/device/cdc_class_device.c **** uint8_t CDC_Device_Flush(USB_ClassInfo_CDC_Device_t* const CDCInterfaceInfo)
 288:../Dave/Generated/USBD_VCOM/class_driver/device/cdc_class_device.c **** {
 1093              	 .loc 2 288 0
 1094              	 .cfi_startproc
 1095              	 
 1096              	 
 1097 0000 80B5     	 push {r7,lr}
 1098              	.LCFI66:
 1099              	 .cfi_def_cfa_offset 8
 1100              	 .cfi_offset 7,-8
 1101              	 .cfi_offset 14,-4
 1102 0002 84B0     	 sub sp,sp,#16
 1103              	.LCFI67:
 1104              	 .cfi_def_cfa_offset 24
 1105 0004 00AF     	 add r7,sp,#0
 1106              	.LCFI68:
 1107              	 .cfi_def_cfa_register 7
 1108 0006 7860     	 str r0,[r7,#4]
 289:../Dave/Generated/USBD_VCOM/class_driver/device/cdc_class_device.c **** 	uint8_t status = 0;
 1109              	 .loc 2 289 0
 1110 0008 0023     	 movs r3,#0
 1111 000a FB73     	 strb r3,[r7,#15]
 290:../Dave/Generated/USBD_VCOM/class_driver/device/cdc_class_device.c **** 	if ((USB_DeviceState == DEVICE_STATE_Configured) &&	(CDCInterfaceInfo->State.LineEncoding.BaudRate
 1112              	 .loc 2 290 0
 1113 000c 0F4B     	 ldr r3,.L77
 1114 000e 1B78     	 ldrb r3,[r3]
 1115 0010 DBB2     	 uxtb r3,r3
 1116 0012 042B     	 cmp r3,#4
 1117 0014 12D1     	 bne .L73
 1118              	 .loc 2 290 0 is_stmt 0 discriminator 1
 1119 0016 7B68     	 ldr r3,[r7,#4]
 1120 0018 9B69     	 ldr r3,[r3,#24]
 1121 001a 002B     	 cmp r3,#0
 1122 001c 0ED0     	 beq .L73
 291:../Dave/Generated/USBD_VCOM/class_driver/device/cdc_class_device.c **** 	{
 292:../Dave/Generated/USBD_VCOM/class_driver/device/cdc_class_device.c **** 		Endpoint_SelectEndpoint(CDCInterfaceInfo->Config.DataINEndpoint.Address);
 1123              	 .loc 2 292 0 is_stmt 1
 1124 001e 7B68     	 ldr r3,[r7,#4]
 1125 0020 1B78     	 ldrb r3,[r3]
 1126 0022 1846     	 mov r0,r3
 1127 0024 FFF7FEFF 	 bl Endpoint_SelectEndpoint
 293:../Dave/Generated/USBD_VCOM/class_driver/device/cdc_class_device.c **** 
 294:../Dave/Generated/USBD_VCOM/class_driver/device/cdc_class_device.c **** 		if (Endpoint_BytesInEndpoint())
 1128              	 .loc 2 294 0
 1129 0028 FFF7FEFF 	 bl Endpoint_BytesInEndpoint
 1130 002c 0346     	 mov r3,r0
 1131 002e 002B     	 cmp r3,#0
 1132 0030 01D0     	 beq .L74
 295:../Dave/Generated/USBD_VCOM/class_driver/device/cdc_class_device.c **** 		{
 296:../Dave/Generated/USBD_VCOM/class_driver/device/cdc_class_device.c **** 			Endpoint_ClearIN();
 1133              	 .loc 2 296 0
 1134 0032 FFF7FEFF 	 bl Endpoint_ClearIN
 1135              	.L74:
 297:../Dave/Generated/USBD_VCOM/class_driver/device/cdc_class_device.c **** 		}
 298:../Dave/Generated/USBD_VCOM/class_driver/device/cdc_class_device.c **** 
 299:../Dave/Generated/USBD_VCOM/class_driver/device/cdc_class_device.c **** 		status = ENDPOINT_READYWAIT_NoError;
 1136              	 .loc 2 299 0
 1137 0036 0023     	 movs r3,#0
 1138 0038 FB73     	 strb r3,[r7,#15]
 1139 003a 01E0     	 b .L75
 1140              	.L73:
 300:../Dave/Generated/USBD_VCOM/class_driver/device/cdc_class_device.c **** 	}
 301:../Dave/Generated/USBD_VCOM/class_driver/device/cdc_class_device.c **** 	else
 302:../Dave/Generated/USBD_VCOM/class_driver/device/cdc_class_device.c **** 	{
 303:../Dave/Generated/USBD_VCOM/class_driver/device/cdc_class_device.c **** 		status = ENDPOINT_RWSTREAM_DeviceDisconnected;
 1141              	 .loc 2 303 0
 1142 003c 0223     	 movs r3,#2
 1143 003e FB73     	 strb r3,[r7,#15]
 1144              	.L75:
 304:../Dave/Generated/USBD_VCOM/class_driver/device/cdc_class_device.c **** 	}
 305:../Dave/Generated/USBD_VCOM/class_driver/device/cdc_class_device.c **** 
 306:../Dave/Generated/USBD_VCOM/class_driver/device/cdc_class_device.c **** 	return status;
 1145              	 .loc 2 306 0
 1146 0040 FB7B     	 ldrb r3,[r7,#15]
 307:../Dave/Generated/USBD_VCOM/class_driver/device/cdc_class_device.c **** }
 1147              	 .loc 2 307 0
 1148 0042 1846     	 mov r0,r3
 1149 0044 1037     	 adds r7,r7,#16
 1150              	.LCFI69:
 1151              	 .cfi_def_cfa_offset 8
 1152 0046 BD46     	 mov sp,r7
 1153              	.LCFI70:
 1154              	 .cfi_def_cfa_register 13
 1155              	 
 1156 0048 80BD     	 pop {r7,pc}
 1157              	.L78:
 1158 004a 00BF     	 .align 2
 1159              	.L77:
 1160 004c 00000000 	 .word USB_DeviceState
 1161              	 .cfi_endproc
 1162              	.LFE182:
 1164              	 .section .text.CDC_Device_BytesReceived,"ax",%progbits
 1165              	 .align 2
 1166              	 .global CDC_Device_BytesReceived
 1167              	 .thumb
 1168              	 .thumb_func
 1170              	CDC_Device_BytesReceived:
 1171              	.LFB183:
 308:../Dave/Generated/USBD_VCOM/class_driver/device/cdc_class_device.c **** 
 309:../Dave/Generated/USBD_VCOM/class_driver/device/cdc_class_device.c **** uint16_t CDC_Device_BytesReceived(USB_ClassInfo_CDC_Device_t* const CDCInterfaceInfo)
 310:../Dave/Generated/USBD_VCOM/class_driver/device/cdc_class_device.c **** {
 1172              	 .loc 2 310 0
 1173              	 .cfi_startproc
 1174              	 
 1175              	 
 1176 0000 80B5     	 push {r7,lr}
 1177              	.LCFI71:
 1178              	 .cfi_def_cfa_offset 8
 1179              	 .cfi_offset 7,-8
 1180              	 .cfi_offset 14,-4
 1181 0002 84B0     	 sub sp,sp,#16
 1182              	.LCFI72:
 1183              	 .cfi_def_cfa_offset 24
 1184 0004 00AF     	 add r7,sp,#0
 1185              	.LCFI73:
 1186              	 .cfi_def_cfa_register 7
 1187 0006 7860     	 str r0,[r7,#4]
 311:../Dave/Generated/USBD_VCOM/class_driver/device/cdc_class_device.c **** 	uint16_t bytes = 0;
 1188              	 .loc 2 311 0
 1189 0008 0023     	 movs r3,#0
 1190 000a FB81     	 strh r3,[r7,#14]
 312:../Dave/Generated/USBD_VCOM/class_driver/device/cdc_class_device.c **** 	if ((USB_DeviceState == DEVICE_STATE_Configured) &&	(CDCInterfaceInfo->State.LineEncoding.BaudRate
 1191              	 .loc 2 312 0
 1192 000c 144B     	 ldr r3,.L85
 1193 000e 1B78     	 ldrb r3,[r3]
 1194 0010 DBB2     	 uxtb r3,r3
 1195 0012 042B     	 cmp r3,#4
 1196 0014 1ED1     	 bne .L80
 1197              	 .loc 2 312 0 is_stmt 0 discriminator 1
 1198 0016 7B68     	 ldr r3,[r7,#4]
 1199 0018 9B69     	 ldr r3,[r3,#24]
 1200 001a 002B     	 cmp r3,#0
 1201 001c 1AD0     	 beq .L80
 313:../Dave/Generated/USBD_VCOM/class_driver/device/cdc_class_device.c **** 	{
 314:../Dave/Generated/USBD_VCOM/class_driver/device/cdc_class_device.c **** 
 315:../Dave/Generated/USBD_VCOM/class_driver/device/cdc_class_device.c **** 		Endpoint_SelectEndpoint(CDCInterfaceInfo->Config.DataOUTEndpoint.Address);
 1202              	 .loc 2 315 0 is_stmt 1
 1203 001e 7B68     	 ldr r3,[r7,#4]
 1204 0020 9B79     	 ldrb r3,[r3,#6]
 1205 0022 1846     	 mov r0,r3
 1206 0024 FFF7FEFF 	 bl Endpoint_SelectEndpoint
 316:../Dave/Generated/USBD_VCOM/class_driver/device/cdc_class_device.c **** 
 317:../Dave/Generated/USBD_VCOM/class_driver/device/cdc_class_device.c **** 		if (Endpoint_IsOUTReceived())
 1207              	 .loc 2 317 0
 1208 0028 FFF7FEFF 	 bl Endpoint_IsOUTReceived
 1209 002c 0346     	 mov r3,r0
 1210 002e 002B     	 cmp r3,#0
 1211 0030 0ED0     	 beq .L81
 318:../Dave/Generated/USBD_VCOM/class_driver/device/cdc_class_device.c **** 		{
 319:../Dave/Generated/USBD_VCOM/class_driver/device/cdc_class_device.c **** 			if (!(Endpoint_BytesInEndpoint()))
 1212              	 .loc 2 319 0
 1213 0032 FFF7FEFF 	 bl Endpoint_BytesInEndpoint
 1214 0036 0346     	 mov r3,r0
 1215 0038 002B     	 cmp r3,#0
 1216 003a 04D1     	 bne .L82
 320:../Dave/Generated/USBD_VCOM/class_driver/device/cdc_class_device.c **** 			{
 321:../Dave/Generated/USBD_VCOM/class_driver/device/cdc_class_device.c **** 				Endpoint_ClearOUT();
 1217              	 .loc 2 321 0
 1218 003c FFF7FEFF 	 bl Endpoint_ClearOUT
 322:../Dave/Generated/USBD_VCOM/class_driver/device/cdc_class_device.c **** 				bytes = 0;
 1219              	 .loc 2 322 0
 1220 0040 0023     	 movs r3,#0
 1221 0042 FB81     	 strh r3,[r7,#14]
 1222 0044 06E0     	 b .L80
 1223              	.L82:
 323:../Dave/Generated/USBD_VCOM/class_driver/device/cdc_class_device.c **** 			}
 324:../Dave/Generated/USBD_VCOM/class_driver/device/cdc_class_device.c **** 			else
 325:../Dave/Generated/USBD_VCOM/class_driver/device/cdc_class_device.c **** 			{
 326:../Dave/Generated/USBD_VCOM/class_driver/device/cdc_class_device.c **** 				bytes = Endpoint_BytesInEndpoint();
 1224              	 .loc 2 326 0
 1225 0046 FFF7FEFF 	 bl Endpoint_BytesInEndpoint
 1226 004a 0346     	 mov r3,r0
 1227 004c FB81     	 strh r3,[r7,#14]
 1228 004e 01E0     	 b .L80
 1229              	.L81:
 327:../Dave/Generated/USBD_VCOM/class_driver/device/cdc_class_device.c **** 			}
 328:../Dave/Generated/USBD_VCOM/class_driver/device/cdc_class_device.c **** 		}
 329:../Dave/Generated/USBD_VCOM/class_driver/device/cdc_class_device.c **** 		else
 330:../Dave/Generated/USBD_VCOM/class_driver/device/cdc_class_device.c **** 		{
 331:../Dave/Generated/USBD_VCOM/class_driver/device/cdc_class_device.c **** 			bytes = 0;
 1230              	 .loc 2 331 0
 1231 0050 0023     	 movs r3,#0
 1232 0052 FB81     	 strh r3,[r7,#14]
 1233              	.L80:
 332:../Dave/Generated/USBD_VCOM/class_driver/device/cdc_class_device.c **** 		}
 333:../Dave/Generated/USBD_VCOM/class_driver/device/cdc_class_device.c **** 	}
 334:../Dave/Generated/USBD_VCOM/class_driver/device/cdc_class_device.c **** 
 335:../Dave/Generated/USBD_VCOM/class_driver/device/cdc_class_device.c **** 	return bytes;
 1234              	 .loc 2 335 0
 1235 0054 FB89     	 ldrh r3,[r7,#14]
 336:../Dave/Generated/USBD_VCOM/class_driver/device/cdc_class_device.c **** }
 1236              	 .loc 2 336 0
 1237 0056 1846     	 mov r0,r3
 1238 0058 1037     	 adds r7,r7,#16
 1239              	.LCFI74:
 1240              	 .cfi_def_cfa_offset 8
 1241 005a BD46     	 mov sp,r7
 1242              	.LCFI75:
 1243              	 .cfi_def_cfa_register 13
 1244              	 
 1245 005c 80BD     	 pop {r7,pc}
 1246              	.L86:
 1247 005e 00BF     	 .align 2
 1248              	.L85:
 1249 0060 00000000 	 .word USB_DeviceState
 1250              	 .cfi_endproc
 1251              	.LFE183:
 1253              	 .section .text.CDC_Device_ReceiveByte,"ax",%progbits
 1254              	 .align 2
 1255              	 .global CDC_Device_ReceiveByte
 1256              	 .thumb
 1257              	 .thumb_func
 1259              	CDC_Device_ReceiveByte:
 1260              	.LFB184:
 337:../Dave/Generated/USBD_VCOM/class_driver/device/cdc_class_device.c **** 
 338:../Dave/Generated/USBD_VCOM/class_driver/device/cdc_class_device.c **** int16_t CDC_Device_ReceiveByte(
 339:../Dave/Generated/USBD_VCOM/class_driver/device/cdc_class_device.c **** 						USB_ClassInfo_CDC_Device_t* const CDCInterfaceInfo)
 340:../Dave/Generated/USBD_VCOM/class_driver/device/cdc_class_device.c **** {
 1261              	 .loc 2 340 0
 1262              	 .cfi_startproc
 1263              	 
 1264              	 
 1265 0000 80B5     	 push {r7,lr}
 1266              	.LCFI76:
 1267              	 .cfi_def_cfa_offset 8
 1268              	 .cfi_offset 7,-8
 1269              	 .cfi_offset 14,-4
 1270 0002 84B0     	 sub sp,sp,#16
 1271              	.LCFI77:
 1272              	 .cfi_def_cfa_offset 24
 1273 0004 00AF     	 add r7,sp,#0
 1274              	.LCFI78:
 1275              	 .cfi_def_cfa_register 7
 1276 0006 7860     	 str r0,[r7,#4]
 341:../Dave/Generated/USBD_VCOM/class_driver/device/cdc_class_device.c **** 	int16_t Rx_bytes = -1;
 1277              	 .loc 2 341 0
 1278 0008 4FF6FF73 	 movw r3,#65535
 1279 000c FB81     	 strh r3,[r7,#14]
 342:../Dave/Generated/USBD_VCOM/class_driver/device/cdc_class_device.c **** 	if ((USB_DeviceState == DEVICE_STATE_Configured) &&	(CDCInterfaceInfo->State.LineEncoding.BaudRate
 1280              	 .loc 2 342 0
 1281 000e 124B     	 ldr r3,.L91
 1282 0010 1B78     	 ldrb r3,[r3]
 1283 0012 DBB2     	 uxtb r3,r3
 1284 0014 042B     	 cmp r3,#4
 1285 0016 19D1     	 bne .L88
 1286              	 .loc 2 342 0 is_stmt 0 discriminator 1
 1287 0018 7B68     	 ldr r3,[r7,#4]
 1288 001a 9B69     	 ldr r3,[r3,#24]
 1289 001c 002B     	 cmp r3,#0
 1290 001e 15D0     	 beq .L88
 343:../Dave/Generated/USBD_VCOM/class_driver/device/cdc_class_device.c **** 	{
 344:../Dave/Generated/USBD_VCOM/class_driver/device/cdc_class_device.c **** 		Endpoint_SelectEndpoint(CDCInterfaceInfo->Config.DataOUTEndpoint.Address);
 1291              	 .loc 2 344 0 is_stmt 1
 1292 0020 7B68     	 ldr r3,[r7,#4]
 1293 0022 9B79     	 ldrb r3,[r3,#6]
 1294 0024 1846     	 mov r0,r3
 1295 0026 FFF7FEFF 	 bl Endpoint_SelectEndpoint
 345:../Dave/Generated/USBD_VCOM/class_driver/device/cdc_class_device.c **** 
 346:../Dave/Generated/USBD_VCOM/class_driver/device/cdc_class_device.c **** 		if (Endpoint_IsOUTReceived())
 1296              	 .loc 2 346 0
 1297 002a FFF7FEFF 	 bl Endpoint_IsOUTReceived
 1298 002e 0346     	 mov r3,r0
 1299 0030 002B     	 cmp r3,#0
 1300 0032 0BD0     	 beq .L88
 347:../Dave/Generated/USBD_VCOM/class_driver/device/cdc_class_device.c **** 		{
 348:../Dave/Generated/USBD_VCOM/class_driver/device/cdc_class_device.c **** 			if (Endpoint_BytesInEndpoint())
 1301              	 .loc 2 348 0
 1302 0034 FFF7FEFF 	 bl Endpoint_BytesInEndpoint
 1303 0038 0346     	 mov r3,r0
 1304 003a 002B     	 cmp r3,#0
 1305 003c 04D0     	 beq .L89
 349:../Dave/Generated/USBD_VCOM/class_driver/device/cdc_class_device.c **** 			{
 350:../Dave/Generated/USBD_VCOM/class_driver/device/cdc_class_device.c **** 				Rx_bytes = Endpoint_Read_8();
 1306              	 .loc 2 350 0
 1307 003e FFF7FEFF 	 bl Endpoint_Read_8
 1308 0042 0346     	 mov r3,r0
 1309 0044 FB81     	 strh r3,[r7,#14]
 1310 0046 01E0     	 b .L88
 1311              	.L89:
 351:../Dave/Generated/USBD_VCOM/class_driver/device/cdc_class_device.c **** 			}
 352:../Dave/Generated/USBD_VCOM/class_driver/device/cdc_class_device.c **** 			else
 353:../Dave/Generated/USBD_VCOM/class_driver/device/cdc_class_device.c **** 			{
 354:../Dave/Generated/USBD_VCOM/class_driver/device/cdc_class_device.c **** 				Endpoint_ClearOUT();
 1312              	 .loc 2 354 0
 1313 0048 FFF7FEFF 	 bl Endpoint_ClearOUT
 1314              	.L88:
 355:../Dave/Generated/USBD_VCOM/class_driver/device/cdc_class_device.c **** 			}
 356:../Dave/Generated/USBD_VCOM/class_driver/device/cdc_class_device.c **** 
 357:../Dave/Generated/USBD_VCOM/class_driver/device/cdc_class_device.c **** 		}
 358:../Dave/Generated/USBD_VCOM/class_driver/device/cdc_class_device.c **** 
 359:../Dave/Generated/USBD_VCOM/class_driver/device/cdc_class_device.c **** 	}
 360:../Dave/Generated/USBD_VCOM/class_driver/device/cdc_class_device.c **** 	return Rx_bytes;
 1315              	 .loc 2 360 0
 1316 004c FB89     	 ldrh r3,[r7,#14]
 1317 004e 1BB2     	 sxth r3,r3
 361:../Dave/Generated/USBD_VCOM/class_driver/device/cdc_class_device.c **** }
 1318              	 .loc 2 361 0
 1319 0050 1846     	 mov r0,r3
 1320 0052 1037     	 adds r7,r7,#16
 1321              	.LCFI79:
 1322              	 .cfi_def_cfa_offset 8
 1323 0054 BD46     	 mov sp,r7
 1324              	.LCFI80:
 1325              	 .cfi_def_cfa_register 13
 1326              	 
 1327 0056 80BD     	 pop {r7,pc}
 1328              	.L92:
 1329              	 .align 2
 1330              	.L91:
 1331 0058 00000000 	 .word USB_DeviceState
 1332              	 .cfi_endproc
 1333              	.LFE184:
 1335              	 .section .rodata
 1336              	 .align 2
 1337              	.LC0:
 1338 0000 A1       	 .byte -95
 1339 0001 20       	 .byte 32
 1340 0002 0000     	 .short 0
 1341 0004 0000     	 .short 0
 1342 0006 0200     	 .short 2
 1343              	 .section .text.CDC_Device_SendControlLineStateChange,"ax",%progbits
 1344              	 .align 2
 1345              	 .global CDC_Device_SendControlLineStateChange
 1346              	 .thumb
 1347              	 .thumb_func
 1349              	CDC_Device_SendControlLineStateChange:
 1350              	.LFB185:
 362:../Dave/Generated/USBD_VCOM/class_driver/device/cdc_class_device.c **** 
 363:../Dave/Generated/USBD_VCOM/class_driver/device/cdc_class_device.c **** void CDC_Device_SendControlLineStateChange(
 364:../Dave/Generated/USBD_VCOM/class_driver/device/cdc_class_device.c **** 						USB_ClassInfo_CDC_Device_t* const CDCInterfaceInfo)
 365:../Dave/Generated/USBD_VCOM/class_driver/device/cdc_class_device.c **** {
 1351              	 .loc 2 365 0
 1352              	 .cfi_startproc
 1353              	 
 1354              	 
 1355 0000 80B5     	 push {r7,lr}
 1356              	.LCFI81:
 1357              	 .cfi_def_cfa_offset 8
 1358              	 .cfi_offset 7,-8
 1359              	 .cfi_offset 14,-4
 1360 0002 84B0     	 sub sp,sp,#16
 1361              	.LCFI82:
 1362              	 .cfi_def_cfa_offset 24
 1363 0004 00AF     	 add r7,sp,#0
 1364              	.LCFI83:
 1365              	 .cfi_def_cfa_register 7
 1366 0006 7860     	 str r0,[r7,#4]
 366:../Dave/Generated/USBD_VCOM/class_driver/device/cdc_class_device.c **** 	if ((USB_DeviceState == DEVICE_STATE_Configured) &&	(CDCInterfaceInfo->State.LineEncoding.BaudRate
 1367              	 .loc 2 366 0
 1368 0008 134B     	 ldr r3,.L95
 1369 000a 1B78     	 ldrb r3,[r3]
 1370 000c DBB2     	 uxtb r3,r3
 1371 000e 042B     	 cmp r3,#4
 1372 0010 1ED1     	 bne .L93
 1373              	 .loc 2 366 0 is_stmt 0 discriminator 1
 1374 0012 7B68     	 ldr r3,[r7,#4]
 1375 0014 9B69     	 ldr r3,[r3,#24]
 1376 0016 002B     	 cmp r3,#0
 1377 0018 1AD0     	 beq .L93
 1378              	.LBB2:
 367:../Dave/Generated/USBD_VCOM/class_driver/device/cdc_class_device.c **** 	{
 368:../Dave/Generated/USBD_VCOM/class_driver/device/cdc_class_device.c **** 
 369:../Dave/Generated/USBD_VCOM/class_driver/device/cdc_class_device.c **** 		Endpoint_SelectEndpoint(CDCInterfaceInfo->Config.NotificationEndpoint.Address);
 1379              	 .loc 2 369 0 is_stmt 1
 1380 001a 7B68     	 ldr r3,[r7,#4]
 1381 001c 1B7B     	 ldrb r3,[r3,#12]
 1382 001e 1846     	 mov r0,r3
 1383 0020 FFF7FEFF 	 bl Endpoint_SelectEndpoint
 370:../Dave/Generated/USBD_VCOM/class_driver/device/cdc_class_device.c **** 
 371:../Dave/Generated/USBD_VCOM/class_driver/device/cdc_class_device.c **** 		USB_Request_Header_t Notification = (USB_Request_Header_t)
 1384              	 .loc 2 371 0
 1385 0024 0D4A     	 ldr r2,.L95+4
 1386 0026 07F10803 	 add r3,r7,#8
 1387 002a 1068     	 ldr r0,[r2]
 1388 002c 5168     	 ldr r1,[r2,#4]
 1389 002e 03C3     	 stmia r3!,{r0,r1}
 372:../Dave/Generated/USBD_VCOM/class_driver/device/cdc_class_device.c **** 			{
 373:../Dave/Generated/USBD_VCOM/class_driver/device/cdc_class_device.c **** 				.bmRequestType = (REQDIR_DEVICETOHOST | REQTYPE_CLASS |	REQREC_INTERFACE),
 374:../Dave/Generated/USBD_VCOM/class_driver/device/cdc_class_device.c **** 				.bRequest      = CDC_NOTIF_SerialState,
 375:../Dave/Generated/USBD_VCOM/class_driver/device/cdc_class_device.c **** 				.wValue        = 0,
 376:../Dave/Generated/USBD_VCOM/class_driver/device/cdc_class_device.c **** 				.wIndex        = 0,
 377:../Dave/Generated/USBD_VCOM/class_driver/device/cdc_class_device.c **** 				.wLength       = sizeof(CDCInterfaceInfo->State.ControlLineStates.DeviceToHost),
 378:../Dave/Generated/USBD_VCOM/class_driver/device/cdc_class_device.c **** 			};
 379:../Dave/Generated/USBD_VCOM/class_driver/device/cdc_class_device.c **** 
 380:../Dave/Generated/USBD_VCOM/class_driver/device/cdc_class_device.c **** 		Endpoint_Write_Stream_LE(&Notification, sizeof(USB_Request_Header_t), NULL);
 1390              	 .loc 2 380 0
 1391 0030 07F10803 	 add r3,r7,#8
 1392 0034 1846     	 mov r0,r3
 1393 0036 0821     	 movs r1,#8
 1394 0038 0022     	 movs r2,#0
 1395 003a FFF7FEFF 	 bl Endpoint_Write_Stream_LE
 381:../Dave/Generated/USBD_VCOM/class_driver/device/cdc_class_device.c **** 		Endpoint_Write_Stream_LE(&CDCInterfaceInfo->State.ControlLineStates.DeviceToHost,
 1396              	 .loc 2 381 0
 1397 003e 7B68     	 ldr r3,[r7,#4]
 1398 0040 1633     	 adds r3,r3,#22
 1399 0042 1846     	 mov r0,r3
 1400 0044 0221     	 movs r1,#2
 1401 0046 0022     	 movs r2,#0
 1402 0048 FFF7FEFF 	 bl Endpoint_Write_Stream_LE
 382:../Dave/Generated/USBD_VCOM/class_driver/device/cdc_class_device.c **** 				sizeof(CDCInterfaceInfo->State.ControlLineStates.DeviceToHost), NULL);
 383:../Dave/Generated/USBD_VCOM/class_driver/device/cdc_class_device.c **** 		Endpoint_ClearIN();
 1403              	 .loc 2 383 0
 1404 004c FFF7FEFF 	 bl Endpoint_ClearIN
 1405              	.L93:
 1406              	.LBE2:
 384:../Dave/Generated/USBD_VCOM/class_driver/device/cdc_class_device.c **** 	}
 385:../Dave/Generated/USBD_VCOM/class_driver/device/cdc_class_device.c **** }
 1407              	 .loc 2 385 0
 1408 0050 1037     	 adds r7,r7,#16
 1409              	.LCFI84:
 1410              	 .cfi_def_cfa_offset 8
 1411 0052 BD46     	 mov sp,r7
 1412              	.LCFI85:
 1413              	 .cfi_def_cfa_register 13
 1414              	 
 1415 0054 80BD     	 pop {r7,pc}
 1416              	.L96:
 1417 0056 00BF     	 .align 2
 1418              	.L95:
 1419 0058 00000000 	 .word USB_DeviceState
 1420 005c 00000000 	 .word .LC0
 1421              	 .cfi_endproc
 1422              	.LFE185:
 1424              	 .text
 1425              	.Letext0:
 1426              	 .file 3 "c:\\davev4\\dave-4.1.2\\eclipse\\arm-gcc-49\\arm-none-eabi\\include\\machine\\_default_types.h"
 1427              	 .file 4 "c:\\davev4\\dave-4.1.2\\eclipse\\arm-gcc-49\\arm-none-eabi\\include\\stdint.h"
 1428              	 .file 5 "../Dave/Generated/USBD_VCOM/class_driver/device/../../../USBD/usb/core/endpoint.h"
 1429              	 .file 6 "C:\\Workspaces\\DAVE-4.1\\Flightcontroller_PWM_CopterRocks_Working/Libraries/CMSIS/Infineon/XMC4500_series/Include/XMC4500.h"
 1430              	 .file 7 "C:\\Workspaces\\DAVE-4.1\\Flightcontroller_PWM_CopterRocks_Working\\Libraries\\XMCLib\\inc/xmc_usbd_regs.h"
 1431              	 .file 8 "C:\\Workspaces\\DAVE-4.1\\Flightcontroller_PWM_CopterRocks_Working\\Libraries\\XMCLib\\inc/xmc_usbd.h"
 1432              	 .file 9 "c:\\workspaces\\dave-4.1\\flightcontroller_pwm_copterrocks_working\\dave\\generated\\usbd\\usbd.h"
 1433              	 .file 10 "../Dave/Generated/USBD_VCOM/class_driver/device/../../../USBD/usb/core/endpoint_stream.h"
 1434              	 .file 11 "../Dave/Generated/USBD_VCOM/class_driver/device/../../../USBD/usb/core/std_request_type.h"
 1435              	 .file 12 "../Dave/Generated/USBD_VCOM/class_driver/device/../../../USBD/usb/core/device.h"
 1436              	 .file 13 "../Dave/Generated/USBD_VCOM/class_driver/device/../common/cdc_class_common.h"
 1437              	 .file 14 "../Dave/Generated/USBD_VCOM/class_driver/device/cdc_class_device.h"
 1438              	 .file 15 "../Dave/Generated/USBD_VCOM/class_driver/device/../../usbd_vcom.h"
 1439              	 .file 16 "C:\\Workspaces\\DAVE-4.1\\Flightcontroller_PWM_CopterRocks_Working/Libraries/CMSIS/Include/core_cm4.h"
 1440              	 .file 17 "C:\\Workspaces\\DAVE-4.1\\Flightcontroller_PWM_CopterRocks_Working/Libraries/CMSIS/Infineon/XMC4500_series/Include/system_XMC4500.h"
 1441              	 .file 18 "c:\\workspaces\\dave-4.1\\flightcontroller_pwm_copterrocks_working\\dave\\generated\\usbd\\usbd_extern.h"
 1442              	 .file 19 "../Dave/Generated/USBD_VCOM/class_driver/device/../../../USBD/usb/core/usb_task.h"